
bitfield.o:     file format elf32-littlearm


Disassembly of section .text:

00000000 <zero_reg>:
       0:	2200      	movs	r2, #0
       2:	4b01      	ldr	r3, [pc, #4]	; (8 <zero_reg+0x8>)
       4:	605a      	str	r2, [r3, #4]
       6:	4770      	bx	lr
       8:	10001dc0 	.word	0x10001dc0

0000000c <zero_array>:
       c:	2200      	movs	r2, #0
       e:	4b01      	ldr	r3, [pc, #4]	; (14 <zero_array+0x8>)
      10:	62da      	str	r2, [r3, #44]	; 0x2c
      12:	4770      	bx	lr
      14:	10001c00 	.word	0x10001c00

00000018 <set_singl_bits_operator>:
      18:	2140      	movs	r1, #64	; 0x40
      1a:	4a02      	ldr	r2, [pc, #8]	; (24 <set_singl_bits_operator+0xc>)
      1c:	6853      	ldr	r3, [r2, #4]
      1e:	430b      	orrs	r3, r1
      20:	6053      	str	r3, [r2, #4]
      22:	4770      	bx	lr
      24:	10001dc0 	.word	0x10001dc0

00000028 <set_singl_bits_method>:
      28:	2140      	movs	r1, #64	; 0x40
      2a:	4a02      	ldr	r2, [pc, #8]	; (34 <set_singl_bits_method+0xc>)
      2c:	6853      	ldr	r3, [r2, #4]
      2e:	430b      	orrs	r3, r1
      30:	6053      	str	r3, [r2, #4]
      32:	4770      	bx	lr
      34:	10001dc0 	.word	0x10001dc0

00000038 <clr_singl_bits_operator>:
      38:	2140      	movs	r1, #64	; 0x40
      3a:	4a02      	ldr	r2, [pc, #8]	; (44 <clr_singl_bits_operator+0xc>)
      3c:	6853      	ldr	r3, [r2, #4]
      3e:	438b      	bics	r3, r1
      40:	6053      	str	r3, [r2, #4]
      42:	4770      	bx	lr
      44:	10001dc0 	.word	0x10001dc0

00000048 <clr_singl_bits_method>:
      48:	2140      	movs	r1, #64	; 0x40
      4a:	4a02      	ldr	r2, [pc, #8]	; (54 <clr_singl_bits_method+0xc>)
      4c:	6853      	ldr	r3, [r2, #4]
      4e:	438b      	bics	r3, r1
      50:	6053      	str	r3, [r2, #4]
      52:	4770      	bx	lr
      54:	10001dc0 	.word	0x10001dc0

00000058 <set_singl_mskd_operator>:
      58:	2201      	movs	r2, #1
      5a:	2006      	movs	r0, #6
      5c:	4905      	ldr	r1, [pc, #20]	; (74 <set_singl_mskd_operator+0x1c>)
      5e:	684b      	ldr	r3, [r1, #4]
      60:	075b      	lsls	r3, r3, #29
      62:	0f9b      	lsrs	r3, r3, #30
      64:	4313      	orrs	r3, r2
      66:	684a      	ldr	r2, [r1, #4]
      68:	005b      	lsls	r3, r3, #1
      6a:	4382      	bics	r2, r0
      6c:	4313      	orrs	r3, r2
      6e:	604b      	str	r3, [r1, #4]
      70:	4770      	bx	lr
      72:	46c0      	nop			; (mov r8, r8)
      74:	10001dc0 	.word	0x10001dc0

00000078 <set_singl_mskd_method>:
      78:	2201      	movs	r2, #1
      7a:	2006      	movs	r0, #6
      7c:	4905      	ldr	r1, [pc, #20]	; (94 <set_singl_mskd_method+0x1c>)
      7e:	684b      	ldr	r3, [r1, #4]
      80:	075b      	lsls	r3, r3, #29
      82:	0f9b      	lsrs	r3, r3, #30
      84:	4313      	orrs	r3, r2
      86:	684a      	ldr	r2, [r1, #4]
      88:	005b      	lsls	r3, r3, #1
      8a:	4382      	bics	r2, r0
      8c:	4313      	orrs	r3, r2
      8e:	604b      	str	r3, [r1, #4]
      90:	4770      	bx	lr
      92:	46c0      	nop			; (mov r8, r8)
      94:	10001dc0 	.word	0x10001dc0

00000098 <clr_singl_mskd_operator>:
      98:	2104      	movs	r1, #4
      9a:	2006      	movs	r0, #6
      9c:	4a03      	ldr	r2, [pc, #12]	; (ac <clr_singl_mskd_operator+0x14>)
      9e:	6853      	ldr	r3, [r2, #4]
      a0:	4019      	ands	r1, r3
      a2:	6853      	ldr	r3, [r2, #4]
      a4:	4383      	bics	r3, r0
      a6:	430b      	orrs	r3, r1
      a8:	6053      	str	r3, [r2, #4]
      aa:	4770      	bx	lr
      ac:	10001dc0 	.word	0x10001dc0

000000b0 <clr_singl_mskd_method>:
      b0:	2104      	movs	r1, #4
      b2:	2006      	movs	r0, #6
      b4:	4a03      	ldr	r2, [pc, #12]	; (c4 <clr_singl_mskd_method+0x14>)
      b6:	6853      	ldr	r3, [r2, #4]
      b8:	4019      	ands	r1, r3
      ba:	6853      	ldr	r3, [r2, #4]
      bc:	4383      	bics	r3, r0
      be:	430b      	orrs	r3, r1
      c0:	6053      	str	r3, [r2, #4]
      c2:	4770      	bx	lr
      c4:	10001dc0 	.word	0x10001dc0

000000c8 <equ_singl_bits_operator>:
      c8:	2200      	movs	r2, #0
      ca:	2140      	movs	r1, #64	; 0x40
      cc:	4b02      	ldr	r3, [pc, #8]	; (d8 <equ_singl_bits_operator+0x10>)
      ce:	605a      	str	r2, [r3, #4]
      d0:	685a      	ldr	r2, [r3, #4]
      d2:	430a      	orrs	r2, r1
      d4:	605a      	str	r2, [r3, #4]
      d6:	4770      	bx	lr
      d8:	10001dc0 	.word	0x10001dc0

000000dc <equ_singl_bits_method>:
      dc:	2200      	movs	r2, #0
      de:	2140      	movs	r1, #64	; 0x40
      e0:	4b02      	ldr	r3, [pc, #8]	; (ec <equ_singl_bits_method+0x10>)
      e2:	605a      	str	r2, [r3, #4]
      e4:	685a      	ldr	r2, [r3, #4]
      e6:	430a      	orrs	r2, r1
      e8:	605a      	str	r2, [r3, #4]
      ea:	4770      	bx	lr
      ec:	10001dc0 	.word	0x10001dc0

000000f0 <equ_singl_mskd_operator>:
      f0:	2300      	movs	r3, #0
      f2:	2106      	movs	r1, #6
      f4:	4a03      	ldr	r2, [pc, #12]	; (104 <equ_singl_mskd_operator+0x14>)
      f6:	6053      	str	r3, [r2, #4]
      f8:	6853      	ldr	r3, [r2, #4]
      fa:	438b      	bics	r3, r1
      fc:	3904      	subs	r1, #4
      fe:	430b      	orrs	r3, r1
     100:	6053      	str	r3, [r2, #4]
     102:	4770      	bx	lr
     104:	10001dc0 	.word	0x10001dc0

00000108 <equ_singl_mskd_method>:
     108:	2300      	movs	r3, #0
     10a:	2106      	movs	r1, #6
     10c:	4a03      	ldr	r2, [pc, #12]	; (11c <equ_singl_mskd_method+0x14>)
     10e:	6053      	str	r3, [r2, #4]
     110:	6853      	ldr	r3, [r2, #4]
     112:	438b      	bics	r3, r1
     114:	3904      	subs	r1, #4
     116:	430b      	orrs	r3, r1
     118:	6053      	str	r3, [r2, #4]
     11a:	4770      	bx	lr
     11c:	10001dc0 	.word	0x10001dc0

00000120 <flp_singl_bits_operator>:
     120:	2201      	movs	r2, #1
     122:	2040      	movs	r0, #64	; 0x40
     124:	4905      	ldr	r1, [pc, #20]	; (13c <flp_singl_bits_operator+0x1c>)
     126:	684b      	ldr	r3, [r1, #4]
     128:	065b      	lsls	r3, r3, #25
     12a:	0fdb      	lsrs	r3, r3, #31
     12c:	4053      	eors	r3, r2
     12e:	684a      	ldr	r2, [r1, #4]
     130:	019b      	lsls	r3, r3, #6
     132:	4382      	bics	r2, r0
     134:	4313      	orrs	r3, r2
     136:	604b      	str	r3, [r1, #4]
     138:	4770      	bx	lr
     13a:	46c0      	nop			; (mov r8, r8)
     13c:	10001dc0 	.word	0x10001dc0

00000140 <flp_singl_bits_method>:
     140:	2201      	movs	r2, #1
     142:	2040      	movs	r0, #64	; 0x40
     144:	4905      	ldr	r1, [pc, #20]	; (15c <flp_singl_bits_method+0x1c>)
     146:	684b      	ldr	r3, [r1, #4]
     148:	065b      	lsls	r3, r3, #25
     14a:	0fdb      	lsrs	r3, r3, #31
     14c:	4053      	eors	r3, r2
     14e:	684a      	ldr	r2, [r1, #4]
     150:	019b      	lsls	r3, r3, #6
     152:	4382      	bics	r2, r0
     154:	4313      	orrs	r3, r2
     156:	604b      	str	r3, [r1, #4]
     158:	4770      	bx	lr
     15a:	46c0      	nop			; (mov r8, r8)
     15c:	10001dc0 	.word	0x10001dc0

00000160 <flp_singl_mskd_operator>:
     160:	2201      	movs	r2, #1
     162:	2006      	movs	r0, #6
     164:	4905      	ldr	r1, [pc, #20]	; (17c <flp_singl_mskd_operator+0x1c>)
     166:	684b      	ldr	r3, [r1, #4]
     168:	075b      	lsls	r3, r3, #29
     16a:	0f9b      	lsrs	r3, r3, #30
     16c:	4053      	eors	r3, r2
     16e:	684a      	ldr	r2, [r1, #4]
     170:	005b      	lsls	r3, r3, #1
     172:	4382      	bics	r2, r0
     174:	4313      	orrs	r3, r2
     176:	604b      	str	r3, [r1, #4]
     178:	4770      	bx	lr
     17a:	46c0      	nop			; (mov r8, r8)
     17c:	10001dc0 	.word	0x10001dc0

00000180 <flp_singl_mskd_method>:
     180:	2201      	movs	r2, #1
     182:	2006      	movs	r0, #6
     184:	4905      	ldr	r1, [pc, #20]	; (19c <flp_singl_mskd_method+0x1c>)
     186:	684b      	ldr	r3, [r1, #4]
     188:	075b      	lsls	r3, r3, #29
     18a:	0f9b      	lsrs	r3, r3, #30
     18c:	4053      	eors	r3, r2
     18e:	684a      	ldr	r2, [r1, #4]
     190:	005b      	lsls	r3, r3, #1
     192:	4382      	bics	r2, r0
     194:	4313      	orrs	r3, r2
     196:	604b      	str	r3, [r1, #4]
     198:	4770      	bx	lr
     19a:	46c0      	nop			; (mov r8, r8)
     19c:	10001dc0 	.word	0x10001dc0

000001a0 <ins_singl_mskd_operator>:
     1a0:	2106      	movs	r1, #6
     1a2:	4a03      	ldr	r2, [pc, #12]	; (1b0 <ins_singl_mskd_operator+0x10>)
     1a4:	6853      	ldr	r3, [r2, #4]
     1a6:	438b      	bics	r3, r1
     1a8:	3902      	subs	r1, #2
     1aa:	430b      	orrs	r3, r1
     1ac:	6053      	str	r3, [r2, #4]
     1ae:	4770      	bx	lr
     1b0:	10001dc0 	.word	0x10001dc0

000001b4 <ins_singl_mskd_method>:
     1b4:	2106      	movs	r1, #6
     1b6:	4a03      	ldr	r2, [pc, #12]	; (1c4 <ins_singl_mskd_method+0x10>)
     1b8:	6853      	ldr	r3, [r2, #4]
     1ba:	438b      	bics	r3, r1
     1bc:	3902      	subs	r1, #2
     1be:	430b      	orrs	r3, r1
     1c0:	6053      	str	r3, [r2, #4]
     1c2:	4770      	bx	lr
     1c4:	10001dc0 	.word	0x10001dc0

000001c8 <set_multi_bits_operator>:
     1c8:	2101      	movs	r1, #1
     1ca:	4b04      	ldr	r3, [pc, #16]	; (1dc <set_multi_bits_operator+0x14>)
     1cc:	685a      	ldr	r2, [r3, #4]
     1ce:	430a      	orrs	r2, r1
     1d0:	605a      	str	r2, [r3, #4]
     1d2:	685a      	ldr	r2, [r3, #4]
     1d4:	311f      	adds	r1, #31
     1d6:	430a      	orrs	r2, r1
     1d8:	605a      	str	r2, [r3, #4]
     1da:	4770      	bx	lr
     1dc:	10001dc0 	.word	0x10001dc0

000001e0 <set_multi_bits_method>:
     1e0:	2101      	movs	r1, #1
     1e2:	4b04      	ldr	r3, [pc, #16]	; (1f4 <set_multi_bits_method+0x14>)
     1e4:	685a      	ldr	r2, [r3, #4]
     1e6:	430a      	orrs	r2, r1
     1e8:	605a      	str	r2, [r3, #4]
     1ea:	685a      	ldr	r2, [r3, #4]
     1ec:	311f      	adds	r1, #31
     1ee:	430a      	orrs	r2, r1
     1f0:	605a      	str	r2, [r3, #4]
     1f2:	4770      	bx	lr
     1f4:	10001dc0 	.word	0x10001dc0

000001f8 <ins_multi_mskd_operator>:
     1f8:	4a07      	ldr	r2, [pc, #28]	; (218 <ins_multi_mskd_operator+0x20>)
     1fa:	4908      	ldr	r1, [pc, #32]	; (21c <ins_multi_mskd_operator+0x24>)
     1fc:	6853      	ldr	r3, [r2, #4]
     1fe:	4019      	ands	r1, r3
     200:	23c0      	movs	r3, #192	; 0xc0
     202:	005b      	lsls	r3, r3, #1
     204:	430b      	orrs	r3, r1
     206:	2106      	movs	r1, #6
     208:	6053      	str	r3, [r2, #4]
     20a:	6853      	ldr	r3, [r2, #4]
     20c:	438b      	bics	r3, r1
     20e:	3904      	subs	r1, #4
     210:	430b      	orrs	r3, r1
     212:	6053      	str	r3, [r2, #4]
     214:	4770      	bx	lr
     216:	46c0      	nop			; (mov r8, r8)
     218:	10001dc0 	.word	0x10001dc0
     21c:	fffff07f 	.word	0xfffff07f

00000220 <ins_multi_mskd_method>:
     220:	4a07      	ldr	r2, [pc, #28]	; (240 <ins_multi_mskd_method+0x20>)
     222:	4908      	ldr	r1, [pc, #32]	; (244 <ins_multi_mskd_method+0x24>)
     224:	6853      	ldr	r3, [r2, #4]
     226:	4019      	ands	r1, r3
     228:	23c0      	movs	r3, #192	; 0xc0
     22a:	005b      	lsls	r3, r3, #1
     22c:	430b      	orrs	r3, r1
     22e:	2106      	movs	r1, #6
     230:	6053      	str	r3, [r2, #4]
     232:	6853      	ldr	r3, [r2, #4]
     234:	438b      	bics	r3, r1
     236:	3904      	subs	r1, #4
     238:	430b      	orrs	r3, r1
     23a:	6053      	str	r3, [r2, #4]
     23c:	4770      	bx	lr
     23e:	46c0      	nop			; (mov r8, r8)
     240:	10001dc0 	.word	0x10001dc0
     244:	fffff07f 	.word	0xfffff07f

00000248 <equ_multi_bits_operator>:
     248:	2200      	movs	r2, #0
     24a:	2120      	movs	r1, #32
     24c:	4b04      	ldr	r3, [pc, #16]	; (260 <equ_multi_bits_operator+0x18>)
     24e:	605a      	str	r2, [r3, #4]
     250:	685a      	ldr	r2, [r3, #4]
     252:	430a      	orrs	r2, r1
     254:	605a      	str	r2, [r3, #4]
     256:	685a      	ldr	r2, [r3, #4]
     258:	3120      	adds	r1, #32
     25a:	430a      	orrs	r2, r1
     25c:	605a      	str	r2, [r3, #4]
     25e:	4770      	bx	lr
     260:	10001dc0 	.word	0x10001dc0

00000264 <equ_multi_bits_method>:
     264:	2200      	movs	r2, #0
     266:	2120      	movs	r1, #32
     268:	4b04      	ldr	r3, [pc, #16]	; (27c <equ_multi_bits_method+0x18>)
     26a:	605a      	str	r2, [r3, #4]
     26c:	685a      	ldr	r2, [r3, #4]
     26e:	430a      	orrs	r2, r1
     270:	605a      	str	r2, [r3, #4]
     272:	685a      	ldr	r2, [r3, #4]
     274:	3120      	adds	r1, #32
     276:	430a      	orrs	r2, r1
     278:	605a      	str	r2, [r3, #4]
     27a:	4770      	bx	lr
     27c:	10001dc0 	.word	0x10001dc0

00000280 <equ_multi_mskd_operator>:
     280:	2200      	movs	r2, #0
     282:	2118      	movs	r1, #24
     284:	4b07      	ldr	r3, [pc, #28]	; (2a4 <equ_multi_mskd_operator+0x24>)
     286:	605a      	str	r2, [r3, #4]
     288:	685a      	ldr	r2, [r3, #4]
     28a:	438a      	bics	r2, r1
     28c:	3910      	subs	r1, #16
     28e:	430a      	orrs	r2, r1
     290:	605a      	str	r2, [r3, #4]
     292:	685a      	ldr	r2, [r3, #4]
     294:	4904      	ldr	r1, [pc, #16]	; (2a8 <equ_multi_mskd_operator+0x28>)
     296:	4011      	ands	r1, r2
     298:	22c0      	movs	r2, #192	; 0xc0
     29a:	0092      	lsls	r2, r2, #2
     29c:	430a      	orrs	r2, r1
     29e:	605a      	str	r2, [r3, #4]
     2a0:	4770      	bx	lr
     2a2:	46c0      	nop			; (mov r8, r8)
     2a4:	10001dc0 	.word	0x10001dc0
     2a8:	fffff07f 	.word	0xfffff07f

000002ac <equ_multi_mskd_method>:
     2ac:	2200      	movs	r2, #0
     2ae:	2118      	movs	r1, #24
     2b0:	4b07      	ldr	r3, [pc, #28]	; (2d0 <equ_multi_mskd_method+0x24>)
     2b2:	605a      	str	r2, [r3, #4]
     2b4:	685a      	ldr	r2, [r3, #4]
     2b6:	438a      	bics	r2, r1
     2b8:	3910      	subs	r1, #16
     2ba:	430a      	orrs	r2, r1
     2bc:	605a      	str	r2, [r3, #4]
     2be:	685a      	ldr	r2, [r3, #4]
     2c0:	4904      	ldr	r1, [pc, #16]	; (2d4 <equ_multi_mskd_method+0x28>)
     2c2:	4011      	ands	r1, r2
     2c4:	22c0      	movs	r2, #192	; 0xc0
     2c6:	0092      	lsls	r2, r2, #2
     2c8:	430a      	orrs	r2, r1
     2ca:	605a      	str	r2, [r3, #4]
     2cc:	4770      	bx	lr
     2ce:	46c0      	nop			; (mov r8, r8)
     2d0:	10001dc0 	.word	0x10001dc0
     2d4:	fffff07f 	.word	0xfffff07f

000002d8 <equ_bits_mskd_operator>:
     2d8:	2200      	movs	r2, #0
     2da:	2120      	movs	r1, #32
     2dc:	4b05      	ldr	r3, [pc, #20]	; (2f4 <equ_bits_mskd_operator+0x1c>)
     2de:	605a      	str	r2, [r3, #4]
     2e0:	685a      	ldr	r2, [r3, #4]
     2e2:	430a      	orrs	r2, r1
     2e4:	605a      	str	r2, [r3, #4]
     2e6:	685a      	ldr	r2, [r3, #4]
     2e8:	391a      	subs	r1, #26
     2ea:	438a      	bics	r2, r1
     2ec:	3904      	subs	r1, #4
     2ee:	430a      	orrs	r2, r1
     2f0:	605a      	str	r2, [r3, #4]
     2f2:	4770      	bx	lr
     2f4:	10001dc0 	.word	0x10001dc0

000002f8 <equ_bits_mskd_method>:
     2f8:	2200      	movs	r2, #0
     2fa:	2120      	movs	r1, #32
     2fc:	4b05      	ldr	r3, [pc, #20]	; (314 <equ_bits_mskd_method+0x1c>)
     2fe:	605a      	str	r2, [r3, #4]
     300:	685a      	ldr	r2, [r3, #4]
     302:	430a      	orrs	r2, r1
     304:	605a      	str	r2, [r3, #4]
     306:	685a      	ldr	r2, [r3, #4]
     308:	391a      	subs	r1, #26
     30a:	438a      	bics	r2, r1
     30c:	3904      	subs	r1, #4
     30e:	430a      	orrs	r2, r1
     310:	605a      	str	r2, [r3, #4]
     312:	4770      	bx	lr
     314:	10001dc0 	.word	0x10001dc0

00000318 <equ_mskd_bits_operator>:
     318:	2200      	movs	r2, #0
     31a:	2106      	movs	r1, #6
     31c:	4b05      	ldr	r3, [pc, #20]	; (334 <equ_mskd_bits_operator+0x1c>)
     31e:	605a      	str	r2, [r3, #4]
     320:	685a      	ldr	r2, [r3, #4]
     322:	438a      	bics	r2, r1
     324:	3902      	subs	r1, #2
     326:	430a      	orrs	r2, r1
     328:	605a      	str	r2, [r3, #4]
     32a:	685a      	ldr	r2, [r3, #4]
     32c:	313c      	adds	r1, #60	; 0x3c
     32e:	430a      	orrs	r2, r1
     330:	605a      	str	r2, [r3, #4]
     332:	4770      	bx	lr
     334:	10001dc0 	.word	0x10001dc0

00000338 <equ_mskd_bits_method>:
     338:	2200      	movs	r2, #0
     33a:	2106      	movs	r1, #6
     33c:	4b05      	ldr	r3, [pc, #20]	; (354 <equ_mskd_bits_method+0x1c>)
     33e:	605a      	str	r2, [r3, #4]
     340:	685a      	ldr	r2, [r3, #4]
     342:	438a      	bics	r2, r1
     344:	3902      	subs	r1, #2
     346:	430a      	orrs	r2, r1
     348:	605a      	str	r2, [r3, #4]
     34a:	685a      	ldr	r2, [r3, #4]
     34c:	313c      	adds	r1, #60	; 0x3c
     34e:	430a      	orrs	r2, r1
     350:	605a      	str	r2, [r3, #4]
     352:	4770      	bx	lr
     354:	10001dc0 	.word	0x10001dc0

00000358 <equ_bits_var>:
     358:	2100      	movs	r1, #0
     35a:	2040      	movs	r0, #64	; 0x40
     35c:	4b05      	ldr	r3, [pc, #20]	; (374 <equ_bits_var+0x1c>)
     35e:	6059      	str	r1, [r3, #4]
     360:	685a      	ldr	r2, [r3, #4]
     362:	4302      	orrs	r2, r0
     364:	605a      	str	r2, [r3, #4]
     366:	6059      	str	r1, [r3, #4]
     368:	685a      	ldr	r2, [r3, #4]
     36a:	3101      	adds	r1, #1
     36c:	430a      	orrs	r2, r1
     36e:	605a      	str	r2, [r3, #4]
     370:	4770      	bx	lr
     372:	46c0      	nop			; (mov r8, r8)
     374:	10001dc0 	.word	0x10001dc0

00000378 <equ_mskd_var>:
     378:	2100      	movs	r1, #0
     37a:	2006      	movs	r0, #6
     37c:	4b07      	ldr	r3, [pc, #28]	; (39c <equ_mskd_var+0x24>)
     37e:	6059      	str	r1, [r3, #4]
     380:	685a      	ldr	r2, [r3, #4]
     382:	4382      	bics	r2, r0
     384:	3804      	subs	r0, #4
     386:	4302      	orrs	r2, r0
     388:	605a      	str	r2, [r3, #4]
     38a:	6059      	str	r1, [r3, #4]
     38c:	685a      	ldr	r2, [r3, #4]
     38e:	4904      	ldr	r1, [pc, #16]	; (3a0 <equ_mskd_var+0x28>)
     390:	4011      	ands	r1, r2
     392:	22c0      	movs	r2, #192	; 0xc0
     394:	0052      	lsls	r2, r2, #1
     396:	430a      	orrs	r2, r1
     398:	605a      	str	r2, [r3, #4]
     39a:	4770      	bx	lr
     39c:	10001dc0 	.word	0x10001dc0
     3a0:	fffff07f 	.word	0xfffff07f

000003a4 <cmp_equ_zero>:
     3a4:	2100      	movs	r1, #0
     3a6:	4a0b      	ldr	r2, [pc, #44]	; (3d4 <cmp_equ_zero+0x30>)
     3a8:	4b0b      	ldr	r3, [pc, #44]	; (3d8 <cmp_equ_zero+0x34>)
     3aa:	6051      	str	r1, [r2, #4]
     3ac:	6059      	str	r1, [r3, #4]
     3ae:	6852      	ldr	r2, [r2, #4]
     3b0:	2a00      	cmp	r2, #0
     3b2:	d107      	bne.n	3c4 <cmp_equ_zero+0x20>
     3b4:	685a      	ldr	r2, [r3, #4]
     3b6:	4909      	ldr	r1, [pc, #36]	; (3dc <cmp_equ_zero+0x38>)
     3b8:	4011      	ands	r1, r2
     3ba:	22e8      	movs	r2, #232	; 0xe8
     3bc:	0592      	lsls	r2, r2, #22
     3be:	430a      	orrs	r2, r1
     3c0:	605a      	str	r2, [r3, #4]
     3c2:	4770      	bx	lr
     3c4:	685a      	ldr	r2, [r3, #4]
     3c6:	4905      	ldr	r1, [pc, #20]	; (3dc <cmp_equ_zero+0x38>)
     3c8:	4011      	ands	r1, r2
     3ca:	2288      	movs	r2, #136	; 0x88
     3cc:	0592      	lsls	r2, r2, #22
     3ce:	430a      	orrs	r2, r1
     3d0:	605a      	str	r2, [r3, #4]
     3d2:	e7f6      	b.n	3c2 <cmp_equ_zero+0x1e>
     3d4:	10001dc0 	.word	0x10001dc0
     3d8:	10001d20 	.word	0x10001d20
     3dc:	c1ffffff 	.word	0xc1ffffff

000003e0 <cmp_neq_zero>:
     3e0:	2200      	movs	r2, #0
     3e2:	4b08      	ldr	r3, [pc, #32]	; (404 <cmp_neq_zero+0x24>)
     3e4:	605a      	str	r2, [r3, #4]
     3e6:	685a      	ldr	r2, [r3, #4]
     3e8:	2a00      	cmp	r2, #0
     3ea:	d006      	beq.n	3fa <cmp_neq_zero+0x1a>
     3ec:	2106      	movs	r1, #6
     3ee:	685a      	ldr	r2, [r3, #4]
     3f0:	438a      	bics	r2, r1
     3f2:	3902      	subs	r1, #2
     3f4:	430a      	orrs	r2, r1
     3f6:	605a      	str	r2, [r3, #4]
     3f8:	4770      	bx	lr
     3fa:	2120      	movs	r1, #32
     3fc:	685a      	ldr	r2, [r3, #4]
     3fe:	430a      	orrs	r2, r1
     400:	605a      	str	r2, [r3, #4]
     402:	e7f9      	b.n	3f8 <cmp_neq_zero+0x18>
     404:	10001dc0 	.word	0x10001dc0

00000408 <cmp_equ_bits>:
     408:	2200      	movs	r2, #0
     40a:	2140      	movs	r1, #64	; 0x40
     40c:	4b0c      	ldr	r3, [pc, #48]	; (440 <cmp_equ_bits+0x38>)
     40e:	605a      	str	r2, [r3, #4]
     410:	685a      	ldr	r2, [r3, #4]
     412:	430a      	orrs	r2, r1
     414:	605a      	str	r2, [r3, #4]
     416:	685b      	ldr	r3, [r3, #4]
     418:	490a      	ldr	r1, [pc, #40]	; (444 <cmp_equ_bits+0x3c>)
     41a:	065b      	lsls	r3, r3, #25
     41c:	d507      	bpl.n	42e <cmp_equ_bits+0x26>
     41e:	684b      	ldr	r3, [r1, #4]
     420:	4a09      	ldr	r2, [pc, #36]	; (448 <cmp_equ_bits+0x40>)
     422:	401a      	ands	r2, r3
     424:	23b0      	movs	r3, #176	; 0xb0
     426:	055b      	lsls	r3, r3, #21
     428:	4313      	orrs	r3, r2
     42a:	604b      	str	r3, [r1, #4]
     42c:	4770      	bx	lr
     42e:	684b      	ldr	r3, [r1, #4]
     430:	4a05      	ldr	r2, [pc, #20]	; (448 <cmp_equ_bits+0x40>)
     432:	401a      	ands	r2, r3
     434:	23d0      	movs	r3, #208	; 0xd0
     436:	055b      	lsls	r3, r3, #21
     438:	4313      	orrs	r3, r2
     43a:	604b      	str	r3, [r1, #4]
     43c:	e7f6      	b.n	42c <cmp_equ_bits+0x24>
     43e:	46c0      	nop			; (mov r8, r8)
     440:	10001dc0 	.word	0x10001dc0
     444:	10001d20 	.word	0x10001d20
     448:	c1ffffff 	.word	0xc1ffffff

0000044c <cmp_neq_bits>:
     44c:	2100      	movs	r1, #0
     44e:	2040      	movs	r0, #64	; 0x40
     450:	4b0b      	ldr	r3, [pc, #44]	; (480 <cmp_neq_bits+0x34>)
     452:	6059      	str	r1, [r3, #4]
     454:	685a      	ldr	r2, [r3, #4]
     456:	4302      	orrs	r2, r0
     458:	605a      	str	r2, [r3, #4]
     45a:	685a      	ldr	r2, [r3, #4]
     45c:	0652      	lsls	r2, r2, #25
     45e:	0fd2      	lsrs	r2, r2, #31
     460:	d107      	bne.n	472 <cmp_neq_bits+0x26>
     462:	605a      	str	r2, [r3, #4]
     464:	685a      	ldr	r2, [r3, #4]
     466:	3106      	adds	r1, #6
     468:	438a      	bics	r2, r1
     46a:	3904      	subs	r1, #4
     46c:	430a      	orrs	r2, r1
     46e:	605a      	str	r2, [r3, #4]
     470:	4770      	bx	lr
     472:	6059      	str	r1, [r3, #4]
     474:	2120      	movs	r1, #32
     476:	685a      	ldr	r2, [r3, #4]
     478:	430a      	orrs	r2, r1
     47a:	605a      	str	r2, [r3, #4]
     47c:	e7f8      	b.n	470 <cmp_neq_bits+0x24>
     47e:	46c0      	nop			; (mov r8, r8)
     480:	10001dc0 	.word	0x10001dc0

00000484 <cmp_equ_multi_bits>:
     484:	2100      	movs	r1, #0
     486:	2020      	movs	r0, #32
     488:	4b11      	ldr	r3, [pc, #68]	; (4d0 <cmp_equ_multi_bits+0x4c>)
     48a:	6059      	str	r1, [r3, #4]
     48c:	685a      	ldr	r2, [r3, #4]
     48e:	4302      	orrs	r2, r0
     490:	605a      	str	r2, [r3, #4]
     492:	685a      	ldr	r2, [r3, #4]
     494:	3020      	adds	r0, #32
     496:	4302      	orrs	r2, r0
     498:	605a      	str	r2, [r3, #4]
     49a:	685a      	ldr	r2, [r3, #4]
     49c:	0692      	lsls	r2, r2, #26
     49e:	d502      	bpl.n	4a6 <cmp_equ_multi_bits+0x22>
     4a0:	685b      	ldr	r3, [r3, #4]
     4a2:	065b      	lsls	r3, r3, #25
     4a4:	d40a      	bmi.n	4bc <cmp_equ_multi_bits+0x38>
     4a6:	2200      	movs	r2, #0
     4a8:	4b0a      	ldr	r3, [pc, #40]	; (4d4 <cmp_equ_multi_bits+0x50>)
     4aa:	490b      	ldr	r1, [pc, #44]	; (4d8 <cmp_equ_multi_bits+0x54>)
     4ac:	605a      	str	r2, [r3, #4]
     4ae:	685a      	ldr	r2, [r3, #4]
     4b0:	4011      	ands	r1, r2
     4b2:	22b8      	movs	r2, #184	; 0xb8
     4b4:	0592      	lsls	r2, r2, #22
     4b6:	430a      	orrs	r2, r1
     4b8:	605a      	str	r2, [r3, #4]
     4ba:	4770      	bx	lr
     4bc:	4b05      	ldr	r3, [pc, #20]	; (4d4 <cmp_equ_multi_bits+0x50>)
     4be:	6059      	str	r1, [r3, #4]
     4c0:	685a      	ldr	r2, [r3, #4]
     4c2:	4905      	ldr	r1, [pc, #20]	; (4d8 <cmp_equ_multi_bits+0x54>)
     4c4:	4011      	ands	r1, r2
     4c6:	2288      	movs	r2, #136	; 0x88
     4c8:	0592      	lsls	r2, r2, #22
     4ca:	430a      	orrs	r2, r1
     4cc:	605a      	str	r2, [r3, #4]
     4ce:	e7f4      	b.n	4ba <cmp_equ_multi_bits+0x36>
     4d0:	10001dc0 	.word	0x10001dc0
     4d4:	10001d20 	.word	0x10001d20
     4d8:	c1ffffff 	.word	0xc1ffffff

000004dc <cmp_neq_multi_bits>:
     4dc:	2200      	movs	r2, #0
     4de:	2120      	movs	r1, #32
     4e0:	4b11      	ldr	r3, [pc, #68]	; (528 <cmp_neq_multi_bits+0x4c>)
     4e2:	605a      	str	r2, [r3, #4]
     4e4:	685a      	ldr	r2, [r3, #4]
     4e6:	430a      	orrs	r2, r1
     4e8:	605a      	str	r2, [r3, #4]
     4ea:	685a      	ldr	r2, [r3, #4]
     4ec:	3120      	adds	r1, #32
     4ee:	430a      	orrs	r2, r1
     4f0:	605a      	str	r2, [r3, #4]
     4f2:	685a      	ldr	r2, [r3, #4]
     4f4:	0692      	lsls	r2, r2, #26
     4f6:	d403      	bmi.n	500 <cmp_neq_multi_bits+0x24>
     4f8:	685b      	ldr	r3, [r3, #4]
     4fa:	065b      	lsls	r3, r3, #25
     4fc:	0fdb      	lsrs	r3, r3, #31
     4fe:	d008      	beq.n	512 <cmp_neq_multi_bits+0x36>
     500:	2200      	movs	r2, #0
     502:	4b0a      	ldr	r3, [pc, #40]	; (52c <cmp_neq_multi_bits+0x50>)
     504:	605a      	str	r2, [r3, #4]
     506:	22f8      	movs	r2, #248	; 0xf8
     508:	6859      	ldr	r1, [r3, #4]
     50a:	0592      	lsls	r2, r2, #22
     50c:	430a      	orrs	r2, r1
     50e:	605a      	str	r2, [r3, #4]
     510:	4770      	bx	lr
     512:	4a06      	ldr	r2, [pc, #24]	; (52c <cmp_neq_multi_bits+0x50>)
     514:	4906      	ldr	r1, [pc, #24]	; (530 <cmp_neq_multi_bits+0x54>)
     516:	6053      	str	r3, [r2, #4]
     518:	6853      	ldr	r3, [r2, #4]
     51a:	4019      	ands	r1, r3
     51c:	23e8      	movs	r3, #232	; 0xe8
     51e:	059b      	lsls	r3, r3, #22
     520:	430b      	orrs	r3, r1
     522:	6053      	str	r3, [r2, #4]
     524:	e7f4      	b.n	510 <cmp_neq_multi_bits+0x34>
     526:	46c0      	nop			; (mov r8, r8)
     528:	10001dc0 	.word	0x10001dc0
     52c:	10001d20 	.word	0x10001d20
     530:	c1ffffff 	.word	0xc1ffffff

00000534 <cmp_equ_mskd>:
     534:	2200      	movs	r2, #0
     536:	4b0f      	ldr	r3, [pc, #60]	; (574 <cmp_equ_mskd+0x40>)
     538:	490f      	ldr	r1, [pc, #60]	; (578 <cmp_equ_mskd+0x44>)
     53a:	605a      	str	r2, [r3, #4]
     53c:	685a      	ldr	r2, [r3, #4]
     53e:	4011      	ands	r1, r2
     540:	22e8      	movs	r2, #232	; 0xe8
     542:	0252      	lsls	r2, r2, #9
     544:	430a      	orrs	r2, r1
     546:	605a      	str	r2, [r3, #4]
     548:	685b      	ldr	r3, [r3, #4]
     54a:	490c      	ldr	r1, [pc, #48]	; (57c <cmp_equ_mskd+0x48>)
     54c:	03db      	lsls	r3, r3, #15
     54e:	0edb      	lsrs	r3, r3, #27
     550:	2b11      	cmp	r3, #17
     552:	d007      	beq.n	564 <cmp_equ_mskd+0x30>
     554:	684b      	ldr	r3, [r1, #4]
     556:	4a0a      	ldr	r2, [pc, #40]	; (580 <cmp_equ_mskd+0x4c>)
     558:	401a      	ands	r2, r3
     55a:	2388      	movs	r3, #136	; 0x88
     55c:	059b      	lsls	r3, r3, #22
     55e:	4313      	orrs	r3, r2
     560:	604b      	str	r3, [r1, #4]
     562:	4770      	bx	lr
     564:	684b      	ldr	r3, [r1, #4]
     566:	4a06      	ldr	r2, [pc, #24]	; (580 <cmp_equ_mskd+0x4c>)
     568:	401a      	ands	r2, r3
     56a:	23e0      	movs	r3, #224	; 0xe0
     56c:	051b      	lsls	r3, r3, #20
     56e:	4313      	orrs	r3, r2
     570:	604b      	str	r3, [r1, #4]
     572:	e7f6      	b.n	562 <cmp_equ_mskd+0x2e>
     574:	10001dc0 	.word	0x10001dc0
     578:	fffe0fff 	.word	0xfffe0fff
     57c:	10001d20 	.word	0x10001d20
     580:	c1ffffff 	.word	0xc1ffffff

00000584 <cmp_neq_mskd>:
     584:	2200      	movs	r2, #0
     586:	4b0d      	ldr	r3, [pc, #52]	; (5bc <cmp_neq_mskd+0x38>)
     588:	490d      	ldr	r1, [pc, #52]	; (5c0 <cmp_neq_mskd+0x3c>)
     58a:	605a      	str	r2, [r3, #4]
     58c:	685a      	ldr	r2, [r3, #4]
     58e:	4011      	ands	r1, r2
     590:	22e8      	movs	r2, #232	; 0xe8
     592:	0252      	lsls	r2, r2, #9
     594:	430a      	orrs	r2, r1
     596:	605a      	str	r2, [r3, #4]
     598:	685a      	ldr	r2, [r3, #4]
     59a:	03d2      	lsls	r2, r2, #15
     59c:	0ed2      	lsrs	r2, r2, #27
     59e:	2a11      	cmp	r2, #17
     5a0:	d006      	beq.n	5b0 <cmp_neq_mskd+0x2c>
     5a2:	2106      	movs	r1, #6
     5a4:	685a      	ldr	r2, [r3, #4]
     5a6:	438a      	bics	r2, r1
     5a8:	3902      	subs	r1, #2
     5aa:	430a      	orrs	r2, r1
     5ac:	605a      	str	r2, [r3, #4]
     5ae:	4770      	bx	lr
     5b0:	2140      	movs	r1, #64	; 0x40
     5b2:	685a      	ldr	r2, [r3, #4]
     5b4:	430a      	orrs	r2, r1
     5b6:	605a      	str	r2, [r3, #4]
     5b8:	e7f9      	b.n	5ae <cmp_neq_mskd+0x2a>
     5ba:	46c0      	nop			; (mov r8, r8)
     5bc:	10001dc0 	.word	0x10001dc0
     5c0:	fffe0fff 	.word	0xfffe0fff

000005c4 <cmp_equ_reg>:
     5c4:	2200      	movs	r2, #0
     5c6:	2120      	movs	r1, #32
     5c8:	4b1c      	ldr	r3, [pc, #112]	; (63c <cmp_equ_reg+0x78>)
     5ca:	605a      	str	r2, [r3, #4]
     5cc:	685a      	ldr	r2, [r3, #4]
     5ce:	430a      	orrs	r2, r1
     5d0:	605a      	str	r2, [r3, #4]
     5d2:	685a      	ldr	r2, [r3, #4]
     5d4:	391a      	subs	r1, #26
     5d6:	438a      	bics	r2, r1
     5d8:	3904      	subs	r1, #4
     5da:	430a      	orrs	r2, r1
     5dc:	605a      	str	r2, [r3, #4]
     5de:	685a      	ldr	r2, [r3, #4]
     5e0:	07d2      	lsls	r2, r2, #31
     5e2:	d404      	bmi.n	5ee <cmp_equ_reg+0x2a>
     5e4:	685a      	ldr	r2, [r3, #4]
     5e6:	0752      	lsls	r2, r2, #29
     5e8:	0f92      	lsrs	r2, r2, #30
     5ea:	2a01      	cmp	r2, #1
     5ec:	d00a      	beq.n	604 <cmp_equ_reg+0x40>
     5ee:	2200      	movs	r2, #0
     5f0:	4b13      	ldr	r3, [pc, #76]	; (640 <cmp_equ_reg+0x7c>)
     5f2:	4914      	ldr	r1, [pc, #80]	; (644 <cmp_equ_reg+0x80>)
     5f4:	605a      	str	r2, [r3, #4]
     5f6:	685a      	ldr	r2, [r3, #4]
     5f8:	4011      	ands	r1, r2
     5fa:	22b8      	movs	r2, #184	; 0xb8
     5fc:	0592      	lsls	r2, r2, #22
     5fe:	430a      	orrs	r2, r1
     600:	605a      	str	r2, [r3, #4]
     602:	4770      	bx	lr
     604:	685a      	ldr	r2, [r3, #4]
     606:	07d2      	lsls	r2, r2, #31
     608:	d4f1      	bmi.n	5ee <cmp_equ_reg+0x2a>
     60a:	685a      	ldr	r2, [r3, #4]
     60c:	0692      	lsls	r2, r2, #26
     60e:	d5ee      	bpl.n	5ee <cmp_equ_reg+0x2a>
     610:	685a      	ldr	r2, [r3, #4]
     612:	0652      	lsls	r2, r2, #25
     614:	d4eb      	bmi.n	5ee <cmp_equ_reg+0x2a>
     616:	685a      	ldr	r2, [r3, #4]
     618:	0512      	lsls	r2, r2, #20
     61a:	0ed2      	lsrs	r2, r2, #27
     61c:	d1e7      	bne.n	5ee <cmp_equ_reg+0x2a>
     61e:	685b      	ldr	r3, [r3, #4]
     620:	03db      	lsls	r3, r3, #15
     622:	0edb      	lsrs	r3, r3, #27
     624:	d1e3      	bne.n	5ee <cmp_equ_reg+0x2a>
     626:	4a06      	ldr	r2, [pc, #24]	; (640 <cmp_equ_reg+0x7c>)
     628:	4906      	ldr	r1, [pc, #24]	; (644 <cmp_equ_reg+0x80>)
     62a:	6053      	str	r3, [r2, #4]
     62c:	6853      	ldr	r3, [r2, #4]
     62e:	4019      	ands	r1, r3
     630:	23a8      	movs	r3, #168	; 0xa8
     632:	059b      	lsls	r3, r3, #22
     634:	430b      	orrs	r3, r1
     636:	6053      	str	r3, [r2, #4]
     638:	e7e3      	b.n	602 <cmp_equ_reg+0x3e>
     63a:	46c0      	nop			; (mov r8, r8)
     63c:	10001dc0 	.word	0x10001dc0
     640:	10001d20 	.word	0x10001d20
     644:	c1ffffff 	.word	0xc1ffffff

00000648 <cmp_neq_reg>:
     648:	2200      	movs	r2, #0
     64a:	2120      	movs	r1, #32
     64c:	2006      	movs	r0, #6
     64e:	4b19      	ldr	r3, [pc, #100]	; (6b4 <cmp_neq_reg+0x6c>)
     650:	605a      	str	r2, [r3, #4]
     652:	685a      	ldr	r2, [r3, #4]
     654:	430a      	orrs	r2, r1
     656:	605a      	str	r2, [r3, #4]
     658:	685a      	ldr	r2, [r3, #4]
     65a:	4382      	bics	r2, r0
     65c:	3804      	subs	r0, #4
     65e:	4302      	orrs	r2, r0
     660:	605a      	str	r2, [r3, #4]
     662:	685a      	ldr	r2, [r3, #4]
     664:	07d2      	lsls	r2, r2, #31
     666:	d404      	bmi.n	672 <cmp_neq_reg+0x2a>
     668:	685a      	ldr	r2, [r3, #4]
     66a:	0752      	lsls	r2, r2, #29
     66c:	0f92      	lsrs	r2, r2, #30
     66e:	2a01      	cmp	r2, #1
     670:	d009      	beq.n	686 <cmp_neq_reg+0x3e>
     672:	2300      	movs	r3, #0
     674:	2106      	movs	r1, #6
     676:	4a0f      	ldr	r2, [pc, #60]	; (6b4 <cmp_neq_reg+0x6c>)
     678:	6053      	str	r3, [r2, #4]
     67a:	6853      	ldr	r3, [r2, #4]
     67c:	438b      	bics	r3, r1
     67e:	3904      	subs	r1, #4
     680:	430b      	orrs	r3, r1
     682:	6053      	str	r3, [r2, #4]
     684:	4770      	bx	lr
     686:	685a      	ldr	r2, [r3, #4]
     688:	07d2      	lsls	r2, r2, #31
     68a:	d4f2      	bmi.n	672 <cmp_neq_reg+0x2a>
     68c:	685a      	ldr	r2, [r3, #4]
     68e:	0692      	lsls	r2, r2, #26
     690:	d5ef      	bpl.n	672 <cmp_neq_reg+0x2a>
     692:	685a      	ldr	r2, [r3, #4]
     694:	0652      	lsls	r2, r2, #25
     696:	d4ec      	bmi.n	672 <cmp_neq_reg+0x2a>
     698:	685a      	ldr	r2, [r3, #4]
     69a:	0512      	lsls	r2, r2, #20
     69c:	0ed2      	lsrs	r2, r2, #27
     69e:	d1e8      	bne.n	672 <cmp_neq_reg+0x2a>
     6a0:	685a      	ldr	r2, [r3, #4]
     6a2:	03d2      	lsls	r2, r2, #15
     6a4:	0ed2      	lsrs	r2, r2, #27
     6a6:	d1e4      	bne.n	672 <cmp_neq_reg+0x2a>
     6a8:	605a      	str	r2, [r3, #4]
     6aa:	685a      	ldr	r2, [r3, #4]
     6ac:	4311      	orrs	r1, r2
     6ae:	6059      	str	r1, [r3, #4]
     6b0:	e7e8      	b.n	684 <cmp_neq_reg+0x3c>
     6b2:	46c0      	nop			; (mov r8, r8)
     6b4:	10001dc0 	.word	0x10001dc0

000006b8 <constexpr_bits_array>:
     6b8:	2206      	movs	r2, #6
     6ba:	2100      	movs	r1, #0
     6bc:	4b04      	ldr	r3, [pc, #16]	; (6d0 <constexpr_bits_array+0x18>)
     6be:	62da      	str	r2, [r3, #44]	; 0x2c
     6c0:	329a      	adds	r2, #154	; 0x9a
     6c2:	5099      	str	r1, [r3, r2]
     6c4:	2180      	movs	r1, #128	; 0x80
     6c6:	5898      	ldr	r0, [r3, r2]
     6c8:	0189      	lsls	r1, r1, #6
     6ca:	4301      	orrs	r1, r0
     6cc:	5099      	str	r1, [r3, r2]
     6ce:	4770      	bx	lr
     6d0:	10001c00 	.word	0x10001c00

000006d4 <runtime_bits_array>:
     6d4:	2303      	movs	r3, #3
     6d6:	2121      	movs	r1, #33	; 0x21
     6d8:	b081      	sub	sp, #4
     6da:	9300      	str	r3, [sp, #0]
     6dc:	9b00      	ldr	r3, [sp, #0]
     6de:	4a03      	ldr	r2, [pc, #12]	; (6ec <runtime_bits_array+0x18>)
     6e0:	3308      	adds	r3, #8
     6e2:	009b      	lsls	r3, r3, #2
     6e4:	5099      	str	r1, [r3, r2]
     6e6:	b001      	add	sp, #4
     6e8:	4770      	bx	lr
     6ea:	46c0      	nop			; (mov r8, r8)
     6ec:	10001c00 	.word	0x10001c00

000006f0 <prescaler_low>:
     6f0:	217f      	movs	r1, #127	; 0x7f
     6f2:	4a06      	ldr	r2, [pc, #24]	; (70c <prescaler_low+0x1c>)
     6f4:	6853      	ldr	r3, [r2, #4]
     6f6:	438b      	bics	r3, r1
     6f8:	3908      	subs	r1, #8
     6fa:	430b      	orrs	r3, r1
     6fc:	6053      	str	r3, [r2, #4]
     6fe:	6853      	ldr	r3, [r2, #4]
     700:	4a03      	ldr	r2, [pc, #12]	; (710 <prescaler_low+0x20>)
     702:	065b      	lsls	r3, r3, #25
     704:	0e5b      	lsrs	r3, r3, #25
     706:	62d3      	str	r3, [r2, #44]	; 0x2c
     708:	4770      	bx	lr
     70a:	46c0      	nop			; (mov r8, r8)
     70c:	10001d20 	.word	0x10001d20
     710:	10001c00 	.word	0x10001c00

00000714 <prescaler_high>:
     714:	4b06      	ldr	r3, [pc, #24]	; (730 <prescaler_high+0x1c>)
     716:	4907      	ldr	r1, [pc, #28]	; (734 <prescaler_high+0x20>)
     718:	685a      	ldr	r2, [r3, #4]
     71a:	4011      	ands	r1, r2
     71c:	22e8      	movs	r2, #232	; 0xe8
     71e:	0592      	lsls	r2, r2, #22
     720:	430a      	orrs	r2, r1
     722:	605a      	str	r2, [r3, #4]
     724:	685b      	ldr	r3, [r3, #4]
     726:	4a04      	ldr	r2, [pc, #16]	; (738 <prescaler_high+0x24>)
     728:	009b      	lsls	r3, r3, #2
     72a:	0edb      	lsrs	r3, r3, #27
     72c:	62d3      	str	r3, [r2, #44]	; 0x2c
     72e:	4770      	bx	lr
     730:	10001d20 	.word	0x10001d20
     734:	c1ffffff 	.word	0xc1ffffff
     738:	10001c00 	.word	0x10001c00

0000073c <reg_mskd_lss>:
     73c:	4b0e      	ldr	r3, [pc, #56]	; (778 <reg_mskd_lss+0x3c>)
     73e:	490f      	ldr	r1, [pc, #60]	; (77c <reg_mskd_lss+0x40>)
     740:	685a      	ldr	r2, [r3, #4]
     742:	4011      	ands	r1, r2
     744:	22d8      	movs	r2, #216	; 0xd8
     746:	0592      	lsls	r2, r2, #22
     748:	430a      	orrs	r2, r1
     74a:	2100      	movs	r1, #0
     74c:	605a      	str	r2, [r3, #4]
     74e:	4a0c      	ldr	r2, [pc, #48]	; (780 <reg_mskd_lss+0x44>)
     750:	6051      	str	r1, [r2, #4]
     752:	685b      	ldr	r3, [r3, #4]
     754:	009b      	lsls	r3, r3, #2
     756:	0edb      	lsrs	r3, r3, #27
     758:	2b1b      	cmp	r3, #27
     75a:	d806      	bhi.n	76a <reg_mskd_lss+0x2e>
     75c:	6853      	ldr	r3, [r2, #4]
     75e:	3106      	adds	r1, #6
     760:	438b      	bics	r3, r1
     762:	3904      	subs	r1, #4
     764:	430b      	orrs	r3, r1
     766:	6053      	str	r3, [r2, #4]
     768:	4770      	bx	lr
     76a:	2106      	movs	r1, #6
     76c:	6853      	ldr	r3, [r2, #4]
     76e:	438b      	bics	r3, r1
     770:	3902      	subs	r1, #2
     772:	430b      	orrs	r3, r1
     774:	6053      	str	r3, [r2, #4]
     776:	e7f7      	b.n	768 <reg_mskd_lss+0x2c>
     778:	10001d20 	.word	0x10001d20
     77c:	c1ffffff 	.word	0xc1ffffff
     780:	10001dc0 	.word	0x10001dc0

00000784 <reg_mskd_leq>:
     784:	4a11      	ldr	r2, [pc, #68]	; (7cc <reg_mskd_leq+0x48>)
     786:	4912      	ldr	r1, [pc, #72]	; (7d0 <reg_mskd_leq+0x4c>)
     788:	6853      	ldr	r3, [r2, #4]
     78a:	4019      	ands	r1, r3
     78c:	23b8      	movs	r3, #184	; 0xb8
     78e:	059b      	lsls	r3, r3, #22
     790:	430b      	orrs	r3, r1
     792:	6053      	str	r3, [r2, #4]
     794:	2300      	movs	r3, #0
     796:	490f      	ldr	r1, [pc, #60]	; (7d4 <reg_mskd_leq+0x50>)
     798:	604b      	str	r3, [r1, #4]
     79a:	6853      	ldr	r3, [r2, #4]
     79c:	009b      	lsls	r3, r3, #2
     79e:	0edb      	lsrs	r3, r3, #27
     7a0:	2b17      	cmp	r3, #23
     7a2:	d804      	bhi.n	7ae <reg_mskd_leq+0x2a>
     7a4:	6853      	ldr	r3, [r2, #4]
     7a6:	009b      	lsls	r3, r3, #2
     7a8:	0edb      	lsrs	r3, r3, #27
     7aa:	2b18      	cmp	r3, #24
     7ac:	d907      	bls.n	7be <reg_mskd_leq+0x3a>
     7ae:	2106      	movs	r1, #6
     7b0:	4a08      	ldr	r2, [pc, #32]	; (7d4 <reg_mskd_leq+0x50>)
     7b2:	6853      	ldr	r3, [r2, #4]
     7b4:	438b      	bics	r3, r1
     7b6:	3902      	subs	r1, #2
     7b8:	430b      	orrs	r3, r1
     7ba:	6053      	str	r3, [r2, #4]
     7bc:	4770      	bx	lr
     7be:	2206      	movs	r2, #6
     7c0:	684b      	ldr	r3, [r1, #4]
     7c2:	4393      	bics	r3, r2
     7c4:	3a04      	subs	r2, #4
     7c6:	4313      	orrs	r3, r2
     7c8:	604b      	str	r3, [r1, #4]
     7ca:	e7f7      	b.n	7bc <reg_mskd_leq+0x38>
     7cc:	10001d20 	.word	0x10001d20
     7d0:	c1ffffff 	.word	0xc1ffffff
     7d4:	10001dc0 	.word	0x10001dc0

000007d8 <reg_mskd_gtr>:
     7d8:	4b0e      	ldr	r3, [pc, #56]	; (814 <reg_mskd_gtr+0x3c>)
     7da:	490f      	ldr	r1, [pc, #60]	; (818 <reg_mskd_gtr+0x40>)
     7dc:	685a      	ldr	r2, [r3, #4]
     7de:	4011      	ands	r1, r2
     7e0:	2298      	movs	r2, #152	; 0x98
     7e2:	0592      	lsls	r2, r2, #22
     7e4:	430a      	orrs	r2, r1
     7e6:	2100      	movs	r1, #0
     7e8:	605a      	str	r2, [r3, #4]
     7ea:	4a0c      	ldr	r2, [pc, #48]	; (81c <reg_mskd_gtr+0x44>)
     7ec:	6051      	str	r1, [r2, #4]
     7ee:	685b      	ldr	r3, [r3, #4]
     7f0:	009b      	lsls	r3, r3, #2
     7f2:	0edb      	lsrs	r3, r3, #27
     7f4:	2b12      	cmp	r3, #18
     7f6:	d906      	bls.n	806 <reg_mskd_gtr+0x2e>
     7f8:	6853      	ldr	r3, [r2, #4]
     7fa:	3106      	adds	r1, #6
     7fc:	438b      	bics	r3, r1
     7fe:	3904      	subs	r1, #4
     800:	430b      	orrs	r3, r1
     802:	6053      	str	r3, [r2, #4]
     804:	4770      	bx	lr
     806:	2106      	movs	r1, #6
     808:	6853      	ldr	r3, [r2, #4]
     80a:	438b      	bics	r3, r1
     80c:	3902      	subs	r1, #2
     80e:	430b      	orrs	r3, r1
     810:	6053      	str	r3, [r2, #4]
     812:	e7f7      	b.n	804 <reg_mskd_gtr+0x2c>
     814:	10001d20 	.word	0x10001d20
     818:	c1ffffff 	.word	0xc1ffffff
     81c:	10001dc0 	.word	0x10001dc0

00000820 <reg_mskd_geq>:
     820:	4b10      	ldr	r3, [pc, #64]	; (864 <reg_mskd_geq+0x44>)
     822:	4911      	ldr	r1, [pc, #68]	; (868 <reg_mskd_geq+0x48>)
     824:	685a      	ldr	r2, [r3, #4]
     826:	4011      	ands	r1, r2
     828:	2288      	movs	r2, #136	; 0x88
     82a:	0592      	lsls	r2, r2, #22
     82c:	430a      	orrs	r2, r1
     82e:	2100      	movs	r1, #0
     830:	605a      	str	r2, [r3, #4]
     832:	4a0e      	ldr	r2, [pc, #56]	; (86c <reg_mskd_geq+0x4c>)
     834:	6051      	str	r1, [r2, #4]
     836:	6859      	ldr	r1, [r3, #4]
     838:	0089      	lsls	r1, r1, #2
     83a:	d504      	bpl.n	846 <reg_mskd_geq+0x26>
     83c:	685b      	ldr	r3, [r3, #4]
     83e:	009b      	lsls	r3, r3, #2
     840:	0edb      	lsrs	r3, r3, #27
     842:	2b10      	cmp	r3, #16
     844:	d807      	bhi.n	856 <reg_mskd_geq+0x36>
     846:	2106      	movs	r1, #6
     848:	4a08      	ldr	r2, [pc, #32]	; (86c <reg_mskd_geq+0x4c>)
     84a:	6853      	ldr	r3, [r2, #4]
     84c:	438b      	bics	r3, r1
     84e:	3902      	subs	r1, #2
     850:	430b      	orrs	r3, r1
     852:	6053      	str	r3, [r2, #4]
     854:	4770      	bx	lr
     856:	2106      	movs	r1, #6
     858:	6853      	ldr	r3, [r2, #4]
     85a:	438b      	bics	r3, r1
     85c:	3904      	subs	r1, #4
     85e:	430b      	orrs	r3, r1
     860:	6053      	str	r3, [r2, #4]
     862:	e7f7      	b.n	854 <reg_mskd_geq+0x34>
     864:	10001d20 	.word	0x10001d20
     868:	c1ffffff 	.word	0xc1ffffff
     86c:	10001dc0 	.word	0x10001dc0

00000870 <pos_cmp_eq>:
     870:	2300      	movs	r3, #0
     872:	2106      	movs	r1, #6
     874:	4a03      	ldr	r2, [pc, #12]	; (884 <pos_cmp_eq+0x14>)
     876:	6053      	str	r3, [r2, #4]
     878:	6853      	ldr	r3, [r2, #4]
     87a:	438b      	bics	r3, r1
     87c:	3904      	subs	r1, #4
     87e:	430b      	orrs	r3, r1
     880:	6053      	str	r3, [r2, #4]
     882:	4770      	bx	lr
     884:	10001dc0 	.word	0x10001dc0

00000888 <pos_cmp_ne>:
     888:	2300      	movs	r3, #0
     88a:	2106      	movs	r1, #6
     88c:	4a03      	ldr	r2, [pc, #12]	; (89c <pos_cmp_ne+0x14>)
     88e:	6053      	str	r3, [r2, #4]
     890:	6853      	ldr	r3, [r2, #4]
     892:	438b      	bics	r3, r1
     894:	3904      	subs	r1, #4
     896:	430b      	orrs	r3, r1
     898:	6053      	str	r3, [r2, #4]
     89a:	4770      	bx	lr
     89c:	10001dc0 	.word	0x10001dc0

000008a0 <bits_extract_eq>:
     8a0:	2140      	movs	r1, #64	; 0x40
     8a2:	4b0b      	ldr	r3, [pc, #44]	; (8d0 <bits_extract_eq+0x30>)
     8a4:	685a      	ldr	r2, [r3, #4]
     8a6:	430a      	orrs	r2, r1
     8a8:	2100      	movs	r1, #0
     8aa:	605a      	str	r2, [r3, #4]
     8ac:	685a      	ldr	r2, [r3, #4]
     8ae:	6059      	str	r1, [r3, #4]
     8b0:	0652      	lsls	r2, r2, #25
     8b2:	d506      	bpl.n	8c2 <bits_extract_eq+0x22>
     8b4:	685a      	ldr	r2, [r3, #4]
     8b6:	3106      	adds	r1, #6
     8b8:	438a      	bics	r2, r1
     8ba:	3904      	subs	r1, #4
     8bc:	430a      	orrs	r2, r1
     8be:	605a      	str	r2, [r3, #4]
     8c0:	4770      	bx	lr
     8c2:	2106      	movs	r1, #6
     8c4:	685a      	ldr	r2, [r3, #4]
     8c6:	438a      	bics	r2, r1
     8c8:	3902      	subs	r1, #2
     8ca:	430a      	orrs	r2, r1
     8cc:	605a      	str	r2, [r3, #4]
     8ce:	e7f7      	b.n	8c0 <bits_extract_eq+0x20>
     8d0:	10001dc0 	.word	0x10001dc0

000008d4 <mskd_extract_eq>:
     8d4:	2106      	movs	r1, #6
     8d6:	4b0b      	ldr	r3, [pc, #44]	; (904 <mskd_extract_eq+0x30>)
     8d8:	685a      	ldr	r2, [r3, #4]
     8da:	438a      	bics	r2, r1
     8dc:	3904      	subs	r1, #4
     8de:	430a      	orrs	r2, r1
     8e0:	2100      	movs	r1, #0
     8e2:	605a      	str	r2, [r3, #4]
     8e4:	685a      	ldr	r2, [r3, #4]
     8e6:	6059      	str	r1, [r3, #4]
     8e8:	0752      	lsls	r2, r2, #29
     8ea:	0f92      	lsrs	r2, r2, #30
     8ec:	2a01      	cmp	r2, #1
     8ee:	d004      	beq.n	8fa <mskd_extract_eq+0x26>
     8f0:	2140      	movs	r1, #64	; 0x40
     8f2:	685a      	ldr	r2, [r3, #4]
     8f4:	430a      	orrs	r2, r1
     8f6:	605a      	str	r2, [r3, #4]
     8f8:	4770      	bx	lr
     8fa:	685a      	ldr	r2, [r3, #4]
     8fc:	3120      	adds	r1, #32
     8fe:	430a      	orrs	r2, r1
     900:	605a      	str	r2, [r3, #4]
     902:	e7f9      	b.n	8f8 <mskd_extract_eq+0x24>
     904:	10001dc0 	.word	0x10001dc0

00000908 <mskd_extract_ne>:
     908:	2100      	movs	r1, #0
     90a:	2006      	movs	r0, #6
     90c:	4b0b      	ldr	r3, [pc, #44]	; (93c <mskd_extract_ne+0x34>)
     90e:	6059      	str	r1, [r3, #4]
     910:	685a      	ldr	r2, [r3, #4]
     912:	4382      	bics	r2, r0
     914:	3802      	subs	r0, #2
     916:	4302      	orrs	r2, r0
     918:	605a      	str	r2, [r3, #4]
     91a:	685a      	ldr	r2, [r3, #4]
     91c:	6059      	str	r1, [r3, #4]
     91e:	0752      	lsls	r2, r2, #29
     920:	0f92      	lsrs	r2, r2, #30
     922:	2a02      	cmp	r2, #2
     924:	d004      	beq.n	930 <mskd_extract_ne+0x28>
     926:	685a      	ldr	r2, [r3, #4]
     928:	3120      	adds	r1, #32
     92a:	430a      	orrs	r2, r1
     92c:	605a      	str	r2, [r3, #4]
     92e:	4770      	bx	lr
     930:	2140      	movs	r1, #64	; 0x40
     932:	685a      	ldr	r2, [r3, #4]
     934:	430a      	orrs	r2, r1
     936:	605a      	str	r2, [r3, #4]
     938:	e7f9      	b.n	92e <mskd_extract_ne+0x26>
     93a:	46c0      	nop			; (mov r8, r8)
     93c:	10001dc0 	.word	0x10001dc0

00000940 <mskd_extract_lss>:
     940:	2000      	movs	r0, #0
     942:	4b0d      	ldr	r3, [pc, #52]	; (978 <mskd_extract_lss+0x38>)
     944:	490d      	ldr	r1, [pc, #52]	; (97c <mskd_extract_lss+0x3c>)
     946:	6058      	str	r0, [r3, #4]
     948:	685a      	ldr	r2, [r3, #4]
     94a:	4011      	ands	r1, r2
     94c:	22b0      	movs	r2, #176	; 0xb0
     94e:	0552      	lsls	r2, r2, #21
     950:	430a      	orrs	r2, r1
     952:	605a      	str	r2, [r3, #4]
     954:	685b      	ldr	r3, [r3, #4]
     956:	4a0a      	ldr	r2, [pc, #40]	; (980 <mskd_extract_lss+0x40>)
     958:	009b      	lsls	r3, r3, #2
     95a:	6050      	str	r0, [r2, #4]
     95c:	0edb      	lsrs	r3, r3, #27
     95e:	2b0b      	cmp	r3, #11
     960:	d804      	bhi.n	96c <mskd_extract_lss+0x2c>
     962:	2120      	movs	r1, #32
     964:	6853      	ldr	r3, [r2, #4]
     966:	430b      	orrs	r3, r1
     968:	6053      	str	r3, [r2, #4]
     96a:	4770      	bx	lr
     96c:	2140      	movs	r1, #64	; 0x40
     96e:	6853      	ldr	r3, [r2, #4]
     970:	430b      	orrs	r3, r1
     972:	6053      	str	r3, [r2, #4]
     974:	e7f9      	b.n	96a <mskd_extract_lss+0x2a>
     976:	46c0      	nop			; (mov r8, r8)
     978:	10001d20 	.word	0x10001d20
     97c:	c1ffffff 	.word	0xc1ffffff
     980:	10001dc0 	.word	0x10001dc0

00000984 <mskd_extract_leq>:
     984:	2000      	movs	r0, #0
     986:	4b0e      	ldr	r3, [pc, #56]	; (9c0 <mskd_extract_leq+0x3c>)
     988:	490e      	ldr	r1, [pc, #56]	; (9c4 <mskd_extract_leq+0x40>)
     98a:	6058      	str	r0, [r3, #4]
     98c:	685a      	ldr	r2, [r3, #4]
     98e:	4011      	ands	r1, r2
     990:	22b8      	movs	r2, #184	; 0xb8
     992:	0592      	lsls	r2, r2, #22
     994:	430a      	orrs	r2, r1
     996:	605a      	str	r2, [r3, #4]
     998:	685b      	ldr	r3, [r3, #4]
     99a:	4a0b      	ldr	r2, [pc, #44]	; (9c8 <mskd_extract_leq+0x44>)
     99c:	009b      	lsls	r3, r3, #2
     99e:	6050      	str	r0, [r2, #4]
     9a0:	0ed9      	lsrs	r1, r3, #27
     9a2:	2917      	cmp	r1, #23
     9a4:	d801      	bhi.n	9aa <mskd_extract_leq+0x26>
     9a6:	2918      	cmp	r1, #24
     9a8:	d905      	bls.n	9b6 <mskd_extract_leq+0x32>
     9aa:	2140      	movs	r1, #64	; 0x40
     9ac:	4a06      	ldr	r2, [pc, #24]	; (9c8 <mskd_extract_leq+0x44>)
     9ae:	6853      	ldr	r3, [r2, #4]
     9b0:	430b      	orrs	r3, r1
     9b2:	6053      	str	r3, [r2, #4]
     9b4:	4770      	bx	lr
     9b6:	2120      	movs	r1, #32
     9b8:	6853      	ldr	r3, [r2, #4]
     9ba:	430b      	orrs	r3, r1
     9bc:	6053      	str	r3, [r2, #4]
     9be:	e7f9      	b.n	9b4 <mskd_extract_leq+0x30>
     9c0:	10001d20 	.word	0x10001d20
     9c4:	c1ffffff 	.word	0xc1ffffff
     9c8:	10001dc0 	.word	0x10001dc0

000009cc <mskd_extract_gtr>:
     9cc:	2000      	movs	r0, #0
     9ce:	4b0d      	ldr	r3, [pc, #52]	; (a04 <mskd_extract_gtr+0x38>)
     9d0:	490d      	ldr	r1, [pc, #52]	; (a08 <mskd_extract_gtr+0x3c>)
     9d2:	6058      	str	r0, [r3, #4]
     9d4:	685a      	ldr	r2, [r3, #4]
     9d6:	4011      	ands	r1, r2
     9d8:	2298      	movs	r2, #152	; 0x98
     9da:	0592      	lsls	r2, r2, #22
     9dc:	430a      	orrs	r2, r1
     9de:	605a      	str	r2, [r3, #4]
     9e0:	685b      	ldr	r3, [r3, #4]
     9e2:	4a0a      	ldr	r2, [pc, #40]	; (a0c <mskd_extract_gtr+0x40>)
     9e4:	009b      	lsls	r3, r3, #2
     9e6:	6050      	str	r0, [r2, #4]
     9e8:	0edb      	lsrs	r3, r3, #27
     9ea:	2b12      	cmp	r3, #18
     9ec:	d904      	bls.n	9f8 <mskd_extract_gtr+0x2c>
     9ee:	2120      	movs	r1, #32
     9f0:	6853      	ldr	r3, [r2, #4]
     9f2:	430b      	orrs	r3, r1
     9f4:	6053      	str	r3, [r2, #4]
     9f6:	4770      	bx	lr
     9f8:	2140      	movs	r1, #64	; 0x40
     9fa:	6853      	ldr	r3, [r2, #4]
     9fc:	430b      	orrs	r3, r1
     9fe:	6053      	str	r3, [r2, #4]
     a00:	e7f9      	b.n	9f6 <mskd_extract_gtr+0x2a>
     a02:	46c0      	nop			; (mov r8, r8)
     a04:	10001d20 	.word	0x10001d20
     a08:	c1ffffff 	.word	0xc1ffffff
     a0c:	10001dc0 	.word	0x10001dc0

00000a10 <set_bits_global>:
     a10:	2140      	movs	r1, #64	; 0x40
     a12:	4a02      	ldr	r2, [pc, #8]	; (a1c <set_bits_global+0xc>)
     a14:	6853      	ldr	r3, [r2, #4]
     a16:	430b      	orrs	r3, r1
     a18:	6053      	str	r3, [r2, #4]
     a1a:	4770      	bx	lr
     a1c:	10001dc0 	.word	0x10001dc0

00000a20 <ins_mskd_global>:
     a20:	2106      	movs	r1, #6
     a22:	4a03      	ldr	r2, [pc, #12]	; (a30 <ins_mskd_global+0x10>)
     a24:	6853      	ldr	r3, [r2, #4]
     a26:	438b      	bics	r3, r1
     a28:	3904      	subs	r1, #4
     a2a:	430b      	orrs	r3, r1
     a2c:	6053      	str	r3, [r2, #4]
     a2e:	4770      	bx	lr
     a30:	10001dc0 	.word	0x10001dc0

00000a34 <assign_array_global>:
     a34:	22bd      	movs	r2, #189	; 0xbd
     a36:	4b01      	ldr	r3, [pc, #4]	; (a3c <assign_array_global+0x8>)
     a38:	601a      	str	r2, [r3, #0]
     a3a:	4770      	bx	lr
     a3c:	10001c2c 	.word	0x10001c2c

00000a40 <shifted_global>:
     a40:	4b06      	ldr	r3, [pc, #24]	; (a5c <shifted_global+0x1c>)
     a42:	4907      	ldr	r1, [pc, #28]	; (a60 <shifted_global+0x20>)
     a44:	685a      	ldr	r2, [r3, #4]
     a46:	4011      	ands	r1, r2
     a48:	22b8      	movs	r2, #184	; 0xb8
     a4a:	0592      	lsls	r2, r2, #22
     a4c:	430a      	orrs	r2, r1
     a4e:	605a      	str	r2, [r3, #4]
     a50:	685b      	ldr	r3, [r3, #4]
     a52:	4a04      	ldr	r2, [pc, #16]	; (a64 <shifted_global+0x24>)
     a54:	009b      	lsls	r3, r3, #2
     a56:	0edb      	lsrs	r3, r3, #27
     a58:	62d3      	str	r3, [r2, #44]	; 0x2c
     a5a:	4770      	bx	lr
     a5c:	10001d20 	.word	0x10001d20
     a60:	c1ffffff 	.word	0xc1ffffff
     a64:	10001c00 	.word	0x10001c00

00000a68 <assign_register_global>:
     a68:	2300      	movs	r3, #0
     a6a:	2106      	movs	r1, #6
     a6c:	4a03      	ldr	r2, [pc, #12]	; (a7c <assign_register_global+0x14>)
     a6e:	6053      	str	r3, [r2, #4]
     a70:	6853      	ldr	r3, [r2, #4]
     a72:	438b      	bics	r3, r1
     a74:	3902      	subs	r1, #2
     a76:	430b      	orrs	r3, r1
     a78:	6053      	str	r3, [r2, #4]
     a7a:	4770      	bx	lr
     a7c:	10001dc0 	.word	0x10001dc0

00000a80 <copy_bits_equ>:
     a80:	2100      	movs	r1, #0
     a82:	2040      	movs	r0, #64	; 0x40
     a84:	4b0b      	ldr	r3, [pc, #44]	; (ab4 <copy_bits_equ+0x34>)
     a86:	6059      	str	r1, [r3, #4]
     a88:	685a      	ldr	r2, [r3, #4]
     a8a:	4302      	orrs	r2, r0
     a8c:	605a      	str	r2, [r3, #4]
     a8e:	685a      	ldr	r2, [r3, #4]
     a90:	6059      	str	r1, [r3, #4]
     a92:	0652      	lsls	r2, r2, #25
     a94:	d406      	bmi.n	aa4 <copy_bits_equ+0x24>
     a96:	2106      	movs	r1, #6
     a98:	685a      	ldr	r2, [r3, #4]
     a9a:	438a      	bics	r2, r1
     a9c:	3902      	subs	r1, #2
     a9e:	430a      	orrs	r2, r1
     aa0:	605a      	str	r2, [r3, #4]
     aa2:	4770      	bx	lr
     aa4:	685a      	ldr	r2, [r3, #4]
     aa6:	3106      	adds	r1, #6
     aa8:	438a      	bics	r2, r1
     aaa:	3904      	subs	r1, #4
     aac:	430a      	orrs	r2, r1
     aae:	605a      	str	r2, [r3, #4]
     ab0:	e7f7      	b.n	aa2 <copy_bits_equ+0x22>
     ab2:	46c0      	nop			; (mov r8, r8)
     ab4:	10001dc0 	.word	0x10001dc0

00000ab8 <copy_bits_neq>:
     ab8:	2100      	movs	r1, #0
     aba:	2040      	movs	r0, #64	; 0x40
     abc:	4b0b      	ldr	r3, [pc, #44]	; (aec <copy_bits_neq+0x34>)
     abe:	6059      	str	r1, [r3, #4]
     ac0:	685a      	ldr	r2, [r3, #4]
     ac2:	4302      	orrs	r2, r0
     ac4:	605a      	str	r2, [r3, #4]
     ac6:	685a      	ldr	r2, [r3, #4]
     ac8:	6059      	str	r1, [r3, #4]
     aca:	0652      	lsls	r2, r2, #25
     acc:	d406      	bmi.n	adc <copy_bits_neq+0x24>
     ace:	685a      	ldr	r2, [r3, #4]
     ad0:	3106      	adds	r1, #6
     ad2:	438a      	bics	r2, r1
     ad4:	3904      	subs	r1, #4
     ad6:	430a      	orrs	r2, r1
     ad8:	605a      	str	r2, [r3, #4]
     ada:	4770      	bx	lr
     adc:	2106      	movs	r1, #6
     ade:	685a      	ldr	r2, [r3, #4]
     ae0:	438a      	bics	r2, r1
     ae2:	3902      	subs	r1, #2
     ae4:	430a      	orrs	r2, r1
     ae6:	605a      	str	r2, [r3, #4]
     ae8:	e7f7      	b.n	ada <copy_bits_neq+0x22>
     aea:	46c0      	nop			; (mov r8, r8)
     aec:	10001dc0 	.word	0x10001dc0

00000af0 <copy_mskd_equ>:
     af0:	2000      	movs	r0, #0
     af2:	4b0f      	ldr	r3, [pc, #60]	; (b30 <copy_mskd_equ+0x40>)
     af4:	490f      	ldr	r1, [pc, #60]	; (b34 <copy_mskd_equ+0x44>)
     af6:	6058      	str	r0, [r3, #4]
     af8:	685a      	ldr	r2, [r3, #4]
     afa:	4011      	ands	r1, r2
     afc:	22b0      	movs	r2, #176	; 0xb0
     afe:	0552      	lsls	r2, r2, #21
     b00:	430a      	orrs	r2, r1
     b02:	605a      	str	r2, [r3, #4]
     b04:	685b      	ldr	r3, [r3, #4]
     b06:	4a0c      	ldr	r2, [pc, #48]	; (b38 <copy_mskd_equ+0x48>)
     b08:	009b      	lsls	r3, r3, #2
     b0a:	0edb      	lsrs	r3, r3, #27
     b0c:	6050      	str	r0, [r2, #4]
     b0e:	2b0b      	cmp	r3, #11
     b10:	d006      	beq.n	b20 <copy_mskd_equ+0x30>
     b12:	2106      	movs	r1, #6
     b14:	6853      	ldr	r3, [r2, #4]
     b16:	438b      	bics	r3, r1
     b18:	3902      	subs	r1, #2
     b1a:	430b      	orrs	r3, r1
     b1c:	6053      	str	r3, [r2, #4]
     b1e:	4770      	bx	lr
     b20:	2106      	movs	r1, #6
     b22:	6853      	ldr	r3, [r2, #4]
     b24:	438b      	bics	r3, r1
     b26:	3904      	subs	r1, #4
     b28:	430b      	orrs	r3, r1
     b2a:	6053      	str	r3, [r2, #4]
     b2c:	e7f7      	b.n	b1e <copy_mskd_equ+0x2e>
     b2e:	46c0      	nop			; (mov r8, r8)
     b30:	10001d20 	.word	0x10001d20
     b34:	c1ffffff 	.word	0xc1ffffff
     b38:	10001dc0 	.word	0x10001dc0

00000b3c <copy_mskd_neq>:
     b3c:	2000      	movs	r0, #0
     b3e:	4b0f      	ldr	r3, [pc, #60]	; (b7c <copy_mskd_neq+0x40>)
     b40:	490f      	ldr	r1, [pc, #60]	; (b80 <copy_mskd_neq+0x44>)
     b42:	6058      	str	r0, [r3, #4]
     b44:	685a      	ldr	r2, [r3, #4]
     b46:	4011      	ands	r1, r2
     b48:	22d0      	movs	r2, #208	; 0xd0
     b4a:	0552      	lsls	r2, r2, #21
     b4c:	430a      	orrs	r2, r1
     b4e:	605a      	str	r2, [r3, #4]
     b50:	685b      	ldr	r3, [r3, #4]
     b52:	4a0c      	ldr	r2, [pc, #48]	; (b84 <copy_mskd_neq+0x48>)
     b54:	009b      	lsls	r3, r3, #2
     b56:	0edb      	lsrs	r3, r3, #27
     b58:	6050      	str	r0, [r2, #4]
     b5a:	2b0d      	cmp	r3, #13
     b5c:	d006      	beq.n	b6c <copy_mskd_neq+0x30>
     b5e:	2106      	movs	r1, #6
     b60:	6853      	ldr	r3, [r2, #4]
     b62:	438b      	bics	r3, r1
     b64:	3904      	subs	r1, #4
     b66:	430b      	orrs	r3, r1
     b68:	6053      	str	r3, [r2, #4]
     b6a:	4770      	bx	lr
     b6c:	2106      	movs	r1, #6
     b6e:	6853      	ldr	r3, [r2, #4]
     b70:	438b      	bics	r3, r1
     b72:	3902      	subs	r1, #2
     b74:	430b      	orrs	r3, r1
     b76:	6053      	str	r3, [r2, #4]
     b78:	e7f7      	b.n	b6a <copy_mskd_neq+0x2e>
     b7a:	46c0      	nop			; (mov r8, r8)
     b7c:	10001d20 	.word	0x10001d20
     b80:	c1ffffff 	.word	0xc1ffffff
     b84:	10001dc0 	.word	0x10001dc0

00000b88 <copy_mskd_lss>:
     b88:	2000      	movs	r0, #0
     b8a:	4b0f      	ldr	r3, [pc, #60]	; (bc8 <copy_mskd_lss+0x40>)
     b8c:	490f      	ldr	r1, [pc, #60]	; (bcc <copy_mskd_lss+0x44>)
     b8e:	6058      	str	r0, [r3, #4]
     b90:	685a      	ldr	r2, [r3, #4]
     b92:	4011      	ands	r1, r2
     b94:	22d8      	movs	r2, #216	; 0xd8
     b96:	0592      	lsls	r2, r2, #22
     b98:	430a      	orrs	r2, r1
     b9a:	605a      	str	r2, [r3, #4]
     b9c:	685b      	ldr	r3, [r3, #4]
     b9e:	4a0c      	ldr	r2, [pc, #48]	; (bd0 <copy_mskd_lss+0x48>)
     ba0:	009b      	lsls	r3, r3, #2
     ba2:	0edb      	lsrs	r3, r3, #27
     ba4:	6050      	str	r0, [r2, #4]
     ba6:	2b1b      	cmp	r3, #27
     ba8:	d806      	bhi.n	bb8 <copy_mskd_lss+0x30>
     baa:	2106      	movs	r1, #6
     bac:	6853      	ldr	r3, [r2, #4]
     bae:	438b      	bics	r3, r1
     bb0:	3904      	subs	r1, #4
     bb2:	430b      	orrs	r3, r1
     bb4:	6053      	str	r3, [r2, #4]
     bb6:	4770      	bx	lr
     bb8:	2106      	movs	r1, #6
     bba:	6853      	ldr	r3, [r2, #4]
     bbc:	438b      	bics	r3, r1
     bbe:	3902      	subs	r1, #2
     bc0:	430b      	orrs	r3, r1
     bc2:	6053      	str	r3, [r2, #4]
     bc4:	e7f7      	b.n	bb6 <copy_mskd_lss+0x2e>
     bc6:	46c0      	nop			; (mov r8, r8)
     bc8:	10001d20 	.word	0x10001d20
     bcc:	c1ffffff 	.word	0xc1ffffff
     bd0:	10001dc0 	.word	0x10001dc0

00000bd4 <copy_mskd_leq>:
     bd4:	2000      	movs	r0, #0
     bd6:	4b0f      	ldr	r3, [pc, #60]	; (c14 <copy_mskd_leq+0x40>)
     bd8:	490f      	ldr	r1, [pc, #60]	; (c18 <copy_mskd_leq+0x44>)
     bda:	6058      	str	r0, [r3, #4]
     bdc:	685a      	ldr	r2, [r3, #4]
     bde:	4011      	ands	r1, r2
     be0:	22b8      	movs	r2, #184	; 0xb8
     be2:	0592      	lsls	r2, r2, #22
     be4:	430a      	orrs	r2, r1
     be6:	605a      	str	r2, [r3, #4]
     be8:	685b      	ldr	r3, [r3, #4]
     bea:	4a0c      	ldr	r2, [pc, #48]	; (c1c <copy_mskd_leq+0x48>)
     bec:	009b      	lsls	r3, r3, #2
     bee:	0edb      	lsrs	r3, r3, #27
     bf0:	6050      	str	r0, [r2, #4]
     bf2:	2b17      	cmp	r3, #23
     bf4:	d806      	bhi.n	c04 <copy_mskd_leq+0x30>
     bf6:	2106      	movs	r1, #6
     bf8:	6853      	ldr	r3, [r2, #4]
     bfa:	438b      	bics	r3, r1
     bfc:	3904      	subs	r1, #4
     bfe:	430b      	orrs	r3, r1
     c00:	6053      	str	r3, [r2, #4]
     c02:	4770      	bx	lr
     c04:	2106      	movs	r1, #6
     c06:	6853      	ldr	r3, [r2, #4]
     c08:	438b      	bics	r3, r1
     c0a:	3902      	subs	r1, #2
     c0c:	430b      	orrs	r3, r1
     c0e:	6053      	str	r3, [r2, #4]
     c10:	e7f7      	b.n	c02 <copy_mskd_leq+0x2e>
     c12:	46c0      	nop			; (mov r8, r8)
     c14:	10001d20 	.word	0x10001d20
     c18:	c1ffffff 	.word	0xc1ffffff
     c1c:	10001dc0 	.word	0x10001dc0

00000c20 <copy_mskd_gtr>:
     c20:	2000      	movs	r0, #0
     c22:	4b0f      	ldr	r3, [pc, #60]	; (c60 <copy_mskd_gtr+0x40>)
     c24:	490f      	ldr	r1, [pc, #60]	; (c64 <copy_mskd_gtr+0x44>)
     c26:	6058      	str	r0, [r3, #4]
     c28:	685a      	ldr	r2, [r3, #4]
     c2a:	4011      	ands	r1, r2
     c2c:	2298      	movs	r2, #152	; 0x98
     c2e:	0592      	lsls	r2, r2, #22
     c30:	430a      	orrs	r2, r1
     c32:	605a      	str	r2, [r3, #4]
     c34:	685b      	ldr	r3, [r3, #4]
     c36:	4a0c      	ldr	r2, [pc, #48]	; (c68 <copy_mskd_gtr+0x48>)
     c38:	009b      	lsls	r3, r3, #2
     c3a:	0edb      	lsrs	r3, r3, #27
     c3c:	6050      	str	r0, [r2, #4]
     c3e:	2b12      	cmp	r3, #18
     c40:	d906      	bls.n	c50 <copy_mskd_gtr+0x30>
     c42:	2106      	movs	r1, #6
     c44:	6853      	ldr	r3, [r2, #4]
     c46:	438b      	bics	r3, r1
     c48:	3904      	subs	r1, #4
     c4a:	430b      	orrs	r3, r1
     c4c:	6053      	str	r3, [r2, #4]
     c4e:	4770      	bx	lr
     c50:	2106      	movs	r1, #6
     c52:	6853      	ldr	r3, [r2, #4]
     c54:	438b      	bics	r3, r1
     c56:	3902      	subs	r1, #2
     c58:	430b      	orrs	r3, r1
     c5a:	6053      	str	r3, [r2, #4]
     c5c:	e7f7      	b.n	c4e <copy_mskd_gtr+0x2e>
     c5e:	46c0      	nop			; (mov r8, r8)
     c60:	10001d20 	.word	0x10001d20
     c64:	c1ffffff 	.word	0xc1ffffff
     c68:	10001dc0 	.word	0x10001dc0

00000c6c <copy_mskd_geq>:
     c6c:	2000      	movs	r0, #0
     c6e:	4b0f      	ldr	r3, [pc, #60]	; (cac <copy_mskd_geq+0x40>)
     c70:	490f      	ldr	r1, [pc, #60]	; (cb0 <copy_mskd_geq+0x44>)
     c72:	6058      	str	r0, [r3, #4]
     c74:	685a      	ldr	r2, [r3, #4]
     c76:	4011      	ands	r1, r2
     c78:	2288      	movs	r2, #136	; 0x88
     c7a:	0592      	lsls	r2, r2, #22
     c7c:	430a      	orrs	r2, r1
     c7e:	605a      	str	r2, [r3, #4]
     c80:	685b      	ldr	r3, [r3, #4]
     c82:	4a0c      	ldr	r2, [pc, #48]	; (cb4 <copy_mskd_geq+0x48>)
     c84:	009b      	lsls	r3, r3, #2
     c86:	0edb      	lsrs	r3, r3, #27
     c88:	6050      	str	r0, [r2, #4]
     c8a:	2b10      	cmp	r3, #16
     c8c:	d906      	bls.n	c9c <copy_mskd_geq+0x30>
     c8e:	2106      	movs	r1, #6
     c90:	6853      	ldr	r3, [r2, #4]
     c92:	438b      	bics	r3, r1
     c94:	3904      	subs	r1, #4
     c96:	430b      	orrs	r3, r1
     c98:	6053      	str	r3, [r2, #4]
     c9a:	4770      	bx	lr
     c9c:	2106      	movs	r1, #6
     c9e:	6853      	ldr	r3, [r2, #4]
     ca0:	438b      	bics	r3, r1
     ca2:	3902      	subs	r1, #2
     ca4:	430b      	orrs	r3, r1
     ca6:	6053      	str	r3, [r2, #4]
     ca8:	e7f7      	b.n	c9a <copy_mskd_geq+0x2e>
     caa:	46c0      	nop			; (mov r8, r8)
     cac:	10001d20 	.word	0x10001d20
     cb0:	c1ffffff 	.word	0xc1ffffff
     cb4:	10001dc0 	.word	0x10001dc0

00000cb8 <copy_shifted>:
     cb8:	2000      	movs	r0, #0
     cba:	4b0f      	ldr	r3, [pc, #60]	; (cf8 <copy_shifted+0x40>)
     cbc:	490f      	ldr	r1, [pc, #60]	; (cfc <copy_shifted+0x44>)
     cbe:	6058      	str	r0, [r3, #4]
     cc0:	685a      	ldr	r2, [r3, #4]
     cc2:	4011      	ands	r1, r2
     cc4:	22b0      	movs	r2, #176	; 0xb0
     cc6:	0552      	lsls	r2, r2, #21
     cc8:	430a      	orrs	r2, r1
     cca:	605a      	str	r2, [r3, #4]
     ccc:	685b      	ldr	r3, [r3, #4]
     cce:	4a0c      	ldr	r2, [pc, #48]	; (d00 <copy_shifted+0x48>)
     cd0:	009b      	lsls	r3, r3, #2
     cd2:	0edb      	lsrs	r3, r3, #27
     cd4:	6050      	str	r0, [r2, #4]
     cd6:	2b0b      	cmp	r3, #11
     cd8:	d006      	beq.n	ce8 <copy_shifted+0x30>
     cda:	2106      	movs	r1, #6
     cdc:	6853      	ldr	r3, [r2, #4]
     cde:	438b      	bics	r3, r1
     ce0:	3902      	subs	r1, #2
     ce2:	430b      	orrs	r3, r1
     ce4:	6053      	str	r3, [r2, #4]
     ce6:	4770      	bx	lr
     ce8:	2106      	movs	r1, #6
     cea:	6853      	ldr	r3, [r2, #4]
     cec:	438b      	bics	r3, r1
     cee:	3904      	subs	r1, #4
     cf0:	430b      	orrs	r3, r1
     cf2:	6053      	str	r3, [r2, #4]
     cf4:	e7f7      	b.n	ce6 <copy_shifted+0x2e>
     cf6:	46c0      	nop			; (mov r8, r8)
     cf8:	10001d20 	.word	0x10001d20
     cfc:	c1ffffff 	.word	0xc1ffffff
     d00:	10001dc0 	.word	0x10001dc0

00000d04 <bits_val>:
     d04:	2803      	cmp	r0, #3
     d06:	d004      	beq.n	d12 <bits_val+0xe>
     d08:	2804      	cmp	r0, #4
     d0a:	d015      	beq.n	d38 <bits_val+0x34>
     d0c:	2800      	cmp	r0, #0
     d0e:	d00e      	beq.n	d2e <bits_val+0x2a>
     d10:	4770      	bx	lr
     d12:	2301      	movs	r3, #1
     d14:	2020      	movs	r0, #32
     d16:	4a0c      	ldr	r2, [pc, #48]	; (d48 <bits_val+0x44>)
     d18:	4019      	ands	r1, r3
     d1a:	6853      	ldr	r3, [r2, #4]
     d1c:	0149      	lsls	r1, r1, #5
     d1e:	4383      	bics	r3, r0
     d20:	430b      	orrs	r3, r1
     d22:	6053      	str	r3, [r2, #4]
     d24:	6853      	ldr	r3, [r2, #4]
     d26:	4383      	bics	r3, r0
     d28:	4319      	orrs	r1, r3
     d2a:	6051      	str	r1, [r2, #4]
     d2c:	e7f0      	b.n	d10 <bits_val+0xc>
     d2e:	4a06      	ldr	r2, [pc, #24]	; (d48 <bits_val+0x44>)
     d30:	3001      	adds	r0, #1
     d32:	4001      	ands	r1, r0
     d34:	6853      	ldr	r3, [r2, #4]
     d36:	e7f2      	b.n	d1e <bits_val+0x1a>
     d38:	2301      	movs	r3, #1
     d3a:	4a03      	ldr	r2, [pc, #12]	; (d48 <bits_val+0x44>)
     d3c:	4019      	ands	r1, r3
     d3e:	0189      	lsls	r1, r1, #6
     d40:	6853      	ldr	r3, [r2, #4]
     d42:	2040      	movs	r0, #64	; 0x40
     d44:	e7eb      	b.n	d1e <bits_val+0x1a>
     d46:	46c0      	nop			; (mov r8, r8)
     d48:	10001dc0 	.word	0x10001dc0

00000d4c <call_bits_val_const>:
     d4c:	b500      	push	{lr}
     d4e:	2101      	movs	r1, #1
     d50:	2004      	movs	r0, #4
     d52:	f7ff fffe 	bl	d04 <bits_val>
     d56:	bd00      	pop	{pc}

00000d58 <call_bits_val_var>:
     d58:	b500      	push	{lr}
     d5a:	2101      	movs	r1, #1
     d5c:	2004      	movs	r0, #4
     d5e:	f7ff fffe 	bl	d04 <bits_val>
     d62:	bd00      	pop	{pc}

00000d64 <call_bits_val_global>:
     d64:	b500      	push	{lr}
     d66:	2101      	movs	r1, #1
     d68:	2004      	movs	r0, #4
     d6a:	f7ff fffe 	bl	d04 <bits_val>
     d6e:	bd00      	pop	{pc}

00000d70 <bits_ref>:
     d70:	6803      	ldr	r3, [r0, #0]
     d72:	b530      	push	{r4, r5, lr}
     d74:	2b03      	cmp	r3, #3
     d76:	d004      	beq.n	d82 <bits_ref+0x12>
     d78:	2b04      	cmp	r3, #4
     d7a:	d023      	beq.n	dc4 <bits_ref+0x54>
     d7c:	2b00      	cmp	r3, #0
     d7e:	d012      	beq.n	da6 <bits_ref+0x36>
     d80:	bd30      	pop	{r4, r5, pc}
     d82:	2301      	movs	r3, #1
     d84:	2520      	movs	r5, #32
     d86:	4c18      	ldr	r4, [pc, #96]	; (de8 <bits_ref+0x78>)
     d88:	6808      	ldr	r0, [r1, #0]
     d8a:	6862      	ldr	r2, [r4, #4]
     d8c:	4018      	ands	r0, r3
     d8e:	0140      	lsls	r0, r0, #5
     d90:	43aa      	bics	r2, r5
     d92:	4302      	orrs	r2, r0
     d94:	6062      	str	r2, [r4, #4]
     d96:	680a      	ldr	r2, [r1, #0]
     d98:	4013      	ands	r3, r2
     d9a:	6862      	ldr	r2, [r4, #4]
     d9c:	015b      	lsls	r3, r3, #5
     d9e:	43aa      	bics	r2, r5
     da0:	4313      	orrs	r3, r2
     da2:	6063      	str	r3, [r4, #4]
     da4:	e7ec      	b.n	d80 <bits_ref+0x10>
     da6:	2001      	movs	r0, #1
     da8:	4a0f      	ldr	r2, [pc, #60]	; (de8 <bits_ref+0x78>)
     daa:	680c      	ldr	r4, [r1, #0]
     dac:	6853      	ldr	r3, [r2, #4]
     dae:	4004      	ands	r4, r0
     db0:	4383      	bics	r3, r0
     db2:	4323      	orrs	r3, r4
     db4:	6053      	str	r3, [r2, #4]
     db6:	6809      	ldr	r1, [r1, #0]
     db8:	6853      	ldr	r3, [r2, #4]
     dba:	4001      	ands	r1, r0
     dbc:	4383      	bics	r3, r0
     dbe:	430b      	orrs	r3, r1
     dc0:	6053      	str	r3, [r2, #4]
     dc2:	e7dd      	b.n	d80 <bits_ref+0x10>
     dc4:	2301      	movs	r3, #1
     dc6:	2540      	movs	r5, #64	; 0x40
     dc8:	4c07      	ldr	r4, [pc, #28]	; (de8 <bits_ref+0x78>)
     dca:	6808      	ldr	r0, [r1, #0]
     dcc:	6862      	ldr	r2, [r4, #4]
     dce:	4018      	ands	r0, r3
     dd0:	0180      	lsls	r0, r0, #6
     dd2:	43aa      	bics	r2, r5
     dd4:	4302      	orrs	r2, r0
     dd6:	6062      	str	r2, [r4, #4]
     dd8:	680a      	ldr	r2, [r1, #0]
     dda:	4013      	ands	r3, r2
     ddc:	6862      	ldr	r2, [r4, #4]
     dde:	019b      	lsls	r3, r3, #6
     de0:	43aa      	bics	r2, r5
     de2:	4313      	orrs	r3, r2
     de4:	6063      	str	r3, [r4, #4]
     de6:	e7cb      	b.n	d80 <bits_ref+0x10>
     de8:	10001dc0 	.word	0x10001dc0

00000dec <call_bits_ref_const>:
     dec:	2300      	movs	r3, #0
     dee:	b500      	push	{lr}
     df0:	b082      	sub	sp, #8
     df2:	9300      	str	r3, [sp, #0]
     df4:	a901      	add	r1, sp, #4
     df6:	3301      	adds	r3, #1
     df8:	4668      	mov	r0, sp
     dfa:	9301      	str	r3, [sp, #4]
     dfc:	f7ff fffe 	bl	d70 <bits_ref>
     e00:	b002      	add	sp, #8
     e02:	bd00      	pop	{pc}

00000e04 <call_bits_ref_var>:
     e04:	2300      	movs	r3, #0
     e06:	b500      	push	{lr}
     e08:	b082      	sub	sp, #8
     e0a:	9300      	str	r3, [sp, #0]
     e0c:	a901      	add	r1, sp, #4
     e0e:	3301      	adds	r3, #1
     e10:	4668      	mov	r0, sp
     e12:	9301      	str	r3, [sp, #4]
     e14:	f7ff fffe 	bl	d70 <bits_ref>
     e18:	b002      	add	sp, #8
     e1a:	bd00      	pop	{pc}

00000e1c <call_bits_ref_global>:
     e1c:	2304      	movs	r3, #4
     e1e:	b500      	push	{lr}
     e20:	b082      	sub	sp, #8
     e22:	9300      	str	r3, [sp, #0]
     e24:	a901      	add	r1, sp, #4
     e26:	3b03      	subs	r3, #3
     e28:	4668      	mov	r0, sp
     e2a:	9301      	str	r3, [sp, #4]
     e2c:	f7ff fffe 	bl	d70 <bits_ref>
     e30:	b002      	add	sp, #8
     e32:	bd00      	pop	{pc}

00000e34 <mskd_val>:
     e34:	b510      	push	{r4, lr}
     e36:	2806      	cmp	r0, #6
     e38:	d810      	bhi.n	e5c <mskd_val+0x28>
     e3a:	4b21      	ldr	r3, [pc, #132]	; (ec0 <mskd_val+0x8c>)
     e3c:	0080      	lsls	r0, r0, #2
     e3e:	581b      	ldr	r3, [r3, r0]
     e40:	469f      	mov	pc, r3
     e42:	231f      	movs	r3, #31
     e44:	481f      	ldr	r0, [pc, #124]	; (ec4 <mskd_val+0x90>)
     e46:	4019      	ands	r1, r3
     e48:	6842      	ldr	r2, [r0, #4]
     e4a:	4c1f      	ldr	r4, [pc, #124]	; (ec8 <mskd_val+0x94>)
     e4c:	0309      	lsls	r1, r1, #12
     e4e:	4022      	ands	r2, r4
     e50:	430a      	orrs	r2, r1
     e52:	6042      	str	r2, [r0, #4]
     e54:	6843      	ldr	r3, [r0, #4]
     e56:	4023      	ands	r3, r4
     e58:	4319      	orrs	r1, r3
     e5a:	6041      	str	r1, [r0, #4]
     e5c:	bd10      	pop	{r4, pc}
     e5e:	2303      	movs	r3, #3
     e60:	2018      	movs	r0, #24
     e62:	4a18      	ldr	r2, [pc, #96]	; (ec4 <mskd_val+0x90>)
     e64:	4019      	ands	r1, r3
     e66:	6853      	ldr	r3, [r2, #4]
     e68:	00c9      	lsls	r1, r1, #3
     e6a:	4383      	bics	r3, r0
     e6c:	430b      	orrs	r3, r1
     e6e:	6053      	str	r3, [r2, #4]
     e70:	6853      	ldr	r3, [r2, #4]
     e72:	4383      	bics	r3, r0
     e74:	4319      	orrs	r1, r3
     e76:	6051      	str	r1, [r2, #4]
     e78:	e7f0      	b.n	e5c <mskd_val+0x28>
     e7a:	2301      	movs	r3, #1
     e7c:	4a11      	ldr	r2, [pc, #68]	; (ec4 <mskd_val+0x90>)
     e7e:	4019      	ands	r1, r3
     e80:	0149      	lsls	r1, r1, #5
     e82:	6853      	ldr	r3, [r2, #4]
     e84:	2020      	movs	r0, #32
     e86:	e7f0      	b.n	e6a <mskd_val+0x36>
     e88:	2001      	movs	r0, #1
     e8a:	4001      	ands	r1, r0
     e8c:	000c      	movs	r4, r1
     e8e:	4a0d      	ldr	r2, [pc, #52]	; (ec4 <mskd_val+0x90>)
     e90:	6853      	ldr	r3, [r2, #4]
     e92:	4383      	bics	r3, r0
     e94:	430b      	orrs	r3, r1
     e96:	6053      	str	r3, [r2, #4]
     e98:	6851      	ldr	r1, [r2, #4]
     e9a:	4381      	bics	r1, r0
     e9c:	4321      	orrs	r1, r4
     e9e:	6051      	str	r1, [r2, #4]
     ea0:	e7dc      	b.n	e5c <mskd_val+0x28>
     ea2:	2303      	movs	r3, #3
     ea4:	4a07      	ldr	r2, [pc, #28]	; (ec4 <mskd_val+0x90>)
     ea6:	4019      	ands	r1, r3
     ea8:	0049      	lsls	r1, r1, #1
     eaa:	6853      	ldr	r3, [r2, #4]
     eac:	2006      	movs	r0, #6
     eae:	e7dc      	b.n	e6a <mskd_val+0x36>
     eb0:	231f      	movs	r3, #31
     eb2:	4804      	ldr	r0, [pc, #16]	; (ec4 <mskd_val+0x90>)
     eb4:	4019      	ands	r1, r3
     eb6:	01c9      	lsls	r1, r1, #7
     eb8:	6842      	ldr	r2, [r0, #4]
     eba:	4c04      	ldr	r4, [pc, #16]	; (ecc <mskd_val+0x98>)
     ebc:	e7c7      	b.n	e4e <mskd_val+0x1a>
     ebe:	46c0      	nop			; (mov r8, r8)
     ec0:	00000000 	.word	0x00000000
     ec4:	10001dc0 	.word	0x10001dc0
     ec8:	fffe0fff 	.word	0xfffe0fff
     ecc:	fffff07f 	.word	0xfffff07f

00000ed0 <call_mskd_val_const>:
     ed0:	b500      	push	{lr}
     ed2:	2101      	movs	r1, #1
     ed4:	2001      	movs	r0, #1
     ed6:	f7ff fffe 	bl	e34 <mskd_val>
     eda:	2101      	movs	r1, #1
     edc:	2001      	movs	r0, #1
     ede:	f7ff fffe 	bl	e34 <mskd_val>
     ee2:	bd00      	pop	{pc}

00000ee4 <call_mskd_val_var>:
     ee4:	b500      	push	{lr}
     ee6:	2101      	movs	r1, #1
     ee8:	2001      	movs	r0, #1
     eea:	f7ff fffe 	bl	e34 <mskd_val>
     eee:	2101      	movs	r1, #1
     ef0:	2001      	movs	r0, #1
     ef2:	f7ff fffe 	bl	e34 <mskd_val>
     ef6:	bd00      	pop	{pc}

00000ef8 <call_mskd_val_global>:
     ef8:	b500      	push	{lr}
     efa:	2101      	movs	r1, #1
     efc:	2001      	movs	r0, #1
     efe:	f7ff fffe 	bl	e34 <mskd_val>
     f02:	bd00      	pop	{pc}

00000f04 <mskd_ref>:
     f04:	6803      	ldr	r3, [r0, #0]
     f06:	b570      	push	{r4, r5, r6, lr}
     f08:	2b06      	cmp	r3, #6
     f0a:	d814      	bhi.n	f36 <mskd_ref+0x32>
     f0c:	4a36      	ldr	r2, [pc, #216]	; (fe8 <mskd_ref+0xe4>)
     f0e:	009b      	lsls	r3, r3, #2
     f10:	58d3      	ldr	r3, [r2, r3]
     f12:	469f      	mov	pc, r3
     f14:	231f      	movs	r3, #31
     f16:	4d35      	ldr	r5, [pc, #212]	; (fec <mskd_ref+0xe8>)
     f18:	680c      	ldr	r4, [r1, #0]
     f1a:	6868      	ldr	r0, [r5, #4]
     f1c:	4e34      	ldr	r6, [pc, #208]	; (ff0 <mskd_ref+0xec>)
     f1e:	401c      	ands	r4, r3
     f20:	0324      	lsls	r4, r4, #12
     f22:	4030      	ands	r0, r6
     f24:	4320      	orrs	r0, r4
     f26:	6068      	str	r0, [r5, #4]
     f28:	680a      	ldr	r2, [r1, #0]
     f2a:	4013      	ands	r3, r2
     f2c:	686a      	ldr	r2, [r5, #4]
     f2e:	031b      	lsls	r3, r3, #12
     f30:	4032      	ands	r2, r6
     f32:	4313      	orrs	r3, r2
     f34:	606b      	str	r3, [r5, #4]
     f36:	bd70      	pop	{r4, r5, r6, pc}
     f38:	2303      	movs	r3, #3
     f3a:	2518      	movs	r5, #24
     f3c:	4c2b      	ldr	r4, [pc, #172]	; (fec <mskd_ref+0xe8>)
     f3e:	6808      	ldr	r0, [r1, #0]
     f40:	6862      	ldr	r2, [r4, #4]
     f42:	4018      	ands	r0, r3
     f44:	00c0      	lsls	r0, r0, #3
     f46:	43aa      	bics	r2, r5
     f48:	4302      	orrs	r2, r0
     f4a:	6062      	str	r2, [r4, #4]
     f4c:	680a      	ldr	r2, [r1, #0]
     f4e:	4013      	ands	r3, r2
     f50:	6862      	ldr	r2, [r4, #4]
     f52:	00db      	lsls	r3, r3, #3
     f54:	43aa      	bics	r2, r5
     f56:	4313      	orrs	r3, r2
     f58:	6063      	str	r3, [r4, #4]
     f5a:	e7ec      	b.n	f36 <mskd_ref+0x32>
     f5c:	2301      	movs	r3, #1
     f5e:	2520      	movs	r5, #32
     f60:	4c22      	ldr	r4, [pc, #136]	; (fec <mskd_ref+0xe8>)
     f62:	6808      	ldr	r0, [r1, #0]
     f64:	6862      	ldr	r2, [r4, #4]
     f66:	4018      	ands	r0, r3
     f68:	0140      	lsls	r0, r0, #5
     f6a:	43aa      	bics	r2, r5
     f6c:	4302      	orrs	r2, r0
     f6e:	6062      	str	r2, [r4, #4]
     f70:	680a      	ldr	r2, [r1, #0]
     f72:	4013      	ands	r3, r2
     f74:	6862      	ldr	r2, [r4, #4]
     f76:	015b      	lsls	r3, r3, #5
     f78:	43aa      	bics	r2, r5
     f7a:	4313      	orrs	r3, r2
     f7c:	6063      	str	r3, [r4, #4]
     f7e:	e7da      	b.n	f36 <mskd_ref+0x32>
     f80:	2001      	movs	r0, #1
     f82:	4a1a      	ldr	r2, [pc, #104]	; (fec <mskd_ref+0xe8>)
     f84:	680c      	ldr	r4, [r1, #0]
     f86:	6853      	ldr	r3, [r2, #4]
     f88:	4004      	ands	r4, r0
     f8a:	4383      	bics	r3, r0
     f8c:	4323      	orrs	r3, r4
     f8e:	6053      	str	r3, [r2, #4]
     f90:	6809      	ldr	r1, [r1, #0]
     f92:	6853      	ldr	r3, [r2, #4]
     f94:	4001      	ands	r1, r0
     f96:	4383      	bics	r3, r0
     f98:	430b      	orrs	r3, r1
     f9a:	6053      	str	r3, [r2, #4]
     f9c:	e7cb      	b.n	f36 <mskd_ref+0x32>
     f9e:	2303      	movs	r3, #3
     fa0:	2506      	movs	r5, #6
     fa2:	4c12      	ldr	r4, [pc, #72]	; (fec <mskd_ref+0xe8>)
     fa4:	6808      	ldr	r0, [r1, #0]
     fa6:	6862      	ldr	r2, [r4, #4]
     fa8:	4018      	ands	r0, r3
     faa:	0040      	lsls	r0, r0, #1
     fac:	43aa      	bics	r2, r5
     fae:	4302      	orrs	r2, r0
     fb0:	6062      	str	r2, [r4, #4]
     fb2:	680a      	ldr	r2, [r1, #0]
     fb4:	4013      	ands	r3, r2
     fb6:	6862      	ldr	r2, [r4, #4]
     fb8:	005b      	lsls	r3, r3, #1
     fba:	43aa      	bics	r2, r5
     fbc:	4313      	orrs	r3, r2
     fbe:	6063      	str	r3, [r4, #4]
     fc0:	e7b9      	b.n	f36 <mskd_ref+0x32>
     fc2:	231f      	movs	r3, #31
     fc4:	4d09      	ldr	r5, [pc, #36]	; (fec <mskd_ref+0xe8>)
     fc6:	680c      	ldr	r4, [r1, #0]
     fc8:	6868      	ldr	r0, [r5, #4]
     fca:	4e0a      	ldr	r6, [pc, #40]	; (ff4 <mskd_ref+0xf0>)
     fcc:	401c      	ands	r4, r3
     fce:	01e4      	lsls	r4, r4, #7
     fd0:	4030      	ands	r0, r6
     fd2:	4320      	orrs	r0, r4
     fd4:	6068      	str	r0, [r5, #4]
     fd6:	680a      	ldr	r2, [r1, #0]
     fd8:	4013      	ands	r3, r2
     fda:	686a      	ldr	r2, [r5, #4]
     fdc:	01db      	lsls	r3, r3, #7
     fde:	4032      	ands	r2, r6
     fe0:	4313      	orrs	r3, r2
     fe2:	606b      	str	r3, [r5, #4]
     fe4:	e7a7      	b.n	f36 <mskd_ref+0x32>
     fe6:	46c0      	nop			; (mov r8, r8)
     fe8:	0000001c 	.word	0x0000001c
     fec:	10001dc0 	.word	0x10001dc0
     ff0:	fffe0fff 	.word	0xfffe0fff
     ff4:	fffff07f 	.word	0xfffff07f

00000ff8 <call_mskd_ref_const>:
     ff8:	2301      	movs	r3, #1
     ffa:	b500      	push	{lr}
     ffc:	b082      	sub	sp, #8
     ffe:	9300      	str	r3, [sp, #0]
    1000:	a901      	add	r1, sp, #4
    1002:	3301      	adds	r3, #1
    1004:	4668      	mov	r0, sp
    1006:	9301      	str	r3, [sp, #4]
    1008:	f7ff fffe 	bl	f04 <mskd_ref>
    100c:	b002      	add	sp, #8
    100e:	bd00      	pop	{pc}

00001010 <call_mskd_ref_var>:
    1010:	2301      	movs	r3, #1
    1012:	b500      	push	{lr}
    1014:	b082      	sub	sp, #8
    1016:	a901      	add	r1, sp, #4
    1018:	4668      	mov	r0, sp
    101a:	9300      	str	r3, [sp, #0]
    101c:	9301      	str	r3, [sp, #4]
    101e:	f7ff fffe 	bl	f04 <mskd_ref>
    1022:	b002      	add	sp, #8
    1024:	bd00      	pop	{pc}
    1026:	46c0      	nop			; (mov r8, r8)

00001028 <call_mskd_ref_global>:
    1028:	2301      	movs	r3, #1
    102a:	b500      	push	{lr}
    102c:	b082      	sub	sp, #8
    102e:	a901      	add	r1, sp, #4
    1030:	4668      	mov	r0, sp
    1032:	9300      	str	r3, [sp, #0]
    1034:	9301      	str	r3, [sp, #4]
    1036:	f7ff fffe 	bl	f04 <mskd_ref>
    103a:	b002      	add	sp, #8
    103c:	bd00      	pop	{pc}
    103e:	46c0      	nop			; (mov r8, r8)

00001040 <periph_bits>:
    1040:	2240      	movs	r2, #64	; 0x40
    1042:	6843      	ldr	r3, [r0, #4]
    1044:	4313      	orrs	r3, r2
    1046:	6043      	str	r3, [r0, #4]
    1048:	4770      	bx	lr
    104a:	46c0      	nop			; (mov r8, r8)

0000104c <call_periph_bits>:
    104c:	b500      	push	{lr}
    104e:	4802      	ldr	r0, [pc, #8]	; (1058 <call_periph_bits+0xc>)
    1050:	f7ff fffe 	bl	1040 <periph_bits>
    1054:	bd00      	pop	{pc}
    1056:	46c0      	nop			; (mov r8, r8)
    1058:	10001dc0 	.word	0x10001dc0

0000105c <periph_bits_val>:
    105c:	2904      	cmp	r1, #4
    105e:	d103      	bne.n	1068 <periph_bits_val+0xc>
    1060:	2240      	movs	r2, #64	; 0x40
    1062:	6843      	ldr	r3, [r0, #4]
    1064:	4313      	orrs	r3, r2
    1066:	6043      	str	r3, [r0, #4]
    1068:	4770      	bx	lr
    106a:	46c0      	nop			; (mov r8, r8)

0000106c <call_periph_bits_val>:
    106c:	b500      	push	{lr}
    106e:	2104      	movs	r1, #4
    1070:	4801      	ldr	r0, [pc, #4]	; (1078 <call_periph_bits_val+0xc>)
    1072:	f7ff fffe 	bl	105c <periph_bits_val>
    1076:	bd00      	pop	{pc}
    1078:	10001dc0 	.word	0x10001dc0

0000107c <reg_bits_val>:
    107c:	2904      	cmp	r1, #4
    107e:	d103      	bne.n	1088 <reg_bits_val+0xc>
    1080:	2240      	movs	r2, #64	; 0x40
    1082:	6803      	ldr	r3, [r0, #0]
    1084:	4313      	orrs	r3, r2
    1086:	6003      	str	r3, [r0, #0]
    1088:	4770      	bx	lr
    108a:	46c0      	nop			; (mov r8, r8)

0000108c <call_reg_bits_val>:
    108c:	b500      	push	{lr}
    108e:	2104      	movs	r1, #4
    1090:	4801      	ldr	r0, [pc, #4]	; (1098 <call_reg_bits_val+0xc>)
    1092:	f7ff fffe 	bl	107c <reg_bits_val>
    1096:	bd00      	pop	{pc}
    1098:	10001dc4 	.word	0x10001dc4

0000109c <periph_bits_ref>:
    109c:	680b      	ldr	r3, [r1, #0]
    109e:	2b04      	cmp	r3, #4
    10a0:	d103      	bne.n	10aa <periph_bits_ref+0xe>
    10a2:	2240      	movs	r2, #64	; 0x40
    10a4:	6843      	ldr	r3, [r0, #4]
    10a6:	4313      	orrs	r3, r2
    10a8:	6043      	str	r3, [r0, #4]
    10aa:	4770      	bx	lr

000010ac <call_periph_bits_ref>:
    10ac:	2304      	movs	r3, #4
    10ae:	b500      	push	{lr}
    10b0:	b081      	sub	sp, #4
    10b2:	4669      	mov	r1, sp
    10b4:	4802      	ldr	r0, [pc, #8]	; (10c0 <call_periph_bits_ref+0x14>)
    10b6:	9300      	str	r3, [sp, #0]
    10b8:	f7ff fffe 	bl	109c <periph_bits_ref>
    10bc:	b001      	add	sp, #4
    10be:	bd00      	pop	{pc}
    10c0:	10001dc0 	.word	0x10001dc0

000010c4 <reg_bits_ref>:
    10c4:	680b      	ldr	r3, [r1, #0]
    10c6:	2b04      	cmp	r3, #4
    10c8:	d103      	bne.n	10d2 <reg_bits_ref+0xe>
    10ca:	2240      	movs	r2, #64	; 0x40
    10cc:	6803      	ldr	r3, [r0, #0]
    10ce:	4313      	orrs	r3, r2
    10d0:	6003      	str	r3, [r0, #0]
    10d2:	4770      	bx	lr

000010d4 <call_reg_bits_ref>:
    10d4:	2304      	movs	r3, #4
    10d6:	b500      	push	{lr}
    10d8:	b081      	sub	sp, #4
    10da:	4669      	mov	r1, sp
    10dc:	4802      	ldr	r0, [pc, #8]	; (10e8 <call_reg_bits_ref+0x14>)
    10de:	9300      	str	r3, [sp, #0]
    10e0:	f7ff fffe 	bl	10c4 <reg_bits_ref>
    10e4:	b001      	add	sp, #4
    10e6:	bd00      	pop	{pc}
    10e8:	10001dc4 	.word	0x10001dc4

000010ec <periph_mskd>:
    10ec:	2206      	movs	r2, #6
    10ee:	6843      	ldr	r3, [r0, #4]
    10f0:	4393      	bics	r3, r2
    10f2:	3a04      	subs	r2, #4
    10f4:	4313      	orrs	r3, r2
    10f6:	6043      	str	r3, [r0, #4]
    10f8:	4770      	bx	lr
    10fa:	46c0      	nop			; (mov r8, r8)

000010fc <call_periph_mskd>:
    10fc:	b500      	push	{lr}
    10fe:	4802      	ldr	r0, [pc, #8]	; (1108 <call_periph_mskd+0xc>)
    1100:	f7ff fffe 	bl	10ec <periph_mskd>
    1104:	bd00      	pop	{pc}
    1106:	46c0      	nop			; (mov r8, r8)
    1108:	10001dc0 	.word	0x10001dc0

0000110c <periph_mskd_val>:
    110c:	2901      	cmp	r1, #1
    110e:	d105      	bne.n	111c <periph_mskd_val+0x10>
    1110:	2206      	movs	r2, #6
    1112:	6843      	ldr	r3, [r0, #4]
    1114:	4393      	bics	r3, r2
    1116:	3a04      	subs	r2, #4
    1118:	4313      	orrs	r3, r2
    111a:	6043      	str	r3, [r0, #4]
    111c:	4770      	bx	lr
    111e:	46c0      	nop			; (mov r8, r8)

00001120 <call_periph_mskd_val>:
    1120:	b500      	push	{lr}
    1122:	2101      	movs	r1, #1
    1124:	4801      	ldr	r0, [pc, #4]	; (112c <call_periph_mskd_val+0xc>)
    1126:	f7ff fffe 	bl	110c <periph_mskd_val>
    112a:	bd00      	pop	{pc}
    112c:	10001dc0 	.word	0x10001dc0

00001130 <reg_mskd_val>:
    1130:	2901      	cmp	r1, #1
    1132:	d105      	bne.n	1140 <reg_mskd_val+0x10>
    1134:	2206      	movs	r2, #6
    1136:	6803      	ldr	r3, [r0, #0]
    1138:	4393      	bics	r3, r2
    113a:	3a04      	subs	r2, #4
    113c:	4313      	orrs	r3, r2
    113e:	6003      	str	r3, [r0, #0]
    1140:	4770      	bx	lr
    1142:	46c0      	nop			; (mov r8, r8)

00001144 <call_reg_mskd_val>:
    1144:	b500      	push	{lr}
    1146:	2101      	movs	r1, #1
    1148:	4801      	ldr	r0, [pc, #4]	; (1150 <call_reg_mskd_val+0xc>)
    114a:	f7ff fffe 	bl	1130 <reg_mskd_val>
    114e:	bd00      	pop	{pc}
    1150:	10001dc4 	.word	0x10001dc4

00001154 <periph_mskd_ref>:
    1154:	680b      	ldr	r3, [r1, #0]
    1156:	2b01      	cmp	r3, #1
    1158:	d105      	bne.n	1166 <periph_mskd_ref+0x12>
    115a:	2206      	movs	r2, #6
    115c:	6843      	ldr	r3, [r0, #4]
    115e:	4393      	bics	r3, r2
    1160:	3a04      	subs	r2, #4
    1162:	4313      	orrs	r3, r2
    1164:	6043      	str	r3, [r0, #4]
    1166:	4770      	bx	lr

00001168 <call_periph_mskd_ref>:
    1168:	2301      	movs	r3, #1
    116a:	b500      	push	{lr}
    116c:	b081      	sub	sp, #4
    116e:	4669      	mov	r1, sp
    1170:	4802      	ldr	r0, [pc, #8]	; (117c <call_periph_mskd_ref+0x14>)
    1172:	9300      	str	r3, [sp, #0]
    1174:	f7ff fffe 	bl	1154 <periph_mskd_ref>
    1178:	b001      	add	sp, #4
    117a:	bd00      	pop	{pc}
    117c:	10001dc0 	.word	0x10001dc0

00001180 <reg_mskd_ref>:
    1180:	680b      	ldr	r3, [r1, #0]
    1182:	2b01      	cmp	r3, #1
    1184:	d105      	bne.n	1192 <reg_mskd_ref+0x12>
    1186:	2206      	movs	r2, #6
    1188:	6803      	ldr	r3, [r0, #0]
    118a:	4393      	bics	r3, r2
    118c:	3a04      	subs	r2, #4
    118e:	4313      	orrs	r3, r2
    1190:	6003      	str	r3, [r0, #0]
    1192:	4770      	bx	lr

00001194 <call_reg_mskd_ref>:
    1194:	2301      	movs	r3, #1
    1196:	b500      	push	{lr}
    1198:	b081      	sub	sp, #4
    119a:	4669      	mov	r1, sp
    119c:	4802      	ldr	r0, [pc, #8]	; (11a8 <call_reg_mskd_ref+0x14>)
    119e:	9300      	str	r3, [sp, #0]
    11a0:	f7ff fffe 	bl	1180 <reg_mskd_ref>
    11a4:	b001      	add	sp, #4
    11a6:	bd00      	pop	{pc}
    11a8:	10001dc4 	.word	0x10001dc4

000011ac <return_bits>:
    11ac:	2001      	movs	r0, #1
    11ae:	4770      	bx	lr

000011b0 <call_return_bits>:
    11b0:	b500      	push	{lr}
    11b2:	f7ff fffe 	bl	11ac <return_bits>
    11b6:	2200      	movs	r2, #0
    11b8:	4b08      	ldr	r3, [pc, #32]	; (11dc <call_return_bits+0x2c>)
    11ba:	605a      	str	r2, [r3, #4]
    11bc:	2801      	cmp	r0, #1
    11be:	d005      	beq.n	11cc <call_return_bits+0x1c>
    11c0:	22f8      	movs	r2, #248	; 0xf8
    11c2:	6859      	ldr	r1, [r3, #4]
    11c4:	0592      	lsls	r2, r2, #22
    11c6:	430a      	orrs	r2, r1
    11c8:	605a      	str	r2, [r3, #4]
    11ca:	bd00      	pop	{pc}
    11cc:	685a      	ldr	r2, [r3, #4]
    11ce:	4904      	ldr	r1, [pc, #16]	; (11e0 <call_return_bits+0x30>)
    11d0:	4011      	ands	r1, r2
    11d2:	22a8      	movs	r2, #168	; 0xa8
    11d4:	0592      	lsls	r2, r2, #22
    11d6:	430a      	orrs	r2, r1
    11d8:	605a      	str	r2, [r3, #4]
    11da:	e7f6      	b.n	11ca <call_return_bits+0x1a>
    11dc:	10001d20 	.word	0x10001d20
    11e0:	c1ffffff 	.word	0xc1ffffff

000011e4 <return_mskd>:
    11e4:	2302      	movs	r3, #2
    11e6:	6003      	str	r3, [r0, #0]
    11e8:	3b01      	subs	r3, #1
    11ea:	600b      	str	r3, [r1, #0]
    11ec:	4770      	bx	lr
    11ee:	46c0      	nop			; (mov r8, r8)

000011f0 <call_return_mskd>:
    11f0:	b500      	push	{lr}
    11f2:	b082      	sub	sp, #8
    11f4:	a901      	add	r1, sp, #4
    11f6:	4668      	mov	r0, sp
    11f8:	f7ff fffe 	bl	11e4 <return_mskd>
    11fc:	2200      	movs	r2, #0
    11fe:	4b0d      	ldr	r3, [pc, #52]	; (1234 <call_return_mskd+0x44>)
    1200:	605a      	str	r2, [r3, #4]
    1202:	9a00      	ldr	r2, [sp, #0]
    1204:	2a02      	cmp	r2, #2
    1206:	d009      	beq.n	121c <call_return_mskd+0x2c>
    1208:	490a      	ldr	r1, [pc, #40]	; (1234 <call_return_mskd+0x44>)
    120a:	4a0b      	ldr	r2, [pc, #44]	; (1238 <call_return_mskd+0x48>)
    120c:	684b      	ldr	r3, [r1, #4]
    120e:	401a      	ands	r2, r3
    1210:	2398      	movs	r3, #152	; 0x98
    1212:	059b      	lsls	r3, r3, #22
    1214:	4313      	orrs	r3, r2
    1216:	604b      	str	r3, [r1, #4]
    1218:	b002      	add	sp, #8
    121a:	bd00      	pop	{pc}
    121c:	9a01      	ldr	r2, [sp, #4]
    121e:	2a01      	cmp	r2, #1
    1220:	d1f2      	bne.n	1208 <call_return_mskd+0x18>
    1222:	685a      	ldr	r2, [r3, #4]
    1224:	4904      	ldr	r1, [pc, #16]	; (1238 <call_return_mskd+0x48>)
    1226:	4011      	ands	r1, r2
    1228:	2288      	movs	r2, #136	; 0x88
    122a:	0592      	lsls	r2, r2, #22
    122c:	430a      	orrs	r2, r1
    122e:	605a      	str	r2, [r3, #4]
    1230:	e7f2      	b.n	1218 <call_return_mskd+0x28>
    1232:	46c0      	nop			; (mov r8, r8)
    1234:	10001d20 	.word	0x10001d20
    1238:	c1ffffff 	.word	0xc1ffffff

0000123c <return_reg>:
    123c:	2200      	movs	r2, #0
    123e:	2140      	movs	r1, #64	; 0x40
    1240:	4b03      	ldr	r3, [pc, #12]	; (1250 <return_reg+0x14>)
    1242:	4804      	ldr	r0, [pc, #16]	; (1254 <return_reg+0x18>)
    1244:	605a      	str	r2, [r3, #4]
    1246:	685a      	ldr	r2, [r3, #4]
    1248:	430a      	orrs	r2, r1
    124a:	605a      	str	r2, [r3, #4]
    124c:	4770      	bx	lr
    124e:	46c0      	nop			; (mov r8, r8)
    1250:	10001dc0 	.word	0x10001dc0
    1254:	10001dc4 	.word	0x10001dc4

00001258 <call_return_reg>:
    1258:	b500      	push	{lr}
    125a:	f7ff fffe 	bl	123c <return_reg>
    125e:	2200      	movs	r2, #0
    1260:	4b0a      	ldr	r3, [pc, #40]	; (128c <call_return_reg+0x34>)
    1262:	605a      	str	r2, [r3, #4]
    1264:	6802      	ldr	r2, [r0, #0]
    1266:	0652      	lsls	r2, r2, #25
    1268:	d507      	bpl.n	127a <call_return_reg+0x22>
    126a:	685a      	ldr	r2, [r3, #4]
    126c:	4908      	ldr	r1, [pc, #32]	; (1290 <call_return_reg+0x38>)
    126e:	4011      	ands	r1, r2
    1270:	22f0      	movs	r2, #240	; 0xf0
    1272:	0552      	lsls	r2, r2, #21
    1274:	430a      	orrs	r2, r1
    1276:	605a      	str	r2, [r3, #4]
    1278:	bd00      	pop	{pc}
    127a:	685a      	ldr	r2, [r3, #4]
    127c:	4904      	ldr	r1, [pc, #16]	; (1290 <call_return_reg+0x38>)
    127e:	4011      	ands	r1, r2
    1280:	22b8      	movs	r2, #184	; 0xb8
    1282:	0592      	lsls	r2, r2, #22
    1284:	430a      	orrs	r2, r1
    1286:	605a      	str	r2, [r3, #4]
    1288:	e7f6      	b.n	1278 <call_return_reg+0x20>
    128a:	46c0      	nop			; (mov r8, r8)
    128c:	10001d20 	.word	0x10001d20
    1290:	c1ffffff 	.word	0xc1ffffff

00001294 <return_periph>:
    1294:	2300      	movs	r3, #0
    1296:	2240      	movs	r2, #64	; 0x40
    1298:	4802      	ldr	r0, [pc, #8]	; (12a4 <return_periph+0x10>)
    129a:	6043      	str	r3, [r0, #4]
    129c:	6843      	ldr	r3, [r0, #4]
    129e:	4313      	orrs	r3, r2
    12a0:	6043      	str	r3, [r0, #4]
    12a2:	4770      	bx	lr
    12a4:	10001dc0 	.word	0x10001dc0

000012a8 <call_return_periph>:
    12a8:	b500      	push	{lr}
    12aa:	f7ff fffe 	bl	1294 <return_periph>
    12ae:	6843      	ldr	r3, [r0, #4]
    12b0:	4909      	ldr	r1, [pc, #36]	; (12d8 <call_return_periph+0x30>)
    12b2:	065b      	lsls	r3, r3, #25
    12b4:	d507      	bpl.n	12c6 <call_return_periph+0x1e>
    12b6:	684b      	ldr	r3, [r1, #4]
    12b8:	4a08      	ldr	r2, [pc, #32]	; (12dc <call_return_periph+0x34>)
    12ba:	401a      	ands	r2, r3
    12bc:	2398      	movs	r3, #152	; 0x98
    12be:	059b      	lsls	r3, r3, #22
    12c0:	4313      	orrs	r3, r2
    12c2:	604b      	str	r3, [r1, #4]
    12c4:	bd00      	pop	{pc}
    12c6:	684b      	ldr	r3, [r1, #4]
    12c8:	4a04      	ldr	r2, [pc, #16]	; (12dc <call_return_periph+0x34>)
    12ca:	401a      	ands	r2, r3
    12cc:	23a8      	movs	r3, #168	; 0xa8
    12ce:	059b      	lsls	r3, r3, #22
    12d0:	4313      	orrs	r3, r2
    12d2:	604b      	str	r3, [r1, #4]
    12d4:	e7f6      	b.n	12c4 <call_return_periph+0x1c>
    12d6:	46c0      	nop			; (mov r8, r8)
    12d8:	10001d20 	.word	0x10001d20
    12dc:	c1ffffff 	.word	0xc1ffffff

000012e0 <pos_val>:
    12e0:	4b06      	ldr	r3, [pc, #24]	; (12fc <pos_val+0x1c>)
    12e2:	2803      	cmp	r0, #3
    12e4:	d007      	beq.n	12f6 <pos_val+0x16>
    12e6:	2804      	cmp	r0, #4
    12e8:	d002      	beq.n	12f0 <pos_val+0x10>
    12ea:	2255      	movs	r2, #85	; 0x55
    12ec:	62da      	str	r2, [r3, #44]	; 0x2c
    12ee:	4770      	bx	lr
    12f0:	2244      	movs	r2, #68	; 0x44
    12f2:	62da      	str	r2, [r3, #44]	; 0x2c
    12f4:	e7fb      	b.n	12ee <pos_val+0xe>
    12f6:	2233      	movs	r2, #51	; 0x33
    12f8:	62da      	str	r2, [r3, #44]	; 0x2c
    12fa:	e7f8      	b.n	12ee <pos_val+0xe>
    12fc:	10001c00 	.word	0x10001c00

00001300 <call_pos_val>:
    1300:	b500      	push	{lr}
    1302:	2003      	movs	r0, #3
    1304:	f7ff fffe 	bl	12e0 <pos_val>
    1308:	2004      	movs	r0, #4
    130a:	f7ff fffe 	bl	12e0 <pos_val>
    130e:	bd00      	pop	{pc}

00001310 <call_pos_val_global>:
    1310:	b500      	push	{lr}
    1312:	2004      	movs	r0, #4
    1314:	f7ff fffe 	bl	12e0 <pos_val>
    1318:	bd00      	pop	{pc}
    131a:	46c0      	nop			; (mov r8, r8)

0000131c <pos_ref>:
    131c:	6803      	ldr	r3, [r0, #0]
    131e:	2b03      	cmp	r3, #3
    1320:	d009      	beq.n	1336 <pos_ref+0x1a>
    1322:	2b04      	cmp	r3, #4
    1324:	d003      	beq.n	132e <pos_ref+0x12>
    1326:	2288      	movs	r2, #136	; 0x88
    1328:	4b05      	ldr	r3, [pc, #20]	; (1340 <pos_ref+0x24>)
    132a:	62da      	str	r2, [r3, #44]	; 0x2c
    132c:	4770      	bx	lr
    132e:	2277      	movs	r2, #119	; 0x77
    1330:	4b03      	ldr	r3, [pc, #12]	; (1340 <pos_ref+0x24>)
    1332:	62da      	str	r2, [r3, #44]	; 0x2c
    1334:	e7fa      	b.n	132c <pos_ref+0x10>
    1336:	2266      	movs	r2, #102	; 0x66
    1338:	4b01      	ldr	r3, [pc, #4]	; (1340 <pos_ref+0x24>)
    133a:	62da      	str	r2, [r3, #44]	; 0x2c
    133c:	e7f6      	b.n	132c <pos_ref+0x10>
    133e:	46c0      	nop			; (mov r8, r8)
    1340:	10001c00 	.word	0x10001c00

00001344 <call_pos_ref>:
    1344:	2303      	movs	r3, #3
    1346:	b500      	push	{lr}
    1348:	b081      	sub	sp, #4
    134a:	4668      	mov	r0, sp
    134c:	9300      	str	r3, [sp, #0]
    134e:	f7ff fffe 	bl	131c <pos_ref>
    1352:	4668      	mov	r0, sp
    1354:	f7ff fffe 	bl	131c <pos_ref>
    1358:	b001      	add	sp, #4
    135a:	bd00      	pop	{pc}

0000135c <call_pos_ref_global>:
    135c:	2304      	movs	r3, #4
    135e:	b500      	push	{lr}
    1360:	b081      	sub	sp, #4
    1362:	4668      	mov	r0, sp
    1364:	9300      	str	r3, [sp, #0]
    1366:	f7ff fffe 	bl	131c <pos_ref>
    136a:	b001      	add	sp, #4
    136c:	bd00      	pop	{pc}
    136e:	46c0      	nop			; (mov r8, r8)

00001370 <runtime_range_val>:
    1370:	231f      	movs	r3, #31
    1372:	4a04      	ldr	r2, [pc, #16]	; (1384 <runtime_range_val+0x14>)
    1374:	4003      	ands	r3, r0
    1376:	4904      	ldr	r1, [pc, #16]	; (1388 <runtime_range_val+0x18>)
    1378:	6850      	ldr	r0, [r2, #4]
    137a:	031b      	lsls	r3, r3, #12
    137c:	4008      	ands	r0, r1
    137e:	4318      	orrs	r0, r3
    1380:	6050      	str	r0, [r2, #4]
    1382:	4770      	bx	lr
    1384:	10001dc0 	.word	0x10001dc0
    1388:	fffe0fff 	.word	0xfffe0fff

0000138c <call_range_val>:
    138c:	23ff      	movs	r3, #255	; 0xff
    138e:	b500      	push	{lr}
    1390:	4018      	ands	r0, r3
    1392:	f7ff fffe 	bl	1370 <runtime_range_val>
    1396:	bd00      	pop	{pc}

00001398 <call_range_val_port>:
    1398:	b500      	push	{lr}
    139a:	201f      	movs	r0, #31
    139c:	f7ff fffe 	bl	138c <call_range_val>
    13a0:	bd00      	pop	{pc}
    13a2:	46c0      	nop			; (mov r8, r8)

000013a4 <runtime_range_ref>:
    13a4:	231f      	movs	r3, #31
    13a6:	6802      	ldr	r2, [r0, #0]
    13a8:	4904      	ldr	r1, [pc, #16]	; (13bc <runtime_range_ref+0x18>)
    13aa:	401a      	ands	r2, r3
    13ac:	4804      	ldr	r0, [pc, #16]	; (13c0 <runtime_range_ref+0x1c>)
    13ae:	684b      	ldr	r3, [r1, #4]
    13b0:	0312      	lsls	r2, r2, #12
    13b2:	4003      	ands	r3, r0
    13b4:	4313      	orrs	r3, r2
    13b6:	604b      	str	r3, [r1, #4]
    13b8:	4770      	bx	lr
    13ba:	46c0      	nop			; (mov r8, r8)
    13bc:	10001dc0 	.word	0x10001dc0
    13c0:	fffe0fff 	.word	0xfffe0fff

000013c4 <call_range_ref>:
    13c4:	b500      	push	{lr}
    13c6:	b081      	sub	sp, #4
    13c8:	9000      	str	r0, [sp, #0]
    13ca:	4668      	mov	r0, sp
    13cc:	f7ff fffe 	bl	13a4 <runtime_range_ref>
    13d0:	b001      	add	sp, #4
    13d2:	bd00      	pop	{pc}

000013d4 <call_range_ref_port>:
    13d4:	b500      	push	{lr}
    13d6:	200c      	movs	r0, #12
    13d8:	f7ff fffe 	bl	13c4 <call_range_ref>
    13dc:	bd00      	pop	{pc}
    13de:	46c0      	nop			; (mov r8, r8)

000013e0 <check_array_range_pass>:
    13e0:	4b04      	ldr	r3, [pc, #16]	; (13f4 <check_array_range_pass+0x14>)
    13e2:	2816      	cmp	r0, #22
    13e4:	d802      	bhi.n	13ec <check_array_range_pass+0xc>
    13e6:	227f      	movs	r2, #127	; 0x7f
    13e8:	62da      	str	r2, [r3, #44]	; 0x2c
    13ea:	4770      	bx	lr
    13ec:	2283      	movs	r2, #131	; 0x83
    13ee:	62da      	str	r2, [r3, #44]	; 0x2c
    13f0:	e7fb      	b.n	13ea <check_array_range_pass+0xa>
    13f2:	46c0      	nop			; (mov r8, r8)
    13f4:	10001c00 	.word	0x10001c00

000013f8 <check_array_range_fail>:
    13f8:	4b04      	ldr	r3, [pc, #16]	; (140c <check_array_range_fail+0x14>)
    13fa:	2816      	cmp	r0, #22
    13fc:	d802      	bhi.n	1404 <check_array_range_fail+0xc>
    13fe:	2295      	movs	r2, #149	; 0x95
    1400:	62da      	str	r2, [r3, #44]	; 0x2c
    1402:	4770      	bx	lr
    1404:	2297      	movs	r2, #151	; 0x97
    1406:	62da      	str	r2, [r3, #44]	; 0x2c
    1408:	e7fb      	b.n	1402 <check_array_range_fail+0xa>
    140a:	46c0      	nop			; (mov r8, r8)
    140c:	10001c00 	.word	0x10001c00

00001410 <check_bits_range_pass>:
    1410:	4b04      	ldr	r3, [pc, #16]	; (1424 <check_bits_range_pass+0x14>)
    1412:	280f      	cmp	r0, #15
    1414:	d802      	bhi.n	141c <check_bits_range_pass+0xc>
    1416:	229d      	movs	r2, #157	; 0x9d
    1418:	62da      	str	r2, [r3, #44]	; 0x2c
    141a:	4770      	bx	lr
    141c:	22a3      	movs	r2, #163	; 0xa3
    141e:	62da      	str	r2, [r3, #44]	; 0x2c
    1420:	e7fb      	b.n	141a <check_bits_range_pass+0xa>
    1422:	46c0      	nop			; (mov r8, r8)
    1424:	10001c00 	.word	0x10001c00

00001428 <check_bits_range_fail>:
    1428:	4b04      	ldr	r3, [pc, #16]	; (143c <check_bits_range_fail+0x14>)
    142a:	280f      	cmp	r0, #15
    142c:	d802      	bhi.n	1434 <check_bits_range_fail+0xc>
    142e:	22a7      	movs	r2, #167	; 0xa7
    1430:	62da      	str	r2, [r3, #44]	; 0x2c
    1432:	4770      	bx	lr
    1434:	22ad      	movs	r2, #173	; 0xad
    1436:	62da      	str	r2, [r3, #44]	; 0x2c
    1438:	e7fb      	b.n	1432 <check_bits_range_fail+0xa>
    143a:	46c0      	nop			; (mov r8, r8)
    143c:	10001c00 	.word	0x10001c00

00001440 <check_mskd_range_pass>:
    1440:	4b04      	ldr	r3, [pc, #16]	; (1454 <check_mskd_range_pass+0x14>)
    1442:	281f      	cmp	r0, #31
    1444:	d802      	bhi.n	144c <check_mskd_range_pass+0xc>
    1446:	22b3      	movs	r2, #179	; 0xb3
    1448:	62da      	str	r2, [r3, #44]	; 0x2c
    144a:	4770      	bx	lr
    144c:	22b5      	movs	r2, #181	; 0xb5
    144e:	62da      	str	r2, [r3, #44]	; 0x2c
    1450:	e7fb      	b.n	144a <check_mskd_range_pass+0xa>
    1452:	46c0      	nop			; (mov r8, r8)
    1454:	10001c00 	.word	0x10001c00

00001458 <check_mskd_range_fail>:
    1458:	4b04      	ldr	r3, [pc, #16]	; (146c <check_mskd_range_fail+0x14>)
    145a:	281f      	cmp	r0, #31
    145c:	d802      	bhi.n	1464 <check_mskd_range_fail+0xc>
    145e:	22bf      	movs	r2, #191	; 0xbf
    1460:	62da      	str	r2, [r3, #44]	; 0x2c
    1462:	4770      	bx	lr
    1464:	22c1      	movs	r2, #193	; 0xc1
    1466:	62da      	str	r2, [r3, #44]	; 0x2c
    1468:	e7fb      	b.n	1462 <check_mskd_range_fail+0xa>
    146a:	46c0      	nop			; (mov r8, r8)
    146c:	10001c00 	.word	0x10001c00

00001470 <bits_extract_ne>:
    1470:	2120      	movs	r1, #32
    1472:	4b0b      	ldr	r3, [pc, #44]	; (14a0 <bits_extract_ne+0x30>)
    1474:	685a      	ldr	r2, [r3, #4]
    1476:	430a      	orrs	r2, r1
    1478:	2100      	movs	r1, #0
    147a:	605a      	str	r2, [r3, #4]
    147c:	685a      	ldr	r2, [r3, #4]
    147e:	6059      	str	r1, [r3, #4]
    1480:	0692      	lsls	r2, r2, #26
    1482:	d406      	bmi.n	1492 <bits_extract_ne+0x22>
    1484:	685a      	ldr	r2, [r3, #4]
    1486:	3106      	adds	r1, #6
    1488:	438a      	bics	r2, r1
    148a:	3904      	subs	r1, #4
    148c:	430a      	orrs	r2, r1
    148e:	605a      	str	r2, [r3, #4]
    1490:	4770      	bx	lr
    1492:	2106      	movs	r1, #6
    1494:	685a      	ldr	r2, [r3, #4]
    1496:	438a      	bics	r2, r1
    1498:	3902      	subs	r1, #2
    149a:	430a      	orrs	r2, r1
    149c:	605a      	str	r2, [r3, #4]
    149e:	e7f7      	b.n	1490 <bits_extract_ne+0x20>
    14a0:	10001dc0 	.word	0x10001dc0

000014a4 <mskd_extract_geq>:
    14a4:	2000      	movs	r0, #0
    14a6:	4b0e      	ldr	r3, [pc, #56]	; (14e0 <mskd_extract_geq+0x3c>)
    14a8:	490e      	ldr	r1, [pc, #56]	; (14e4 <mskd_extract_geq+0x40>)
    14aa:	6058      	str	r0, [r3, #4]
    14ac:	685a      	ldr	r2, [r3, #4]
    14ae:	4011      	ands	r1, r2
    14b0:	22b0      	movs	r2, #176	; 0xb0
    14b2:	0552      	lsls	r2, r2, #21
    14b4:	430a      	orrs	r2, r1
    14b6:	605a      	str	r2, [r3, #4]
    14b8:	685b      	ldr	r3, [r3, #4]
    14ba:	4a0b      	ldr	r2, [pc, #44]	; (14e8 <mskd_extract_geq+0x44>)
    14bc:	009b      	lsls	r3, r3, #2
    14be:	6050      	str	r0, [r2, #4]
    14c0:	0ed9      	lsrs	r1, r3, #27
    14c2:	2909      	cmp	r1, #9
    14c4:	d901      	bls.n	14ca <mskd_extract_geq+0x26>
    14c6:	290a      	cmp	r1, #10
    14c8:	d805      	bhi.n	14d6 <mskd_extract_geq+0x32>
    14ca:	2140      	movs	r1, #64	; 0x40
    14cc:	4a06      	ldr	r2, [pc, #24]	; (14e8 <mskd_extract_geq+0x44>)
    14ce:	6853      	ldr	r3, [r2, #4]
    14d0:	430b      	orrs	r3, r1
    14d2:	6053      	str	r3, [r2, #4]
    14d4:	4770      	bx	lr
    14d6:	2120      	movs	r1, #32
    14d8:	6853      	ldr	r3, [r2, #4]
    14da:	430b      	orrs	r3, r1
    14dc:	6053      	str	r3, [r2, #4]
    14de:	e7f9      	b.n	14d4 <mskd_extract_geq+0x30>
    14e0:	10001d20 	.word	0x10001d20
    14e4:	c1ffffff 	.word	0xc1ffffff
    14e8:	10001dc0 	.word	0x10001dc0

000014ec <shifted_val>:
    14ec:	2200      	movs	r2, #0
    14ee:	4b08      	ldr	r3, [pc, #32]	; (1510 <shifted_val+0x24>)
    14f0:	4908      	ldr	r1, [pc, #32]	; (1514 <shifted_val+0x28>)
    14f2:	605a      	str	r2, [r3, #4]
    14f4:	685a      	ldr	r2, [r3, #4]
    14f6:	4011      	ands	r1, r2
    14f8:	22b8      	movs	r2, #184	; 0xb8
    14fa:	0592      	lsls	r2, r2, #22
    14fc:	430a      	orrs	r2, r1
    14fe:	605a      	str	r2, [r3, #4]
    1500:	2801      	cmp	r0, #1
    1502:	d104      	bne.n	150e <shifted_val+0x22>
    1504:	685b      	ldr	r3, [r3, #4]
    1506:	4a04      	ldr	r2, [pc, #16]	; (1518 <shifted_val+0x2c>)
    1508:	009b      	lsls	r3, r3, #2
    150a:	0edb      	lsrs	r3, r3, #27
    150c:	62d3      	str	r3, [r2, #44]	; 0x2c
    150e:	4770      	bx	lr
    1510:	10001d20 	.word	0x10001d20
    1514:	c1ffffff 	.word	0xc1ffffff
    1518:	10001c00 	.word	0x10001c00

0000151c <call_shifted_const_val>:
    151c:	b500      	push	{lr}
    151e:	2001      	movs	r0, #1
    1520:	f7ff fffe 	bl	14ec <shifted_val>
    1524:	bd00      	pop	{pc}
    1526:	46c0      	nop			; (mov r8, r8)

00001528 <call_shifted_var_val>:
    1528:	b500      	push	{lr}
    152a:	2001      	movs	r0, #1
    152c:	f7ff fffe 	bl	14ec <shifted_val>
    1530:	bd00      	pop	{pc}
    1532:	46c0      	nop			; (mov r8, r8)

00001534 <call_shifted_global_val>:
    1534:	b500      	push	{lr}
    1536:	2001      	movs	r0, #1
    1538:	f7ff fffe 	bl	14ec <shifted_val>
    153c:	bd00      	pop	{pc}
    153e:	46c0      	nop			; (mov r8, r8)

00001540 <shifted_ref>:
    1540:	2200      	movs	r2, #0
    1542:	4b09      	ldr	r3, [pc, #36]	; (1568 <shifted_ref+0x28>)
    1544:	4909      	ldr	r1, [pc, #36]	; (156c <shifted_ref+0x2c>)
    1546:	605a      	str	r2, [r3, #4]
    1548:	685a      	ldr	r2, [r3, #4]
    154a:	4011      	ands	r1, r2
    154c:	22b8      	movs	r2, #184	; 0xb8
    154e:	0592      	lsls	r2, r2, #22
    1550:	430a      	orrs	r2, r1
    1552:	605a      	str	r2, [r3, #4]
    1554:	6802      	ldr	r2, [r0, #0]
    1556:	2a01      	cmp	r2, #1
    1558:	d104      	bne.n	1564 <shifted_ref+0x24>
    155a:	685b      	ldr	r3, [r3, #4]
    155c:	4a04      	ldr	r2, [pc, #16]	; (1570 <shifted_ref+0x30>)
    155e:	009b      	lsls	r3, r3, #2
    1560:	0edb      	lsrs	r3, r3, #27
    1562:	62d3      	str	r3, [r2, #44]	; 0x2c
    1564:	4770      	bx	lr
    1566:	46c0      	nop			; (mov r8, r8)
    1568:	10001d20 	.word	0x10001d20
    156c:	c1ffffff 	.word	0xc1ffffff
    1570:	10001c00 	.word	0x10001c00

00001574 <call_shifted_const_ref>:
    1574:	2301      	movs	r3, #1
    1576:	b500      	push	{lr}
    1578:	b081      	sub	sp, #4
    157a:	4668      	mov	r0, sp
    157c:	9300      	str	r3, [sp, #0]
    157e:	f7ff fffe 	bl	1540 <shifted_ref>
    1582:	b001      	add	sp, #4
    1584:	bd00      	pop	{pc}
    1586:	46c0      	nop			; (mov r8, r8)

00001588 <call_shifted_var_ref>:
    1588:	2301      	movs	r3, #1
    158a:	b500      	push	{lr}
    158c:	b081      	sub	sp, #4
    158e:	4668      	mov	r0, sp
    1590:	9300      	str	r3, [sp, #0]
    1592:	f7ff fffe 	bl	1540 <shifted_ref>
    1596:	b001      	add	sp, #4
    1598:	bd00      	pop	{pc}
    159a:	46c0      	nop			; (mov r8, r8)

0000159c <call_shifted_global_ref>:
    159c:	2301      	movs	r3, #1
    159e:	b500      	push	{lr}
    15a0:	b081      	sub	sp, #4
    15a2:	4668      	mov	r0, sp
    15a4:	9300      	str	r3, [sp, #0]
    15a6:	f7ff fffe 	bl	1540 <shifted_ref>
    15aa:	b001      	add	sp, #4
    15ac:	bd00      	pop	{pc}
    15ae:	46c0      	nop			; (mov r8, r8)

000015b0 <copy_bits_val>:
    15b0:	2200      	movs	r2, #0
    15b2:	2106      	movs	r1, #6
    15b4:	4b06      	ldr	r3, [pc, #24]	; (15d0 <copy_bits_val+0x20>)
    15b6:	605a      	str	r2, [r3, #4]
    15b8:	685a      	ldr	r2, [r3, #4]
    15ba:	438a      	bics	r2, r1
    15bc:	2801      	cmp	r0, #1
    15be:	d003      	beq.n	15c8 <copy_bits_val+0x18>
    15c0:	3902      	subs	r1, #2
    15c2:	430a      	orrs	r2, r1
    15c4:	605a      	str	r2, [r3, #4]
    15c6:	4770      	bx	lr
    15c8:	3904      	subs	r1, #4
    15ca:	430a      	orrs	r2, r1
    15cc:	605a      	str	r2, [r3, #4]
    15ce:	e7fa      	b.n	15c6 <copy_bits_val+0x16>
    15d0:	10001dc0 	.word	0x10001dc0

000015d4 <call_copy_bits_val>:
    15d4:	2200      	movs	r2, #0
    15d6:	2140      	movs	r1, #64	; 0x40
    15d8:	b500      	push	{lr}
    15da:	4b05      	ldr	r3, [pc, #20]	; (15f0 <call_copy_bits_val+0x1c>)
    15dc:	605a      	str	r2, [r3, #4]
    15de:	685a      	ldr	r2, [r3, #4]
    15e0:	430a      	orrs	r2, r1
    15e2:	605a      	str	r2, [r3, #4]
    15e4:	6858      	ldr	r0, [r3, #4]
    15e6:	0640      	lsls	r0, r0, #25
    15e8:	0fc0      	lsrs	r0, r0, #31
    15ea:	f7ff fffe 	bl	15b0 <copy_bits_val>
    15ee:	bd00      	pop	{pc}
    15f0:	10001dc0 	.word	0x10001dc0

000015f4 <copy_bits_ref>:
    15f4:	2200      	movs	r2, #0
    15f6:	4b09      	ldr	r3, [pc, #36]	; (161c <copy_bits_ref+0x28>)
    15f8:	605a      	str	r2, [r3, #4]
    15fa:	6802      	ldr	r2, [r0, #0]
    15fc:	2a01      	cmp	r2, #1
    15fe:	d006      	beq.n	160e <copy_bits_ref+0x1a>
    1600:	2106      	movs	r1, #6
    1602:	685a      	ldr	r2, [r3, #4]
    1604:	438a      	bics	r2, r1
    1606:	3902      	subs	r1, #2
    1608:	430a      	orrs	r2, r1
    160a:	605a      	str	r2, [r3, #4]
    160c:	4770      	bx	lr
    160e:	2106      	movs	r1, #6
    1610:	685a      	ldr	r2, [r3, #4]
    1612:	438a      	bics	r2, r1
    1614:	3904      	subs	r1, #4
    1616:	430a      	orrs	r2, r1
    1618:	605a      	str	r2, [r3, #4]
    161a:	e7f7      	b.n	160c <copy_bits_ref+0x18>
    161c:	10001dc0 	.word	0x10001dc0

00001620 <call_copy_bits_ref>:
    1620:	2200      	movs	r2, #0
    1622:	2140      	movs	r1, #64	; 0x40
    1624:	b500      	push	{lr}
    1626:	4b07      	ldr	r3, [pc, #28]	; (1644 <call_copy_bits_ref+0x24>)
    1628:	b081      	sub	sp, #4
    162a:	605a      	str	r2, [r3, #4]
    162c:	685a      	ldr	r2, [r3, #4]
    162e:	4668      	mov	r0, sp
    1630:	430a      	orrs	r2, r1
    1632:	605a      	str	r2, [r3, #4]
    1634:	685b      	ldr	r3, [r3, #4]
    1636:	065b      	lsls	r3, r3, #25
    1638:	0fdb      	lsrs	r3, r3, #31
    163a:	9300      	str	r3, [sp, #0]
    163c:	f7ff fffe 	bl	15f4 <copy_bits_ref>
    1640:	b001      	add	sp, #4
    1642:	bd00      	pop	{pc}
    1644:	10001dc0 	.word	0x10001dc0

00001648 <run>:
    1648:	b570      	push	{r4, r5, r6, lr}
    164a:	4cfe      	ldr	r4, [pc, #1016]	; (1a44 <run+0x3fc>)
    164c:	2200      	movs	r2, #0
    164e:	0021      	movs	r1, r4
    1650:	48fd      	ldr	r0, [pc, #1012]	; (1a48 <run+0x400>)
    1652:	f7ff fffe 	bl	0 <do_test>
    1656:	2201      	movs	r2, #1
    1658:	0021      	movs	r1, r4
    165a:	48fc      	ldr	r0, [pc, #1008]	; (1a4c <run+0x404>)
    165c:	f7ff fffe 	bl	0 <do_test>
    1660:	2202      	movs	r2, #2
    1662:	0021      	movs	r1, r4
    1664:	48fa      	ldr	r0, [pc, #1000]	; (1a50 <run+0x408>)
    1666:	f7ff fffe 	bl	0 <do_test>
    166a:	2203      	movs	r2, #3
    166c:	0021      	movs	r1, r4
    166e:	48f9      	ldr	r0, [pc, #996]	; (1a54 <run+0x40c>)
    1670:	f7ff fffe 	bl	0 <do_test>
    1674:	2204      	movs	r2, #4
    1676:	0021      	movs	r1, r4
    1678:	48f7      	ldr	r0, [pc, #988]	; (1a58 <run+0x410>)
    167a:	f7ff fffe 	bl	0 <do_test>
    167e:	2205      	movs	r2, #5
    1680:	0021      	movs	r1, r4
    1682:	48f6      	ldr	r0, [pc, #984]	; (1a5c <run+0x414>)
    1684:	f7ff fffe 	bl	0 <do_test>
    1688:	2206      	movs	r2, #6
    168a:	0021      	movs	r1, r4
    168c:	48f4      	ldr	r0, [pc, #976]	; (1a60 <run+0x418>)
    168e:	f7ff fffe 	bl	0 <do_test>
    1692:	2207      	movs	r2, #7
    1694:	0021      	movs	r1, r4
    1696:	48f3      	ldr	r0, [pc, #972]	; (1a64 <run+0x41c>)
    1698:	f7ff fffe 	bl	0 <do_test>
    169c:	2208      	movs	r2, #8
    169e:	0021      	movs	r1, r4
    16a0:	48f1      	ldr	r0, [pc, #964]	; (1a68 <run+0x420>)
    16a2:	f7ff fffe 	bl	0 <do_test>
    16a6:	2209      	movs	r2, #9
    16a8:	0021      	movs	r1, r4
    16aa:	48f0      	ldr	r0, [pc, #960]	; (1a6c <run+0x424>)
    16ac:	f7ff fffe 	bl	0 <do_test>
    16b0:	220a      	movs	r2, #10
    16b2:	0021      	movs	r1, r4
    16b4:	48ee      	ldr	r0, [pc, #952]	; (1a70 <run+0x428>)
    16b6:	f7ff fffe 	bl	0 <do_test>
    16ba:	220b      	movs	r2, #11
    16bc:	0021      	movs	r1, r4
    16be:	48ed      	ldr	r0, [pc, #948]	; (1a74 <run+0x42c>)
    16c0:	f7ff fffe 	bl	0 <do_test>
    16c4:	220c      	movs	r2, #12
    16c6:	0021      	movs	r1, r4
    16c8:	48eb      	ldr	r0, [pc, #940]	; (1a78 <run+0x430>)
    16ca:	f7ff fffe 	bl	0 <do_test>
    16ce:	220d      	movs	r2, #13
    16d0:	0021      	movs	r1, r4
    16d2:	48ea      	ldr	r0, [pc, #936]	; (1a7c <run+0x434>)
    16d4:	f7ff fffe 	bl	0 <do_test>
    16d8:	220e      	movs	r2, #14
    16da:	0021      	movs	r1, r4
    16dc:	48e8      	ldr	r0, [pc, #928]	; (1a80 <run+0x438>)
    16de:	f7ff fffe 	bl	0 <do_test>
    16e2:	220f      	movs	r2, #15
    16e4:	0021      	movs	r1, r4
    16e6:	48e7      	ldr	r0, [pc, #924]	; (1a84 <run+0x43c>)
    16e8:	f7ff fffe 	bl	0 <do_test>
    16ec:	2210      	movs	r2, #16
    16ee:	0021      	movs	r1, r4
    16f0:	48e5      	ldr	r0, [pc, #916]	; (1a88 <run+0x440>)
    16f2:	f7ff fffe 	bl	0 <do_test>
    16f6:	2211      	movs	r2, #17
    16f8:	0021      	movs	r1, r4
    16fa:	48e4      	ldr	r0, [pc, #912]	; (1a8c <run+0x444>)
    16fc:	f7ff fffe 	bl	0 <do_test>
    1700:	2212      	movs	r2, #18
    1702:	0021      	movs	r1, r4
    1704:	48e2      	ldr	r0, [pc, #904]	; (1a90 <run+0x448>)
    1706:	f7ff fffe 	bl	0 <do_test>
    170a:	2213      	movs	r2, #19
    170c:	0021      	movs	r1, r4
    170e:	48e1      	ldr	r0, [pc, #900]	; (1a94 <run+0x44c>)
    1710:	f7ff fffe 	bl	0 <do_test>
    1714:	2214      	movs	r2, #20
    1716:	0021      	movs	r1, r4
    1718:	48df      	ldr	r0, [pc, #892]	; (1a98 <run+0x450>)
    171a:	f7ff fffe 	bl	0 <do_test>
    171e:	2215      	movs	r2, #21
    1720:	0021      	movs	r1, r4
    1722:	48de      	ldr	r0, [pc, #888]	; (1a9c <run+0x454>)
    1724:	f7ff fffe 	bl	0 <do_test>
    1728:	2216      	movs	r2, #22
    172a:	0021      	movs	r1, r4
    172c:	48dc      	ldr	r0, [pc, #880]	; (1aa0 <run+0x458>)
    172e:	f7ff fffe 	bl	0 <do_test>
    1732:	2217      	movs	r2, #23
    1734:	0021      	movs	r1, r4
    1736:	48db      	ldr	r0, [pc, #876]	; (1aa4 <run+0x45c>)
    1738:	f7ff fffe 	bl	0 <do_test>
    173c:	2218      	movs	r2, #24
    173e:	0021      	movs	r1, r4
    1740:	48d9      	ldr	r0, [pc, #868]	; (1aa8 <run+0x460>)
    1742:	f7ff fffe 	bl	0 <do_test>
    1746:	2219      	movs	r2, #25
    1748:	0021      	movs	r1, r4
    174a:	48d8      	ldr	r0, [pc, #864]	; (1aac <run+0x464>)
    174c:	f7ff fffe 	bl	0 <do_test>
    1750:	221a      	movs	r2, #26
    1752:	0021      	movs	r1, r4
    1754:	48d6      	ldr	r0, [pc, #856]	; (1ab0 <run+0x468>)
    1756:	f7ff fffe 	bl	0 <do_test>
    175a:	221b      	movs	r2, #27
    175c:	0021      	movs	r1, r4
    175e:	48d5      	ldr	r0, [pc, #852]	; (1ab4 <run+0x46c>)
    1760:	f7ff fffe 	bl	0 <do_test>
    1764:	221c      	movs	r2, #28
    1766:	0021      	movs	r1, r4
    1768:	48d3      	ldr	r0, [pc, #844]	; (1ab8 <run+0x470>)
    176a:	f7ff fffe 	bl	0 <do_test>
    176e:	221d      	movs	r2, #29
    1770:	0021      	movs	r1, r4
    1772:	48d2      	ldr	r0, [pc, #840]	; (1abc <run+0x474>)
    1774:	f7ff fffe 	bl	0 <do_test>
    1778:	221e      	movs	r2, #30
    177a:	0021      	movs	r1, r4
    177c:	48d0      	ldr	r0, [pc, #832]	; (1ac0 <run+0x478>)
    177e:	f7ff fffe 	bl	0 <do_test>
    1782:	221f      	movs	r2, #31
    1784:	0021      	movs	r1, r4
    1786:	48cf      	ldr	r0, [pc, #828]	; (1ac4 <run+0x47c>)
    1788:	f7ff fffe 	bl	0 <do_test>
    178c:	2220      	movs	r2, #32
    178e:	0021      	movs	r1, r4
    1790:	48cd      	ldr	r0, [pc, #820]	; (1ac8 <run+0x480>)
    1792:	f7ff fffe 	bl	0 <do_test>
    1796:	2221      	movs	r2, #33	; 0x21
    1798:	0021      	movs	r1, r4
    179a:	48cc      	ldr	r0, [pc, #816]	; (1acc <run+0x484>)
    179c:	f7ff fffe 	bl	0 <do_test>
    17a0:	2222      	movs	r2, #34	; 0x22
    17a2:	0021      	movs	r1, r4
    17a4:	48ca      	ldr	r0, [pc, #808]	; (1ad0 <run+0x488>)
    17a6:	4ecb      	ldr	r6, [pc, #812]	; (1ad4 <run+0x48c>)
    17a8:	f7ff fffe 	bl	0 <do_test>
    17ac:	2223      	movs	r2, #35	; 0x23
    17ae:	0021      	movs	r1, r4
    17b0:	48c9      	ldr	r0, [pc, #804]	; (1ad8 <run+0x490>)
    17b2:	f7ff fffe 	bl	0 <do_test>
    17b6:	2224      	movs	r2, #36	; 0x24
    17b8:	0021      	movs	r1, r4
    17ba:	48c8      	ldr	r0, [pc, #800]	; (1adc <run+0x494>)
    17bc:	f7ff fffe 	bl	0 <do_test>
    17c0:	0031      	movs	r1, r6
    17c2:	2225      	movs	r2, #37	; 0x25
    17c4:	48c6      	ldr	r0, [pc, #792]	; (1ae0 <run+0x498>)
    17c6:	f7ff fffe 	bl	0 <do_test>
    17ca:	0031      	movs	r1, r6
    17cc:	2226      	movs	r2, #38	; 0x26
    17ce:	48c5      	ldr	r0, [pc, #788]	; (1ae4 <run+0x49c>)
    17d0:	f7ff fffe 	bl	0 <do_test>
    17d4:	0031      	movs	r1, r6
    17d6:	2227      	movs	r2, #39	; 0x27
    17d8:	48c3      	ldr	r0, [pc, #780]	; (1ae8 <run+0x4a0>)
    17da:	f7ff fffe 	bl	0 <do_test>
    17de:	2228      	movs	r2, #40	; 0x28
    17e0:	0021      	movs	r1, r4
    17e2:	48c2      	ldr	r0, [pc, #776]	; (1aec <run+0x4a4>)
    17e4:	f7ff fffe 	bl	0 <do_test>
    17e8:	2229      	movs	r2, #41	; 0x29
    17ea:	0021      	movs	r1, r4
    17ec:	48c0      	ldr	r0, [pc, #768]	; (1af0 <run+0x4a8>)
    17ee:	f7ff fffe 	bl	0 <do_test>
    17f2:	222a      	movs	r2, #42	; 0x2a
    17f4:	0021      	movs	r1, r4
    17f6:	48bf      	ldr	r0, [pc, #764]	; (1af4 <run+0x4ac>)
    17f8:	4dbf      	ldr	r5, [pc, #764]	; (1af8 <run+0x4b0>)
    17fa:	f7ff fffe 	bl	0 <do_test>
    17fe:	222b      	movs	r2, #43	; 0x2b
    1800:	0021      	movs	r1, r4
    1802:	48be      	ldr	r0, [pc, #760]	; (1afc <run+0x4b4>)
    1804:	f7ff fffe 	bl	0 <do_test>
    1808:	222c      	movs	r2, #44	; 0x2c
    180a:	0021      	movs	r1, r4
    180c:	48bc      	ldr	r0, [pc, #752]	; (1b00 <run+0x4b8>)
    180e:	f7ff fffe 	bl	0 <do_test>
    1812:	0029      	movs	r1, r5
    1814:	222d      	movs	r2, #45	; 0x2d
    1816:	48bb      	ldr	r0, [pc, #748]	; (1b04 <run+0x4bc>)
    1818:	f7ff fffe 	bl	0 <do_test>
    181c:	222e      	movs	r2, #46	; 0x2e
    181e:	0021      	movs	r1, r4
    1820:	48b9      	ldr	r0, [pc, #740]	; (1b08 <run+0x4c0>)
    1822:	f7ff fffe 	bl	0 <do_test>
    1826:	222f      	movs	r2, #47	; 0x2f
    1828:	0021      	movs	r1, r4
    182a:	48b8      	ldr	r0, [pc, #736]	; (1b0c <run+0x4c4>)
    182c:	f7ff fffe 	bl	0 <do_test>
    1830:	2230      	movs	r2, #48	; 0x30
    1832:	0021      	movs	r1, r4
    1834:	48b6      	ldr	r0, [pc, #728]	; (1b10 <run+0x4c8>)
    1836:	f7ff fffe 	bl	0 <do_test>
    183a:	2231      	movs	r2, #49	; 0x31
    183c:	0021      	movs	r1, r4
    183e:	48b5      	ldr	r0, [pc, #724]	; (1b14 <run+0x4cc>)
    1840:	f7ff fffe 	bl	0 <do_test>
    1844:	2232      	movs	r2, #50	; 0x32
    1846:	0021      	movs	r1, r4
    1848:	48b3      	ldr	r0, [pc, #716]	; (1b18 <run+0x4d0>)
    184a:	f7ff fffe 	bl	0 <do_test>
    184e:	2233      	movs	r2, #51	; 0x33
    1850:	0021      	movs	r1, r4
    1852:	48b2      	ldr	r0, [pc, #712]	; (1b1c <run+0x4d4>)
    1854:	f7ff fffe 	bl	0 <do_test>
    1858:	2234      	movs	r2, #52	; 0x34
    185a:	0021      	movs	r1, r4
    185c:	48b0      	ldr	r0, [pc, #704]	; (1b20 <run+0x4d8>)
    185e:	f7ff fffe 	bl	0 <do_test>
    1862:	2235      	movs	r2, #53	; 0x35
    1864:	0021      	movs	r1, r4
    1866:	48af      	ldr	r0, [pc, #700]	; (1b24 <run+0x4dc>)
    1868:	f7ff fffe 	bl	0 <do_test>
    186c:	2236      	movs	r2, #54	; 0x36
    186e:	0021      	movs	r1, r4
    1870:	48ad      	ldr	r0, [pc, #692]	; (1b28 <run+0x4e0>)
    1872:	f7ff fffe 	bl	0 <do_test>
    1876:	2237      	movs	r2, #55	; 0x37
    1878:	0021      	movs	r1, r4
    187a:	48ac      	ldr	r0, [pc, #688]	; (1b2c <run+0x4e4>)
    187c:	f7ff fffe 	bl	0 <do_test>
    1880:	2238      	movs	r2, #56	; 0x38
    1882:	0021      	movs	r1, r4
    1884:	48aa      	ldr	r0, [pc, #680]	; (1b30 <run+0x4e8>)
    1886:	f7ff fffe 	bl	0 <do_test>
    188a:	2239      	movs	r2, #57	; 0x39
    188c:	0021      	movs	r1, r4
    188e:	48a9      	ldr	r0, [pc, #676]	; (1b34 <run+0x4ec>)
    1890:	f7ff fffe 	bl	0 <do_test>
    1894:	223a      	movs	r2, #58	; 0x3a
    1896:	0021      	movs	r1, r4
    1898:	48a7      	ldr	r0, [pc, #668]	; (1b38 <run+0x4f0>)
    189a:	f7ff fffe 	bl	0 <do_test>
    189e:	223b      	movs	r2, #59	; 0x3b
    18a0:	0021      	movs	r1, r4
    18a2:	48a6      	ldr	r0, [pc, #664]	; (1b3c <run+0x4f4>)
    18a4:	f7ff fffe 	bl	0 <do_test>
    18a8:	223c      	movs	r2, #60	; 0x3c
    18aa:	0021      	movs	r1, r4
    18ac:	48a4      	ldr	r0, [pc, #656]	; (1b40 <run+0x4f8>)
    18ae:	f7ff fffe 	bl	0 <do_test>
    18b2:	223d      	movs	r2, #61	; 0x3d
    18b4:	0021      	movs	r1, r4
    18b6:	48a3      	ldr	r0, [pc, #652]	; (1b44 <run+0x4fc>)
    18b8:	f7ff fffe 	bl	0 <do_test>
    18bc:	223e      	movs	r2, #62	; 0x3e
    18be:	0021      	movs	r1, r4
    18c0:	48a1      	ldr	r0, [pc, #644]	; (1b48 <run+0x500>)
    18c2:	f7ff fffe 	bl	0 <do_test>
    18c6:	223f      	movs	r2, #63	; 0x3f
    18c8:	0021      	movs	r1, r4
    18ca:	48a0      	ldr	r0, [pc, #640]	; (1b4c <run+0x504>)
    18cc:	f7ff fffe 	bl	0 <do_test>
    18d0:	0031      	movs	r1, r6
    18d2:	2240      	movs	r2, #64	; 0x40
    18d4:	489e      	ldr	r0, [pc, #632]	; (1b50 <run+0x508>)
    18d6:	f7ff fffe 	bl	0 <do_test>
    18da:	0031      	movs	r1, r6
    18dc:	2241      	movs	r2, #65	; 0x41
    18de:	489d      	ldr	r0, [pc, #628]	; (1b54 <run+0x50c>)
    18e0:	f7ff fffe 	bl	0 <do_test>
    18e4:	0031      	movs	r1, r6
    18e6:	2242      	movs	r2, #66	; 0x42
    18e8:	489b      	ldr	r0, [pc, #620]	; (1b58 <run+0x510>)
    18ea:	f7ff fffe 	bl	0 <do_test>
    18ee:	2243      	movs	r2, #67	; 0x43
    18f0:	0021      	movs	r1, r4
    18f2:	489a      	ldr	r0, [pc, #616]	; (1b5c <run+0x514>)
    18f4:	f7ff fffe 	bl	0 <do_test>
    18f8:	0029      	movs	r1, r5
    18fa:	2244      	movs	r2, #68	; 0x44
    18fc:	4898      	ldr	r0, [pc, #608]	; (1b60 <run+0x518>)
    18fe:	f7ff fffe 	bl	0 <do_test>
    1902:	0029      	movs	r1, r5
    1904:	2245      	movs	r2, #69	; 0x45
    1906:	4897      	ldr	r0, [pc, #604]	; (1b64 <run+0x51c>)
    1908:	f7ff fffe 	bl	0 <do_test>
    190c:	2246      	movs	r2, #70	; 0x46
    190e:	0021      	movs	r1, r4
    1910:	4895      	ldr	r0, [pc, #596]	; (1b68 <run+0x520>)
    1912:	f7ff fffe 	bl	0 <do_test>
    1916:	2247      	movs	r2, #71	; 0x47
    1918:	0021      	movs	r1, r4
    191a:	4894      	ldr	r0, [pc, #592]	; (1b6c <run+0x524>)
    191c:	f7ff fffe 	bl	0 <do_test>
    1920:	0029      	movs	r1, r5
    1922:	2248      	movs	r2, #72	; 0x48
    1924:	4892      	ldr	r0, [pc, #584]	; (1b70 <run+0x528>)
    1926:	f7ff fffe 	bl	0 <do_test>
    192a:	0029      	movs	r1, r5
    192c:	2249      	movs	r2, #73	; 0x49
    192e:	4891      	ldr	r0, [pc, #580]	; (1b74 <run+0x52c>)
    1930:	f7ff fffe 	bl	0 <do_test>
    1934:	224a      	movs	r2, #74	; 0x4a
    1936:	0021      	movs	r1, r4
    1938:	488f      	ldr	r0, [pc, #572]	; (1b78 <run+0x530>)
    193a:	f7ff fffe 	bl	0 <do_test>
    193e:	224b      	movs	r2, #75	; 0x4b
    1940:	0021      	movs	r1, r4
    1942:	488e      	ldr	r0, [pc, #568]	; (1b7c <run+0x534>)
    1944:	f7ff fffe 	bl	0 <do_test>
    1948:	224c      	movs	r2, #76	; 0x4c
    194a:	0021      	movs	r1, r4
    194c:	488c      	ldr	r0, [pc, #560]	; (1b80 <run+0x538>)
    194e:	f7ff fffe 	bl	0 <do_test>
    1952:	224d      	movs	r2, #77	; 0x4d
    1954:	0021      	movs	r1, r4
    1956:	488b      	ldr	r0, [pc, #556]	; (1b84 <run+0x53c>)
    1958:	f7ff fffe 	bl	0 <do_test>
    195c:	224e      	movs	r2, #78	; 0x4e
    195e:	0021      	movs	r1, r4
    1960:	4889      	ldr	r0, [pc, #548]	; (1b88 <run+0x540>)
    1962:	f7ff fffe 	bl	0 <do_test>
    1966:	224f      	movs	r2, #79	; 0x4f
    1968:	0021      	movs	r1, r4
    196a:	4888      	ldr	r0, [pc, #544]	; (1b8c <run+0x544>)
    196c:	f7ff fffe 	bl	0 <do_test>
    1970:	4e87      	ldr	r6, [pc, #540]	; (1b90 <run+0x548>)
    1972:	2250      	movs	r2, #80	; 0x50
    1974:	0030      	movs	r0, r6
    1976:	0021      	movs	r1, r4
    1978:	f7ff fffe 	bl	0 <do_test>
    197c:	0030      	movs	r0, r6
    197e:	2251      	movs	r2, #81	; 0x51
    1980:	0021      	movs	r1, r4
    1982:	f7ff fffe 	bl	0 <do_test>
    1986:	2252      	movs	r2, #82	; 0x52
    1988:	0021      	movs	r1, r4
    198a:	4882      	ldr	r0, [pc, #520]	; (1b94 <run+0x54c>)
    198c:	f7ff fffe 	bl	0 <do_test>
    1990:	2253      	movs	r2, #83	; 0x53
    1992:	0021      	movs	r1, r4
    1994:	4880      	ldr	r0, [pc, #512]	; (1b98 <run+0x550>)
    1996:	f7ff fffe 	bl	0 <do_test>
    199a:	2254      	movs	r2, #84	; 0x54
    199c:	0021      	movs	r1, r4
    199e:	487f      	ldr	r0, [pc, #508]	; (1b9c <run+0x554>)
    19a0:	f7ff fffe 	bl	0 <do_test>
    19a4:	4e7e      	ldr	r6, [pc, #504]	; (1ba0 <run+0x558>)
    19a6:	2255      	movs	r2, #85	; 0x55
    19a8:	0030      	movs	r0, r6
    19aa:	0021      	movs	r1, r4
    19ac:	f7ff fffe 	bl	0 <do_test>
    19b0:	2256      	movs	r2, #86	; 0x56
    19b2:	0021      	movs	r1, r4
    19b4:	487b      	ldr	r0, [pc, #492]	; (1ba4 <run+0x55c>)
    19b6:	f7ff fffe 	bl	0 <do_test>
    19ba:	0030      	movs	r0, r6
    19bc:	2257      	movs	r2, #87	; 0x57
    19be:	0021      	movs	r1, r4
    19c0:	f7ff fffe 	bl	0 <do_test>
    19c4:	2258      	movs	r2, #88	; 0x58
    19c6:	0021      	movs	r1, r4
    19c8:	4877      	ldr	r0, [pc, #476]	; (1ba8 <run+0x560>)
    19ca:	f7ff fffe 	bl	0 <do_test>
    19ce:	2259      	movs	r2, #89	; 0x59
    19d0:	0021      	movs	r1, r4
    19d2:	4876      	ldr	r0, [pc, #472]	; (1bac <run+0x564>)
    19d4:	f7ff fffe 	bl	0 <do_test>
    19d8:	0029      	movs	r1, r5
    19da:	225a      	movs	r2, #90	; 0x5a
    19dc:	4874      	ldr	r0, [pc, #464]	; (1bb0 <run+0x568>)
    19de:	f7ff fffe 	bl	0 <do_test>
    19e2:	0029      	movs	r1, r5
    19e4:	225b      	movs	r2, #91	; 0x5b
    19e6:	4873      	ldr	r0, [pc, #460]	; (1bb4 <run+0x56c>)
    19e8:	f7ff fffe 	bl	0 <do_test>
    19ec:	225c      	movs	r2, #92	; 0x5c
    19ee:	0021      	movs	r1, r4
    19f0:	4871      	ldr	r0, [pc, #452]	; (1bb8 <run+0x570>)
    19f2:	f7ff fffe 	bl	0 <do_test>
    19f6:	0029      	movs	r1, r5
    19f8:	225d      	movs	r2, #93	; 0x5d
    19fa:	4870      	ldr	r0, [pc, #448]	; (1bbc <run+0x574>)
    19fc:	f7ff fffe 	bl	0 <do_test>
    1a00:	0029      	movs	r1, r5
    1a02:	225e      	movs	r2, #94	; 0x5e
    1a04:	486e      	ldr	r0, [pc, #440]	; (1bc0 <run+0x578>)
    1a06:	f7ff fffe 	bl	0 <do_test>
    1a0a:	225f      	movs	r2, #95	; 0x5f
    1a0c:	0021      	movs	r1, r4
    1a0e:	486d      	ldr	r0, [pc, #436]	; (1bc4 <run+0x57c>)
    1a10:	f7ff fffe 	bl	0 <do_test>
    1a14:	2260      	movs	r2, #96	; 0x60
    1a16:	0021      	movs	r1, r4
    1a18:	486b      	ldr	r0, [pc, #428]	; (1bc8 <run+0x580>)
    1a1a:	f7ff fffe 	bl	0 <do_test>
    1a1e:	2261      	movs	r2, #97	; 0x61
    1a20:	0021      	movs	r1, r4
    1a22:	486a      	ldr	r0, [pc, #424]	; (1bcc <run+0x584>)
    1a24:	f7ff fffe 	bl	0 <do_test>
    1a28:	2262      	movs	r2, #98	; 0x62
    1a2a:	0021      	movs	r1, r4
    1a2c:	4868      	ldr	r0, [pc, #416]	; (1bd0 <run+0x588>)
    1a2e:	f7ff fffe 	bl	0 <do_test>
    1a32:	0029      	movs	r1, r5
    1a34:	2263      	movs	r2, #99	; 0x63
    1a36:	4867      	ldr	r0, [pc, #412]	; (1bd4 <run+0x58c>)
    1a38:	f7ff fffe 	bl	0 <do_test>
    1a3c:	0029      	movs	r1, r5
    1a3e:	2264      	movs	r2, #100	; 0x64
    1a40:	e0ca      	b.n	1bd8 <run+0x590>
    1a42:	46c0      	nop			; (mov r8, r8)
    1a44:	10001dc4 	.word	0x10001dc4
	...
    1ad4:	10001d24 	.word	0x10001d24
	...
    1af8:	10001c2c 	.word	0x10001c2c
	...
    1bd8:	4827      	ldr	r0, [pc, #156]	; (a0 <do_test+0xa0>)
    1bda:	f7ff fffe 	bl	0 <do_test>
    1bde:	0029      	movs	r1, r5
    1be0:	2265      	movs	r2, #101	; 0x65
    1be2:	4826      	ldr	r0, [pc, #152]	; (1c7c <run+0x634>)
    1be4:	f7ff fffe 	bl	0 <do_test>
    1be8:	0029      	movs	r1, r5
    1bea:	2266      	movs	r2, #102	; 0x66
    1bec:	4824      	ldr	r0, [pc, #144]	; (1c80 <run+0x638>)
    1bee:	f7ff fffe 	bl	0 <do_test>
    1bf2:	0029      	movs	r1, r5
    1bf4:	2267      	movs	r2, #103	; 0x67
    1bf6:	4823      	ldr	r0, [pc, #140]	; (1c84 <run+0x63c>)
    1bf8:	f7ff fffe 	bl	0 <do_test>
    1bfc:	0029      	movs	r1, r5
    1bfe:	2268      	movs	r2, #104	; 0x68
    1c00:	4821      	ldr	r0, [pc, #132]	; (1c88 <run+0x640>)
    1c02:	f7ff fffe 	bl	0 <do_test>
    1c06:	2269      	movs	r2, #105	; 0x69
    1c08:	0021      	movs	r1, r4
    1c0a:	4820      	ldr	r0, [pc, #128]	; (1c8c <run+0x644>)
    1c0c:	f7ff fffe 	bl	0 <do_test>
    1c10:	226a      	movs	r2, #106	; 0x6a
    1c12:	0021      	movs	r1, r4
    1c14:	481e      	ldr	r0, [pc, #120]	; (1c90 <run+0x648>)
    1c16:	f7ff fffe 	bl	0 <do_test>
    1c1a:	226b      	movs	r2, #107	; 0x6b
    1c1c:	0021      	movs	r1, r4
    1c1e:	481d      	ldr	r0, [pc, #116]	; (1c94 <run+0x64c>)
    1c20:	f7ff fffe 	bl	0 <do_test>
    1c24:	226c      	movs	r2, #108	; 0x6c
    1c26:	0021      	movs	r1, r4
    1c28:	481b      	ldr	r0, [pc, #108]	; (1c98 <run+0x650>)
    1c2a:	f7ff fffe 	bl	0 <do_test>
    1c2e:	226d      	movs	r2, #109	; 0x6d
    1c30:	0021      	movs	r1, r4
    1c32:	481a      	ldr	r0, [pc, #104]	; (1c9c <run+0x654>)
    1c34:	f7ff fffe 	bl	0 <do_test>
    1c38:	226e      	movs	r2, #110	; 0x6e
    1c3a:	0021      	movs	r1, r4
    1c3c:	4818      	ldr	r0, [pc, #96]	; (1ca0 <run+0x658>)
    1c3e:	f7ff fffe 	bl	0 <do_test>
    1c42:	226f      	movs	r2, #111	; 0x6f
    1c44:	0021      	movs	r1, r4
    1c46:	4817      	ldr	r0, [pc, #92]	; (1ca4 <run+0x65c>)
    1c48:	f7ff fffe 	bl	0 <do_test>
    1c4c:	2270      	movs	r2, #112	; 0x70
    1c4e:	0021      	movs	r1, r4
    1c50:	4815      	ldr	r0, [pc, #84]	; (1ca8 <run+0x660>)
    1c52:	f7ff fffe 	bl	0 <do_test>
    1c56:	2271      	movs	r2, #113	; 0x71
    1c58:	0021      	movs	r1, r4
    1c5a:	4814      	ldr	r0, [pc, #80]	; (1cac <run+0x664>)
    1c5c:	f7ff fffe 	bl	0 <do_test>
    1c60:	2272      	movs	r2, #114	; 0x72
    1c62:	0021      	movs	r1, r4
    1c64:	4812      	ldr	r0, [pc, #72]	; (1cb0 <run+0x668>)
    1c66:	f7ff fffe 	bl	0 <do_test>
    1c6a:	2273      	movs	r2, #115	; 0x73
    1c6c:	0021      	movs	r1, r4
    1c6e:	4811      	ldr	r0, [pc, #68]	; (1cb4 <run+0x66c>)
    1c70:	f7ff fffe 	bl	0 <do_test>
    1c74:	bd70      	pop	{r4, r5, r6, pc}
    1c76:	46c0      	nop			; (mov r8, r8)
	...
