
Allocating common symbols
Common symbol       size              file

results             0x3a0             main.o

Discarded input sections

 .group         0x0000000000000000        0x8 raw.o
 .group         0x0000000000000000        0x8 raw.o
 .group         0x0000000000000000        0x8 raw.o
 .group         0x0000000000000000        0x8 raw.o
 .group         0x0000000000000000        0x8 raw.o
 .group         0x0000000000000000        0x8 raw.o
 .group         0x0000000000000000        0x8 raw.o
 .group         0x0000000000000000        0x8 raw.o
 .group         0x0000000000000000        0x8 raw.o
 .group         0x0000000000000000        0x8 main.o
 .group         0x0000000000000000        0x8 main.o
 .group         0x0000000000000000        0x8 main.o
 .group         0x0000000000000000        0x8 main.o
 .group         0x0000000000000000        0x8 main.o
 .group         0x0000000000000000        0x8 main.o
 .group         0x0000000000000000        0x8 main.o
 .group         0x0000000000000000        0x8 main.o
 .group         0x0000000000000000        0x8 main.o
 .group         0x0000000000000000        0x8 main.o
 .group         0x0000000000000000        0x8 main.o
 .debug_macro   0x0000000000000000      0xa60 main.o
 .debug_macro   0x0000000000000000       0x22 main.o
 .debug_macro   0x0000000000000000       0x8e main.o
 .debug_macro   0x0000000000000000       0x51 main.o
 .debug_macro   0x0000000000000000       0xef main.o
 .debug_macro   0x0000000000000000       0x6a main.o
 .debug_macro   0x0000000000000000      0x1df main.o
 .group         0x0000000000000000        0x8 stm32f767xx_ram_init.o
 .group         0x0000000000000000        0x8 stm32f767xx_ram_init.o
 .group         0x0000000000000000        0x8 stm32f767xx_ram_init.o
 .group         0x0000000000000000        0x8 stm32f767xx_ram_init.o
 .group         0x0000000000000000        0x8 stm32f767xx_ram_init.o
 .group         0x0000000000000000        0x8 stm32f767xx_ram_init.o
 .group         0x0000000000000000        0x8 stm32f767xx_ram_init.o
 .group         0x0000000000000000        0x8 stm32f767xx_ram_init.o
 .group         0x0000000000000000        0x8 stm32f767xx_ram_init.o
 .group         0x0000000000000000        0x8 stm32f767xx_ram_init.o
 .group         0x0000000000000000        0x8 stm32f767xx_ram_init.o
 .group         0x0000000000000000        0x8 stm32f767xx_ram_init.o
 .debug_macro   0x0000000000000000      0xa60 stm32f767xx_ram_init.o
 .debug_macro   0x0000000000000000       0x22 stm32f767xx_ram_init.o
 .debug_macro   0x0000000000000000       0x8e stm32f767xx_ram_init.o
 .debug_macro   0x0000000000000000       0x51 stm32f767xx_ram_init.o
 .debug_macro   0x0000000000000000       0xef stm32f767xx_ram_init.o
 .debug_macro   0x0000000000000000       0x6a stm32f767xx_ram_init.o
 .debug_macro   0x0000000000000000      0x1df stm32f767xx_ram_init.o
 .debug_macro   0x0000000000000000       0x3b stm32f767xx_ram_init.o
 .debug_macro   0x0000000000000000       0x50 stm32f767xx_ram_init.o

Memory Configuration

Name             Origin             Length             Attributes
ITCM_RAM         0x0000000000000000 0x0000000000004000 xrw
DTCM_RAM         0x0000000020000000 0x0000000000020000 xrw
SRAM1            0x0000000020020000 0x000000000005c000 xrw
SRAM2            0x000000002007c000 0x0000000000004000 xrw
*default*        0x0000000000000000 0xffffffffffffffff

Linker script and memory map

LOAD raw.o
LOAD main.o
LOAD stm32f767xx_ram_init.o
                0x0000000000000400                PROVIDE (MINIMUM_STACK_SIZE, 0x400)
                0x0000000000000000                . = ORIGIN (ITCM_RAM)

.fast_text
                0x0000000020000000                . = ORIGIN (DTCM_RAM)

.fast_data
                0x0000000020020000                . = ORIGIN (SRAM1)

.text           0x0000000020020000     0x1880
 *(.vectors)
 .vectors       0x0000000020020000      0x1f0 stm32f767xx_ram_init.o
                0x0000000020020000                INTERRUPT_VECTORS
 *(.text)
 .text          0x00000000200201f0     0x14c4 raw.o
                0x00000000200201f0                zero_reg
                0x00000000200201fc                zero_array
                0x0000000020020208                set_singl_bits_operator
                0x0000000020020218                set_singl_bits_method
                0x0000000020020228                clr_singl_bits_operator
                0x0000000020020238                clr_singl_bits_method
                0x0000000020020248                set_singl_mskd_operator
                0x0000000020020258                set_singl_mskd_method
                0x0000000020020268                clr_singl_mskd_operator
                0x0000000020020278                clr_singl_mskd_method
                0x0000000020020288                equ_singl_bits_operator
                0x0000000020020294                equ_singl_bits_method
                0x00000000200202a0                equ_singl_mskd_operator
                0x00000000200202ac                equ_singl_mskd_method
                0x00000000200202b8                flp_singl_bits_operator
                0x00000000200202c8                flp_singl_bits_method
                0x00000000200202d8                flp_singl_mskd_operator
                0x00000000200202e8                flp_singl_mskd_method
                0x00000000200202f8                ins_singl_mskd_operator
                0x000000002002030c                ins_singl_mskd_method
                0x0000000020020320                set_multi_bits_operator
                0x0000000020020330                set_multi_bits_method
                0x0000000020020340                ins_multi_mskd_operator
                0x000000002002035c                ins_multi_mskd_method
                0x0000000020020378                equ_multi_bits_operator
                0x0000000020020384                equ_multi_bits_method
                0x0000000020020390                equ_multi_mskd_operator
                0x00000000200203a0                equ_multi_mskd_method
                0x00000000200203b0                equ_bits_mskd_operator
                0x00000000200203bc                equ_bits_mskd_method
                0x00000000200203c8                equ_mskd_bits_operator
                0x00000000200203d4                equ_mskd_bits_method
                0x00000000200203e0                equ_bits_var
                0x00000000200203f0                equ_mskd_var
                0x0000000020020404                cmp_equ_zero
                0x000000002002042c                cmp_neq_zero
                0x000000002002044c                cmp_equ_bits
                0x0000000020020474                cmp_neq_bits
                0x0000000020020494                cmp_equ_multi_bits
                0x00000000200204c0                cmp_neq_multi_bits
                0x00000000200204ec                cmp_equ_mskd
                0x0000000020020534                cmp_neq_mskd
                0x000000002002056c                cmp_equ_reg
                0x0000000020020594                cmp_neq_reg
                0x00000000200205b4                constexpr_bits_array
                0x00000000200205cc                runtime_bits_array
                0x00000000200205fc                prescaler_low
                0x0000000020020618                prescaler_high
                0x0000000020020634                reg_mskd_lss
                0x0000000020020668                reg_mskd_leq
                0x00000000200206a4                reg_mskd_gtr
                0x00000000200206d4                reg_mskd_geq
                0x000000002002071c                pos_cmp_eq
                0x0000000020020728                pos_cmp_ne
                0x0000000020020734                bits_extract_eq
                0x0000000020020754                mskd_extract_eq
                0x0000000020020778                mskd_extract_ne
                0x000000002002079c                mskd_extract_lss
                0x00000000200207d0                mskd_extract_leq
                0x00000000200207fc                mskd_extract_gtr
                0x000000002002082c                set_bits_global
                0x000000002002083c                ins_mskd_global
                0x0000000020020850                assign_array_global
                0x000000002002085c                shifted_global
                0x0000000020020878                assign_register_global
                0x0000000020020884                copy_bits_equ
                0x00000000200208a4                copy_bits_neq
                0x00000000200208c4                copy_mskd_equ
                0x00000000200208f0                copy_mskd_neq
                0x000000002002091c                copy_mskd_lss
                0x0000000020020950                copy_mskd_leq
                0x000000002002097c                copy_mskd_gtr
                0x00000000200209ac                copy_mskd_geq
                0x00000000200209e0                copy_shifted
                0x0000000020020a0c                bits_val
                0x0000000020020a1c                call_bits_val_const
                0x0000000020020a26                call_bits_val_var
                0x0000000020020a30                call_bits_val_global
                0x0000000020020a3a                bits_ref
                0x0000000020020a4c                call_bits_ref_const
                0x0000000020020a5e                call_bits_ref_var
                0x0000000020020a70                call_bits_ref_global
                0x0000000020020a82                mskd_val
                0x0000000020020a94                call_mskd_val_const
                0x0000000020020aa8                call_mskd_val_var
                0x0000000020020abc                call_mskd_val_global
                0x0000000020020ac8                mskd_ref
                0x0000000020020adc                call_mskd_ref_const
                0x0000000020020af8                call_mskd_ref_var
                0x0000000020020b14                call_mskd_ref_global
                0x0000000020020b30                periph_bits
                0x0000000020020b3a                call_periph_bits
                0x0000000020020b48                periph_bits_val
                0x0000000020020b50                call_periph_bits_val
                0x0000000020020b60                reg_bits_val
                0x0000000020020b68                call_reg_bits_val
                0x0000000020020b78                periph_bits_ref
                0x0000000020020b82                call_periph_bits_ref
                0x0000000020020b9c                reg_bits_ref
                0x0000000020020ba6                call_reg_bits_ref
                0x0000000020020bc0                periph_mskd
                0x0000000020020bce                call_periph_mskd
                0x0000000020020bdc                periph_mskd_val
                0x0000000020020be6                call_periph_mskd_val
                0x0000000020020bf8                reg_mskd_val
                0x0000000020020c02                call_reg_mskd_val
                0x0000000020020c14                periph_mskd_ref
                0x0000000020020c22                call_periph_mskd_ref
                0x0000000020020c44                reg_mskd_ref
                0x0000000020020c52                call_reg_mskd_ref
                0x0000000020020c74                return_bits
                0x0000000020020c78                call_return_bits
                0x0000000020020c9c                return_mskd
                0x0000000020020ca6                call_return_mskd
                0x0000000020020cd8                return_reg
                0x0000000020020ce4                call_return_reg
                0x0000000020020d08                return_periph
                0x0000000020020d1c                call_return_periph
                0x0000000020020d40                pos_val
                0x0000000020020d68                call_pos_val
                0x0000000020020d78                call_pos_val_global
                0x0000000020020d82                pos_ref
                0x0000000020020da8                call_pos_ref
                0x0000000020020dc4                call_pos_ref_global
                0x0000000020020dd8                runtime_range_val
                0x0000000020020de8                call_range_val
                0x0000000020020df8                call_range_val_port
                0x0000000020020e02                runtime_range_ref
                0x0000000020020e18                call_range_ref
                0x0000000020020e32                call_range_ref_port
                0x0000000020020e3c                check_array_range_pass
                0x0000000020020e54                check_array_range_fail
                0x0000000020020e6c                check_bits_range_pass
                0x0000000020020e84                check_bits_range_fail
                0x0000000020020e9c                check_mskd_range_pass
                0x0000000020020eb4                check_mskd_range_fail
                0x0000000020020ecc                bits_extract_ne
                0x0000000020020eec                mskd_extract_geq
                0x0000000020020f20                shifted_val
                0x0000000020020f3c                call_shifted_const_val
                0x0000000020020f4a                call_shifted_var_val
                0x0000000020020f58                call_shifted_global_val
                0x0000000020020f66                shifted_ref
                0x0000000020020f88                call_shifted_const_ref
                0x0000000020020fa4                call_shifted_var_ref
                0x0000000020020fc0                call_shifted_global_ref
                0x0000000020020fdc                copy_bits_val
                0x0000000020020ff4                call_copy_bits_val
                0x0000000020021008                copy_bits_ref
                0x0000000020021024                call_copy_bits_ref
                0x0000000020021040                run
 .text          0x00000000200216b4       0xa4 main.o
                0x00000000200216b4                memset
                0x00000000200216c8                do_test
                0x000000002002174c                main
 .text          0x0000000020021758      0x128 stm32f767xx_ram_init.o
                0x0000000020021758                NMI_IRQ_Handler
                0x000000002002175a                HardFault_IRQ_Handler
                0x000000002002175c                MemManage_IRQ_Handler
                0x000000002002175e                BusFault_IRQ_Handler
                0x0000000020021760                UsageFault_IRQ_Handler
                0x0000000020021762                Reserved1_IRQ_Handler
                0x0000000020021764                Reserved2_IRQ_Handler
                0x0000000020021766                Reserved3_IRQ_Handler
                0x0000000020021768                Reserved4_IRQ_Handler
                0x000000002002176a                SVCall_IRQ_Handler
                0x000000002002176c                Debug_IRQ_Handler
                0x000000002002176e                Reserved5_IRQ_Handler
                0x0000000020021770                PendSV_IRQ_Handler
                0x0000000020021772                SysTick_IRQ_Handler
                0x0000000020021774                WWDG_IRQ_Handler
                0x0000000020021776                PVD_IRQ_Handler
                0x0000000020021778                TAMP_STAMP_IRQ_Handler
                0x000000002002177a                RTC_WKUP_IRQ_Handler
                0x000000002002177c                FLASH_IRQ_Handler
                0x000000002002177e                RCC_IRQ_Handler
                0x0000000020021780                EXTI0_IRQ_Handler
                0x0000000020021782                EXTI1_IRQ_Handler
                0x0000000020021784                EXTI2_IRQ_Handler
                0x0000000020021786                EXTI3_IRQ_Handler
                0x0000000020021788                EXTI4_IRQ_Handler
                0x000000002002178a                DMA1_Stream0_IRQ_Handler
                0x000000002002178c                DMA1_Stream1_IRQ_Handler
                0x000000002002178e                DMA1_Stream2_IRQ_Handler
                0x0000000020021790                DMA1_Stream3_IRQ_Handler
                0x0000000020021792                DMA1_Stream4_IRQ_Handler
                0x0000000020021794                DMA1_Stream5_IRQ_Handler
                0x0000000020021796                DMA1_Stream6_IRQ_Handler
                0x0000000020021798                ADC_IRQ_Handler
                0x000000002002179a                CAN1_TX_IRQ_Handler
                0x000000002002179c                CAN1_RX0_IRQ_Handler
                0x000000002002179e                CAN1_RX1_IRQ_Handler
                0x00000000200217a0                CAN1_SCE_IRQ_Handler
                0x00000000200217a2                EXTI9_5_IRQ_Handler
                0x00000000200217a4                TIM1_BRK_TIM9_IRQ_Handler
                0x00000000200217a6                TIM1_UP_TIM10_IRQ_Handler
                0x00000000200217a8                TIM1_TRG_COM_TIM11_IRQ_Handler
                0x00000000200217aa                TIM1_CC_IRQ_Handler
                0x00000000200217ac                TIM2_IRQ_Handler
                0x00000000200217ae                TIM3_IRQ_Handler
                0x00000000200217b0                TIM4_IRQ_Handler
                0x00000000200217b2                I2C1_EV_IRQ_Handler
                0x00000000200217b4                I2C1_ER_IRQ_Handler
                0x00000000200217b6                I2C2_EV_IRQ_Handler
                0x00000000200217b8                I2C2_ER_IRQ_Handler
                0x00000000200217ba                SPI1_IRQ_Handler
                0x00000000200217bc                SPI2_IRQ_Handler
                0x00000000200217be                USART1_IRQ_Handler
                0x00000000200217c0                USART2_IRQ_Handler
                0x00000000200217c2                USART3_IRQ_Handler
                0x00000000200217c4                EXTI15_10_IRQ_Handler
                0x00000000200217c6                RTC_Alarm_IRQ_Handler
                0x00000000200217c8                OTG_FS_WKUP_IRQ_Handler
                0x00000000200217ca                TIM8_BRK_TIM12_IRQ_Handler
                0x00000000200217cc                TIM8_UP_TIM13_IRQ_Handler
                0x00000000200217ce                TIM8_TRG_COM_TIM14_IRQ_Handler
                0x00000000200217d0                TIM8_CC_IRQ_Handler
                0x00000000200217d2                DMA1_Stream7_IRQ_Handler
                0x00000000200217d4                FMC_IRQ_Handler
                0x00000000200217d6                SDMMC1_IRQ_Handler
                0x00000000200217d8                TIM5_IRQ_Handler
                0x00000000200217da                SPI3_IRQ_Handler
                0x00000000200217dc                UART4_IRQ_Handler
                0x00000000200217de                UART5_IRQ_Handler
                0x00000000200217e0                TIM6_DAC_IRQ_Handler
                0x00000000200217e2                TIM7_IRQ_Handler
                0x00000000200217e4                DMA2_Stream0_IRQ_Handler
                0x00000000200217e6                DMA2_Stream1_IRQ_Handler
                0x00000000200217e8                DMA2_Stream2_IRQ_Handler
                0x00000000200217ea                DMA2_Stream3_IRQ_Handler
                0x00000000200217ec                DMA2_Stream4_IRQ_Handler
                0x00000000200217ee                ETH_IRQ_Handler
                0x00000000200217f0                ETH_WKUP_IRQ_Handler
                0x00000000200217f2                CAN2_TX_IRQ_Handler
                0x00000000200217f4                CAN2_RX0_IRQ_Handler
                0x00000000200217f6                CAN2_RX1_IRQ_Handler
                0x00000000200217f8                CAN2_SCE_IRQ_Handler
                0x00000000200217fa                OTG_FS_IRQ_Handler
                0x00000000200217fc                DMA2_Stream5_IRQ_Handler
                0x00000000200217fe                DMA2_Stream6_IRQ_Handler
                0x0000000020021800                DMA2_Stream7_IRQ_Handler
                0x0000000020021802                USART6_IRQ_Handler
                0x0000000020021804                I2C3_EV_IRQ_Handler
                0x0000000020021806                I2C3_ER_IRQ_Handler
                0x0000000020021808                OTG_HS_EP1_OUT_IRQ_Handler
                0x000000002002180a                OTG_HS_EP1_IN_IRQ_Handler
                0x000000002002180c                OTG_HS_WKUP_IRQ_Handler
                0x000000002002180e                OTG_HS_IRQ_Handler
                0x0000000020021810                DCMI_IRQ_Handler
                0x0000000020021812                RNG_IRQ_Handler
                0x0000000020021814                FPU_IRQ_Handler
                0x0000000020021816                UART7_IRQ_Handler
                0x0000000020021818                UART8_IRQ_Handler
                0x000000002002181a                SPI4_IRQ_Handler
                0x000000002002181c                SPI5_IRQ_Handler
                0x000000002002181e                SPI6_IRQ_Handler
                0x0000000020021820                SAI1_IRQ_Handler
                0x0000000020021822                LTDC_IRQ_Handler
                0x0000000020021824                LTDC_ER_IRQ_Handler
                0x0000000020021826                DMA2D_IRQ_Handler
                0x0000000020021828                SAI2_IRQ_Handler
                0x000000002002182a                QUADSPI_IRQ_Handler
                0x000000002002182c                LPTIM1_IRQ_Handler
                0x000000002002182e                CEC_IRQ_Handler
                0x0000000020021830                I2C4_EV_IRQ_Handler
                0x0000000020021832                I2C4_ER_IRQ_Handler
                0x0000000020021834                SPDIF_RX_IRQ_Handler
                0x0000000020021836                DFSDM1_FLT0_IRQ_Handler
                0x0000000020021838                DFSDM1_FLT1_IRQ_Handler
                0x000000002002183a                DFSDM1_FLT2_IRQ_Handler
                0x000000002002183c                DFSDM1_FLT3_IRQ_Handler
                0x000000002002183e                SDMMC2_IRQ_Handler
                0x0000000020021840                CAN3_TX_IRQ_Handler
                0x0000000020021842                CAN3_RX0_IRQ_Handler
                0x0000000020021844                CAN3_RX1_IRQ_Handler
                0x0000000020021846                CAN3_SCE_IRQ_Handler
                0x0000000020021848                JPEG_IRQ_Handler
                0x000000002002184a                MDIOS_IRQ_Handler
                0x000000002002184c                init

.glue_7         0x0000000020021880        0x0
 .glue_7        0x0000000020021880        0x0 linker stubs

.glue_7t        0x0000000020021880        0x0
 .glue_7t       0x0000000020021880        0x0 linker stubs

.vfp11_veneer   0x0000000020021880        0x0
 .vfp11_veneer  0x0000000020021880        0x0 linker stubs

.v4_bx          0x0000000020021880        0x0
 .v4_bx         0x0000000020021880        0x0 linker stubs

.iplt           0x0000000020021880        0x0
 .iplt          0x0000000020021880        0x0 raw.o

.rodata         0x0000000020021880       0x18
 .rodata        0x0000000020021880       0x18 raw.o

.rel.dyn        0x0000000020021898        0x0
 .rel.iplt      0x0000000020021898        0x0 raw.o

.data           0x0000000020021898        0x0
                0x0000000020021898                . = ALIGN (0x4)
 *(.data)
 .data          0x0000000020021898        0x0 raw.o
 .data          0x0000000020021898        0x0 main.o
 .data          0x0000000020021898        0x0 stm32f767xx_ram_init.o
                0x0000000020021898                BSS_START = .

.igot.plt       0x0000000020021898        0x0
 .igot.plt      0x0000000020021898        0x0 raw.o

.bss            0x0000000020021898      0x3a4
                0x0000000020021898                . = ALIGN (0x4)
 *(.bss)
 .bss           0x0000000020021898        0x0 raw.o
 .bss           0x0000000020021898        0x4 main.o
                0x0000000020021898                elapsed_time
 .bss           0x000000002002189c        0x0 stm32f767xx_ram_init.o
 COMMON         0x000000002002189c      0x3a0 main.o
                0x000000002002189c                results
                0x0000000020021c3c                BSS_END = .
                0x0000000020021c3c                end = .
                0x000000002007c000                TOP_OF_STACK = (ORIGIN (SRAM1) + LENGTH (SRAM1))
                0x0000000000000000                ASSERT (((end + MINIMUM_STACK_SIZE) < TOP_OF_STACK), too big to fit in RAM)
OUTPUT(raw.elf elf32-littlearm)

.debug_info     0x0000000000000000     0x3a07
 .debug_info    0x0000000000000000     0x28a0 raw.o
 .debug_info    0x00000000000028a0      0x2f8 main.o
 .debug_info    0x0000000000002b98      0xe6f stm32f767xx_ram_init.o

.debug_abbrev   0x0000000000000000      0x556
 .debug_abbrev  0x0000000000000000      0x211 raw.o
 .debug_abbrev  0x0000000000000211      0x1d3 main.o
 .debug_abbrev  0x00000000000003e4      0x172 stm32f767xx_ram_init.o

.debug_loc      0x0000000000000000      0x497
 .debug_loc     0x0000000000000000      0x2c1 raw.o
 .debug_loc     0x00000000000002c1      0x181 main.o
 .debug_loc     0x0000000000000442       0x55 stm32f767xx_ram_init.o

.debug_aranges  0x0000000000000000       0x60
 .debug_aranges
                0x0000000000000000       0x20 raw.o
 .debug_aranges
                0x0000000000000020       0x20 main.o
 .debug_aranges
                0x0000000000000040       0x20 stm32f767xx_ram_init.o

.debug_macro    0x0000000000000000    0x1d8a3
 .debug_macro   0x0000000000000000       0x80 raw.o
 .debug_macro   0x0000000000000080      0xa60 raw.o
 .debug_macro   0x0000000000000ae0       0x10 raw.o
 .debug_macro   0x0000000000000af0       0x22 raw.o
 .debug_macro   0x0000000000000b12       0x8e raw.o
 .debug_macro   0x0000000000000ba0       0x51 raw.o
 .debug_macro   0x0000000000000bf1       0xef raw.o
 .debug_macro   0x0000000000000ce0       0x6a raw.o
 .debug_macro   0x0000000000000d4a      0x1df raw.o
 .debug_macro   0x0000000000000f29      0x710 raw.o
 .debug_macro   0x0000000000001639       0xb4 main.o
 .debug_macro   0x00000000000016ed      0x174 main.o
 .debug_macro   0x0000000000001861       0x3b main.o
 .debug_macro   0x000000000000189c       0x50 main.o
 .debug_macro   0x00000000000018ec      0xe74 main.o
 .debug_macro   0x0000000000002760       0xbc stm32f767xx_ram_init.o
 .debug_macro   0x000000000000281c       0x3b stm32f767xx_ram_init.o
 .debug_macro   0x0000000000002857     0x1114 stm32f767xx_ram_init.o
 .debug_macro   0x000000000000396b    0x19f38 stm32f767xx_ram_init.o

.debug_line     0x0000000000000000     0x1f92
 .debug_line    0x0000000000000000     0x10c8 raw.o
 .debug_line    0x00000000000010c8      0x398 main.o
 .debug_line    0x0000000000001460      0xb32 stm32f767xx_ram_init.o

.debug_str      0x0000000000000000    0x9f86b
 .debug_str     0x0000000000000000     0x693f raw.o
                                       0x6be1 (size before relaxing)
 .debug_str     0x000000000000693f     0x56b2 main.o
                                       0x9351 (size before relaxing)
 .debug_str     0x000000000000bff1    0x9387a stm32f767xx_ram_init.o
                                      0x9c830 (size before relaxing)

.comment        0x0000000000000000       0x75
 .comment       0x0000000000000000       0x75 raw.o
                                         0x76 (size before relaxing)
 .comment       0x0000000000000075       0x76 main.o
 .comment       0x0000000000000075       0x76 stm32f767xx_ram_init.o

.ARM.attributes
                0x0000000000000000       0x1c
 .ARM.attributes
                0x0000000000000000       0x1c raw.o
 .ARM.attributes
                0x000000000000001c       0x1c main.o
 .ARM.attributes
                0x0000000000000038       0x1c stm32f767xx_ram_init.o

.debug_frame    0x0000000000000000     0x130c
 .debug_frame   0x0000000000000000      0xae4 raw.o
 .debug_frame   0x0000000000000ae4       0x60 main.o
 .debug_frame   0x0000000000000b44      0x7c8 stm32f767xx_ram_init.o
Memory region         Used Size  Region Size  %age Used
        ITCM_RAM:          0 GB        16 KB      0.00%
        DTCM_RAM:          0 GB       128 KB      0.00%
           SRAM1:        7228 B       368 KB      1.92%
           SRAM2:          0 GB        16 KB      0.00%
