
regbits.elf:     file format elf32-littlearm


Disassembly of section .text:

20020000 <INTERRUPT_VECTORS>:
20020000:	00 c0 07 20 19 18 02 20 25 17 02 20 27 17 02 20     ... ... %.. '.. 
20020010:	29 17 02 20 2b 17 02 20 2d 17 02 20 2f 17 02 20     ).. +.. -.. /.. 
20020020:	31 17 02 20 33 17 02 20 35 17 02 20 37 17 02 20     1.. 3.. 5.. 7.. 
20020030:	39 17 02 20 3b 17 02 20 3d 17 02 20 3f 17 02 20     9.. ;.. =.. ?.. 
20020040:	41 17 02 20 43 17 02 20 45 17 02 20 47 17 02 20     A.. C.. E.. G.. 
20020050:	49 17 02 20 4b 17 02 20 4d 17 02 20 4f 17 02 20     I.. K.. M.. O.. 
20020060:	51 17 02 20 53 17 02 20 55 17 02 20 57 17 02 20     Q.. S.. U.. W.. 
20020070:	59 17 02 20 5b 17 02 20 5d 17 02 20 5f 17 02 20     Y.. [.. ].. _.. 
20020080:	61 17 02 20 63 17 02 20 65 17 02 20 67 17 02 20     a.. c.. e.. g.. 
20020090:	69 17 02 20 6b 17 02 20 6d 17 02 20 6f 17 02 20     i.. k.. m.. o.. 
200200a0:	71 17 02 20 73 17 02 20 75 17 02 20 77 17 02 20     q.. s.. u.. w.. 
200200b0:	79 17 02 20 7b 17 02 20 7d 17 02 20 7f 17 02 20     y.. {.. }.. ... 
200200c0:	81 17 02 20 83 17 02 20 85 17 02 20 87 17 02 20     ... ... ... ... 
200200d0:	89 17 02 20 8b 17 02 20 8d 17 02 20 8f 17 02 20     ... ... ... ... 
200200e0:	91 17 02 20 93 17 02 20 95 17 02 20 97 17 02 20     ... ... ... ... 
200200f0:	99 17 02 20 9b 17 02 20 9d 17 02 20 9f 17 02 20     ... ... ... ... 
20020100:	a1 17 02 20 a3 17 02 20 a5 17 02 20 a7 17 02 20     ... ... ... ... 
20020110:	a9 17 02 20 ab 17 02 20 ad 17 02 20 af 17 02 20     ... ... ... ... 
20020120:	b1 17 02 20 b3 17 02 20 b5 17 02 20 b7 17 02 20     ... ... ... ... 
20020130:	b9 17 02 20 bb 17 02 20 bd 17 02 20 bf 17 02 20     ... ... ... ... 
20020140:	c1 17 02 20 c3 17 02 20 c5 17 02 20 c7 17 02 20     ... ... ... ... 
20020150:	c9 17 02 20 cb 17 02 20 cd 17 02 20 cf 17 02 20     ... ... ... ... 
20020160:	d1 17 02 20 d3 17 02 20 d5 17 02 20 d7 17 02 20     ... ... ... ... 
20020170:	d9 17 02 20 db 17 02 20 dd 17 02 20 df 17 02 20     ... ... ... ... 
20020180:	e1 17 02 20 e3 17 02 20 e5 17 02 20 e7 17 02 20     ... ... ... ... 
20020190:	e9 17 02 20 eb 17 02 20 ed 17 02 20 ef 17 02 20     ... ... ... ... 
200201a0:	f1 17 02 20 f3 17 02 20 f5 17 02 20 f7 17 02 20     ... ... ... ... 
200201b0:	f9 17 02 20 fb 17 02 20 fd 17 02 20 ff 17 02 20     ... ... ... ... 
200201c0:	01 18 02 20 03 18 02 20 05 18 02 20 07 18 02 20     ... ... ... ... 
200201d0:	09 18 02 20 0b 18 02 20 0d 18 02 20 0f 18 02 20     ... ... ... ... 
200201e0:	11 18 02 20 13 18 02 20 15 18 02 20 17 18 02 20     ... ... ... ... 

200201f0 <zero_reg()>:
200201f0:	4b01      	ldr	r3, [pc, #4]	; (200201f8 <zero_reg()+0x8>)
200201f2:	2200      	movs	r2, #0
200201f4:	605a      	str	r2, [r3, #4]
200201f6:	4770      	bx	lr
200201f8:	200226c0 	.word	0x200226c0

200201fc <zero_array()>:
200201fc:	4b01      	ldr	r3, [pc, #4]	; (20020204 <zero_array()+0x8>)
200201fe:	2200      	movs	r2, #0
20020200:	62da      	str	r2, [r3, #44]	; 0x2c
20020202:	4770      	bx	lr
20020204:	20022500 	.word	0x20022500

20020208 <set_singl_bits_operator()>:
20020208:	4a02      	ldr	r2, [pc, #8]	; (20020214 <set_singl_bits_operator()+0xc>)
2002020a:	6853      	ldr	r3, [r2, #4]
2002020c:	2140      	movs	r1, #64	; 0x40
2002020e:	430b      	orrs	r3, r1
20020210:	6053      	str	r3, [r2, #4]
20020212:	4770      	bx	lr
20020214:	200226c0 	.word	0x200226c0

20020218 <set_singl_bits_method()>:
20020218:	4a02      	ldr	r2, [pc, #8]	; (20020224 <set_singl_bits_method()+0xc>)
2002021a:	6853      	ldr	r3, [r2, #4]
2002021c:	2140      	movs	r1, #64	; 0x40
2002021e:	430b      	orrs	r3, r1
20020220:	6053      	str	r3, [r2, #4]
20020222:	4770      	bx	lr
20020224:	200226c0 	.word	0x200226c0

20020228 <clr_singl_bits_operator()>:
20020228:	4a02      	ldr	r2, [pc, #8]	; (20020234 <clr_singl_bits_operator()+0xc>)
2002022a:	6853      	ldr	r3, [r2, #4]
2002022c:	2140      	movs	r1, #64	; 0x40
2002022e:	438b      	bics	r3, r1
20020230:	6053      	str	r3, [r2, #4]
20020232:	4770      	bx	lr
20020234:	200226c0 	.word	0x200226c0

20020238 <clr_singl_bits_method()>:
20020238:	4a02      	ldr	r2, [pc, #8]	; (20020244 <clr_singl_bits_method()+0xc>)
2002023a:	6853      	ldr	r3, [r2, #4]
2002023c:	2140      	movs	r1, #64	; 0x40
2002023e:	438b      	bics	r3, r1
20020240:	6053      	str	r3, [r2, #4]
20020242:	4770      	bx	lr
20020244:	200226c0 	.word	0x200226c0

20020248 <set_singl_mskd_operator()>:
20020248:	4a02      	ldr	r2, [pc, #8]	; (20020254 <set_singl_mskd_operator()+0xc>)
2002024a:	6853      	ldr	r3, [r2, #4]
2002024c:	2102      	movs	r1, #2
2002024e:	430b      	orrs	r3, r1
20020250:	6053      	str	r3, [r2, #4]
20020252:	4770      	bx	lr
20020254:	200226c0 	.word	0x200226c0

20020258 <set_singl_mskd_method()>:
20020258:	4a02      	ldr	r2, [pc, #8]	; (20020264 <set_singl_mskd_method()+0xc>)
2002025a:	6853      	ldr	r3, [r2, #4]
2002025c:	2102      	movs	r1, #2
2002025e:	430b      	orrs	r3, r1
20020260:	6053      	str	r3, [r2, #4]
20020262:	4770      	bx	lr
20020264:	200226c0 	.word	0x200226c0

20020268 <clr_singl_mskd_operator()>:
20020268:	4a02      	ldr	r2, [pc, #8]	; (20020274 <clr_singl_mskd_operator()+0xc>)
2002026a:	6853      	ldr	r3, [r2, #4]
2002026c:	2102      	movs	r1, #2
2002026e:	438b      	bics	r3, r1
20020270:	6053      	str	r3, [r2, #4]
20020272:	4770      	bx	lr
20020274:	200226c0 	.word	0x200226c0

20020278 <clr_singl_mskd_method()>:
20020278:	4a02      	ldr	r2, [pc, #8]	; (20020284 <clr_singl_mskd_method()+0xc>)
2002027a:	6853      	ldr	r3, [r2, #4]
2002027c:	2102      	movs	r1, #2
2002027e:	438b      	bics	r3, r1
20020280:	6053      	str	r3, [r2, #4]
20020282:	4770      	bx	lr
20020284:	200226c0 	.word	0x200226c0

20020288 <equ_singl_bits_operator()>:
20020288:	4b01      	ldr	r3, [pc, #4]	; (20020290 <equ_singl_bits_operator()+0x8>)
2002028a:	2240      	movs	r2, #64	; 0x40
2002028c:	605a      	str	r2, [r3, #4]
2002028e:	4770      	bx	lr
20020290:	200226c0 	.word	0x200226c0

20020294 <equ_singl_bits_method()>:
20020294:	4b01      	ldr	r3, [pc, #4]	; (2002029c <equ_singl_bits_method()+0x8>)
20020296:	2240      	movs	r2, #64	; 0x40
20020298:	605a      	str	r2, [r3, #4]
2002029a:	4770      	bx	lr
2002029c:	200226c0 	.word	0x200226c0

200202a0 <equ_singl_mskd_operator()>:
200202a0:	4b01      	ldr	r3, [pc, #4]	; (200202a8 <equ_singl_mskd_operator()+0x8>)
200202a2:	2202      	movs	r2, #2
200202a4:	605a      	str	r2, [r3, #4]
200202a6:	4770      	bx	lr
200202a8:	200226c0 	.word	0x200226c0

200202ac <equ_singl_mskd_method()>:
200202ac:	4b01      	ldr	r3, [pc, #4]	; (200202b4 <equ_singl_mskd_method()+0x8>)
200202ae:	2202      	movs	r2, #2
200202b0:	605a      	str	r2, [r3, #4]
200202b2:	4770      	bx	lr
200202b4:	200226c0 	.word	0x200226c0

200202b8 <flp_singl_bits_operator()>:
200202b8:	4a02      	ldr	r2, [pc, #8]	; (200202c4 <flp_singl_bits_operator()+0xc>)
200202ba:	6853      	ldr	r3, [r2, #4]
200202bc:	2140      	movs	r1, #64	; 0x40
200202be:	404b      	eors	r3, r1
200202c0:	6053      	str	r3, [r2, #4]
200202c2:	4770      	bx	lr
200202c4:	200226c0 	.word	0x200226c0

200202c8 <flp_singl_bits_method()>:
200202c8:	4a02      	ldr	r2, [pc, #8]	; (200202d4 <flp_singl_bits_method()+0xc>)
200202ca:	6853      	ldr	r3, [r2, #4]
200202cc:	2140      	movs	r1, #64	; 0x40
200202ce:	404b      	eors	r3, r1
200202d0:	6053      	str	r3, [r2, #4]
200202d2:	4770      	bx	lr
200202d4:	200226c0 	.word	0x200226c0

200202d8 <flp_singl_mskd_operator()>:
200202d8:	4a02      	ldr	r2, [pc, #8]	; (200202e4 <flp_singl_mskd_operator()+0xc>)
200202da:	6853      	ldr	r3, [r2, #4]
200202dc:	2102      	movs	r1, #2
200202de:	404b      	eors	r3, r1
200202e0:	6053      	str	r3, [r2, #4]
200202e2:	4770      	bx	lr
200202e4:	200226c0 	.word	0x200226c0

200202e8 <flp_singl_mskd_method()>:
200202e8:	4a02      	ldr	r2, [pc, #8]	; (200202f4 <flp_singl_mskd_method()+0xc>)
200202ea:	6853      	ldr	r3, [r2, #4]
200202ec:	2102      	movs	r1, #2
200202ee:	404b      	eors	r3, r1
200202f0:	6053      	str	r3, [r2, #4]
200202f2:	4770      	bx	lr
200202f4:	200226c0 	.word	0x200226c0

200202f8 <ins_singl_mskd_operator()>:
200202f8:	4a03      	ldr	r2, [pc, #12]	; (20020308 <ins_singl_mskd_operator()+0x10>)
200202fa:	6853      	ldr	r3, [r2, #4]
200202fc:	2106      	movs	r1, #6
200202fe:	438b      	bics	r3, r1
20020300:	3902      	subs	r1, #2
20020302:	430b      	orrs	r3, r1
20020304:	6053      	str	r3, [r2, #4]
20020306:	4770      	bx	lr
20020308:	200226c0 	.word	0x200226c0

2002030c <ins_singl_mskd_method()>:
2002030c:	4a03      	ldr	r2, [pc, #12]	; (2002031c <ins_singl_mskd_method()+0x10>)
2002030e:	6853      	ldr	r3, [r2, #4]
20020310:	2106      	movs	r1, #6
20020312:	438b      	bics	r3, r1
20020314:	3902      	subs	r1, #2
20020316:	430b      	orrs	r3, r1
20020318:	6053      	str	r3, [r2, #4]
2002031a:	4770      	bx	lr
2002031c:	200226c0 	.word	0x200226c0

20020320 <set_multi_bits_operator()>:
20020320:	4a02      	ldr	r2, [pc, #8]	; (2002032c <set_multi_bits_operator()+0xc>)
20020322:	6853      	ldr	r3, [r2, #4]
20020324:	2121      	movs	r1, #33	; 0x21
20020326:	430b      	orrs	r3, r1
20020328:	6053      	str	r3, [r2, #4]
2002032a:	4770      	bx	lr
2002032c:	200226c0 	.word	0x200226c0

20020330 <set_multi_bits_method()>:
20020330:	4a02      	ldr	r2, [pc, #8]	; (2002033c <set_multi_bits_method()+0xc>)
20020332:	6853      	ldr	r3, [r2, #4]
20020334:	2121      	movs	r1, #33	; 0x21
20020336:	430b      	orrs	r3, r1
20020338:	6053      	str	r3, [r2, #4]
2002033a:	4770      	bx	lr
2002033c:	200226c0 	.word	0x200226c0

20020340 <ins_multi_mskd_operator()>:
20020340:	4904      	ldr	r1, [pc, #16]	; (20020354 <ins_multi_mskd_operator()+0x14>)
20020342:	684b      	ldr	r3, [r1, #4]
20020344:	4a04      	ldr	r2, [pc, #16]	; (20020358 <ins_multi_mskd_operator()+0x18>)
20020346:	401a      	ands	r2, r3
20020348:	23c1      	movs	r3, #193	; 0xc1
2002034a:	005b      	lsls	r3, r3, #1
2002034c:	4313      	orrs	r3, r2
2002034e:	604b      	str	r3, [r1, #4]
20020350:	4770      	bx	lr
20020352:	46c0      	nop			; (mov r8, r8)
20020354:	200226c0 	.word	0x200226c0
20020358:	fffff079 	.word	0xfffff079

2002035c <ins_multi_mskd_method()>:
2002035c:	4904      	ldr	r1, [pc, #16]	; (20020370 <ins_multi_mskd_method()+0x14>)
2002035e:	684b      	ldr	r3, [r1, #4]
20020360:	4a04      	ldr	r2, [pc, #16]	; (20020374 <ins_multi_mskd_method()+0x18>)
20020362:	401a      	ands	r2, r3
20020364:	23c1      	movs	r3, #193	; 0xc1
20020366:	005b      	lsls	r3, r3, #1
20020368:	4313      	orrs	r3, r2
2002036a:	604b      	str	r3, [r1, #4]
2002036c:	4770      	bx	lr
2002036e:	46c0      	nop			; (mov r8, r8)
20020370:	200226c0 	.word	0x200226c0
20020374:	fffff079 	.word	0xfffff079

20020378 <equ_multi_bits_operator()>:
20020378:	4b01      	ldr	r3, [pc, #4]	; (20020380 <equ_multi_bits_operator()+0x8>)
2002037a:	2260      	movs	r2, #96	; 0x60
2002037c:	605a      	str	r2, [r3, #4]
2002037e:	4770      	bx	lr
20020380:	200226c0 	.word	0x200226c0

20020384 <equ_multi_bits_method()>:
20020384:	4b01      	ldr	r3, [pc, #4]	; (2002038c <equ_multi_bits_method()+0x8>)
20020386:	2260      	movs	r2, #96	; 0x60
20020388:	605a      	str	r2, [r3, #4]
2002038a:	4770      	bx	lr
2002038c:	200226c0 	.word	0x200226c0

20020390 <equ_multi_mskd_operator()>:
20020390:	4b02      	ldr	r3, [pc, #8]	; (2002039c <equ_multi_mskd_operator()+0xc>)
20020392:	22c2      	movs	r2, #194	; 0xc2
20020394:	0092      	lsls	r2, r2, #2
20020396:	605a      	str	r2, [r3, #4]
20020398:	4770      	bx	lr
2002039a:	46c0      	nop			; (mov r8, r8)
2002039c:	200226c0 	.word	0x200226c0

200203a0 <equ_multi_mskd_method()>:
200203a0:	4b02      	ldr	r3, [pc, #8]	; (200203ac <equ_multi_mskd_method()+0xc>)
200203a2:	22c2      	movs	r2, #194	; 0xc2
200203a4:	0092      	lsls	r2, r2, #2
200203a6:	605a      	str	r2, [r3, #4]
200203a8:	4770      	bx	lr
200203aa:	46c0      	nop			; (mov r8, r8)
200203ac:	200226c0 	.word	0x200226c0

200203b0 <equ_bits_mskd_operator()>:
200203b0:	4b01      	ldr	r3, [pc, #4]	; (200203b8 <equ_bits_mskd_operator()+0x8>)
200203b2:	2222      	movs	r2, #34	; 0x22
200203b4:	605a      	str	r2, [r3, #4]
200203b6:	4770      	bx	lr
200203b8:	200226c0 	.word	0x200226c0

200203bc <equ_bits_mskd_method()>:
200203bc:	4b01      	ldr	r3, [pc, #4]	; (200203c4 <equ_bits_mskd_method()+0x8>)
200203be:	2222      	movs	r2, #34	; 0x22
200203c0:	605a      	str	r2, [r3, #4]
200203c2:	4770      	bx	lr
200203c4:	200226c0 	.word	0x200226c0

200203c8 <equ_mskd_bits_operator()>:
200203c8:	4b01      	ldr	r3, [pc, #4]	; (200203d0 <equ_mskd_bits_operator()+0x8>)
200203ca:	2244      	movs	r2, #68	; 0x44
200203cc:	605a      	str	r2, [r3, #4]
200203ce:	4770      	bx	lr
200203d0:	200226c0 	.word	0x200226c0

200203d4 <equ_mskd_bits_method()>:
200203d4:	4b01      	ldr	r3, [pc, #4]	; (200203dc <equ_mskd_bits_method()+0x8>)
200203d6:	2244      	movs	r2, #68	; 0x44
200203d8:	605a      	str	r2, [r3, #4]
200203da:	4770      	bx	lr
200203dc:	200226c0 	.word	0x200226c0

200203e0 <equ_bits_var()>:
200203e0:	4b02      	ldr	r3, [pc, #8]	; (200203ec <equ_bits_var()+0xc>)
200203e2:	2240      	movs	r2, #64	; 0x40
200203e4:	605a      	str	r2, [r3, #4]
200203e6:	3a3f      	subs	r2, #63	; 0x3f
200203e8:	605a      	str	r2, [r3, #4]
200203ea:	4770      	bx	lr
200203ec:	200226c0 	.word	0x200226c0

200203f0 <equ_mskd_var()>:
200203f0:	4b03      	ldr	r3, [pc, #12]	; (20020400 <equ_mskd_var()+0x10>)
200203f2:	2202      	movs	r2, #2
200203f4:	605a      	str	r2, [r3, #4]
200203f6:	327f      	adds	r2, #127	; 0x7f
200203f8:	32ff      	adds	r2, #255	; 0xff
200203fa:	605a      	str	r2, [r3, #4]
200203fc:	4770      	bx	lr
200203fe:	46c0      	nop			; (mov r8, r8)
20020400:	200226c0 	.word	0x200226c0

20020404 <cmp_equ_zero()>:
20020404:	4b07      	ldr	r3, [pc, #28]	; (20020424 <cmp_equ_zero()+0x20>)
20020406:	2200      	movs	r2, #0
20020408:	605a      	str	r2, [r3, #4]
2002040a:	685b      	ldr	r3, [r3, #4]
2002040c:	2b00      	cmp	r3, #0
2002040e:	d104      	bne.n	2002041a <cmp_equ_zero()+0x16>
20020410:	4b05      	ldr	r3, [pc, #20]	; (20020428 <cmp_equ_zero()+0x24>)
20020412:	22e8      	movs	r2, #232	; 0xe8
20020414:	0592      	lsls	r2, r2, #22
20020416:	605a      	str	r2, [r3, #4]
20020418:	4770      	bx	lr
2002041a:	4b03      	ldr	r3, [pc, #12]	; (20020428 <cmp_equ_zero()+0x24>)
2002041c:	2288      	movs	r2, #136	; 0x88
2002041e:	0592      	lsls	r2, r2, #22
20020420:	605a      	str	r2, [r3, #4]
20020422:	e7f9      	b.n	20020418 <cmp_equ_zero()+0x14>
20020424:	200226c0 	.word	0x200226c0
20020428:	20022620 	.word	0x20022620

2002042c <cmp_neq_zero()>:
2002042c:	4b06      	ldr	r3, [pc, #24]	; (20020448 <cmp_neq_zero()+0x1c>)
2002042e:	2200      	movs	r2, #0
20020430:	605a      	str	r2, [r3, #4]
20020432:	685b      	ldr	r3, [r3, #4]
20020434:	2b00      	cmp	r3, #0
20020436:	d003      	beq.n	20020440 <cmp_neq_zero()+0x14>
20020438:	4b03      	ldr	r3, [pc, #12]	; (20020448 <cmp_neq_zero()+0x1c>)
2002043a:	3204      	adds	r2, #4
2002043c:	605a      	str	r2, [r3, #4]
2002043e:	4770      	bx	lr
20020440:	4b01      	ldr	r3, [pc, #4]	; (20020448 <cmp_neq_zero()+0x1c>)
20020442:	2220      	movs	r2, #32
20020444:	605a      	str	r2, [r3, #4]
20020446:	e7fa      	b.n	2002043e <cmp_neq_zero()+0x12>
20020448:	200226c0 	.word	0x200226c0

2002044c <cmp_equ_bits()>:
2002044c:	4a07      	ldr	r2, [pc, #28]	; (2002046c <cmp_equ_bits()+0x20>)
2002044e:	2340      	movs	r3, #64	; 0x40
20020450:	6053      	str	r3, [r2, #4]
20020452:	6852      	ldr	r2, [r2, #4]
20020454:	4213      	tst	r3, r2
20020456:	d104      	bne.n	20020462 <cmp_equ_bits()+0x16>
20020458:	4b05      	ldr	r3, [pc, #20]	; (20020470 <cmp_equ_bits()+0x24>)
2002045a:	22d0      	movs	r2, #208	; 0xd0
2002045c:	0552      	lsls	r2, r2, #21
2002045e:	605a      	str	r2, [r3, #4]
20020460:	4770      	bx	lr
20020462:	4b03      	ldr	r3, [pc, #12]	; (20020470 <cmp_equ_bits()+0x24>)
20020464:	22b0      	movs	r2, #176	; 0xb0
20020466:	0552      	lsls	r2, r2, #21
20020468:	605a      	str	r2, [r3, #4]
2002046a:	e7f9      	b.n	20020460 <cmp_equ_bits()+0x14>
2002046c:	200226c0 	.word	0x200226c0
20020470:	20022620 	.word	0x20022620

20020474 <cmp_neq_bits()>:
20020474:	4a06      	ldr	r2, [pc, #24]	; (20020490 <cmp_neq_bits()+0x1c>)
20020476:	2340      	movs	r3, #64	; 0x40
20020478:	6053      	str	r3, [r2, #4]
2002047a:	6852      	ldr	r2, [r2, #4]
2002047c:	4213      	tst	r3, r2
2002047e:	d103      	bne.n	20020488 <cmp_neq_bits()+0x14>
20020480:	4b03      	ldr	r3, [pc, #12]	; (20020490 <cmp_neq_bits()+0x1c>)
20020482:	2202      	movs	r2, #2
20020484:	605a      	str	r2, [r3, #4]
20020486:	4770      	bx	lr
20020488:	4b01      	ldr	r3, [pc, #4]	; (20020490 <cmp_neq_bits()+0x1c>)
2002048a:	2220      	movs	r2, #32
2002048c:	605a      	str	r2, [r3, #4]
2002048e:	e7fa      	b.n	20020486 <cmp_neq_bits()+0x12>
20020490:	200226c0 	.word	0x200226c0

20020494 <cmp_equ_multi_bits()>:
20020494:	4a08      	ldr	r2, [pc, #32]	; (200204b8 <cmp_equ_multi_bits()+0x24>)
20020496:	2360      	movs	r3, #96	; 0x60
20020498:	6053      	str	r3, [r2, #4]
2002049a:	6852      	ldr	r2, [r2, #4]
2002049c:	4013      	ands	r3, r2
2002049e:	2b60      	cmp	r3, #96	; 0x60
200204a0:	d004      	beq.n	200204ac <cmp_equ_multi_bits()+0x18>
200204a2:	4b06      	ldr	r3, [pc, #24]	; (200204bc <cmp_equ_multi_bits()+0x28>)
200204a4:	22b8      	movs	r2, #184	; 0xb8
200204a6:	0592      	lsls	r2, r2, #22
200204a8:	605a      	str	r2, [r3, #4]
200204aa:	4770      	bx	lr
200204ac:	4b03      	ldr	r3, [pc, #12]	; (200204bc <cmp_equ_multi_bits()+0x28>)
200204ae:	2288      	movs	r2, #136	; 0x88
200204b0:	0592      	lsls	r2, r2, #22
200204b2:	605a      	str	r2, [r3, #4]
200204b4:	e7f9      	b.n	200204aa <cmp_equ_multi_bits()+0x16>
200204b6:	46c0      	nop			; (mov r8, r8)
200204b8:	200226c0 	.word	0x200226c0
200204bc:	20022620 	.word	0x20022620

200204c0 <cmp_neq_multi_bits()>:
200204c0:	4a08      	ldr	r2, [pc, #32]	; (200204e4 <cmp_neq_multi_bits()+0x24>)
200204c2:	2360      	movs	r3, #96	; 0x60
200204c4:	6053      	str	r3, [r2, #4]
200204c6:	6852      	ldr	r2, [r2, #4]
200204c8:	4013      	ands	r3, r2
200204ca:	2b60      	cmp	r3, #96	; 0x60
200204cc:	d004      	beq.n	200204d8 <cmp_neq_multi_bits()+0x18>
200204ce:	4b06      	ldr	r3, [pc, #24]	; (200204e8 <cmp_neq_multi_bits()+0x28>)
200204d0:	22e8      	movs	r2, #232	; 0xe8
200204d2:	0592      	lsls	r2, r2, #22
200204d4:	605a      	str	r2, [r3, #4]
200204d6:	4770      	bx	lr
200204d8:	4b03      	ldr	r3, [pc, #12]	; (200204e8 <cmp_neq_multi_bits()+0x28>)
200204da:	22f8      	movs	r2, #248	; 0xf8
200204dc:	0592      	lsls	r2, r2, #22
200204de:	605a      	str	r2, [r3, #4]
200204e0:	e7f9      	b.n	200204d6 <cmp_neq_multi_bits()+0x16>
200204e2:	46c0      	nop			; (mov r8, r8)
200204e4:	200226c0 	.word	0x200226c0
200204e8:	20022620 	.word	0x20022620

200204ec <cmp_equ_mskd()>:
200204ec:	4b0e      	ldr	r3, [pc, #56]	; (20020528 <cmp_equ_mskd()+0x3c>)
200204ee:	22e8      	movs	r2, #232	; 0xe8
200204f0:	0252      	lsls	r2, r2, #9
200204f2:	605a      	str	r2, [r3, #4]
200204f4:	685b      	ldr	r3, [r3, #4]
200204f6:	22f8      	movs	r2, #248	; 0xf8
200204f8:	0252      	lsls	r2, r2, #9
200204fa:	4013      	ands	r3, r2
200204fc:	2288      	movs	r2, #136	; 0x88
200204fe:	0252      	lsls	r2, r2, #9
20020500:	4293      	cmp	r3, r2
20020502:	d008      	beq.n	20020516 <cmp_equ_mskd()+0x2a>
20020504:	4909      	ldr	r1, [pc, #36]	; (2002052c <cmp_equ_mskd()+0x40>)
20020506:	684b      	ldr	r3, [r1, #4]
20020508:	4a09      	ldr	r2, [pc, #36]	; (20020530 <cmp_equ_mskd()+0x44>)
2002050a:	401a      	ands	r2, r3
2002050c:	2388      	movs	r3, #136	; 0x88
2002050e:	059b      	lsls	r3, r3, #22
20020510:	4313      	orrs	r3, r2
20020512:	604b      	str	r3, [r1, #4]
20020514:	4770      	bx	lr
20020516:	4905      	ldr	r1, [pc, #20]	; (2002052c <cmp_equ_mskd()+0x40>)
20020518:	684b      	ldr	r3, [r1, #4]
2002051a:	4a05      	ldr	r2, [pc, #20]	; (20020530 <cmp_equ_mskd()+0x44>)
2002051c:	401a      	ands	r2, r3
2002051e:	23e0      	movs	r3, #224	; 0xe0
20020520:	051b      	lsls	r3, r3, #20
20020522:	4313      	orrs	r3, r2
20020524:	604b      	str	r3, [r1, #4]
20020526:	e7f5      	b.n	20020514 <cmp_equ_mskd()+0x28>
20020528:	200226c0 	.word	0x200226c0
2002052c:	20022620 	.word	0x20022620
20020530:	c1ffffff 	.word	0xc1ffffff

20020534 <cmp_neq_mskd()>:
20020534:	4b0c      	ldr	r3, [pc, #48]	; (20020568 <cmp_neq_mskd()+0x34>)
20020536:	22e8      	movs	r2, #232	; 0xe8
20020538:	0252      	lsls	r2, r2, #9
2002053a:	605a      	str	r2, [r3, #4]
2002053c:	685b      	ldr	r3, [r3, #4]
2002053e:	22f8      	movs	r2, #248	; 0xf8
20020540:	0252      	lsls	r2, r2, #9
20020542:	4013      	ands	r3, r2
20020544:	2288      	movs	r2, #136	; 0x88
20020546:	0252      	lsls	r2, r2, #9
20020548:	4293      	cmp	r3, r2
2002054a:	d007      	beq.n	2002055c <cmp_neq_mskd()+0x28>
2002054c:	4a06      	ldr	r2, [pc, #24]	; (20020568 <cmp_neq_mskd()+0x34>)
2002054e:	6853      	ldr	r3, [r2, #4]
20020550:	2106      	movs	r1, #6
20020552:	438b      	bics	r3, r1
20020554:	3902      	subs	r1, #2
20020556:	430b      	orrs	r3, r1
20020558:	6053      	str	r3, [r2, #4]
2002055a:	4770      	bx	lr
2002055c:	4a02      	ldr	r2, [pc, #8]	; (20020568 <cmp_neq_mskd()+0x34>)
2002055e:	6853      	ldr	r3, [r2, #4]
20020560:	2140      	movs	r1, #64	; 0x40
20020562:	430b      	orrs	r3, r1
20020564:	6053      	str	r3, [r2, #4]
20020566:	e7f8      	b.n	2002055a <cmp_neq_mskd()+0x26>
20020568:	200226c0 	.word	0x200226c0

2002056c <cmp_equ_reg()>:
2002056c:	4b07      	ldr	r3, [pc, #28]	; (2002058c <cmp_equ_reg()+0x20>)
2002056e:	2222      	movs	r2, #34	; 0x22
20020570:	605a      	str	r2, [r3, #4]
20020572:	685b      	ldr	r3, [r3, #4]
20020574:	2b22      	cmp	r3, #34	; 0x22
20020576:	d004      	beq.n	20020582 <cmp_equ_reg()+0x16>
20020578:	4b05      	ldr	r3, [pc, #20]	; (20020590 <cmp_equ_reg()+0x24>)
2002057a:	22b8      	movs	r2, #184	; 0xb8
2002057c:	0592      	lsls	r2, r2, #22
2002057e:	605a      	str	r2, [r3, #4]
20020580:	4770      	bx	lr
20020582:	4b03      	ldr	r3, [pc, #12]	; (20020590 <cmp_equ_reg()+0x24>)
20020584:	22a8      	movs	r2, #168	; 0xa8
20020586:	0592      	lsls	r2, r2, #22
20020588:	605a      	str	r2, [r3, #4]
2002058a:	e7f9      	b.n	20020580 <cmp_equ_reg()+0x14>
2002058c:	200226c0 	.word	0x200226c0
20020590:	20022620 	.word	0x20022620

20020594 <cmp_neq_reg()>:
20020594:	4b06      	ldr	r3, [pc, #24]	; (200205b0 <cmp_neq_reg()+0x1c>)
20020596:	2222      	movs	r2, #34	; 0x22
20020598:	605a      	str	r2, [r3, #4]
2002059a:	685b      	ldr	r3, [r3, #4]
2002059c:	2b22      	cmp	r3, #34	; 0x22
2002059e:	d003      	beq.n	200205a8 <cmp_neq_reg()+0x14>
200205a0:	4b03      	ldr	r3, [pc, #12]	; (200205b0 <cmp_neq_reg()+0x1c>)
200205a2:	3a20      	subs	r2, #32
200205a4:	605a      	str	r2, [r3, #4]
200205a6:	4770      	bx	lr
200205a8:	4b01      	ldr	r3, [pc, #4]	; (200205b0 <cmp_neq_reg()+0x1c>)
200205aa:	2220      	movs	r2, #32
200205ac:	605a      	str	r2, [r3, #4]
200205ae:	e7fa      	b.n	200205a6 <cmp_neq_reg()+0x12>
200205b0:	200226c0 	.word	0x200226c0

200205b4 <constexpr_bits_array()>:
200205b4:	4b03      	ldr	r3, [pc, #12]	; (200205c4 <constexpr_bits_array()+0x10>)
200205b6:	2206      	movs	r2, #6
200205b8:	62da      	str	r2, [r3, #44]	; 0x2c
200205ba:	329a      	adds	r2, #154	; 0x9a
200205bc:	2180      	movs	r1, #128	; 0x80
200205be:	0189      	lsls	r1, r1, #6
200205c0:	5099      	str	r1, [r3, r2]
200205c2:	4770      	bx	lr
200205c4:	20022500 	.word	0x20022500

200205c8 <runtime_bits_array()>:
200205c8:	b081      	sub	sp, #4
200205ca:	2303      	movs	r3, #3
200205cc:	9300      	str	r3, [sp, #0]
200205ce:	9b00      	ldr	r3, [sp, #0]
200205d0:	009b      	lsls	r3, r3, #2
200205d2:	4a07      	ldr	r2, [pc, #28]	; (200205f0 <runtime_bits_array()+0x28>)
200205d4:	4694      	mov	ip, r2
200205d6:	4463      	add	r3, ip
200205d8:	2221      	movs	r2, #33	; 0x21
200205da:	621a      	str	r2, [r3, #32]
200205dc:	2307      	movs	r3, #7
200205de:	9300      	str	r3, [sp, #0]
200205e0:	9a00      	ldr	r2, [sp, #0]
200205e2:	3b06      	subs	r3, #6
200205e4:	4093      	lsls	r3, r2
200205e6:	4661      	mov	r1, ip
200205e8:	22a0      	movs	r2, #160	; 0xa0
200205ea:	508b      	str	r3, [r1, r2]
200205ec:	b001      	add	sp, #4
200205ee:	4770      	bx	lr
200205f0:	20022500 	.word	0x20022500

200205f4 <prescaler_low()>:
200205f4:	4b04      	ldr	r3, [pc, #16]	; (20020608 <prescaler_low()+0x14>)
200205f6:	2277      	movs	r2, #119	; 0x77
200205f8:	605a      	str	r2, [r3, #4]
200205fa:	685a      	ldr	r2, [r3, #4]
200205fc:	237f      	movs	r3, #127	; 0x7f
200205fe:	4013      	ands	r3, r2
20020600:	4a02      	ldr	r2, [pc, #8]	; (2002060c <prescaler_low()+0x18>)
20020602:	62d3      	str	r3, [r2, #44]	; 0x2c
20020604:	4770      	bx	lr
20020606:	46c0      	nop			; (mov r8, r8)
20020608:	20022620 	.word	0x20022620
2002060c:	20022500 	.word	0x20022500

20020610 <prescaler_high()>:
20020610:	4b04      	ldr	r3, [pc, #16]	; (20020624 <prescaler_high()+0x14>)
20020612:	22e8      	movs	r2, #232	; 0xe8
20020614:	0592      	lsls	r2, r2, #22
20020616:	605a      	str	r2, [r3, #4]
20020618:	685b      	ldr	r3, [r3, #4]
2002061a:	009b      	lsls	r3, r3, #2
2002061c:	0edb      	lsrs	r3, r3, #27
2002061e:	4a02      	ldr	r2, [pc, #8]	; (20020628 <prescaler_high()+0x18>)
20020620:	62d3      	str	r3, [r2, #44]	; 0x2c
20020622:	4770      	bx	lr
20020624:	20022620 	.word	0x20022620
20020628:	20022500 	.word	0x20022500

2002062c <reg_mskd_lss()>:
2002062c:	4b09      	ldr	r3, [pc, #36]	; (20020654 <reg_mskd_lss()+0x28>)
2002062e:	22d8      	movs	r2, #216	; 0xd8
20020630:	0592      	lsls	r2, r2, #22
20020632:	605a      	str	r2, [r3, #4]
20020634:	685b      	ldr	r3, [r3, #4]
20020636:	22f8      	movs	r2, #248	; 0xf8
20020638:	0592      	lsls	r2, r2, #22
2002063a:	4013      	ands	r3, r2
2002063c:	4a06      	ldr	r2, [pc, #24]	; (20020658 <reg_mskd_lss()+0x2c>)
2002063e:	4293      	cmp	r3, r2
20020640:	d803      	bhi.n	2002064a <reg_mskd_lss()+0x1e>
20020642:	4b06      	ldr	r3, [pc, #24]	; (2002065c <reg_mskd_lss()+0x30>)
20020644:	2202      	movs	r2, #2
20020646:	605a      	str	r2, [r3, #4]
20020648:	4770      	bx	lr
2002064a:	4b04      	ldr	r3, [pc, #16]	; (2002065c <reg_mskd_lss()+0x30>)
2002064c:	2204      	movs	r2, #4
2002064e:	605a      	str	r2, [r3, #4]
20020650:	e7fa      	b.n	20020648 <reg_mskd_lss()+0x1c>
20020652:	46c0      	nop			; (mov r8, r8)
20020654:	20022620 	.word	0x20022620
20020658:	37ffffff 	.word	0x37ffffff
2002065c:	200226c0 	.word	0x200226c0

20020660 <reg_mskd_leq()>:
20020660:	4b0c      	ldr	r3, [pc, #48]	; (20020694 <reg_mskd_leq()+0x34>)
20020662:	22b8      	movs	r2, #184	; 0xb8
20020664:	0592      	lsls	r2, r2, #22
20020666:	605a      	str	r2, [r3, #4]
20020668:	685b      	ldr	r3, [r3, #4]
2002066a:	21f8      	movs	r1, #248	; 0xf8
2002066c:	0589      	lsls	r1, r1, #22
2002066e:	400b      	ands	r3, r1
20020670:	4293      	cmp	r3, r2
20020672:	d80a      	bhi.n	2002068a <reg_mskd_leq()+0x2a>
20020674:	4b07      	ldr	r3, [pc, #28]	; (20020694 <reg_mskd_leq()+0x34>)
20020676:	685b      	ldr	r3, [r3, #4]
20020678:	400b      	ands	r3, r1
2002067a:	22c0      	movs	r2, #192	; 0xc0
2002067c:	0592      	lsls	r2, r2, #22
2002067e:	4293      	cmp	r3, r2
20020680:	d803      	bhi.n	2002068a <reg_mskd_leq()+0x2a>
20020682:	4b05      	ldr	r3, [pc, #20]	; (20020698 <reg_mskd_leq()+0x38>)
20020684:	2202      	movs	r2, #2
20020686:	605a      	str	r2, [r3, #4]
20020688:	e002      	b.n	20020690 <reg_mskd_leq()+0x30>
2002068a:	4b03      	ldr	r3, [pc, #12]	; (20020698 <reg_mskd_leq()+0x38>)
2002068c:	2204      	movs	r2, #4
2002068e:	605a      	str	r2, [r3, #4]
20020690:	4770      	bx	lr
20020692:	46c0      	nop			; (mov r8, r8)
20020694:	20022620 	.word	0x20022620
20020698:	200226c0 	.word	0x200226c0

2002069c <reg_mskd_gtr()>:
2002069c:	4b09      	ldr	r3, [pc, #36]	; (200206c4 <reg_mskd_gtr()+0x28>)
2002069e:	2298      	movs	r2, #152	; 0x98
200206a0:	0592      	lsls	r2, r2, #22
200206a2:	605a      	str	r2, [r3, #4]
200206a4:	685b      	ldr	r3, [r3, #4]
200206a6:	22f8      	movs	r2, #248	; 0xf8
200206a8:	0592      	lsls	r2, r2, #22
200206aa:	4013      	ands	r3, r2
200206ac:	2290      	movs	r2, #144	; 0x90
200206ae:	0592      	lsls	r2, r2, #22
200206b0:	4293      	cmp	r3, r2
200206b2:	d903      	bls.n	200206bc <reg_mskd_gtr()+0x20>
200206b4:	4b04      	ldr	r3, [pc, #16]	; (200206c8 <reg_mskd_gtr()+0x2c>)
200206b6:	2202      	movs	r2, #2
200206b8:	605a      	str	r2, [r3, #4]
200206ba:	4770      	bx	lr
200206bc:	4b02      	ldr	r3, [pc, #8]	; (200206c8 <reg_mskd_gtr()+0x2c>)
200206be:	2204      	movs	r2, #4
200206c0:	605a      	str	r2, [r3, #4]
200206c2:	e7fa      	b.n	200206ba <reg_mskd_gtr()+0x1e>
200206c4:	20022620 	.word	0x20022620
200206c8:	200226c0 	.word	0x200226c0

200206cc <reg_mskd_geq()>:
200206cc:	4b0d      	ldr	r3, [pc, #52]	; (20020704 <reg_mskd_geq()+0x38>)
200206ce:	2288      	movs	r2, #136	; 0x88
200206d0:	0592      	lsls	r2, r2, #22
200206d2:	605a      	str	r2, [r3, #4]
200206d4:	685b      	ldr	r3, [r3, #4]
200206d6:	22f8      	movs	r2, #248	; 0xf8
200206d8:	0592      	lsls	r2, r2, #22
200206da:	4013      	ands	r3, r2
200206dc:	4a0a      	ldr	r2, [pc, #40]	; (20020708 <reg_mskd_geq()+0x3c>)
200206de:	4293      	cmp	r3, r2
200206e0:	d90b      	bls.n	200206fa <reg_mskd_geq()+0x2e>
200206e2:	4b08      	ldr	r3, [pc, #32]	; (20020704 <reg_mskd_geq()+0x38>)
200206e4:	685b      	ldr	r3, [r3, #4]
200206e6:	22f8      	movs	r2, #248	; 0xf8
200206e8:	0592      	lsls	r2, r2, #22
200206ea:	4013      	ands	r3, r2
200206ec:	4a07      	ldr	r2, [pc, #28]	; (2002070c <reg_mskd_geq()+0x40>)
200206ee:	4293      	cmp	r3, r2
200206f0:	d903      	bls.n	200206fa <reg_mskd_geq()+0x2e>
200206f2:	4b07      	ldr	r3, [pc, #28]	; (20020710 <reg_mskd_geq()+0x44>)
200206f4:	2202      	movs	r2, #2
200206f6:	605a      	str	r2, [r3, #4]
200206f8:	e002      	b.n	20020700 <reg_mskd_geq()+0x34>
200206fa:	4b05      	ldr	r3, [pc, #20]	; (20020710 <reg_mskd_geq()+0x44>)
200206fc:	2204      	movs	r2, #4
200206fe:	605a      	str	r2, [r3, #4]
20020700:	4770      	bx	lr
20020702:	46c0      	nop			; (mov r8, r8)
20020704:	20022620 	.word	0x20022620
20020708:	1fffffff 	.word	0x1fffffff
2002070c:	21ffffff 	.word	0x21ffffff
20020710:	200226c0 	.word	0x200226c0

20020714 <pos_cmp_eq()>:
20020714:	4b01      	ldr	r3, [pc, #4]	; (2002071c <pos_cmp_eq()+0x8>)
20020716:	2202      	movs	r2, #2
20020718:	605a      	str	r2, [r3, #4]
2002071a:	4770      	bx	lr
2002071c:	200226c0 	.word	0x200226c0

20020720 <pos_cmp_ne()>:
20020720:	4b01      	ldr	r3, [pc, #4]	; (20020728 <pos_cmp_ne()+0x8>)
20020722:	2202      	movs	r2, #2
20020724:	605a      	str	r2, [r3, #4]
20020726:	4770      	bx	lr
20020728:	200226c0 	.word	0x200226c0

2002072c <bits_extract_eq()>:
2002072c:	4b06      	ldr	r3, [pc, #24]	; (20020748 <bits_extract_eq()+0x1c>)
2002072e:	2240      	movs	r2, #64	; 0x40
20020730:	605a      	str	r2, [r3, #4]
20020732:	685b      	ldr	r3, [r3, #4]
20020734:	2b40      	cmp	r3, #64	; 0x40
20020736:	d003      	beq.n	20020740 <bits_extract_eq()+0x14>
20020738:	4b03      	ldr	r3, [pc, #12]	; (20020748 <bits_extract_eq()+0x1c>)
2002073a:	2204      	movs	r2, #4
2002073c:	605a      	str	r2, [r3, #4]
2002073e:	4770      	bx	lr
20020740:	4b01      	ldr	r3, [pc, #4]	; (20020748 <bits_extract_eq()+0x1c>)
20020742:	3a3e      	subs	r2, #62	; 0x3e
20020744:	605a      	str	r2, [r3, #4]
20020746:	e7fa      	b.n	2002073e <bits_extract_eq()+0x12>
20020748:	200226c0 	.word	0x200226c0

2002074c <mskd_extract_eq()>:
2002074c:	4b06      	ldr	r3, [pc, #24]	; (20020768 <mskd_extract_eq()+0x1c>)
2002074e:	2202      	movs	r2, #2
20020750:	605a      	str	r2, [r3, #4]
20020752:	685b      	ldr	r3, [r3, #4]
20020754:	2b02      	cmp	r3, #2
20020756:	d003      	beq.n	20020760 <mskd_extract_eq()+0x14>
20020758:	4b03      	ldr	r3, [pc, #12]	; (20020768 <mskd_extract_eq()+0x1c>)
2002075a:	2240      	movs	r2, #64	; 0x40
2002075c:	605a      	str	r2, [r3, #4]
2002075e:	4770      	bx	lr
20020760:	4b01      	ldr	r3, [pc, #4]	; (20020768 <mskd_extract_eq()+0x1c>)
20020762:	321e      	adds	r2, #30
20020764:	605a      	str	r2, [r3, #4]
20020766:	e7fa      	b.n	2002075e <mskd_extract_eq()+0x12>
20020768:	200226c0 	.word	0x200226c0

2002076c <mskd_extract_ne()>:
2002076c:	4b06      	ldr	r3, [pc, #24]	; (20020788 <mskd_extract_ne()+0x1c>)
2002076e:	2204      	movs	r2, #4
20020770:	605a      	str	r2, [r3, #4]
20020772:	685b      	ldr	r3, [r3, #4]
20020774:	2b04      	cmp	r3, #4
20020776:	d003      	beq.n	20020780 <mskd_extract_ne()+0x14>
20020778:	4b03      	ldr	r3, [pc, #12]	; (20020788 <mskd_extract_ne()+0x1c>)
2002077a:	2220      	movs	r2, #32
2002077c:	605a      	str	r2, [r3, #4]
2002077e:	4770      	bx	lr
20020780:	4b01      	ldr	r3, [pc, #4]	; (20020788 <mskd_extract_ne()+0x1c>)
20020782:	323c      	adds	r2, #60	; 0x3c
20020784:	605a      	str	r2, [r3, #4]
20020786:	e7fa      	b.n	2002077e <mskd_extract_ne()+0x12>
20020788:	200226c0 	.word	0x200226c0

2002078c <mskd_extract_lss()>:
2002078c:	4b07      	ldr	r3, [pc, #28]	; (200207ac <mskd_extract_lss()+0x20>)
2002078e:	22b0      	movs	r2, #176	; 0xb0
20020790:	0552      	lsls	r2, r2, #21
20020792:	605a      	str	r2, [r3, #4]
20020794:	685a      	ldr	r2, [r3, #4]
20020796:	4b06      	ldr	r3, [pc, #24]	; (200207b0 <mskd_extract_lss()+0x24>)
20020798:	429a      	cmp	r2, r3
2002079a:	d803      	bhi.n	200207a4 <mskd_extract_lss()+0x18>
2002079c:	4b05      	ldr	r3, [pc, #20]	; (200207b4 <mskd_extract_lss()+0x28>)
2002079e:	2220      	movs	r2, #32
200207a0:	605a      	str	r2, [r3, #4]
200207a2:	4770      	bx	lr
200207a4:	4b03      	ldr	r3, [pc, #12]	; (200207b4 <mskd_extract_lss()+0x28>)
200207a6:	2240      	movs	r2, #64	; 0x40
200207a8:	605a      	str	r2, [r3, #4]
200207aa:	e7fa      	b.n	200207a2 <mskd_extract_lss()+0x16>
200207ac:	20022620 	.word	0x20022620
200207b0:	17ffffff 	.word	0x17ffffff
200207b4:	200226c0 	.word	0x200226c0

200207b8 <mskd_extract_leq()>:
200207b8:	4a07      	ldr	r2, [pc, #28]	; (200207d8 <mskd_extract_leq()+0x20>)
200207ba:	23b8      	movs	r3, #184	; 0xb8
200207bc:	059b      	lsls	r3, r3, #22
200207be:	6053      	str	r3, [r2, #4]
200207c0:	6852      	ldr	r2, [r2, #4]
200207c2:	429a      	cmp	r2, r3
200207c4:	d903      	bls.n	200207ce <mskd_extract_leq()+0x16>
200207c6:	4b05      	ldr	r3, [pc, #20]	; (200207dc <mskd_extract_leq()+0x24>)
200207c8:	2240      	movs	r2, #64	; 0x40
200207ca:	605a      	str	r2, [r3, #4]
200207cc:	4770      	bx	lr
200207ce:	4b03      	ldr	r3, [pc, #12]	; (200207dc <mskd_extract_leq()+0x24>)
200207d0:	2220      	movs	r2, #32
200207d2:	605a      	str	r2, [r3, #4]
200207d4:	e7fa      	b.n	200207cc <mskd_extract_leq()+0x14>
200207d6:	46c0      	nop			; (mov r8, r8)
200207d8:	20022620 	.word	0x20022620
200207dc:	200226c0 	.word	0x200226c0

200207e0 <mskd_extract_gtr()>:
200207e0:	4b08      	ldr	r3, [pc, #32]	; (20020804 <mskd_extract_gtr()+0x24>)
200207e2:	2298      	movs	r2, #152	; 0x98
200207e4:	0592      	lsls	r2, r2, #22
200207e6:	605a      	str	r2, [r3, #4]
200207e8:	685a      	ldr	r2, [r3, #4]
200207ea:	2390      	movs	r3, #144	; 0x90
200207ec:	059b      	lsls	r3, r3, #22
200207ee:	429a      	cmp	r2, r3
200207f0:	d903      	bls.n	200207fa <mskd_extract_gtr()+0x1a>
200207f2:	4b05      	ldr	r3, [pc, #20]	; (20020808 <mskd_extract_gtr()+0x28>)
200207f4:	2220      	movs	r2, #32
200207f6:	605a      	str	r2, [r3, #4]
200207f8:	4770      	bx	lr
200207fa:	4b03      	ldr	r3, [pc, #12]	; (20020808 <mskd_extract_gtr()+0x28>)
200207fc:	2240      	movs	r2, #64	; 0x40
200207fe:	605a      	str	r2, [r3, #4]
20020800:	e7fa      	b.n	200207f8 <mskd_extract_gtr()+0x18>
20020802:	46c0      	nop			; (mov r8, r8)
20020804:	20022620 	.word	0x20022620
20020808:	200226c0 	.word	0x200226c0

2002080c <set_bits_global()>:
2002080c:	4a02      	ldr	r2, [pc, #8]	; (20020818 <set_bits_global()+0xc>)
2002080e:	6853      	ldr	r3, [r2, #4]
20020810:	2140      	movs	r1, #64	; 0x40
20020812:	430b      	orrs	r3, r1
20020814:	6053      	str	r3, [r2, #4]
20020816:	4770      	bx	lr
20020818:	200226c0 	.word	0x200226c0

2002081c <ins_mskd_global()>:
2002081c:	4a03      	ldr	r2, [pc, #12]	; (2002082c <ins_mskd_global()+0x10>)
2002081e:	6853      	ldr	r3, [r2, #4]
20020820:	2106      	movs	r1, #6
20020822:	438b      	bics	r3, r1
20020824:	3904      	subs	r1, #4
20020826:	430b      	orrs	r3, r1
20020828:	6053      	str	r3, [r2, #4]
2002082a:	4770      	bx	lr
2002082c:	200226c0 	.word	0x200226c0

20020830 <assign_array_global()>:
20020830:	4b01      	ldr	r3, [pc, #4]	; (20020838 <assign_array_global()+0x8>)
20020832:	22bd      	movs	r2, #189	; 0xbd
20020834:	601a      	str	r2, [r3, #0]
20020836:	4770      	bx	lr
20020838:	2002252c 	.word	0x2002252c

2002083c <shifted_global()>:
2002083c:	4b04      	ldr	r3, [pc, #16]	; (20020850 <shifted_global()+0x14>)
2002083e:	22b8      	movs	r2, #184	; 0xb8
20020840:	0592      	lsls	r2, r2, #22
20020842:	605a      	str	r2, [r3, #4]
20020844:	685b      	ldr	r3, [r3, #4]
20020846:	009b      	lsls	r3, r3, #2
20020848:	0edb      	lsrs	r3, r3, #27
2002084a:	4a02      	ldr	r2, [pc, #8]	; (20020854 <shifted_global()+0x18>)
2002084c:	62d3      	str	r3, [r2, #44]	; 0x2c
2002084e:	4770      	bx	lr
20020850:	20022620 	.word	0x20022620
20020854:	20022500 	.word	0x20022500

20020858 <assign_register_global()>:
20020858:	4b01      	ldr	r3, [pc, #4]	; (20020860 <assign_register_global()+0x8>)
2002085a:	2204      	movs	r2, #4
2002085c:	605a      	str	r2, [r3, #4]
2002085e:	4770      	bx	lr
20020860:	200226c0 	.word	0x200226c0

20020864 <copy_bits_equ()>:
20020864:	4a06      	ldr	r2, [pc, #24]	; (20020880 <copy_bits_equ()+0x1c>)
20020866:	2340      	movs	r3, #64	; 0x40
20020868:	6053      	str	r3, [r2, #4]
2002086a:	6852      	ldr	r2, [r2, #4]
2002086c:	4213      	tst	r3, r2
2002086e:	d103      	bne.n	20020878 <copy_bits_equ()+0x14>
20020870:	4b03      	ldr	r3, [pc, #12]	; (20020880 <copy_bits_equ()+0x1c>)
20020872:	2204      	movs	r2, #4
20020874:	605a      	str	r2, [r3, #4]
20020876:	4770      	bx	lr
20020878:	4b01      	ldr	r3, [pc, #4]	; (20020880 <copy_bits_equ()+0x1c>)
2002087a:	2202      	movs	r2, #2
2002087c:	605a      	str	r2, [r3, #4]
2002087e:	e7fa      	b.n	20020876 <copy_bits_equ()+0x12>
20020880:	200226c0 	.word	0x200226c0

20020884 <copy_bits_neq()>:
20020884:	4a06      	ldr	r2, [pc, #24]	; (200208a0 <copy_bits_neq()+0x1c>)
20020886:	2340      	movs	r3, #64	; 0x40
20020888:	6053      	str	r3, [r2, #4]
2002088a:	6852      	ldr	r2, [r2, #4]
2002088c:	4213      	tst	r3, r2
2002088e:	d103      	bne.n	20020898 <copy_bits_neq()+0x14>
20020890:	4b03      	ldr	r3, [pc, #12]	; (200208a0 <copy_bits_neq()+0x1c>)
20020892:	2202      	movs	r2, #2
20020894:	605a      	str	r2, [r3, #4]
20020896:	4770      	bx	lr
20020898:	4b01      	ldr	r3, [pc, #4]	; (200208a0 <copy_bits_neq()+0x1c>)
2002089a:	2204      	movs	r2, #4
2002089c:	605a      	str	r2, [r3, #4]
2002089e:	e7fa      	b.n	20020896 <copy_bits_neq()+0x12>
200208a0:	200226c0 	.word	0x200226c0

200208a4 <copy_mskd_equ()>:
200208a4:	4b08      	ldr	r3, [pc, #32]	; (200208c8 <copy_mskd_equ()+0x24>)
200208a6:	22b0      	movs	r2, #176	; 0xb0
200208a8:	0552      	lsls	r2, r2, #21
200208aa:	605a      	str	r2, [r3, #4]
200208ac:	685b      	ldr	r3, [r3, #4]
200208ae:	21f8      	movs	r1, #248	; 0xf8
200208b0:	0589      	lsls	r1, r1, #22
200208b2:	400b      	ands	r3, r1
200208b4:	4293      	cmp	r3, r2
200208b6:	d003      	beq.n	200208c0 <copy_mskd_equ()+0x1c>
200208b8:	4b04      	ldr	r3, [pc, #16]	; (200208cc <copy_mskd_equ()+0x28>)
200208ba:	2204      	movs	r2, #4
200208bc:	605a      	str	r2, [r3, #4]
200208be:	4770      	bx	lr
200208c0:	4b02      	ldr	r3, [pc, #8]	; (200208cc <copy_mskd_equ()+0x28>)
200208c2:	2202      	movs	r2, #2
200208c4:	605a      	str	r2, [r3, #4]
200208c6:	e7fa      	b.n	200208be <copy_mskd_equ()+0x1a>
200208c8:	20022620 	.word	0x20022620
200208cc:	200226c0 	.word	0x200226c0

200208d0 <copy_mskd_neq()>:
200208d0:	4b08      	ldr	r3, [pc, #32]	; (200208f4 <copy_mskd_neq()+0x24>)
200208d2:	22d0      	movs	r2, #208	; 0xd0
200208d4:	0552      	lsls	r2, r2, #21
200208d6:	605a      	str	r2, [r3, #4]
200208d8:	685b      	ldr	r3, [r3, #4]
200208da:	21f8      	movs	r1, #248	; 0xf8
200208dc:	0589      	lsls	r1, r1, #22
200208de:	400b      	ands	r3, r1
200208e0:	4293      	cmp	r3, r2
200208e2:	d003      	beq.n	200208ec <copy_mskd_neq()+0x1c>
200208e4:	4b04      	ldr	r3, [pc, #16]	; (200208f8 <copy_mskd_neq()+0x28>)
200208e6:	2202      	movs	r2, #2
200208e8:	605a      	str	r2, [r3, #4]
200208ea:	4770      	bx	lr
200208ec:	4b02      	ldr	r3, [pc, #8]	; (200208f8 <copy_mskd_neq()+0x28>)
200208ee:	2204      	movs	r2, #4
200208f0:	605a      	str	r2, [r3, #4]
200208f2:	e7fa      	b.n	200208ea <copy_mskd_neq()+0x1a>
200208f4:	20022620 	.word	0x20022620
200208f8:	200226c0 	.word	0x200226c0

200208fc <copy_mskd_lss()>:
200208fc:	4b09      	ldr	r3, [pc, #36]	; (20020924 <copy_mskd_lss()+0x28>)
200208fe:	22d8      	movs	r2, #216	; 0xd8
20020900:	0592      	lsls	r2, r2, #22
20020902:	605a      	str	r2, [r3, #4]
20020904:	685b      	ldr	r3, [r3, #4]
20020906:	22f8      	movs	r2, #248	; 0xf8
20020908:	0592      	lsls	r2, r2, #22
2002090a:	4013      	ands	r3, r2
2002090c:	4a06      	ldr	r2, [pc, #24]	; (20020928 <copy_mskd_lss()+0x2c>)
2002090e:	4293      	cmp	r3, r2
20020910:	d803      	bhi.n	2002091a <copy_mskd_lss()+0x1e>
20020912:	4b06      	ldr	r3, [pc, #24]	; (2002092c <copy_mskd_lss()+0x30>)
20020914:	2202      	movs	r2, #2
20020916:	605a      	str	r2, [r3, #4]
20020918:	4770      	bx	lr
2002091a:	4b04      	ldr	r3, [pc, #16]	; (2002092c <copy_mskd_lss()+0x30>)
2002091c:	2204      	movs	r2, #4
2002091e:	605a      	str	r2, [r3, #4]
20020920:	e7fa      	b.n	20020918 <copy_mskd_lss()+0x1c>
20020922:	46c0      	nop			; (mov r8, r8)
20020924:	20022620 	.word	0x20022620
20020928:	37ffffff 	.word	0x37ffffff
2002092c:	200226c0 	.word	0x200226c0

20020930 <copy_mskd_leq()>:
20020930:	4b08      	ldr	r3, [pc, #32]	; (20020954 <copy_mskd_leq()+0x24>)
20020932:	22b8      	movs	r2, #184	; 0xb8
20020934:	0592      	lsls	r2, r2, #22
20020936:	605a      	str	r2, [r3, #4]
20020938:	685b      	ldr	r3, [r3, #4]
2002093a:	21f8      	movs	r1, #248	; 0xf8
2002093c:	0589      	lsls	r1, r1, #22
2002093e:	400b      	ands	r3, r1
20020940:	4293      	cmp	r3, r2
20020942:	d903      	bls.n	2002094c <copy_mskd_leq()+0x1c>
20020944:	4b04      	ldr	r3, [pc, #16]	; (20020958 <copy_mskd_leq()+0x28>)
20020946:	2204      	movs	r2, #4
20020948:	605a      	str	r2, [r3, #4]
2002094a:	4770      	bx	lr
2002094c:	4b02      	ldr	r3, [pc, #8]	; (20020958 <copy_mskd_leq()+0x28>)
2002094e:	2202      	movs	r2, #2
20020950:	605a      	str	r2, [r3, #4]
20020952:	e7fa      	b.n	2002094a <copy_mskd_leq()+0x1a>
20020954:	20022620 	.word	0x20022620
20020958:	200226c0 	.word	0x200226c0

2002095c <copy_mskd_gtr()>:
2002095c:	4b09      	ldr	r3, [pc, #36]	; (20020984 <copy_mskd_gtr()+0x28>)
2002095e:	2298      	movs	r2, #152	; 0x98
20020960:	0592      	lsls	r2, r2, #22
20020962:	605a      	str	r2, [r3, #4]
20020964:	685b      	ldr	r3, [r3, #4]
20020966:	22f8      	movs	r2, #248	; 0xf8
20020968:	0592      	lsls	r2, r2, #22
2002096a:	4013      	ands	r3, r2
2002096c:	2290      	movs	r2, #144	; 0x90
2002096e:	0592      	lsls	r2, r2, #22
20020970:	4293      	cmp	r3, r2
20020972:	d903      	bls.n	2002097c <copy_mskd_gtr()+0x20>
20020974:	4b04      	ldr	r3, [pc, #16]	; (20020988 <copy_mskd_gtr()+0x2c>)
20020976:	2202      	movs	r2, #2
20020978:	605a      	str	r2, [r3, #4]
2002097a:	4770      	bx	lr
2002097c:	4b02      	ldr	r3, [pc, #8]	; (20020988 <copy_mskd_gtr()+0x2c>)
2002097e:	2204      	movs	r2, #4
20020980:	605a      	str	r2, [r3, #4]
20020982:	e7fa      	b.n	2002097a <copy_mskd_gtr()+0x1e>
20020984:	20022620 	.word	0x20022620
20020988:	200226c0 	.word	0x200226c0

2002098c <copy_mskd_geq()>:
2002098c:	4b09      	ldr	r3, [pc, #36]	; (200209b4 <copy_mskd_geq()+0x28>)
2002098e:	2288      	movs	r2, #136	; 0x88
20020990:	0592      	lsls	r2, r2, #22
20020992:	605a      	str	r2, [r3, #4]
20020994:	685b      	ldr	r3, [r3, #4]
20020996:	22f8      	movs	r2, #248	; 0xf8
20020998:	0592      	lsls	r2, r2, #22
2002099a:	4013      	ands	r3, r2
2002099c:	4a06      	ldr	r2, [pc, #24]	; (200209b8 <copy_mskd_geq()+0x2c>)
2002099e:	4293      	cmp	r3, r2
200209a0:	d803      	bhi.n	200209aa <copy_mskd_geq()+0x1e>
200209a2:	4b06      	ldr	r3, [pc, #24]	; (200209bc <copy_mskd_geq()+0x30>)
200209a4:	2204      	movs	r2, #4
200209a6:	605a      	str	r2, [r3, #4]
200209a8:	4770      	bx	lr
200209aa:	4b04      	ldr	r3, [pc, #16]	; (200209bc <copy_mskd_geq()+0x30>)
200209ac:	2202      	movs	r2, #2
200209ae:	605a      	str	r2, [r3, #4]
200209b0:	e7fa      	b.n	200209a8 <copy_mskd_geq()+0x1c>
200209b2:	46c0      	nop			; (mov r8, r8)
200209b4:	20022620 	.word	0x20022620
200209b8:	21ffffff 	.word	0x21ffffff
200209bc:	200226c0 	.word	0x200226c0

200209c0 <copy_shifted()>:
200209c0:	4b08      	ldr	r3, [pc, #32]	; (200209e4 <copy_shifted()+0x24>)
200209c2:	22b0      	movs	r2, #176	; 0xb0
200209c4:	0552      	lsls	r2, r2, #21
200209c6:	605a      	str	r2, [r3, #4]
200209c8:	685b      	ldr	r3, [r3, #4]
200209ca:	009b      	lsls	r3, r3, #2
200209cc:	0edb      	lsrs	r3, r3, #27
200209ce:	2b0b      	cmp	r3, #11
200209d0:	d003      	beq.n	200209da <copy_shifted()+0x1a>
200209d2:	4b05      	ldr	r3, [pc, #20]	; (200209e8 <copy_shifted()+0x28>)
200209d4:	2204      	movs	r2, #4
200209d6:	605a      	str	r2, [r3, #4]
200209d8:	4770      	bx	lr
200209da:	4b03      	ldr	r3, [pc, #12]	; (200209e8 <copy_shifted()+0x28>)
200209dc:	2202      	movs	r2, #2
200209de:	605a      	str	r2, [r3, #4]
200209e0:	e7fa      	b.n	200209d8 <copy_shifted()+0x18>
200209e2:	46c0      	nop			; (mov r8, r8)
200209e4:	20022620 	.word	0x20022620
200209e8:	200226c0 	.word	0x200226c0

200209ec <bits_val(regbits::Bits<unsigned long, mcu::Serial::Config>)>:
200209ec:	4b02      	ldr	r3, [pc, #8]	; (200209f8 <bits_val(regbits::Bits<unsigned long, mcu::Serial::Config>)+0xc>)
200209ee:	685a      	ldr	r2, [r3, #4]
200209f0:	4310      	orrs	r0, r2
200209f2:	6058      	str	r0, [r3, #4]
200209f4:	4770      	bx	lr
200209f6:	46c0      	nop			; (mov r8, r8)
200209f8:	200226c0 	.word	0x200226c0

200209fc <call_bits_val_var()>:
200209fc:	b500      	push	{lr}
200209fe:	2040      	movs	r0, #64	; 0x40
20020a00:	f7ff fff4 	bl	200209ec <bits_val(regbits::Bits<unsigned long, mcu::Serial::Config>)>
20020a04:	bd00      	pop	{pc}

20020a06 <call_bits_val_const()>:
20020a06:	b500      	push	{lr}
20020a08:	2040      	movs	r0, #64	; 0x40
20020a0a:	f7ff ffef 	bl	200209ec <bits_val(regbits::Bits<unsigned long, mcu::Serial::Config>)>
20020a0e:	bd00      	pop	{pc}

20020a10 <call_bits_val_global()>:
20020a10:	b500      	push	{lr}
20020a12:	2040      	movs	r0, #64	; 0x40
20020a14:	f7ff ffea 	bl	200209ec <bits_val(regbits::Bits<unsigned long, mcu::Serial::Config>)>
20020a18:	bd00      	pop	{pc}

20020a1a <bits_ref(regbits::Bits<unsigned long, mcu::Serial::Config> const&)>:
20020a1a:	4a03      	ldr	r2, [pc, #12]	; (20020a28 <bits_ref(regbits::Bits<unsigned long, mcu::Serial::Config> const&)+0xe>)
20020a1c:	6853      	ldr	r3, [r2, #4]
20020a1e:	6801      	ldr	r1, [r0, #0]
20020a20:	430b      	orrs	r3, r1
20020a22:	6053      	str	r3, [r2, #4]
20020a24:	4770      	bx	lr
20020a26:	46c0      	nop			; (mov r8, r8)
20020a28:	200226c0 	.word	0x200226c0

20020a2c <call_bits_ref_var()>:
20020a2c:	b500      	push	{lr}
20020a2e:	b081      	sub	sp, #4
20020a30:	2301      	movs	r3, #1
20020a32:	9300      	str	r3, [sp, #0]
20020a34:	4668      	mov	r0, sp
20020a36:	f7ff fff0 	bl	20020a1a <bits_ref(regbits::Bits<unsigned long, mcu::Serial::Config> const&)>
20020a3a:	b001      	add	sp, #4
20020a3c:	bd00      	pop	{pc}

20020a3e <call_bits_ref_const()>:
20020a3e:	b500      	push	{lr}
20020a40:	b081      	sub	sp, #4
20020a42:	2301      	movs	r3, #1
20020a44:	9300      	str	r3, [sp, #0]
20020a46:	4668      	mov	r0, sp
20020a48:	f7ff ffe7 	bl	20020a1a <bits_ref(regbits::Bits<unsigned long, mcu::Serial::Config> const&)>
20020a4c:	b001      	add	sp, #4
20020a4e:	bd00      	pop	{pc}

20020a50 <call_bits_ref_global()>:
20020a50:	b500      	push	{lr}
20020a52:	b081      	sub	sp, #4
20020a54:	2340      	movs	r3, #64	; 0x40
20020a56:	9300      	str	r3, [sp, #0]
20020a58:	4668      	mov	r0, sp
20020a5a:	f7ff ffde 	bl	20020a1a <bits_ref(regbits::Bits<unsigned long, mcu::Serial::Config> const&)>
20020a5e:	b001      	add	sp, #4
20020a60:	bd00      	pop	{pc}

20020a62 <mskd_val(regbits::Mskd<unsigned long, mcu::Serial::Config>)>:
20020a62:	4a03      	ldr	r2, [pc, #12]	; (20020a70 <mskd_val(regbits::Mskd<unsigned long, mcu::Serial::Config>)+0xe>)
20020a64:	6853      	ldr	r3, [r2, #4]
20020a66:	4383      	bics	r3, r0
20020a68:	430b      	orrs	r3, r1
20020a6a:	6053      	str	r3, [r2, #4]
20020a6c:	4770      	bx	lr
20020a6e:	46c0      	nop			; (mov r8, r8)
20020a70:	200226c0 	.word	0x200226c0

20020a74 <call_mskd_val_var()>:
20020a74:	b500      	push	{lr}
20020a76:	2006      	movs	r0, #6
20020a78:	2102      	movs	r1, #2
20020a7a:	f7ff fff2 	bl	20020a62 <mskd_val(regbits::Mskd<unsigned long, mcu::Serial::Config>)>
20020a7e:	bd00      	pop	{pc}

20020a80 <call_mskd_val_const()>:
20020a80:	b500      	push	{lr}
20020a82:	2006      	movs	r0, #6
20020a84:	2102      	movs	r1, #2
20020a86:	f7ff ffec 	bl	20020a62 <mskd_val(regbits::Mskd<unsigned long, mcu::Serial::Config>)>
20020a8a:	bd00      	pop	{pc}

20020a8c <call_mskd_val_global()>:
20020a8c:	b500      	push	{lr}
20020a8e:	2006      	movs	r0, #6
20020a90:	2102      	movs	r1, #2
20020a92:	f7ff ffe6 	bl	20020a62 <mskd_val(regbits::Mskd<unsigned long, mcu::Serial::Config>)>
20020a96:	bd00      	pop	{pc}

20020a98 <mskd_ref(regbits::Mskd<unsigned long, mcu::Serial::Config> const&)>:
20020a98:	4a03      	ldr	r2, [pc, #12]	; (20020aa8 <mskd_ref(regbits::Mskd<unsigned long, mcu::Serial::Config> const&)+0x10>)
20020a9a:	6853      	ldr	r3, [r2, #4]
20020a9c:	6801      	ldr	r1, [r0, #0]
20020a9e:	438b      	bics	r3, r1
20020aa0:	6841      	ldr	r1, [r0, #4]
20020aa2:	430b      	orrs	r3, r1
20020aa4:	6053      	str	r3, [r2, #4]
20020aa6:	4770      	bx	lr
20020aa8:	200226c0 	.word	0x200226c0

20020aac <call_mskd_ref_var()>:
20020aac:	b500      	push	{lr}
20020aae:	b082      	sub	sp, #8
20020ab0:	4b04      	ldr	r3, [pc, #16]	; (20020ac4 <call_mskd_ref_var()+0x18>)
20020ab2:	681a      	ldr	r2, [r3, #0]
20020ab4:	685b      	ldr	r3, [r3, #4]
20020ab6:	9200      	str	r2, [sp, #0]
20020ab8:	9301      	str	r3, [sp, #4]
20020aba:	4668      	mov	r0, sp
20020abc:	f7ff ffec 	bl	20020a98 <mskd_ref(regbits::Mskd<unsigned long, mcu::Serial::Config> const&)>
20020ac0:	b002      	add	sp, #8
20020ac2:	bd00      	pop	{pc}
20020ac4:	2002184c 	.word	0x2002184c

20020ac8 <call_mskd_ref_const()>:
20020ac8:	b500      	push	{lr}
20020aca:	b082      	sub	sp, #8
20020acc:	2306      	movs	r3, #6
20020ace:	9300      	str	r3, [sp, #0]
20020ad0:	3b02      	subs	r3, #2
20020ad2:	9301      	str	r3, [sp, #4]
20020ad4:	4668      	mov	r0, sp
20020ad6:	f7ff ffdf 	bl	20020a98 <mskd_ref(regbits::Mskd<unsigned long, mcu::Serial::Config> const&)>
20020ada:	b002      	add	sp, #8
20020adc:	bd00      	pop	{pc}

20020ade <call_mskd_ref_global()>:
20020ade:	b500      	push	{lr}
20020ae0:	b082      	sub	sp, #8
20020ae2:	2306      	movs	r3, #6
20020ae4:	9300      	str	r3, [sp, #0]
20020ae6:	3b04      	subs	r3, #4
20020ae8:	9301      	str	r3, [sp, #4]
20020aea:	4668      	mov	r0, sp
20020aec:	f7ff ffd4 	bl	20020a98 <mskd_ref(regbits::Mskd<unsigned long, mcu::Serial::Config> const&)>
20020af0:	b002      	add	sp, #8
20020af2:	bd00      	pop	{pc}

20020af4 <periph_bits(mcu::Serial*)>:
20020af4:	6843      	ldr	r3, [r0, #4]
20020af6:	2240      	movs	r2, #64	; 0x40
20020af8:	4313      	orrs	r3, r2
20020afa:	6043      	str	r3, [r0, #4]
20020afc:	4770      	bx	lr

20020afe <call_periph_bits()>:
20020afe:	b500      	push	{lr}
20020b00:	4801      	ldr	r0, [pc, #4]	; (20020b08 <call_periph_bits()+0xa>)
20020b02:	f7ff fff7 	bl	20020af4 <periph_bits(mcu::Serial*)>
20020b06:	bd00      	pop	{pc}
20020b08:	200226c0 	.word	0x200226c0

20020b0c <periph_bits_val(mcu::Serial*, regbits::Bits<unsigned long, mcu::Serial::Config>)>:
20020b0c:	6843      	ldr	r3, [r0, #4]
20020b0e:	4319      	orrs	r1, r3
20020b10:	6041      	str	r1, [r0, #4]
20020b12:	4770      	bx	lr

20020b14 <call_periph_bits_val()>:
20020b14:	b500      	push	{lr}
20020b16:	2140      	movs	r1, #64	; 0x40
20020b18:	4801      	ldr	r0, [pc, #4]	; (20020b20 <call_periph_bits_val()+0xc>)
20020b1a:	f7ff fff7 	bl	20020b0c <periph_bits_val(mcu::Serial*, regbits::Bits<unsigned long, mcu::Serial::Config>)>
20020b1e:	bd00      	pop	{pc}
20020b20:	200226c0 	.word	0x200226c0

20020b24 <reg_bits_val(regbits::Reg<unsigned long, mcu::Serial::Config>&, regbits::Bits<unsigned long, mcu::Serial::Config>)>:
20020b24:	6803      	ldr	r3, [r0, #0]
20020b26:	4319      	orrs	r1, r3
20020b28:	6001      	str	r1, [r0, #0]
20020b2a:	4770      	bx	lr

20020b2c <call_reg_bits_val()>:
20020b2c:	b500      	push	{lr}
20020b2e:	2140      	movs	r1, #64	; 0x40
20020b30:	4801      	ldr	r0, [pc, #4]	; (20020b38 <call_reg_bits_val()+0xc>)
20020b32:	f7ff fff7 	bl	20020b24 <reg_bits_val(regbits::Reg<unsigned long, mcu::Serial::Config>&, regbits::Bits<unsigned long, mcu::Serial::Config>)>
20020b36:	bd00      	pop	{pc}
20020b38:	200226c4 	.word	0x200226c4

20020b3c <periph_bits_ref(mcu::Serial*, regbits::Bits<unsigned long, mcu::Serial::Config> const&)>:
20020b3c:	6843      	ldr	r3, [r0, #4]
20020b3e:	680a      	ldr	r2, [r1, #0]
20020b40:	4313      	orrs	r3, r2
20020b42:	6043      	str	r3, [r0, #4]
20020b44:	4770      	bx	lr

20020b46 <call_periph_bits_ref()>:
20020b46:	b500      	push	{lr}
20020b48:	b081      	sub	sp, #4
20020b4a:	2340      	movs	r3, #64	; 0x40
20020b4c:	9300      	str	r3, [sp, #0]
20020b4e:	4669      	mov	r1, sp
20020b50:	4802      	ldr	r0, [pc, #8]	; (20020b5c <call_periph_bits_ref()+0x16>)
20020b52:	f7ff fff3 	bl	20020b3c <periph_bits_ref(mcu::Serial*, regbits::Bits<unsigned long, mcu::Serial::Config> const&)>
20020b56:	b001      	add	sp, #4
20020b58:	bd00      	pop	{pc}
20020b5a:	46c0      	nop			; (mov r8, r8)
20020b5c:	200226c0 	.word	0x200226c0

20020b60 <reg_bits_ref(regbits::Reg<unsigned long, mcu::Serial::Config>&, regbits::Bits<unsigned long, mcu::Serial::Config> const&)>:
20020b60:	6803      	ldr	r3, [r0, #0]
20020b62:	680a      	ldr	r2, [r1, #0]
20020b64:	4313      	orrs	r3, r2
20020b66:	6003      	str	r3, [r0, #0]
20020b68:	4770      	bx	lr

20020b6a <call_reg_bits_ref()>:
20020b6a:	b500      	push	{lr}
20020b6c:	b081      	sub	sp, #4
20020b6e:	2340      	movs	r3, #64	; 0x40
20020b70:	9300      	str	r3, [sp, #0]
20020b72:	4669      	mov	r1, sp
20020b74:	4802      	ldr	r0, [pc, #8]	; (20020b80 <call_reg_bits_ref()+0x16>)
20020b76:	f7ff fff3 	bl	20020b60 <reg_bits_ref(regbits::Reg<unsigned long, mcu::Serial::Config>&, regbits::Bits<unsigned long, mcu::Serial::Config> const&)>
20020b7a:	b001      	add	sp, #4
20020b7c:	bd00      	pop	{pc}
20020b7e:	46c0      	nop			; (mov r8, r8)
20020b80:	200226c4 	.word	0x200226c4

20020b84 <periph_mskd(mcu::Serial*)>:
20020b84:	6843      	ldr	r3, [r0, #4]
20020b86:	2206      	movs	r2, #6
20020b88:	4393      	bics	r3, r2
20020b8a:	3a04      	subs	r2, #4
20020b8c:	4313      	orrs	r3, r2
20020b8e:	6043      	str	r3, [r0, #4]
20020b90:	4770      	bx	lr

20020b92 <call_periph_mskd()>:
20020b92:	b500      	push	{lr}
20020b94:	4801      	ldr	r0, [pc, #4]	; (20020b9c <call_periph_mskd()+0xa>)
20020b96:	f7ff fff5 	bl	20020b84 <periph_mskd(mcu::Serial*)>
20020b9a:	bd00      	pop	{pc}
20020b9c:	200226c0 	.word	0x200226c0

20020ba0 <periph_mskd_val(mcu::Serial*, regbits::Mskd<unsigned long, mcu::Serial::Config>)>:
20020ba0:	6843      	ldr	r3, [r0, #4]
20020ba2:	438b      	bics	r3, r1
20020ba4:	4313      	orrs	r3, r2
20020ba6:	6043      	str	r3, [r0, #4]
20020ba8:	4770      	bx	lr

20020baa <call_periph_mskd_val()>:
20020baa:	b500      	push	{lr}
20020bac:	2106      	movs	r1, #6
20020bae:	2202      	movs	r2, #2
20020bb0:	4801      	ldr	r0, [pc, #4]	; (20020bb8 <call_periph_mskd_val()+0xe>)
20020bb2:	f7ff fff5 	bl	20020ba0 <periph_mskd_val(mcu::Serial*, regbits::Mskd<unsigned long, mcu::Serial::Config>)>
20020bb6:	bd00      	pop	{pc}
20020bb8:	200226c0 	.word	0x200226c0

20020bbc <reg_mskd_val(regbits::Reg<unsigned long, mcu::Serial::Config>&, regbits::Mskd<unsigned long, mcu::Serial::Config>)>:
20020bbc:	6803      	ldr	r3, [r0, #0]
20020bbe:	438b      	bics	r3, r1
20020bc0:	4313      	orrs	r3, r2
20020bc2:	6003      	str	r3, [r0, #0]
20020bc4:	4770      	bx	lr

20020bc6 <call_reg_mskd_val()>:
20020bc6:	b500      	push	{lr}
20020bc8:	2106      	movs	r1, #6
20020bca:	2202      	movs	r2, #2
20020bcc:	4801      	ldr	r0, [pc, #4]	; (20020bd4 <call_reg_mskd_val()+0xe>)
20020bce:	f7ff fff5 	bl	20020bbc <reg_mskd_val(regbits::Reg<unsigned long, mcu::Serial::Config>&, regbits::Mskd<unsigned long, mcu::Serial::Config>)>
20020bd2:	bd00      	pop	{pc}
20020bd4:	200226c4 	.word	0x200226c4

20020bd8 <periph_mskd_ref(mcu::Serial*, regbits::Mskd<unsigned long, mcu::Serial::Config>)>:
20020bd8:	6843      	ldr	r3, [r0, #4]
20020bda:	438b      	bics	r3, r1
20020bdc:	4313      	orrs	r3, r2
20020bde:	6043      	str	r3, [r0, #4]
20020be0:	4770      	bx	lr

20020be2 <call_periph_mskd_ref()>:
20020be2:	b500      	push	{lr}
20020be4:	2106      	movs	r1, #6
20020be6:	2202      	movs	r2, #2
20020be8:	4801      	ldr	r0, [pc, #4]	; (20020bf0 <call_periph_mskd_ref()+0xe>)
20020bea:	f7ff fff5 	bl	20020bd8 <periph_mskd_ref(mcu::Serial*, regbits::Mskd<unsigned long, mcu::Serial::Config>)>
20020bee:	bd00      	pop	{pc}
20020bf0:	200226c0 	.word	0x200226c0

20020bf4 <reg_mskd_ref(regbits::Reg<unsigned long, mcu::Serial::Config>&, regbits::Mskd<unsigned long, mcu::Serial::Config>)>:
20020bf4:	6803      	ldr	r3, [r0, #0]
20020bf6:	438b      	bics	r3, r1
20020bf8:	4313      	orrs	r3, r2
20020bfa:	6003      	str	r3, [r0, #0]
20020bfc:	4770      	bx	lr

20020bfe <call_reg_mskd_ref()>:
20020bfe:	b500      	push	{lr}
20020c00:	2106      	movs	r1, #6
20020c02:	2202      	movs	r2, #2
20020c04:	4801      	ldr	r0, [pc, #4]	; (20020c0c <call_reg_mskd_ref()+0xe>)
20020c06:	f7ff fff5 	bl	20020bf4 <reg_mskd_ref(regbits::Reg<unsigned long, mcu::Serial::Config>&, regbits::Mskd<unsigned long, mcu::Serial::Config>)>
20020c0a:	bd00      	pop	{pc}
20020c0c:	200226c4 	.word	0x200226c4

20020c10 <return_bits()>:
20020c10:	2020      	movs	r0, #32
20020c12:	4770      	bx	lr

20020c14 <call_return_bits()>:
20020c14:	b500      	push	{lr}
20020c16:	f7ff fffb 	bl	20020c10 <return_bits()>
20020c1a:	2820      	cmp	r0, #32
20020c1c:	d004      	beq.n	20020c28 <call_return_bits()+0x14>
20020c1e:	4b05      	ldr	r3, [pc, #20]	; (20020c34 <call_return_bits()+0x20>)
20020c20:	22c0      	movs	r2, #192	; 0xc0
20020c22:	04d2      	lsls	r2, r2, #19
20020c24:	605a      	str	r2, [r3, #4]
20020c26:	bd00      	pop	{pc}
20020c28:	4b02      	ldr	r3, [pc, #8]	; (20020c34 <call_return_bits()+0x20>)
20020c2a:	22a8      	movs	r2, #168	; 0xa8
20020c2c:	0592      	lsls	r2, r2, #22
20020c2e:	605a      	str	r2, [r3, #4]
20020c30:	e7f9      	b.n	20020c26 <call_return_bits()+0x12>
20020c32:	46c0      	nop			; (mov r8, r8)
20020c34:	20022620 	.word	0x20022620

20020c38 <return_mskd()>:
20020c38:	2318      	movs	r3, #24
20020c3a:	6003      	str	r3, [r0, #0]
20020c3c:	3b10      	subs	r3, #16
20020c3e:	6043      	str	r3, [r0, #4]
20020c40:	4770      	bx	lr

20020c42 <call_return_mskd()>:
20020c42:	b500      	push	{lr}
20020c44:	b082      	sub	sp, #8
20020c46:	4668      	mov	r0, sp
20020c48:	f7ff fff6 	bl	20020c38 <return_mskd()>
20020c4c:	9b01      	ldr	r3, [sp, #4]
20020c4e:	9a00      	ldr	r2, [sp, #0]
20020c50:	2a18      	cmp	r2, #24
20020c52:	d005      	beq.n	20020c60 <call_return_mskd()+0x1e>
20020c54:	4b06      	ldr	r3, [pc, #24]	; (20020c70 <call_return_mskd()+0x2e>)
20020c56:	2298      	movs	r2, #152	; 0x98
20020c58:	0592      	lsls	r2, r2, #22
20020c5a:	605a      	str	r2, [r3, #4]
20020c5c:	b002      	add	sp, #8
20020c5e:	bd00      	pop	{pc}
20020c60:	2b08      	cmp	r3, #8
20020c62:	d1f7      	bne.n	20020c54 <call_return_mskd()+0x12>
20020c64:	4b02      	ldr	r3, [pc, #8]	; (20020c70 <call_return_mskd()+0x2e>)
20020c66:	2288      	movs	r2, #136	; 0x88
20020c68:	0592      	lsls	r2, r2, #22
20020c6a:	605a      	str	r2, [r3, #4]
20020c6c:	e7f6      	b.n	20020c5c <call_return_mskd()+0x1a>
20020c6e:	46c0      	nop			; (mov r8, r8)
20020c70:	20022620 	.word	0x20022620

20020c74 <return_reg()>:
20020c74:	4b02      	ldr	r3, [pc, #8]	; (20020c80 <return_reg()+0xc>)
20020c76:	2240      	movs	r2, #64	; 0x40
20020c78:	605a      	str	r2, [r3, #4]
20020c7a:	4802      	ldr	r0, [pc, #8]	; (20020c84 <return_reg()+0x10>)
20020c7c:	4770      	bx	lr
20020c7e:	46c0      	nop			; (mov r8, r8)
20020c80:	200226c0 	.word	0x200226c0
20020c84:	200226c4 	.word	0x200226c4

20020c88 <call_return_reg()>:
20020c88:	b500      	push	{lr}
20020c8a:	f7ff fff3 	bl	20020c74 <return_reg()>
20020c8e:	6803      	ldr	r3, [r0, #0]
20020c90:	065b      	lsls	r3, r3, #25
20020c92:	d404      	bmi.n	20020c9e <call_return_reg()+0x16>
20020c94:	4b04      	ldr	r3, [pc, #16]	; (20020ca8 <call_return_reg()+0x20>)
20020c96:	22b8      	movs	r2, #184	; 0xb8
20020c98:	0592      	lsls	r2, r2, #22
20020c9a:	605a      	str	r2, [r3, #4]
20020c9c:	bd00      	pop	{pc}
20020c9e:	4b02      	ldr	r3, [pc, #8]	; (20020ca8 <call_return_reg()+0x20>)
20020ca0:	22f0      	movs	r2, #240	; 0xf0
20020ca2:	0552      	lsls	r2, r2, #21
20020ca4:	605a      	str	r2, [r3, #4]
20020ca6:	e7f9      	b.n	20020c9c <call_return_reg()+0x14>
20020ca8:	20022620 	.word	0x20022620

20020cac <return_periph()>:
20020cac:	4801      	ldr	r0, [pc, #4]	; (20020cb4 <return_periph()+0x8>)
20020cae:	2340      	movs	r3, #64	; 0x40
20020cb0:	6043      	str	r3, [r0, #4]
20020cb2:	4770      	bx	lr
20020cb4:	200226c0 	.word	0x200226c0

20020cb8 <call_return_periph()>:
20020cb8:	b500      	push	{lr}
20020cba:	f7ff fff7 	bl	20020cac <return_periph()>
20020cbe:	6843      	ldr	r3, [r0, #4]
20020cc0:	065b      	lsls	r3, r3, #25
20020cc2:	d404      	bmi.n	20020cce <call_return_periph()+0x16>
20020cc4:	4b04      	ldr	r3, [pc, #16]	; (20020cd8 <call_return_periph()+0x20>)
20020cc6:	22a8      	movs	r2, #168	; 0xa8
20020cc8:	0592      	lsls	r2, r2, #22
20020cca:	605a      	str	r2, [r3, #4]
20020ccc:	bd00      	pop	{pc}
20020cce:	4b02      	ldr	r3, [pc, #8]	; (20020cd8 <call_return_periph()+0x20>)
20020cd0:	2298      	movs	r2, #152	; 0x98
20020cd2:	0592      	lsls	r2, r2, #22
20020cd4:	605a      	str	r2, [r3, #4]
20020cd6:	e7f9      	b.n	20020ccc <call_return_periph()+0x14>
20020cd8:	20022620 	.word	0x20022620

20020cdc <pos_val(regbits::Pos<unsigned long, mcu::Serial::Config>)>:
20020cdc:	2805      	cmp	r0, #5
20020cde:	d005      	beq.n	20020cec <pos_val(regbits::Pos<unsigned long, mcu::Serial::Config>)+0x10>
20020ce0:	2806      	cmp	r0, #6
20020ce2:	d007      	beq.n	20020cf4 <pos_val(regbits::Pos<unsigned long, mcu::Serial::Config>)+0x18>
20020ce4:	4b05      	ldr	r3, [pc, #20]	; (20020cfc <pos_val(regbits::Pos<unsigned long, mcu::Serial::Config>)+0x20>)
20020ce6:	2255      	movs	r2, #85	; 0x55
20020ce8:	62da      	str	r2, [r3, #44]	; 0x2c
20020cea:	4770      	bx	lr
20020cec:	4b03      	ldr	r3, [pc, #12]	; (20020cfc <pos_val(regbits::Pos<unsigned long, mcu::Serial::Config>)+0x20>)
20020cee:	2233      	movs	r2, #51	; 0x33
20020cf0:	62da      	str	r2, [r3, #44]	; 0x2c
20020cf2:	e7fa      	b.n	20020cea <pos_val(regbits::Pos<unsigned long, mcu::Serial::Config>)+0xe>
20020cf4:	4b01      	ldr	r3, [pc, #4]	; (20020cfc <pos_val(regbits::Pos<unsigned long, mcu::Serial::Config>)+0x20>)
20020cf6:	2244      	movs	r2, #68	; 0x44
20020cf8:	62da      	str	r2, [r3, #44]	; 0x2c
20020cfa:	e7f6      	b.n	20020cea <pos_val(regbits::Pos<unsigned long, mcu::Serial::Config>)+0xe>
20020cfc:	20022500 	.word	0x20022500

20020d00 <call_pos_val()>:
20020d00:	b500      	push	{lr}
20020d02:	2005      	movs	r0, #5
20020d04:	f7ff ffea 	bl	20020cdc <pos_val(regbits::Pos<unsigned long, mcu::Serial::Config>)>
20020d08:	2006      	movs	r0, #6
20020d0a:	f7ff ffe7 	bl	20020cdc <pos_val(regbits::Pos<unsigned long, mcu::Serial::Config>)>
20020d0e:	bd00      	pop	{pc}

20020d10 <call_pos_val_global()>:
20020d10:	b500      	push	{lr}
20020d12:	2006      	movs	r0, #6
20020d14:	f7ff ffe2 	bl	20020cdc <pos_val(regbits::Pos<unsigned long, mcu::Serial::Config>)>
20020d18:	bd00      	pop	{pc}

20020d1a <pos_ref(regbits::Pos<unsigned long, mcu::Serial::Config> const&)>:
20020d1a:	6803      	ldr	r3, [r0, #0]
20020d1c:	2b05      	cmp	r3, #5
20020d1e:	d005      	beq.n	20020d2c <pos_ref(regbits::Pos<unsigned long, mcu::Serial::Config> const&)+0x12>
20020d20:	2b06      	cmp	r3, #6
20020d22:	d007      	beq.n	20020d34 <pos_ref(regbits::Pos<unsigned long, mcu::Serial::Config> const&)+0x1a>
20020d24:	4b05      	ldr	r3, [pc, #20]	; (20020d3c <pos_ref(regbits::Pos<unsigned long, mcu::Serial::Config> const&)+0x22>)
20020d26:	2288      	movs	r2, #136	; 0x88
20020d28:	62da      	str	r2, [r3, #44]	; 0x2c
20020d2a:	4770      	bx	lr
20020d2c:	4b03      	ldr	r3, [pc, #12]	; (20020d3c <pos_ref(regbits::Pos<unsigned long, mcu::Serial::Config> const&)+0x22>)
20020d2e:	2266      	movs	r2, #102	; 0x66
20020d30:	62da      	str	r2, [r3, #44]	; 0x2c
20020d32:	e7fa      	b.n	20020d2a <pos_ref(regbits::Pos<unsigned long, mcu::Serial::Config> const&)+0x10>
20020d34:	4b01      	ldr	r3, [pc, #4]	; (20020d3c <pos_ref(regbits::Pos<unsigned long, mcu::Serial::Config> const&)+0x22>)
20020d36:	2277      	movs	r2, #119	; 0x77
20020d38:	62da      	str	r2, [r3, #44]	; 0x2c
20020d3a:	e7f6      	b.n	20020d2a <pos_ref(regbits::Pos<unsigned long, mcu::Serial::Config> const&)+0x10>
20020d3c:	20022500 	.word	0x20022500

20020d40 <call_pos_ref()>:
20020d40:	b510      	push	{r4, lr}
20020d42:	b082      	sub	sp, #8
20020d44:	2405      	movs	r4, #5
20020d46:	9401      	str	r4, [sp, #4]
20020d48:	a801      	add	r0, sp, #4
20020d4a:	f7ff ffe6 	bl	20020d1a <pos_ref(regbits::Pos<unsigned long, mcu::Serial::Config> const&)>
20020d4e:	9400      	str	r4, [sp, #0]
20020d50:	4668      	mov	r0, sp
20020d52:	f7ff ffe2 	bl	20020d1a <pos_ref(regbits::Pos<unsigned long, mcu::Serial::Config> const&)>
20020d56:	b002      	add	sp, #8
20020d58:	bd10      	pop	{r4, pc}

20020d5a <call_pos_ref_global()>:
20020d5a:	b500      	push	{lr}
20020d5c:	b081      	sub	sp, #4
20020d5e:	2306      	movs	r3, #6
20020d60:	9300      	str	r3, [sp, #0]
20020d62:	4668      	mov	r0, sp
20020d64:	f7ff ffd9 	bl	20020d1a <pos_ref(regbits::Pos<unsigned long, mcu::Serial::Config> const&)>
20020d68:	b001      	add	sp, #4
20020d6a:	bd00      	pop	{pc}

20020d6c <runtime_range_val(regbits::Mskd<unsigned long, mcu::Serial::Config>)>:
20020d6c:	4a02      	ldr	r2, [pc, #8]	; (20020d78 <runtime_range_val(regbits::Mskd<unsigned long, mcu::Serial::Config>)+0xc>)
20020d6e:	6853      	ldr	r3, [r2, #4]
20020d70:	4383      	bics	r3, r0
20020d72:	430b      	orrs	r3, r1
20020d74:	6053      	str	r3, [r2, #4]
20020d76:	4770      	bx	lr
20020d78:	200226c0 	.word	0x200226c0

20020d7c <call_range_val(unsigned int)>:
20020d7c:	b500      	push	{lr}
20020d7e:	0001      	movs	r1, r0
20020d80:	20f8      	movs	r0, #248	; 0xf8
20020d82:	0309      	lsls	r1, r1, #12
20020d84:	0240      	lsls	r0, r0, #9
20020d86:	f7ff fff1 	bl	20020d6c <runtime_range_val(regbits::Mskd<unsigned long, mcu::Serial::Config>)>
20020d8a:	bd00      	pop	{pc}

20020d8c <call_range_val_port()>:
20020d8c:	b500      	push	{lr}
20020d8e:	201f      	movs	r0, #31
20020d90:	f7ff fff4 	bl	20020d7c <call_range_val(unsigned int)>
20020d94:	bd00      	pop	{pc}

20020d96 <runtime_range_ref(regbits::Mskd<unsigned long, mcu::Serial::Config>)>:
20020d96:	4a03      	ldr	r2, [pc, #12]	; (20020da4 <runtime_range_ref(regbits::Mskd<unsigned long, mcu::Serial::Config>)+0xe>)
20020d98:	6853      	ldr	r3, [r2, #4]
20020d9a:	4383      	bics	r3, r0
20020d9c:	430b      	orrs	r3, r1
20020d9e:	6053      	str	r3, [r2, #4]
20020da0:	4770      	bx	lr
20020da2:	46c0      	nop			; (mov r8, r8)
20020da4:	200226c0 	.word	0x200226c0

20020da8 <call_range_ref(unsigned int)>:
20020da8:	b500      	push	{lr}
20020daa:	0001      	movs	r1, r0
20020dac:	20f8      	movs	r0, #248	; 0xf8
20020dae:	0309      	lsls	r1, r1, #12
20020db0:	0240      	lsls	r0, r0, #9
20020db2:	f7ff fff0 	bl	20020d96 <runtime_range_ref(regbits::Mskd<unsigned long, mcu::Serial::Config>)>
20020db6:	bd00      	pop	{pc}

20020db8 <call_range_ref_port()>:
20020db8:	b500      	push	{lr}
20020dba:	200c      	movs	r0, #12
20020dbc:	f7ff fff4 	bl	20020da8 <call_range_ref(unsigned int)>
20020dc0:	bd00      	pop	{pc}

20020dc2 <check_array_range_pass(unsigned int)>:
20020dc2:	2816      	cmp	r0, #22
20020dc4:	d803      	bhi.n	20020dce <check_array_range_pass(unsigned int)+0xc>
20020dc6:	4b04      	ldr	r3, [pc, #16]	; (20020dd8 <check_array_range_pass(unsigned int)+0x16>)
20020dc8:	227f      	movs	r2, #127	; 0x7f
20020dca:	62da      	str	r2, [r3, #44]	; 0x2c
20020dcc:	4770      	bx	lr
20020dce:	4b02      	ldr	r3, [pc, #8]	; (20020dd8 <check_array_range_pass(unsigned int)+0x16>)
20020dd0:	2283      	movs	r2, #131	; 0x83
20020dd2:	62da      	str	r2, [r3, #44]	; 0x2c
20020dd4:	e7fa      	b.n	20020dcc <check_array_range_pass(unsigned int)+0xa>
20020dd6:	46c0      	nop			; (mov r8, r8)
20020dd8:	20022500 	.word	0x20022500

20020ddc <check_array_range_fail(unsigned int)>:
20020ddc:	2816      	cmp	r0, #22
20020dde:	d803      	bhi.n	20020de8 <check_array_range_fail(unsigned int)+0xc>
20020de0:	4b03      	ldr	r3, [pc, #12]	; (20020df0 <check_array_range_fail(unsigned int)+0x14>)
20020de2:	2295      	movs	r2, #149	; 0x95
20020de4:	62da      	str	r2, [r3, #44]	; 0x2c
20020de6:	4770      	bx	lr
20020de8:	4b01      	ldr	r3, [pc, #4]	; (20020df0 <check_array_range_fail(unsigned int)+0x14>)
20020dea:	2297      	movs	r2, #151	; 0x97
20020dec:	62da      	str	r2, [r3, #44]	; 0x2c
20020dee:	e7fa      	b.n	20020de6 <check_array_range_fail(unsigned int)+0xa>
20020df0:	20022500 	.word	0x20022500

20020df4 <check_bits_range_pass(unsigned int)>:
20020df4:	280f      	cmp	r0, #15
20020df6:	d803      	bhi.n	20020e00 <check_bits_range_pass(unsigned int)+0xc>
20020df8:	4b03      	ldr	r3, [pc, #12]	; (20020e08 <check_bits_range_pass(unsigned int)+0x14>)
20020dfa:	229d      	movs	r2, #157	; 0x9d
20020dfc:	62da      	str	r2, [r3, #44]	; 0x2c
20020dfe:	4770      	bx	lr
20020e00:	4b01      	ldr	r3, [pc, #4]	; (20020e08 <check_bits_range_pass(unsigned int)+0x14>)
20020e02:	22a3      	movs	r2, #163	; 0xa3
20020e04:	62da      	str	r2, [r3, #44]	; 0x2c
20020e06:	e7fa      	b.n	20020dfe <check_bits_range_pass(unsigned int)+0xa>
20020e08:	20022500 	.word	0x20022500

20020e0c <check_bits_range_fail(unsigned int)>:
20020e0c:	280f      	cmp	r0, #15
20020e0e:	d803      	bhi.n	20020e18 <check_bits_range_fail(unsigned int)+0xc>
20020e10:	4b03      	ldr	r3, [pc, #12]	; (20020e20 <check_bits_range_fail(unsigned int)+0x14>)
20020e12:	22a7      	movs	r2, #167	; 0xa7
20020e14:	62da      	str	r2, [r3, #44]	; 0x2c
20020e16:	4770      	bx	lr
20020e18:	4b01      	ldr	r3, [pc, #4]	; (20020e20 <check_bits_range_fail(unsigned int)+0x14>)
20020e1a:	22ad      	movs	r2, #173	; 0xad
20020e1c:	62da      	str	r2, [r3, #44]	; 0x2c
20020e1e:	e7fa      	b.n	20020e16 <check_bits_range_fail(unsigned int)+0xa>
20020e20:	20022500 	.word	0x20022500

20020e24 <check_mskd_range_pass(unsigned int)>:
20020e24:	281f      	cmp	r0, #31
20020e26:	d803      	bhi.n	20020e30 <check_mskd_range_pass(unsigned int)+0xc>
20020e28:	4b03      	ldr	r3, [pc, #12]	; (20020e38 <check_mskd_range_pass(unsigned int)+0x14>)
20020e2a:	22b3      	movs	r2, #179	; 0xb3
20020e2c:	62da      	str	r2, [r3, #44]	; 0x2c
20020e2e:	4770      	bx	lr
20020e30:	4b01      	ldr	r3, [pc, #4]	; (20020e38 <check_mskd_range_pass(unsigned int)+0x14>)
20020e32:	22b5      	movs	r2, #181	; 0xb5
20020e34:	62da      	str	r2, [r3, #44]	; 0x2c
20020e36:	e7fa      	b.n	20020e2e <check_mskd_range_pass(unsigned int)+0xa>
20020e38:	20022500 	.word	0x20022500

20020e3c <check_mskd_range_fail(unsigned int)>:
20020e3c:	281f      	cmp	r0, #31
20020e3e:	d803      	bhi.n	20020e48 <check_mskd_range_fail(unsigned int)+0xc>
20020e40:	4b03      	ldr	r3, [pc, #12]	; (20020e50 <check_mskd_range_fail(unsigned int)+0x14>)
20020e42:	22bf      	movs	r2, #191	; 0xbf
20020e44:	62da      	str	r2, [r3, #44]	; 0x2c
20020e46:	4770      	bx	lr
20020e48:	4b01      	ldr	r3, [pc, #4]	; (20020e50 <check_mskd_range_fail(unsigned int)+0x14>)
20020e4a:	22c1      	movs	r2, #193	; 0xc1
20020e4c:	62da      	str	r2, [r3, #44]	; 0x2c
20020e4e:	e7fa      	b.n	20020e46 <check_mskd_range_fail(unsigned int)+0xa>
20020e50:	20022500 	.word	0x20022500

20020e54 <bits_extract_ne()>:
20020e54:	4b06      	ldr	r3, [pc, #24]	; (20020e70 <bits_extract_ne()+0x1c>)
20020e56:	2220      	movs	r2, #32
20020e58:	605a      	str	r2, [r3, #4]
20020e5a:	685b      	ldr	r3, [r3, #4]
20020e5c:	2b20      	cmp	r3, #32
20020e5e:	d003      	beq.n	20020e68 <bits_extract_ne()+0x14>
20020e60:	4b03      	ldr	r3, [pc, #12]	; (20020e70 <bits_extract_ne()+0x1c>)
20020e62:	3a1e      	subs	r2, #30
20020e64:	605a      	str	r2, [r3, #4]
20020e66:	4770      	bx	lr
20020e68:	4b01      	ldr	r3, [pc, #4]	; (20020e70 <bits_extract_ne()+0x1c>)
20020e6a:	2204      	movs	r2, #4
20020e6c:	605a      	str	r2, [r3, #4]
20020e6e:	e7fa      	b.n	20020e66 <bits_extract_ne()+0x12>
20020e70:	200226c0 	.word	0x200226c0

20020e74 <mskd_extract_geq()>:
20020e74:	4b07      	ldr	r3, [pc, #28]	; (20020e94 <mskd_extract_geq()+0x20>)
20020e76:	22b0      	movs	r2, #176	; 0xb0
20020e78:	0552      	lsls	r2, r2, #21
20020e7a:	605a      	str	r2, [r3, #4]
20020e7c:	685a      	ldr	r2, [r3, #4]
20020e7e:	4b06      	ldr	r3, [pc, #24]	; (20020e98 <mskd_extract_geq()+0x24>)
20020e80:	429a      	cmp	r2, r3
20020e82:	d803      	bhi.n	20020e8c <mskd_extract_geq()+0x18>
20020e84:	4b05      	ldr	r3, [pc, #20]	; (20020e9c <mskd_extract_geq()+0x28>)
20020e86:	2240      	movs	r2, #64	; 0x40
20020e88:	605a      	str	r2, [r3, #4]
20020e8a:	4770      	bx	lr
20020e8c:	4b03      	ldr	r3, [pc, #12]	; (20020e9c <mskd_extract_geq()+0x28>)
20020e8e:	2220      	movs	r2, #32
20020e90:	605a      	str	r2, [r3, #4]
20020e92:	e7fa      	b.n	20020e8a <mskd_extract_geq()+0x16>
20020e94:	20022620 	.word	0x20022620
20020e98:	15ffffff 	.word	0x15ffffff
20020e9c:	200226c0 	.word	0x200226c0

20020ea0 <shifted_val(regbits::Shft<unsigned long, mcu::Timer::Prescale>)>:
20020ea0:	4b04      	ldr	r3, [pc, #16]	; (20020eb4 <shifted_val(regbits::Shft<unsigned long, mcu::Timer::Prescale>)+0x14>)
20020ea2:	22b8      	movs	r2, #184	; 0xb8
20020ea4:	0592      	lsls	r2, r2, #22
20020ea6:	605a      	str	r2, [r3, #4]
20020ea8:	685b      	ldr	r3, [r3, #4]
20020eaa:	4018      	ands	r0, r3
20020eac:	40c8      	lsrs	r0, r1
20020eae:	4b02      	ldr	r3, [pc, #8]	; (20020eb8 <shifted_val(regbits::Shft<unsigned long, mcu::Timer::Prescale>)+0x18>)
20020eb0:	62d8      	str	r0, [r3, #44]	; 0x2c
20020eb2:	4770      	bx	lr
20020eb4:	20022620 	.word	0x20022620
20020eb8:	20022500 	.word	0x20022500

20020ebc <call_shifted_const_val()>:
20020ebc:	b500      	push	{lr}
20020ebe:	20f8      	movs	r0, #248	; 0xf8
20020ec0:	0580      	lsls	r0, r0, #22
20020ec2:	2119      	movs	r1, #25
20020ec4:	f7ff ffec 	bl	20020ea0 <shifted_val(regbits::Shft<unsigned long, mcu::Timer::Prescale>)>
20020ec8:	bd00      	pop	{pc}

20020eca <call_shifted_var_val()>:
20020eca:	b500      	push	{lr}
20020ecc:	20f8      	movs	r0, #248	; 0xf8
20020ece:	0580      	lsls	r0, r0, #22
20020ed0:	2119      	movs	r1, #25
20020ed2:	f7ff ffe5 	bl	20020ea0 <shifted_val(regbits::Shft<unsigned long, mcu::Timer::Prescale>)>
20020ed6:	bd00      	pop	{pc}

20020ed8 <call_shifted_global_val()>:
20020ed8:	b500      	push	{lr}
20020eda:	4b03      	ldr	r3, [pc, #12]	; (20020ee8 <call_shifted_global_val()+0x10>)
20020edc:	6898      	ldr	r0, [r3, #8]
20020ede:	68d9      	ldr	r1, [r3, #12]
20020ee0:	f7ff ffde 	bl	20020ea0 <shifted_val(regbits::Shft<unsigned long, mcu::Timer::Prescale>)>
20020ee4:	bd00      	pop	{pc}
20020ee6:	46c0      	nop			; (mov r8, r8)
20020ee8:	2002184c 	.word	0x2002184c

20020eec <shifted_ref(regbits::Shft<unsigned long, mcu::Timer::Prescale> const&)>:
20020eec:	4b05      	ldr	r3, [pc, #20]	; (20020f04 <shifted_ref(regbits::Shft<unsigned long, mcu::Timer::Prescale> const&)+0x18>)
20020eee:	22b8      	movs	r2, #184	; 0xb8
20020ef0:	0592      	lsls	r2, r2, #22
20020ef2:	605a      	str	r2, [r3, #4]
20020ef4:	685b      	ldr	r3, [r3, #4]
20020ef6:	6802      	ldr	r2, [r0, #0]
20020ef8:	4013      	ands	r3, r2
20020efa:	6842      	ldr	r2, [r0, #4]
20020efc:	40d3      	lsrs	r3, r2
20020efe:	4a02      	ldr	r2, [pc, #8]	; (20020f08 <shifted_ref(regbits::Shft<unsigned long, mcu::Timer::Prescale> const&)+0x1c>)
20020f00:	62d3      	str	r3, [r2, #44]	; 0x2c
20020f02:	4770      	bx	lr
20020f04:	20022620 	.word	0x20022620
20020f08:	20022500 	.word	0x20022500

20020f0c <call_shifted_const_ref()>:
20020f0c:	b500      	push	{lr}
20020f0e:	b082      	sub	sp, #8
20020f10:	4b04      	ldr	r3, [pc, #16]	; (20020f24 <call_shifted_const_ref()+0x18>)
20020f12:	691a      	ldr	r2, [r3, #16]
20020f14:	695b      	ldr	r3, [r3, #20]
20020f16:	9200      	str	r2, [sp, #0]
20020f18:	9301      	str	r3, [sp, #4]
20020f1a:	4668      	mov	r0, sp
20020f1c:	f7ff ffe6 	bl	20020eec <shifted_ref(regbits::Shft<unsigned long, mcu::Timer::Prescale> const&)>
20020f20:	b002      	add	sp, #8
20020f22:	bd00      	pop	{pc}
20020f24:	2002184c 	.word	0x2002184c

20020f28 <call_shifted_var_ref()>:
20020f28:	b500      	push	{lr}
20020f2a:	b082      	sub	sp, #8
20020f2c:	4b04      	ldr	r3, [pc, #16]	; (20020f40 <call_shifted_var_ref()+0x18>)
20020f2e:	699a      	ldr	r2, [r3, #24]
20020f30:	69db      	ldr	r3, [r3, #28]
20020f32:	9200      	str	r2, [sp, #0]
20020f34:	9301      	str	r3, [sp, #4]
20020f36:	4668      	mov	r0, sp
20020f38:	f7ff ffd8 	bl	20020eec <shifted_ref(regbits::Shft<unsigned long, mcu::Timer::Prescale> const&)>
20020f3c:	b002      	add	sp, #8
20020f3e:	bd00      	pop	{pc}
20020f40:	2002184c 	.word	0x2002184c

20020f44 <call_shifted_global_ref()>:
20020f44:	b500      	push	{lr}
20020f46:	b082      	sub	sp, #8
20020f48:	4b04      	ldr	r3, [pc, #16]	; (20020f5c <call_shifted_global_ref()+0x18>)
20020f4a:	689a      	ldr	r2, [r3, #8]
20020f4c:	68db      	ldr	r3, [r3, #12]
20020f4e:	9200      	str	r2, [sp, #0]
20020f50:	9301      	str	r3, [sp, #4]
20020f52:	4668      	mov	r0, sp
20020f54:	f7ff ffca 	bl	20020eec <shifted_ref(regbits::Shft<unsigned long, mcu::Timer::Prescale> const&)>
20020f58:	b002      	add	sp, #8
20020f5a:	bd00      	pop	{pc}
20020f5c:	2002184c 	.word	0x2002184c

20020f60 <copy_bits_val(regbits::Copy<unsigned long, mcu::Serial::Config>)>:
20020f60:	0643      	lsls	r3, r0, #25
20020f62:	d403      	bmi.n	20020f6c <copy_bits_val(regbits::Copy<unsigned long, mcu::Serial::Config>)+0xc>
20020f64:	4b03      	ldr	r3, [pc, #12]	; (20020f74 <copy_bits_val(regbits::Copy<unsigned long, mcu::Serial::Config>)+0x14>)
20020f66:	2204      	movs	r2, #4
20020f68:	605a      	str	r2, [r3, #4]
20020f6a:	4770      	bx	lr
20020f6c:	4b01      	ldr	r3, [pc, #4]	; (20020f74 <copy_bits_val(regbits::Copy<unsigned long, mcu::Serial::Config>)+0x14>)
20020f6e:	2202      	movs	r2, #2
20020f70:	605a      	str	r2, [r3, #4]
20020f72:	e7fa      	b.n	20020f6a <copy_bits_val(regbits::Copy<unsigned long, mcu::Serial::Config>)+0xa>
20020f74:	200226c0 	.word	0x200226c0

20020f78 <call_copy_bits_val()>:
20020f78:	b500      	push	{lr}
20020f7a:	4b03      	ldr	r3, [pc, #12]	; (20020f88 <call_copy_bits_val()+0x10>)
20020f7c:	2240      	movs	r2, #64	; 0x40
20020f7e:	605a      	str	r2, [r3, #4]
20020f80:	6858      	ldr	r0, [r3, #4]
20020f82:	f7ff ffed 	bl	20020f60 <copy_bits_val(regbits::Copy<unsigned long, mcu::Serial::Config>)>
20020f86:	bd00      	pop	{pc}
20020f88:	200226c0 	.word	0x200226c0

20020f8c <copy_bits_ref(regbits::Copy<unsigned long, mcu::Serial::Config> const&)>:
20020f8c:	6803      	ldr	r3, [r0, #0]
20020f8e:	065b      	lsls	r3, r3, #25
20020f90:	d403      	bmi.n	20020f9a <copy_bits_ref(regbits::Copy<unsigned long, mcu::Serial::Config> const&)+0xe>
20020f92:	4b04      	ldr	r3, [pc, #16]	; (20020fa4 <copy_bits_ref(regbits::Copy<unsigned long, mcu::Serial::Config> const&)+0x18>)
20020f94:	2204      	movs	r2, #4
20020f96:	605a      	str	r2, [r3, #4]
20020f98:	4770      	bx	lr
20020f9a:	4b02      	ldr	r3, [pc, #8]	; (20020fa4 <copy_bits_ref(regbits::Copy<unsigned long, mcu::Serial::Config> const&)+0x18>)
20020f9c:	2202      	movs	r2, #2
20020f9e:	605a      	str	r2, [r3, #4]
20020fa0:	e7fa      	b.n	20020f98 <copy_bits_ref(regbits::Copy<unsigned long, mcu::Serial::Config> const&)+0xc>
20020fa2:	46c0      	nop			; (mov r8, r8)
20020fa4:	200226c0 	.word	0x200226c0

20020fa8 <call_copy_bits_ref()>:
20020fa8:	b500      	push	{lr}
20020faa:	b081      	sub	sp, #4
20020fac:	4b04      	ldr	r3, [pc, #16]	; (20020fc0 <call_copy_bits_ref()+0x18>)
20020fae:	2240      	movs	r2, #64	; 0x40
20020fb0:	605a      	str	r2, [r3, #4]
20020fb2:	685b      	ldr	r3, [r3, #4]
20020fb4:	9300      	str	r3, [sp, #0]
20020fb6:	4668      	mov	r0, sp
20020fb8:	f7ff ffe8 	bl	20020f8c <copy_bits_ref(regbits::Copy<unsigned long, mcu::Serial::Config> const&)>
20020fbc:	b001      	add	sp, #4
20020fbe:	bd00      	pop	{pc}
20020fc0:	200226c0 	.word	0x200226c0

20020fc4 <run>:
20020fc4:	b530      	push	{r4, r5, lr}
20020fc6:	4bf9      	ldr	r3, [pc, #996]	; (200213ac <run+0x3e8>)
20020fc8:	781b      	ldrb	r3, [r3, #0]
20020fca:	2b00      	cmp	r3, #0
20020fcc:	d104      	bne.n	20020fd8 <run+0x14>
20020fce:	4bf7      	ldr	r3, [pc, #988]	; (200213ac <run+0x3e8>)
20020fd0:	4af7      	ldr	r2, [pc, #988]	; (200213b0 <run+0x3ec>)
20020fd2:	609a      	str	r2, [r3, #8]
20020fd4:	2201      	movs	r2, #1
20020fd6:	701a      	strb	r2, [r3, #0]
20020fd8:	4bf4      	ldr	r3, [pc, #976]	; (200213ac <run+0x3e8>)
20020fda:	7b1b      	ldrb	r3, [r3, #12]
20020fdc:	2b00      	cmp	r3, #0
20020fde:	d104      	bne.n	20020fea <run+0x26>
20020fe0:	4bf2      	ldr	r3, [pc, #968]	; (200213ac <run+0x3e8>)
20020fe2:	4af4      	ldr	r2, [pc, #976]	; (200213b4 <run+0x3f0>)
20020fe4:	615a      	str	r2, [r3, #20]
20020fe6:	2201      	movs	r2, #1
20020fe8:	731a      	strb	r2, [r3, #12]
20020fea:	4bf0      	ldr	r3, [pc, #960]	; (200213ac <run+0x3e8>)
20020fec:	7e1b      	ldrb	r3, [r3, #24]
20020fee:	2b00      	cmp	r3, #0
20020ff0:	d104      	bne.n	20020ffc <run+0x38>
20020ff2:	4bee      	ldr	r3, [pc, #952]	; (200213ac <run+0x3e8>)
20020ff4:	4af0      	ldr	r2, [pc, #960]	; (200213b8 <run+0x3f4>)
20020ff6:	621a      	str	r2, [r3, #32]
20020ff8:	2201      	movs	r2, #1
20020ffa:	761a      	strb	r2, [r3, #24]
20020ffc:	4aeb      	ldr	r2, [pc, #940]	; (200213ac <run+0x3e8>)
20020ffe:	2324      	movs	r3, #36	; 0x24
20021000:	5cd3      	ldrb	r3, [r2, r3]
20021002:	2b00      	cmp	r3, #0
20021004:	d105      	bne.n	20021012 <run+0x4e>
20021006:	0013      	movs	r3, r2
20021008:	4aec      	ldr	r2, [pc, #944]	; (200213bc <run+0x3f8>)
2002100a:	62da      	str	r2, [r3, #44]	; 0x2c
2002100c:	2224      	movs	r2, #36	; 0x24
2002100e:	2101      	movs	r1, #1
20021010:	5499      	strb	r1, [r3, r2]
20021012:	4ce6      	ldr	r4, [pc, #920]	; (200213ac <run+0x3e8>)
20021014:	2200      	movs	r2, #0
20021016:	68a1      	ldr	r1, [r4, #8]
20021018:	48e9      	ldr	r0, [pc, #932]	; (200213c0 <run+0x3fc>)
2002101a:	f000 fb3b 	bl	20021694 <do_test>
2002101e:	2201      	movs	r2, #1
20021020:	68a1      	ldr	r1, [r4, #8]
20021022:	48e8      	ldr	r0, [pc, #928]	; (200213c4 <run+0x400>)
20021024:	f000 fb36 	bl	20021694 <do_test>
20021028:	2202      	movs	r2, #2
2002102a:	68a1      	ldr	r1, [r4, #8]
2002102c:	48e6      	ldr	r0, [pc, #920]	; (200213c8 <run+0x404>)
2002102e:	f000 fb31 	bl	20021694 <do_test>
20021032:	2203      	movs	r2, #3
20021034:	68a1      	ldr	r1, [r4, #8]
20021036:	48e5      	ldr	r0, [pc, #916]	; (200213cc <run+0x408>)
20021038:	f000 fb2c 	bl	20021694 <do_test>
2002103c:	2204      	movs	r2, #4
2002103e:	68a1      	ldr	r1, [r4, #8]
20021040:	48e3      	ldr	r0, [pc, #908]	; (200213d0 <run+0x40c>)
20021042:	f000 fb27 	bl	20021694 <do_test>
20021046:	2205      	movs	r2, #5
20021048:	68a1      	ldr	r1, [r4, #8]
2002104a:	48e2      	ldr	r0, [pc, #904]	; (200213d4 <run+0x410>)
2002104c:	f000 fb22 	bl	20021694 <do_test>
20021050:	2206      	movs	r2, #6
20021052:	68a1      	ldr	r1, [r4, #8]
20021054:	48e0      	ldr	r0, [pc, #896]	; (200213d8 <run+0x414>)
20021056:	f000 fb1d 	bl	20021694 <do_test>
2002105a:	2207      	movs	r2, #7
2002105c:	68a1      	ldr	r1, [r4, #8]
2002105e:	48df      	ldr	r0, [pc, #892]	; (200213dc <run+0x418>)
20021060:	f000 fb18 	bl	20021694 <do_test>
20021064:	2208      	movs	r2, #8
20021066:	68a1      	ldr	r1, [r4, #8]
20021068:	48dd      	ldr	r0, [pc, #884]	; (200213e0 <run+0x41c>)
2002106a:	f000 fb13 	bl	20021694 <do_test>
2002106e:	2209      	movs	r2, #9
20021070:	68a1      	ldr	r1, [r4, #8]
20021072:	48dc      	ldr	r0, [pc, #880]	; (200213e4 <run+0x420>)
20021074:	f000 fb0e 	bl	20021694 <do_test>
20021078:	220a      	movs	r2, #10
2002107a:	68a1      	ldr	r1, [r4, #8]
2002107c:	48da      	ldr	r0, [pc, #872]	; (200213e8 <run+0x424>)
2002107e:	f000 fb09 	bl	20021694 <do_test>
20021082:	220b      	movs	r2, #11
20021084:	68a1      	ldr	r1, [r4, #8]
20021086:	48d9      	ldr	r0, [pc, #868]	; (200213ec <run+0x428>)
20021088:	f000 fb04 	bl	20021694 <do_test>
2002108c:	220c      	movs	r2, #12
2002108e:	68a1      	ldr	r1, [r4, #8]
20021090:	48d7      	ldr	r0, [pc, #860]	; (200213f0 <run+0x42c>)
20021092:	f000 faff 	bl	20021694 <do_test>
20021096:	220d      	movs	r2, #13
20021098:	68a1      	ldr	r1, [r4, #8]
2002109a:	48d6      	ldr	r0, [pc, #856]	; (200213f4 <run+0x430>)
2002109c:	f000 fafa 	bl	20021694 <do_test>
200210a0:	220e      	movs	r2, #14
200210a2:	68a1      	ldr	r1, [r4, #8]
200210a4:	48d4      	ldr	r0, [pc, #848]	; (200213f8 <run+0x434>)
200210a6:	f000 faf5 	bl	20021694 <do_test>
200210aa:	220f      	movs	r2, #15
200210ac:	68a1      	ldr	r1, [r4, #8]
200210ae:	48d3      	ldr	r0, [pc, #844]	; (200213fc <run+0x438>)
200210b0:	f000 faf0 	bl	20021694 <do_test>
200210b4:	2210      	movs	r2, #16
200210b6:	68a1      	ldr	r1, [r4, #8]
200210b8:	48d1      	ldr	r0, [pc, #836]	; (20021400 <run+0x43c>)
200210ba:	f000 faeb 	bl	20021694 <do_test>
200210be:	2211      	movs	r2, #17
200210c0:	68a1      	ldr	r1, [r4, #8]
200210c2:	48d0      	ldr	r0, [pc, #832]	; (20021404 <run+0x440>)
200210c4:	f000 fae6 	bl	20021694 <do_test>
200210c8:	2212      	movs	r2, #18
200210ca:	68a1      	ldr	r1, [r4, #8]
200210cc:	48ce      	ldr	r0, [pc, #824]	; (20021408 <run+0x444>)
200210ce:	f000 fae1 	bl	20021694 <do_test>
200210d2:	2213      	movs	r2, #19
200210d4:	68a1      	ldr	r1, [r4, #8]
200210d6:	48cd      	ldr	r0, [pc, #820]	; (2002140c <run+0x448>)
200210d8:	f000 fadc 	bl	20021694 <do_test>
200210dc:	2214      	movs	r2, #20
200210de:	68a1      	ldr	r1, [r4, #8]
200210e0:	48cb      	ldr	r0, [pc, #812]	; (20021410 <run+0x44c>)
200210e2:	f000 fad7 	bl	20021694 <do_test>
200210e6:	2215      	movs	r2, #21
200210e8:	68a1      	ldr	r1, [r4, #8]
200210ea:	48ca      	ldr	r0, [pc, #808]	; (20021414 <run+0x450>)
200210ec:	f000 fad2 	bl	20021694 <do_test>
200210f0:	2216      	movs	r2, #22
200210f2:	68a1      	ldr	r1, [r4, #8]
200210f4:	48c8      	ldr	r0, [pc, #800]	; (20021418 <run+0x454>)
200210f6:	f000 facd 	bl	20021694 <do_test>
200210fa:	2217      	movs	r2, #23
200210fc:	68a1      	ldr	r1, [r4, #8]
200210fe:	48c7      	ldr	r0, [pc, #796]	; (2002141c <run+0x458>)
20021100:	f000 fac8 	bl	20021694 <do_test>
20021104:	2218      	movs	r2, #24
20021106:	68a1      	ldr	r1, [r4, #8]
20021108:	48c5      	ldr	r0, [pc, #788]	; (20021420 <run+0x45c>)
2002110a:	f000 fac3 	bl	20021694 <do_test>
2002110e:	2219      	movs	r2, #25
20021110:	68a1      	ldr	r1, [r4, #8]
20021112:	48c4      	ldr	r0, [pc, #784]	; (20021424 <run+0x460>)
20021114:	f000 fabe 	bl	20021694 <do_test>
20021118:	221a      	movs	r2, #26
2002111a:	68a1      	ldr	r1, [r4, #8]
2002111c:	48c2      	ldr	r0, [pc, #776]	; (20021428 <run+0x464>)
2002111e:	f000 fab9 	bl	20021694 <do_test>
20021122:	221b      	movs	r2, #27
20021124:	68a1      	ldr	r1, [r4, #8]
20021126:	48c1      	ldr	r0, [pc, #772]	; (2002142c <run+0x468>)
20021128:	f000 fab4 	bl	20021694 <do_test>
2002112c:	221c      	movs	r2, #28
2002112e:	68a1      	ldr	r1, [r4, #8]
20021130:	48bf      	ldr	r0, [pc, #764]	; (20021430 <run+0x46c>)
20021132:	f000 faaf 	bl	20021694 <do_test>
20021136:	221d      	movs	r2, #29
20021138:	68a1      	ldr	r1, [r4, #8]
2002113a:	48be      	ldr	r0, [pc, #760]	; (20021434 <run+0x470>)
2002113c:	f000 faaa 	bl	20021694 <do_test>
20021140:	221e      	movs	r2, #30
20021142:	68a1      	ldr	r1, [r4, #8]
20021144:	48bc      	ldr	r0, [pc, #752]	; (20021438 <run+0x474>)
20021146:	f000 faa5 	bl	20021694 <do_test>
2002114a:	221f      	movs	r2, #31
2002114c:	68a1      	ldr	r1, [r4, #8]
2002114e:	48bb      	ldr	r0, [pc, #748]	; (2002143c <run+0x478>)
20021150:	f000 faa0 	bl	20021694 <do_test>
20021154:	2220      	movs	r2, #32
20021156:	68a1      	ldr	r1, [r4, #8]
20021158:	48b9      	ldr	r0, [pc, #740]	; (20021440 <run+0x47c>)
2002115a:	f000 fa9b 	bl	20021694 <do_test>
2002115e:	2221      	movs	r2, #33	; 0x21
20021160:	68a1      	ldr	r1, [r4, #8]
20021162:	48b8      	ldr	r0, [pc, #736]	; (20021444 <run+0x480>)
20021164:	f000 fa96 	bl	20021694 <do_test>
20021168:	2222      	movs	r2, #34	; 0x22
2002116a:	68a1      	ldr	r1, [r4, #8]
2002116c:	48b6      	ldr	r0, [pc, #728]	; (20021448 <run+0x484>)
2002116e:	f000 fa91 	bl	20021694 <do_test>
20021172:	2223      	movs	r2, #35	; 0x23
20021174:	68a1      	ldr	r1, [r4, #8]
20021176:	48b5      	ldr	r0, [pc, #724]	; (2002144c <run+0x488>)
20021178:	f000 fa8c 	bl	20021694 <do_test>
2002117c:	2224      	movs	r2, #36	; 0x24
2002117e:	68a1      	ldr	r1, [r4, #8]
20021180:	48b3      	ldr	r0, [pc, #716]	; (20021450 <run+0x48c>)
20021182:	f000 fa87 	bl	20021694 <do_test>
20021186:	2225      	movs	r2, #37	; 0x25
20021188:	6961      	ldr	r1, [r4, #20]
2002118a:	48b2      	ldr	r0, [pc, #712]	; (20021454 <run+0x490>)
2002118c:	f000 fa82 	bl	20021694 <do_test>
20021190:	2226      	movs	r2, #38	; 0x26
20021192:	6961      	ldr	r1, [r4, #20]
20021194:	48b0      	ldr	r0, [pc, #704]	; (20021458 <run+0x494>)
20021196:	f000 fa7d 	bl	20021694 <do_test>
2002119a:	2227      	movs	r2, #39	; 0x27
2002119c:	6961      	ldr	r1, [r4, #20]
2002119e:	48af      	ldr	r0, [pc, #700]	; (2002145c <run+0x498>)
200211a0:	f000 fa78 	bl	20021694 <do_test>
200211a4:	2228      	movs	r2, #40	; 0x28
200211a6:	68a1      	ldr	r1, [r4, #8]
200211a8:	48ad      	ldr	r0, [pc, #692]	; (20021460 <run+0x49c>)
200211aa:	f000 fa73 	bl	20021694 <do_test>
200211ae:	2229      	movs	r2, #41	; 0x29
200211b0:	68a1      	ldr	r1, [r4, #8]
200211b2:	48ac      	ldr	r0, [pc, #688]	; (20021464 <run+0x4a0>)
200211b4:	f000 fa6e 	bl	20021694 <do_test>
200211b8:	222a      	movs	r2, #42	; 0x2a
200211ba:	68a1      	ldr	r1, [r4, #8]
200211bc:	48aa      	ldr	r0, [pc, #680]	; (20021468 <run+0x4a4>)
200211be:	f000 fa69 	bl	20021694 <do_test>
200211c2:	222b      	movs	r2, #43	; 0x2b
200211c4:	68a1      	ldr	r1, [r4, #8]
200211c6:	48a9      	ldr	r0, [pc, #676]	; (2002146c <run+0x4a8>)
200211c8:	f000 fa64 	bl	20021694 <do_test>
200211cc:	222c      	movs	r2, #44	; 0x2c
200211ce:	68a1      	ldr	r1, [r4, #8]
200211d0:	48a7      	ldr	r0, [pc, #668]	; (20021470 <run+0x4ac>)
200211d2:	f000 fa5f 	bl	20021694 <do_test>
200211d6:	222d      	movs	r2, #45	; 0x2d
200211d8:	6ae1      	ldr	r1, [r4, #44]	; 0x2c
200211da:	48a6      	ldr	r0, [pc, #664]	; (20021474 <run+0x4b0>)
200211dc:	f000 fa5a 	bl	20021694 <do_test>
200211e0:	222e      	movs	r2, #46	; 0x2e
200211e2:	68a1      	ldr	r1, [r4, #8]
200211e4:	48a4      	ldr	r0, [pc, #656]	; (20021478 <run+0x4b4>)
200211e6:	f000 fa55 	bl	20021694 <do_test>
200211ea:	222f      	movs	r2, #47	; 0x2f
200211ec:	68a1      	ldr	r1, [r4, #8]
200211ee:	48a3      	ldr	r0, [pc, #652]	; (2002147c <run+0x4b8>)
200211f0:	f000 fa50 	bl	20021694 <do_test>
200211f4:	2230      	movs	r2, #48	; 0x30
200211f6:	68a1      	ldr	r1, [r4, #8]
200211f8:	48a1      	ldr	r0, [pc, #644]	; (20021480 <run+0x4bc>)
200211fa:	f000 fa4b 	bl	20021694 <do_test>
200211fe:	2231      	movs	r2, #49	; 0x31
20021200:	68a1      	ldr	r1, [r4, #8]
20021202:	48a0      	ldr	r0, [pc, #640]	; (20021484 <run+0x4c0>)
20021204:	f000 fa46 	bl	20021694 <do_test>
20021208:	2232      	movs	r2, #50	; 0x32
2002120a:	68a1      	ldr	r1, [r4, #8]
2002120c:	489e      	ldr	r0, [pc, #632]	; (20021488 <run+0x4c4>)
2002120e:	f000 fa41 	bl	20021694 <do_test>
20021212:	2233      	movs	r2, #51	; 0x33
20021214:	68a1      	ldr	r1, [r4, #8]
20021216:	489d      	ldr	r0, [pc, #628]	; (2002148c <run+0x4c8>)
20021218:	f000 fa3c 	bl	20021694 <do_test>
2002121c:	2234      	movs	r2, #52	; 0x34
2002121e:	68a1      	ldr	r1, [r4, #8]
20021220:	489b      	ldr	r0, [pc, #620]	; (20021490 <run+0x4cc>)
20021222:	f000 fa37 	bl	20021694 <do_test>
20021226:	2235      	movs	r2, #53	; 0x35
20021228:	68a1      	ldr	r1, [r4, #8]
2002122a:	489a      	ldr	r0, [pc, #616]	; (20021494 <run+0x4d0>)
2002122c:	f000 fa32 	bl	20021694 <do_test>
20021230:	2236      	movs	r2, #54	; 0x36
20021232:	68a1      	ldr	r1, [r4, #8]
20021234:	4898      	ldr	r0, [pc, #608]	; (20021498 <run+0x4d4>)
20021236:	f000 fa2d 	bl	20021694 <do_test>
2002123a:	2237      	movs	r2, #55	; 0x37
2002123c:	68a1      	ldr	r1, [r4, #8]
2002123e:	4897      	ldr	r0, [pc, #604]	; (2002149c <run+0x4d8>)
20021240:	f000 fa28 	bl	20021694 <do_test>
20021244:	2238      	movs	r2, #56	; 0x38
20021246:	68a1      	ldr	r1, [r4, #8]
20021248:	4895      	ldr	r0, [pc, #596]	; (200214a0 <run+0x4dc>)
2002124a:	f000 fa23 	bl	20021694 <do_test>
2002124e:	2239      	movs	r2, #57	; 0x39
20021250:	68a1      	ldr	r1, [r4, #8]
20021252:	4894      	ldr	r0, [pc, #592]	; (200214a4 <run+0x4e0>)
20021254:	f000 fa1e 	bl	20021694 <do_test>
20021258:	223a      	movs	r2, #58	; 0x3a
2002125a:	68a1      	ldr	r1, [r4, #8]
2002125c:	4892      	ldr	r0, [pc, #584]	; (200214a8 <run+0x4e4>)
2002125e:	f000 fa19 	bl	20021694 <do_test>
20021262:	223b      	movs	r2, #59	; 0x3b
20021264:	68a1      	ldr	r1, [r4, #8]
20021266:	4891      	ldr	r0, [pc, #580]	; (200214ac <run+0x4e8>)
20021268:	f000 fa14 	bl	20021694 <do_test>
2002126c:	223c      	movs	r2, #60	; 0x3c
2002126e:	68a1      	ldr	r1, [r4, #8]
20021270:	488f      	ldr	r0, [pc, #572]	; (200214b0 <run+0x4ec>)
20021272:	f000 fa0f 	bl	20021694 <do_test>
20021276:	223d      	movs	r2, #61	; 0x3d
20021278:	68a1      	ldr	r1, [r4, #8]
2002127a:	488e      	ldr	r0, [pc, #568]	; (200214b4 <run+0x4f0>)
2002127c:	f000 fa0a 	bl	20021694 <do_test>
20021280:	223e      	movs	r2, #62	; 0x3e
20021282:	68a1      	ldr	r1, [r4, #8]
20021284:	488c      	ldr	r0, [pc, #560]	; (200214b8 <run+0x4f4>)
20021286:	f000 fa05 	bl	20021694 <do_test>
2002128a:	223f      	movs	r2, #63	; 0x3f
2002128c:	68a1      	ldr	r1, [r4, #8]
2002128e:	488b      	ldr	r0, [pc, #556]	; (200214bc <run+0x4f8>)
20021290:	f000 fa00 	bl	20021694 <do_test>
20021294:	2240      	movs	r2, #64	; 0x40
20021296:	6961      	ldr	r1, [r4, #20]
20021298:	4889      	ldr	r0, [pc, #548]	; (200214c0 <run+0x4fc>)
2002129a:	f000 f9fb 	bl	20021694 <do_test>
2002129e:	2241      	movs	r2, #65	; 0x41
200212a0:	6961      	ldr	r1, [r4, #20]
200212a2:	4888      	ldr	r0, [pc, #544]	; (200214c4 <run+0x500>)
200212a4:	f000 f9f6 	bl	20021694 <do_test>
200212a8:	2242      	movs	r2, #66	; 0x42
200212aa:	6961      	ldr	r1, [r4, #20]
200212ac:	4886      	ldr	r0, [pc, #536]	; (200214c8 <run+0x504>)
200212ae:	f000 f9f1 	bl	20021694 <do_test>
200212b2:	2243      	movs	r2, #67	; 0x43
200212b4:	68a1      	ldr	r1, [r4, #8]
200212b6:	4885      	ldr	r0, [pc, #532]	; (200214cc <run+0x508>)
200212b8:	f000 f9ec 	bl	20021694 <do_test>
200212bc:	2244      	movs	r2, #68	; 0x44
200212be:	6a21      	ldr	r1, [r4, #32]
200212c0:	4883      	ldr	r0, [pc, #524]	; (200214d0 <run+0x50c>)
200212c2:	f000 f9e7 	bl	20021694 <do_test>
200212c6:	2245      	movs	r2, #69	; 0x45
200212c8:	6a21      	ldr	r1, [r4, #32]
200212ca:	4882      	ldr	r0, [pc, #520]	; (200214d4 <run+0x510>)
200212cc:	f000 f9e2 	bl	20021694 <do_test>
200212d0:	2246      	movs	r2, #70	; 0x46
200212d2:	68a1      	ldr	r1, [r4, #8]
200212d4:	4880      	ldr	r0, [pc, #512]	; (200214d8 <run+0x514>)
200212d6:	f000 f9dd 	bl	20021694 <do_test>
200212da:	2247      	movs	r2, #71	; 0x47
200212dc:	68a1      	ldr	r1, [r4, #8]
200212de:	487f      	ldr	r0, [pc, #508]	; (200214dc <run+0x518>)
200212e0:	f000 f9d8 	bl	20021694 <do_test>
200212e4:	2248      	movs	r2, #72	; 0x48
200212e6:	6a21      	ldr	r1, [r4, #32]
200212e8:	487d      	ldr	r0, [pc, #500]	; (200214e0 <run+0x51c>)
200212ea:	f000 f9d3 	bl	20021694 <do_test>
200212ee:	2249      	movs	r2, #73	; 0x49
200212f0:	6a21      	ldr	r1, [r4, #32]
200212f2:	487c      	ldr	r0, [pc, #496]	; (200214e4 <run+0x520>)
200212f4:	f000 f9ce 	bl	20021694 <do_test>
200212f8:	224a      	movs	r2, #74	; 0x4a
200212fa:	68a1      	ldr	r1, [r4, #8]
200212fc:	487a      	ldr	r0, [pc, #488]	; (200214e8 <run+0x524>)
200212fe:	f000 f9c9 	bl	20021694 <do_test>
20021302:	224b      	movs	r2, #75	; 0x4b
20021304:	68a1      	ldr	r1, [r4, #8]
20021306:	4879      	ldr	r0, [pc, #484]	; (200214ec <run+0x528>)
20021308:	f000 f9c4 	bl	20021694 <do_test>
2002130c:	224c      	movs	r2, #76	; 0x4c
2002130e:	68a1      	ldr	r1, [r4, #8]
20021310:	4877      	ldr	r0, [pc, #476]	; (200214f0 <run+0x52c>)
20021312:	f000 f9bf 	bl	20021694 <do_test>
20021316:	224d      	movs	r2, #77	; 0x4d
20021318:	68a1      	ldr	r1, [r4, #8]
2002131a:	4876      	ldr	r0, [pc, #472]	; (200214f4 <run+0x530>)
2002131c:	f000 f9ba 	bl	20021694 <do_test>
20021320:	224e      	movs	r2, #78	; 0x4e
20021322:	68a1      	ldr	r1, [r4, #8]
20021324:	4874      	ldr	r0, [pc, #464]	; (200214f8 <run+0x534>)
20021326:	f000 f9b5 	bl	20021694 <do_test>
2002132a:	224f      	movs	r2, #79	; 0x4f
2002132c:	68a1      	ldr	r1, [r4, #8]
2002132e:	4873      	ldr	r0, [pc, #460]	; (200214fc <run+0x538>)
20021330:	f000 f9b0 	bl	20021694 <do_test>
20021334:	4d72      	ldr	r5, [pc, #456]	; (20021500 <run+0x53c>)
20021336:	2250      	movs	r2, #80	; 0x50
20021338:	68a1      	ldr	r1, [r4, #8]
2002133a:	0028      	movs	r0, r5
2002133c:	f000 f9aa 	bl	20021694 <do_test>
20021340:	2251      	movs	r2, #81	; 0x51
20021342:	68a1      	ldr	r1, [r4, #8]
20021344:	0028      	movs	r0, r5
20021346:	f000 f9a5 	bl	20021694 <do_test>
2002134a:	2252      	movs	r2, #82	; 0x52
2002134c:	68a1      	ldr	r1, [r4, #8]
2002134e:	486d      	ldr	r0, [pc, #436]	; (20021504 <run+0x540>)
20021350:	f000 f9a0 	bl	20021694 <do_test>
20021354:	2253      	movs	r2, #83	; 0x53
20021356:	68a1      	ldr	r1, [r4, #8]
20021358:	486b      	ldr	r0, [pc, #428]	; (20021508 <run+0x544>)
2002135a:	f000 f99b 	bl	20021694 <do_test>
2002135e:	2254      	movs	r2, #84	; 0x54
20021360:	68a1      	ldr	r1, [r4, #8]
20021362:	486a      	ldr	r0, [pc, #424]	; (2002150c <run+0x548>)
20021364:	f000 f996 	bl	20021694 <do_test>
20021368:	4d69      	ldr	r5, [pc, #420]	; (20021510 <run+0x54c>)
2002136a:	2255      	movs	r2, #85	; 0x55
2002136c:	68a1      	ldr	r1, [r4, #8]
2002136e:	0028      	movs	r0, r5
20021370:	f000 f990 	bl	20021694 <do_test>
20021374:	2256      	movs	r2, #86	; 0x56
20021376:	68a1      	ldr	r1, [r4, #8]
20021378:	4866      	ldr	r0, [pc, #408]	; (20021514 <run+0x550>)
2002137a:	f000 f98b 	bl	20021694 <do_test>
2002137e:	2257      	movs	r2, #87	; 0x57
20021380:	68a1      	ldr	r1, [r4, #8]
20021382:	0028      	movs	r0, r5
20021384:	f000 f986 	bl	20021694 <do_test>
20021388:	2258      	movs	r2, #88	; 0x58
2002138a:	68a1      	ldr	r1, [r4, #8]
2002138c:	4862      	ldr	r0, [pc, #392]	; (20021518 <run+0x554>)
2002138e:	f000 f981 	bl	20021694 <do_test>
20021392:	2259      	movs	r2, #89	; 0x59
20021394:	68a1      	ldr	r1, [r4, #8]
20021396:	4861      	ldr	r0, [pc, #388]	; (2002151c <run+0x558>)
20021398:	f000 f97c 	bl	20021694 <do_test>
2002139c:	225a      	movs	r2, #90	; 0x5a
2002139e:	6a21      	ldr	r1, [r4, #32]
200213a0:	485f      	ldr	r0, [pc, #380]	; (20021520 <run+0x55c>)
200213a2:	f000 f977 	bl	20021694 <do_test>
200213a6:	225b      	movs	r2, #91	; 0x5b
200213a8:	6a21      	ldr	r1, [r4, #32]
200213aa:	e0bb      	b.n	20021524 <run+0x560>
200213ac:	2002186c 	.word	0x2002186c
200213b0:	200226c4 	.word	0x200226c4
200213b4:	20022624 	.word	0x20022624
200213b8:	2002252c 	.word	0x2002252c
200213bc:	200225a0 	.word	0x200225a0
200213c0:	200201f1 	.word	0x200201f1
200213c4:	200201fd 	.word	0x200201fd
200213c8:	20020209 	.word	0x20020209
200213cc:	20020219 	.word	0x20020219
200213d0:	20020229 	.word	0x20020229
200213d4:	20020239 	.word	0x20020239
200213d8:	20020249 	.word	0x20020249
200213dc:	20020259 	.word	0x20020259
200213e0:	20020269 	.word	0x20020269
200213e4:	20020279 	.word	0x20020279
200213e8:	20020289 	.word	0x20020289
200213ec:	20020295 	.word	0x20020295
200213f0:	200202a1 	.word	0x200202a1
200213f4:	200202ad 	.word	0x200202ad
200213f8:	200202b9 	.word	0x200202b9
200213fc:	200202c9 	.word	0x200202c9
20021400:	200202d9 	.word	0x200202d9
20021404:	200202e9 	.word	0x200202e9
20021408:	200202f9 	.word	0x200202f9
2002140c:	2002030d 	.word	0x2002030d
20021410:	20020321 	.word	0x20020321
20021414:	20020331 	.word	0x20020331
20021418:	20020341 	.word	0x20020341
2002141c:	2002035d 	.word	0x2002035d
20021420:	20020379 	.word	0x20020379
20021424:	20020385 	.word	0x20020385
20021428:	20020391 	.word	0x20020391
2002142c:	200203a1 	.word	0x200203a1
20021430:	200203b1 	.word	0x200203b1
20021434:	200203bd 	.word	0x200203bd
20021438:	200203c9 	.word	0x200203c9
2002143c:	200203d5 	.word	0x200203d5
20021440:	200203e1 	.word	0x200203e1
20021444:	200203f1 	.word	0x200203f1
20021448:	20020405 	.word	0x20020405
2002144c:	2002042d 	.word	0x2002042d
20021450:	2002044d 	.word	0x2002044d
20021454:	20020475 	.word	0x20020475
20021458:	20020495 	.word	0x20020495
2002145c:	200204c1 	.word	0x200204c1
20021460:	200204ed 	.word	0x200204ed
20021464:	20020535 	.word	0x20020535
20021468:	2002056d 	.word	0x2002056d
2002146c:	20020595 	.word	0x20020595
20021470:	200205b5 	.word	0x200205b5
20021474:	200205c9 	.word	0x200205c9
20021478:	20020a07 	.word	0x20020a07
2002147c:	200209fd 	.word	0x200209fd
20021480:	20020a3f 	.word	0x20020a3f
20021484:	20020a2d 	.word	0x20020a2d
20021488:	20020a81 	.word	0x20020a81
2002148c:	20020a75 	.word	0x20020a75
20021490:	20020ac9 	.word	0x20020ac9
20021494:	20020aad 	.word	0x20020aad
20021498:	20020aff 	.word	0x20020aff
2002149c:	20020b15 	.word	0x20020b15
200214a0:	20020b2d 	.word	0x20020b2d
200214a4:	20020b47 	.word	0x20020b47
200214a8:	20020b6b 	.word	0x20020b6b
200214ac:	20020b93 	.word	0x20020b93
200214b0:	20020bab 	.word	0x20020bab
200214b4:	20020bc7 	.word	0x20020bc7
200214b8:	20020be3 	.word	0x20020be3
200214bc:	20020bff 	.word	0x20020bff
200214c0:	20020c15 	.word	0x20020c15
200214c4:	20020c43 	.word	0x20020c43
200214c8:	20020c89 	.word	0x20020c89
200214cc:	20020cb9 	.word	0x20020cb9
200214d0:	20020d01 	.word	0x20020d01
200214d4:	20020d41 	.word	0x20020d41
200214d8:	20020d8d 	.word	0x20020d8d
200214dc:	20020db9 	.word	0x20020db9
200214e0:	200205f5 	.word	0x200205f5
200214e4:	20020611 	.word	0x20020611
200214e8:	2002062d 	.word	0x2002062d
200214ec:	20020661 	.word	0x20020661
200214f0:	2002069d 	.word	0x2002069d
200214f4:	200206cd 	.word	0x200206cd
200214f8:	20020715 	.word	0x20020715
200214fc:	20020721 	.word	0x20020721
20021500:	2002072d 	.word	0x2002072d
20021504:	2002074d 	.word	0x2002074d
20021508:	2002076d 	.word	0x2002076d
2002150c:	2002078d 	.word	0x2002078d
20021510:	200207b9 	.word	0x200207b9
20021514:	200207e1 	.word	0x200207e1
20021518:	2002080d 	.word	0x2002080d
2002151c:	2002081d 	.word	0x2002081d
20021520:	20020831 	.word	0x20020831
20021524:	483d      	ldr	r0, [pc, #244]	; (2002161c <run+0x658>)
20021526:	f000 f8b5 	bl	20021694 <do_test>
2002152a:	225c      	movs	r2, #92	; 0x5c
2002152c:	68a1      	ldr	r1, [r4, #8]
2002152e:	483c      	ldr	r0, [pc, #240]	; (20021620 <run+0x65c>)
20021530:	f000 f8b0 	bl	20021694 <do_test>
20021534:	225d      	movs	r2, #93	; 0x5d
20021536:	6a21      	ldr	r1, [r4, #32]
20021538:	483a      	ldr	r0, [pc, #232]	; (20021624 <run+0x660>)
2002153a:	f000 f8ab 	bl	20021694 <do_test>
2002153e:	225e      	movs	r2, #94	; 0x5e
20021540:	6a21      	ldr	r1, [r4, #32]
20021542:	4839      	ldr	r0, [pc, #228]	; (20021628 <run+0x664>)
20021544:	f000 f8a6 	bl	20021694 <do_test>
20021548:	225f      	movs	r2, #95	; 0x5f
2002154a:	68a1      	ldr	r1, [r4, #8]
2002154c:	4837      	ldr	r0, [pc, #220]	; (2002162c <run+0x668>)
2002154e:	f000 f8a1 	bl	20021694 <do_test>
20021552:	2260      	movs	r2, #96	; 0x60
20021554:	68a1      	ldr	r1, [r4, #8]
20021556:	4836      	ldr	r0, [pc, #216]	; (20021630 <run+0x66c>)
20021558:	f000 f89c 	bl	20021694 <do_test>
2002155c:	2261      	movs	r2, #97	; 0x61
2002155e:	68a1      	ldr	r1, [r4, #8]
20021560:	4834      	ldr	r0, [pc, #208]	; (20021634 <run+0x670>)
20021562:	f000 f897 	bl	20021694 <do_test>
20021566:	2262      	movs	r2, #98	; 0x62
20021568:	68a1      	ldr	r1, [r4, #8]
2002156a:	4833      	ldr	r0, [pc, #204]	; (20021638 <run+0x674>)
2002156c:	f000 f892 	bl	20021694 <do_test>
20021570:	2263      	movs	r2, #99	; 0x63
20021572:	6a21      	ldr	r1, [r4, #32]
20021574:	4831      	ldr	r0, [pc, #196]	; (2002163c <run+0x678>)
20021576:	f000 f88d 	bl	20021694 <do_test>
2002157a:	2264      	movs	r2, #100	; 0x64
2002157c:	6a21      	ldr	r1, [r4, #32]
2002157e:	4830      	ldr	r0, [pc, #192]	; (20021640 <run+0x67c>)
20021580:	f000 f888 	bl	20021694 <do_test>
20021584:	2265      	movs	r2, #101	; 0x65
20021586:	6a21      	ldr	r1, [r4, #32]
20021588:	482e      	ldr	r0, [pc, #184]	; (20021644 <run+0x680>)
2002158a:	f000 f883 	bl	20021694 <do_test>
2002158e:	2266      	movs	r2, #102	; 0x66
20021590:	6a21      	ldr	r1, [r4, #32]
20021592:	482d      	ldr	r0, [pc, #180]	; (20021648 <run+0x684>)
20021594:	f000 f87e 	bl	20021694 <do_test>
20021598:	2267      	movs	r2, #103	; 0x67
2002159a:	6a21      	ldr	r1, [r4, #32]
2002159c:	482b      	ldr	r0, [pc, #172]	; (2002164c <run+0x688>)
2002159e:	f000 f879 	bl	20021694 <do_test>
200215a2:	2268      	movs	r2, #104	; 0x68
200215a4:	6a21      	ldr	r1, [r4, #32]
200215a6:	482a      	ldr	r0, [pc, #168]	; (20021650 <run+0x68c>)
200215a8:	f000 f874 	bl	20021694 <do_test>
200215ac:	2269      	movs	r2, #105	; 0x69
200215ae:	68a1      	ldr	r1, [r4, #8]
200215b0:	4828      	ldr	r0, [pc, #160]	; (20021654 <run+0x690>)
200215b2:	f000 f86f 	bl	20021694 <do_test>
200215b6:	226a      	movs	r2, #106	; 0x6a
200215b8:	68a1      	ldr	r1, [r4, #8]
200215ba:	4827      	ldr	r0, [pc, #156]	; (20021658 <run+0x694>)
200215bc:	f000 f86a 	bl	20021694 <do_test>
200215c0:	226b      	movs	r2, #107	; 0x6b
200215c2:	68a1      	ldr	r1, [r4, #8]
200215c4:	4825      	ldr	r0, [pc, #148]	; (2002165c <run+0x698>)
200215c6:	f000 f865 	bl	20021694 <do_test>
200215ca:	226c      	movs	r2, #108	; 0x6c
200215cc:	68a1      	ldr	r1, [r4, #8]
200215ce:	4824      	ldr	r0, [pc, #144]	; (20021660 <run+0x69c>)
200215d0:	f000 f860 	bl	20021694 <do_test>
200215d4:	226d      	movs	r2, #109	; 0x6d
200215d6:	68a1      	ldr	r1, [r4, #8]
200215d8:	4822      	ldr	r0, [pc, #136]	; (20021664 <run+0x6a0>)
200215da:	f000 f85b 	bl	20021694 <do_test>
200215de:	226e      	movs	r2, #110	; 0x6e
200215e0:	68a1      	ldr	r1, [r4, #8]
200215e2:	4821      	ldr	r0, [pc, #132]	; (20021668 <run+0x6a4>)
200215e4:	f000 f856 	bl	20021694 <do_test>
200215e8:	226f      	movs	r2, #111	; 0x6f
200215ea:	68a1      	ldr	r1, [r4, #8]
200215ec:	481f      	ldr	r0, [pc, #124]	; (2002166c <run+0x6a8>)
200215ee:	f000 f851 	bl	20021694 <do_test>
200215f2:	2270      	movs	r2, #112	; 0x70
200215f4:	68a1      	ldr	r1, [r4, #8]
200215f6:	481e      	ldr	r0, [pc, #120]	; (20021670 <run+0x6ac>)
200215f8:	f000 f84c 	bl	20021694 <do_test>
200215fc:	2271      	movs	r2, #113	; 0x71
200215fe:	68a1      	ldr	r1, [r4, #8]
20021600:	481c      	ldr	r0, [pc, #112]	; (20021674 <run+0x6b0>)
20021602:	f000 f847 	bl	20021694 <do_test>
20021606:	2272      	movs	r2, #114	; 0x72
20021608:	68a1      	ldr	r1, [r4, #8]
2002160a:	481b      	ldr	r0, [pc, #108]	; (20021678 <run+0x6b4>)
2002160c:	f000 f842 	bl	20021694 <do_test>
20021610:	68a1      	ldr	r1, [r4, #8]
20021612:	2273      	movs	r2, #115	; 0x73
20021614:	4819      	ldr	r0, [pc, #100]	; (2002167c <run+0x6b8>)
20021616:	f000 f83d 	bl	20021694 <do_test>
2002161a:	bd30      	pop	{r4, r5, pc}
2002161c:	2002083d 	.word	0x2002083d
20021620:	20020859 	.word	0x20020859
20021624:	20020d11 	.word	0x20020d11
20021628:	20020d5b 	.word	0x20020d5b
2002162c:	20020a11 	.word	0x20020a11
20021630:	20020a51 	.word	0x20020a51
20021634:	20020a8d 	.word	0x20020a8d
20021638:	20020adf 	.word	0x20020adf
2002163c:	20020ebd 	.word	0x20020ebd
20021640:	20020ecb 	.word	0x20020ecb
20021644:	20020ed9 	.word	0x20020ed9
20021648:	20020f0d 	.word	0x20020f0d
2002164c:	20020f29 	.word	0x20020f29
20021650:	20020f45 	.word	0x20020f45
20021654:	20020865 	.word	0x20020865
20021658:	20020885 	.word	0x20020885
2002165c:	200208a5 	.word	0x200208a5
20021660:	200208d1 	.word	0x200208d1
20021664:	200208fd 	.word	0x200208fd
20021668:	20020931 	.word	0x20020931
2002166c:	2002095d 	.word	0x2002095d
20021670:	2002098d 	.word	0x2002098d
20021674:	200209c1 	.word	0x200209c1
20021678:	20020f79 	.word	0x20020f79
2002167c:	20020fa9 	.word	0x20020fa9

20021680 <memset>:
20021680:	1882      	adds	r2, r0, r2
20021682:	4290      	cmp	r0, r2
20021684:	d205      	bcs.n	20021692 <memset+0x12>
20021686:	0003      	movs	r3, r0
20021688:	b2c9      	uxtb	r1, r1
2002168a:	7019      	strb	r1, [r3, #0]
2002168c:	3301      	adds	r3, #1
2002168e:	429a      	cmp	r2, r3
20021690:	d1fb      	bne.n	2002168a <memset+0xa>
20021692:	4770      	bx	lr

20021694 <do_test>:
20021694:	b5f0      	push	{r4, r5, r6, r7, lr}
20021696:	46d6      	mov	lr, sl
20021698:	464f      	mov	r7, r9
2002169a:	4646      	mov	r6, r8
2002169c:	b5c0      	push	{r6, r7, lr}
2002169e:	4681      	mov	r9, r0
200216a0:	000e      	movs	r6, r1
200216a2:	0017      	movs	r7, r2
200216a4:	4b18      	ldr	r3, [pc, #96]	; (20021708 <do_test+0x74>)
200216a6:	2200      	movs	r2, #0
200216a8:	601a      	str	r2, [r3, #0]
200216aa:	609a      	str	r2, [r3, #8]
200216ac:	3205      	adds	r2, #5
200216ae:	601a      	str	r2, [r3, #0]
200216b0:	4a16      	ldr	r2, [pc, #88]	; (2002170c <do_test+0x78>)
200216b2:	605a      	str	r2, [r3, #4]
200216b4:	689b      	ldr	r3, [r3, #8]
200216b6:	2b00      	cmp	r3, #0
200216b8:	d104      	bne.n	200216c4 <do_test+0x30>
200216ba:	4a13      	ldr	r2, [pc, #76]	; (20021708 <do_test+0x74>)
200216bc:	46c0      	nop			; (mov r8, r8)
200216be:	6893      	ldr	r3, [r2, #8]
200216c0:	2b00      	cmp	r3, #0
200216c2:	d0fb      	beq.n	200216bc <do_test+0x28>
200216c4:	4b10      	ldr	r3, [pc, #64]	; (20021708 <do_test+0x74>)
200216c6:	4698      	mov	r8, r3
200216c8:	689c      	ldr	r4, [r3, #8]
200216ca:	2300      	movs	r3, #0
200216cc:	6033      	str	r3, [r6, #0]
200216ce:	47c8      	blx	r9
200216d0:	007d      	lsls	r5, r7, #1
200216d2:	6833      	ldr	r3, [r6, #0]
200216d4:	4a0e      	ldr	r2, [pc, #56]	; (20021710 <do_test+0x7c>)
200216d6:	4692      	mov	sl, r2
200216d8:	00ff      	lsls	r7, r7, #3
200216da:	50bb      	str	r3, [r7, r2]
200216dc:	2301      	movs	r3, #1
200216de:	425b      	negs	r3, r3
200216e0:	6033      	str	r3, [r6, #0]
200216e2:	47c8      	blx	r9
200216e4:	6833      	ldr	r3, [r6, #0]
200216e6:	3501      	adds	r5, #1
200216e8:	00ad      	lsls	r5, r5, #2
200216ea:	4652      	mov	r2, sl
200216ec:	50ab      	str	r3, [r5, r2]
200216ee:	4643      	mov	r3, r8
200216f0:	689a      	ldr	r2, [r3, #8]
200216f2:	4b08      	ldr	r3, [pc, #32]	; (20021714 <do_test+0x80>)
200216f4:	6819      	ldr	r1, [r3, #0]
200216f6:	468c      	mov	ip, r1
200216f8:	4464      	add	r4, ip
200216fa:	1aa4      	subs	r4, r4, r2
200216fc:	601c      	str	r4, [r3, #0]
200216fe:	bc1c      	pop	{r2, r3, r4}
20021700:	4690      	mov	r8, r2
20021702:	4699      	mov	r9, r3
20021704:	46a2      	mov	sl, r4
20021706:	bdf0      	pop	{r4, r5, r6, r7, pc}
20021708:	e000e010 	.word	0xe000e010
2002170c:	00ffffff 	.word	0x00ffffff
20021710:	200218a0 	.word	0x200218a0
20021714:	2002189c 	.word	0x2002189c

20021718 <main>:
20021718:	b500      	push	{lr}
2002171a:	f7ff fc53 	bl	20020fc4 <run>
2002171e:	46c0      	nop			; (mov r8, r8)
20021720:	e7fd      	b.n	2002171e <main+0x6>
20021722:	46c0      	nop			; (mov r8, r8)

20021724 <NMI_IRQ_Handler>:
20021724:	e7fe      	b.n	20021724 <NMI_IRQ_Handler>

20021726 <HardFault_IRQ_Handler>:
20021726:	e7fe      	b.n	20021726 <HardFault_IRQ_Handler>

20021728 <MemManage_IRQ_Handler>:
20021728:	e7fe      	b.n	20021728 <MemManage_IRQ_Handler>

2002172a <BusFault_IRQ_Handler>:
2002172a:	e7fe      	b.n	2002172a <BusFault_IRQ_Handler>

2002172c <UsageFault_IRQ_Handler>:
2002172c:	e7fe      	b.n	2002172c <UsageFault_IRQ_Handler>

2002172e <Reserved1_IRQ_Handler>:
2002172e:	e7fe      	b.n	2002172e <Reserved1_IRQ_Handler>

20021730 <Reserved2_IRQ_Handler>:
20021730:	e7fe      	b.n	20021730 <Reserved2_IRQ_Handler>

20021732 <Reserved3_IRQ_Handler>:
20021732:	e7fe      	b.n	20021732 <Reserved3_IRQ_Handler>

20021734 <Reserved4_IRQ_Handler>:
20021734:	e7fe      	b.n	20021734 <Reserved4_IRQ_Handler>

20021736 <SVCall_IRQ_Handler>:
20021736:	e7fe      	b.n	20021736 <SVCall_IRQ_Handler>

20021738 <Debug_IRQ_Handler>:
20021738:	e7fe      	b.n	20021738 <Debug_IRQ_Handler>

2002173a <Reserved5_IRQ_Handler>:
2002173a:	e7fe      	b.n	2002173a <Reserved5_IRQ_Handler>

2002173c <PendSV_IRQ_Handler>:
2002173c:	e7fe      	b.n	2002173c <PendSV_IRQ_Handler>

2002173e <SysTick_IRQ_Handler>:
2002173e:	e7fe      	b.n	2002173e <SysTick_IRQ_Handler>

20021740 <WWDG_IRQ_Handler>:
20021740:	e7fe      	b.n	20021740 <WWDG_IRQ_Handler>

20021742 <PVD_IRQ_Handler>:
20021742:	e7fe      	b.n	20021742 <PVD_IRQ_Handler>

20021744 <TAMP_STAMP_IRQ_Handler>:
20021744:	e7fe      	b.n	20021744 <TAMP_STAMP_IRQ_Handler>

20021746 <RTC_WKUP_IRQ_Handler>:
20021746:	e7fe      	b.n	20021746 <RTC_WKUP_IRQ_Handler>

20021748 <FLASH_IRQ_Handler>:
20021748:	e7fe      	b.n	20021748 <FLASH_IRQ_Handler>

2002174a <RCC_IRQ_Handler>:
2002174a:	e7fe      	b.n	2002174a <RCC_IRQ_Handler>

2002174c <EXTI0_IRQ_Handler>:
2002174c:	e7fe      	b.n	2002174c <EXTI0_IRQ_Handler>

2002174e <EXTI1_IRQ_Handler>:
2002174e:	e7fe      	b.n	2002174e <EXTI1_IRQ_Handler>

20021750 <EXTI2_IRQ_Handler>:
20021750:	e7fe      	b.n	20021750 <EXTI2_IRQ_Handler>

20021752 <EXTI3_IRQ_Handler>:
20021752:	e7fe      	b.n	20021752 <EXTI3_IRQ_Handler>

20021754 <EXTI4_IRQ_Handler>:
20021754:	e7fe      	b.n	20021754 <EXTI4_IRQ_Handler>

20021756 <DMA1_Stream0_IRQ_Handler>:
20021756:	e7fe      	b.n	20021756 <DMA1_Stream0_IRQ_Handler>

20021758 <DMA1_Stream1_IRQ_Handler>:
20021758:	e7fe      	b.n	20021758 <DMA1_Stream1_IRQ_Handler>

2002175a <DMA1_Stream2_IRQ_Handler>:
2002175a:	e7fe      	b.n	2002175a <DMA1_Stream2_IRQ_Handler>

2002175c <DMA1_Stream3_IRQ_Handler>:
2002175c:	e7fe      	b.n	2002175c <DMA1_Stream3_IRQ_Handler>

2002175e <DMA1_Stream4_IRQ_Handler>:
2002175e:	e7fe      	b.n	2002175e <DMA1_Stream4_IRQ_Handler>

20021760 <DMA1_Stream5_IRQ_Handler>:
20021760:	e7fe      	b.n	20021760 <DMA1_Stream5_IRQ_Handler>

20021762 <DMA1_Stream6_IRQ_Handler>:
20021762:	e7fe      	b.n	20021762 <DMA1_Stream6_IRQ_Handler>

20021764 <ADC_IRQ_Handler>:
20021764:	e7fe      	b.n	20021764 <ADC_IRQ_Handler>

20021766 <CAN1_TX_IRQ_Handler>:
20021766:	e7fe      	b.n	20021766 <CAN1_TX_IRQ_Handler>

20021768 <CAN1_RX0_IRQ_Handler>:
20021768:	e7fe      	b.n	20021768 <CAN1_RX0_IRQ_Handler>

2002176a <CAN1_RX1_IRQ_Handler>:
2002176a:	e7fe      	b.n	2002176a <CAN1_RX1_IRQ_Handler>

2002176c <CAN1_SCE_IRQ_Handler>:
2002176c:	e7fe      	b.n	2002176c <CAN1_SCE_IRQ_Handler>

2002176e <EXTI9_5_IRQ_Handler>:
2002176e:	e7fe      	b.n	2002176e <EXTI9_5_IRQ_Handler>

20021770 <TIM1_BRK_TIM9_IRQ_Handler>:
20021770:	e7fe      	b.n	20021770 <TIM1_BRK_TIM9_IRQ_Handler>

20021772 <TIM1_UP_TIM10_IRQ_Handler>:
20021772:	e7fe      	b.n	20021772 <TIM1_UP_TIM10_IRQ_Handler>

20021774 <TIM1_TRG_COM_TIM11_IRQ_Handler>:
20021774:	e7fe      	b.n	20021774 <TIM1_TRG_COM_TIM11_IRQ_Handler>

20021776 <TIM1_CC_IRQ_Handler>:
20021776:	e7fe      	b.n	20021776 <TIM1_CC_IRQ_Handler>

20021778 <TIM2_IRQ_Handler>:
20021778:	e7fe      	b.n	20021778 <TIM2_IRQ_Handler>

2002177a <TIM3_IRQ_Handler>:
2002177a:	e7fe      	b.n	2002177a <TIM3_IRQ_Handler>

2002177c <TIM4_IRQ_Handler>:
2002177c:	e7fe      	b.n	2002177c <TIM4_IRQ_Handler>

2002177e <I2C1_EV_IRQ_Handler>:
2002177e:	e7fe      	b.n	2002177e <I2C1_EV_IRQ_Handler>

20021780 <I2C1_ER_IRQ_Handler>:
20021780:	e7fe      	b.n	20021780 <I2C1_ER_IRQ_Handler>

20021782 <I2C2_EV_IRQ_Handler>:
20021782:	e7fe      	b.n	20021782 <I2C2_EV_IRQ_Handler>

20021784 <I2C2_ER_IRQ_Handler>:
20021784:	e7fe      	b.n	20021784 <I2C2_ER_IRQ_Handler>

20021786 <SPI1_IRQ_Handler>:
20021786:	e7fe      	b.n	20021786 <SPI1_IRQ_Handler>

20021788 <SPI2_IRQ_Handler>:
20021788:	e7fe      	b.n	20021788 <SPI2_IRQ_Handler>

2002178a <USART1_IRQ_Handler>:
2002178a:	e7fe      	b.n	2002178a <USART1_IRQ_Handler>

2002178c <USART2_IRQ_Handler>:
2002178c:	e7fe      	b.n	2002178c <USART2_IRQ_Handler>

2002178e <USART3_IRQ_Handler>:
2002178e:	e7fe      	b.n	2002178e <USART3_IRQ_Handler>

20021790 <EXTI15_10_IRQ_Handler>:
20021790:	e7fe      	b.n	20021790 <EXTI15_10_IRQ_Handler>

20021792 <RTC_Alarm_IRQ_Handler>:
20021792:	e7fe      	b.n	20021792 <RTC_Alarm_IRQ_Handler>

20021794 <OTG_FS_WKUP_IRQ_Handler>:
20021794:	e7fe      	b.n	20021794 <OTG_FS_WKUP_IRQ_Handler>

20021796 <TIM8_BRK_TIM12_IRQ_Handler>:
20021796:	e7fe      	b.n	20021796 <TIM8_BRK_TIM12_IRQ_Handler>

20021798 <TIM8_UP_TIM13_IRQ_Handler>:
20021798:	e7fe      	b.n	20021798 <TIM8_UP_TIM13_IRQ_Handler>

2002179a <TIM8_TRG_COM_TIM14_IRQ_Handler>:
2002179a:	e7fe      	b.n	2002179a <TIM8_TRG_COM_TIM14_IRQ_Handler>

2002179c <TIM8_CC_IRQ_Handler>:
2002179c:	e7fe      	b.n	2002179c <TIM8_CC_IRQ_Handler>

2002179e <DMA1_Stream7_IRQ_Handler>:
2002179e:	e7fe      	b.n	2002179e <DMA1_Stream7_IRQ_Handler>

200217a0 <FMC_IRQ_Handler>:
200217a0:	e7fe      	b.n	200217a0 <FMC_IRQ_Handler>

200217a2 <SDMMC1_IRQ_Handler>:
200217a2:	e7fe      	b.n	200217a2 <SDMMC1_IRQ_Handler>

200217a4 <TIM5_IRQ_Handler>:
200217a4:	e7fe      	b.n	200217a4 <TIM5_IRQ_Handler>

200217a6 <SPI3_IRQ_Handler>:
200217a6:	e7fe      	b.n	200217a6 <SPI3_IRQ_Handler>

200217a8 <UART4_IRQ_Handler>:
200217a8:	e7fe      	b.n	200217a8 <UART4_IRQ_Handler>

200217aa <UART5_IRQ_Handler>:
200217aa:	e7fe      	b.n	200217aa <UART5_IRQ_Handler>

200217ac <TIM6_DAC_IRQ_Handler>:
200217ac:	e7fe      	b.n	200217ac <TIM6_DAC_IRQ_Handler>

200217ae <TIM7_IRQ_Handler>:
200217ae:	e7fe      	b.n	200217ae <TIM7_IRQ_Handler>

200217b0 <DMA2_Stream0_IRQ_Handler>:
200217b0:	e7fe      	b.n	200217b0 <DMA2_Stream0_IRQ_Handler>

200217b2 <DMA2_Stream1_IRQ_Handler>:
200217b2:	e7fe      	b.n	200217b2 <DMA2_Stream1_IRQ_Handler>

200217b4 <DMA2_Stream2_IRQ_Handler>:
200217b4:	e7fe      	b.n	200217b4 <DMA2_Stream2_IRQ_Handler>

200217b6 <DMA2_Stream3_IRQ_Handler>:
200217b6:	e7fe      	b.n	200217b6 <DMA2_Stream3_IRQ_Handler>

200217b8 <DMA2_Stream4_IRQ_Handler>:
200217b8:	e7fe      	b.n	200217b8 <DMA2_Stream4_IRQ_Handler>

200217ba <ETH_IRQ_Handler>:
200217ba:	e7fe      	b.n	200217ba <ETH_IRQ_Handler>

200217bc <ETH_WKUP_IRQ_Handler>:
200217bc:	e7fe      	b.n	200217bc <ETH_WKUP_IRQ_Handler>

200217be <CAN2_TX_IRQ_Handler>:
200217be:	e7fe      	b.n	200217be <CAN2_TX_IRQ_Handler>

200217c0 <CAN2_RX0_IRQ_Handler>:
200217c0:	e7fe      	b.n	200217c0 <CAN2_RX0_IRQ_Handler>

200217c2 <CAN2_RX1_IRQ_Handler>:
200217c2:	e7fe      	b.n	200217c2 <CAN2_RX1_IRQ_Handler>

200217c4 <CAN2_SCE_IRQ_Handler>:
200217c4:	e7fe      	b.n	200217c4 <CAN2_SCE_IRQ_Handler>

200217c6 <OTG_FS_IRQ_Handler>:
200217c6:	e7fe      	b.n	200217c6 <OTG_FS_IRQ_Handler>

200217c8 <DMA2_Stream5_IRQ_Handler>:
200217c8:	e7fe      	b.n	200217c8 <DMA2_Stream5_IRQ_Handler>

200217ca <DMA2_Stream6_IRQ_Handler>:
200217ca:	e7fe      	b.n	200217ca <DMA2_Stream6_IRQ_Handler>

200217cc <DMA2_Stream7_IRQ_Handler>:
200217cc:	e7fe      	b.n	200217cc <DMA2_Stream7_IRQ_Handler>

200217ce <USART6_IRQ_Handler>:
200217ce:	e7fe      	b.n	200217ce <USART6_IRQ_Handler>

200217d0 <I2C3_EV_IRQ_Handler>:
200217d0:	e7fe      	b.n	200217d0 <I2C3_EV_IRQ_Handler>

200217d2 <I2C3_ER_IRQ_Handler>:
200217d2:	e7fe      	b.n	200217d2 <I2C3_ER_IRQ_Handler>

200217d4 <OTG_HS_EP1_OUT_IRQ_Handler>:
200217d4:	e7fe      	b.n	200217d4 <OTG_HS_EP1_OUT_IRQ_Handler>

200217d6 <OTG_HS_EP1_IN_IRQ_Handler>:
200217d6:	e7fe      	b.n	200217d6 <OTG_HS_EP1_IN_IRQ_Handler>

200217d8 <OTG_HS_WKUP_IRQ_Handler>:
200217d8:	e7fe      	b.n	200217d8 <OTG_HS_WKUP_IRQ_Handler>

200217da <OTG_HS_IRQ_Handler>:
200217da:	e7fe      	b.n	200217da <OTG_HS_IRQ_Handler>

200217dc <DCMI_IRQ_Handler>:
200217dc:	e7fe      	b.n	200217dc <DCMI_IRQ_Handler>

200217de <RNG_IRQ_Handler>:
200217de:	e7fe      	b.n	200217de <RNG_IRQ_Handler>

200217e0 <FPU_IRQ_Handler>:
200217e0:	e7fe      	b.n	200217e0 <FPU_IRQ_Handler>

200217e2 <UART7_IRQ_Handler>:
200217e2:	e7fe      	b.n	200217e2 <UART7_IRQ_Handler>

200217e4 <UART8_IRQ_Handler>:
200217e4:	e7fe      	b.n	200217e4 <UART8_IRQ_Handler>

200217e6 <SPI4_IRQ_Handler>:
200217e6:	e7fe      	b.n	200217e6 <SPI4_IRQ_Handler>

200217e8 <SPI5_IRQ_Handler>:
200217e8:	e7fe      	b.n	200217e8 <SPI5_IRQ_Handler>

200217ea <SPI6_IRQ_Handler>:
200217ea:	e7fe      	b.n	200217ea <SPI6_IRQ_Handler>

200217ec <SAI1_IRQ_Handler>:
200217ec:	e7fe      	b.n	200217ec <SAI1_IRQ_Handler>

200217ee <LTDC_IRQ_Handler>:
200217ee:	e7fe      	b.n	200217ee <LTDC_IRQ_Handler>

200217f0 <LTDC_ER_IRQ_Handler>:
200217f0:	e7fe      	b.n	200217f0 <LTDC_ER_IRQ_Handler>

200217f2 <DMA2D_IRQ_Handler>:
200217f2:	e7fe      	b.n	200217f2 <DMA2D_IRQ_Handler>

200217f4 <SAI2_IRQ_Handler>:
200217f4:	e7fe      	b.n	200217f4 <SAI2_IRQ_Handler>

200217f6 <QUADSPI_IRQ_Handler>:
200217f6:	e7fe      	b.n	200217f6 <QUADSPI_IRQ_Handler>

200217f8 <LPTIM1_IRQ_Handler>:
200217f8:	e7fe      	b.n	200217f8 <LPTIM1_IRQ_Handler>

200217fa <CEC_IRQ_Handler>:
200217fa:	e7fe      	b.n	200217fa <CEC_IRQ_Handler>

200217fc <I2C4_EV_IRQ_Handler>:
200217fc:	e7fe      	b.n	200217fc <I2C4_EV_IRQ_Handler>

200217fe <I2C4_ER_IRQ_Handler>:
200217fe:	e7fe      	b.n	200217fe <I2C4_ER_IRQ_Handler>

20021800 <SPDIF_RX_IRQ_Handler>:
20021800:	e7fe      	b.n	20021800 <SPDIF_RX_IRQ_Handler>

20021802 <DFSDM1_FLT0_IRQ_Handler>:
20021802:	e7fe      	b.n	20021802 <DFSDM1_FLT0_IRQ_Handler>

20021804 <DFSDM1_FLT1_IRQ_Handler>:
20021804:	e7fe      	b.n	20021804 <DFSDM1_FLT1_IRQ_Handler>

20021806 <DFSDM1_FLT2_IRQ_Handler>:
20021806:	e7fe      	b.n	20021806 <DFSDM1_FLT2_IRQ_Handler>

20021808 <DFSDM1_FLT3_IRQ_Handler>:
20021808:	e7fe      	b.n	20021808 <DFSDM1_FLT3_IRQ_Handler>

2002180a <SDMMC2_IRQ_Handler>:
2002180a:	e7fe      	b.n	2002180a <SDMMC2_IRQ_Handler>

2002180c <CAN3_TX_IRQ_Handler>:
2002180c:	e7fe      	b.n	2002180c <CAN3_TX_IRQ_Handler>

2002180e <CAN3_RX0_IRQ_Handler>:
2002180e:	e7fe      	b.n	2002180e <CAN3_RX0_IRQ_Handler>

20021810 <CAN3_RX1_IRQ_Handler>:
20021810:	e7fe      	b.n	20021810 <CAN3_RX1_IRQ_Handler>

20021812 <CAN3_SCE_IRQ_Handler>:
20021812:	e7fe      	b.n	20021812 <CAN3_SCE_IRQ_Handler>

20021814 <JPEG_IRQ_Handler>:
20021814:	e7fe      	b.n	20021814 <JPEG_IRQ_Handler>

20021816 <MDIOS_IRQ_Handler>:
20021816:	e7fe      	b.n	20021816 <MDIOS_IRQ_Handler>

20021818 <init>:
20021818:	b500      	push	{lr}
2002181a:	4a08      	ldr	r2, [pc, #32]	; (2002183c <init+0x24>)
2002181c:	4b08      	ldr	r3, [pc, #32]	; (20021840 <init+0x28>)
2002181e:	1ad2      	subs	r2, r2, r3
20021820:	d005      	beq.n	2002182e <init+0x16>
20021822:	189a      	adds	r2, r3, r2
20021824:	2100      	movs	r1, #0
20021826:	7019      	strb	r1, [r3, #0]
20021828:	3301      	adds	r3, #1
2002182a:	4293      	cmp	r3, r2
2002182c:	d1fb      	bne.n	20021826 <init+0xe>
2002182e:	4a05      	ldr	r2, [pc, #20]	; (20021844 <init+0x2c>)
20021830:	4b05      	ldr	r3, [pc, #20]	; (20021848 <init+0x30>)
20021832:	609a      	str	r2, [r3, #8]
20021834:	f7ff ff70 	bl	20021718 <main>
20021838:	bd00      	pop	{pc}
2002183a:	46c0      	nop			; (mov r8, r8)
2002183c:	20021c40 	.word	0x20021c40
20021840:	2002186c 	.word	0x2002186c
20021844:	20020000 	.word	0x20020000
20021848:	e000ed00 	.word	0xe000ed00

Disassembly of section .rodata:

2002184c <app_config::TIMER_PRESCALER_SHIFT-0x8>:
2002184c:	00000006 	.word	0x00000006
20021850:	00000002 	.word	0x00000002

20021854 <app_config::TIMER_PRESCALER_SHIFT>:
20021854:	3e000000 00000019 3e000000 00000019     ...>.......>....
20021864:	3e000000 00000019                       ...>....

Disassembly of section .bss:

2002186c <guard variable for run::serial2_config>:
	...

20021874 <run::serial2_config>:
20021874:	00000000                                ....

20021878 <guard variable for run::timer1_prescale>:
	...

20021880 <run::timer1_prescale>:
20021880:	00000000                                ....

20021884 <guard variable for run::gpio1_words_3>:
	...

2002188c <run::gpio1_words_3>:
2002188c:	00000000                                ....

20021890 <guard variable for run::gpio1_set>:
	...

20021898 <run::gpio1_set>:
20021898:	00000000                                ....

2002189c <elapsed_time>:
2002189c:	00000000                                ....

200218a0 <results>:
	...
