
bitfield.o:     file format elf32-littlearm


Disassembly of section .text:

00000000 <zero_reg>:
       0:	4b01      	ldr	r3, [pc, #4]	; (8 <zero_reg+0x8>)
       2:	2200      	movs	r2, #0
       4:	605a      	str	r2, [r3, #4]
       6:	4770      	bx	lr
       8:	200226c0 	.word	0x200226c0

0000000c <zero_array>:
       c:	4b01      	ldr	r3, [pc, #4]	; (14 <zero_array+0x8>)
       e:	2200      	movs	r2, #0
      10:	62da      	str	r2, [r3, #44]	; 0x2c
      12:	4770      	bx	lr
      14:	20022500 	.word	0x20022500

00000018 <set_singl_bits_operator>:
      18:	4a02      	ldr	r2, [pc, #8]	; (24 <set_singl_bits_operator+0xc>)
      1a:	6853      	ldr	r3, [r2, #4]
      1c:	f043 0340 	orr.w	r3, r3, #64	; 0x40
      20:	6053      	str	r3, [r2, #4]
      22:	4770      	bx	lr
      24:	200226c0 	.word	0x200226c0

00000028 <set_singl_bits_method>:
      28:	4a02      	ldr	r2, [pc, #8]	; (34 <set_singl_bits_method+0xc>)
      2a:	6853      	ldr	r3, [r2, #4]
      2c:	f043 0340 	orr.w	r3, r3, #64	; 0x40
      30:	6053      	str	r3, [r2, #4]
      32:	4770      	bx	lr
      34:	200226c0 	.word	0x200226c0

00000038 <clr_singl_bits_operator>:
      38:	4b02      	ldr	r3, [pc, #8]	; (44 <clr_singl_bits_operator+0xc>)
      3a:	685a      	ldr	r2, [r3, #4]
      3c:	f36f 1286 	bfc	r2, #6, #1
      40:	605a      	str	r2, [r3, #4]
      42:	4770      	bx	lr
      44:	200226c0 	.word	0x200226c0

00000048 <clr_singl_bits_method>:
      48:	4b02      	ldr	r3, [pc, #8]	; (54 <clr_singl_bits_method+0xc>)
      4a:	685a      	ldr	r2, [r3, #4]
      4c:	f36f 1286 	bfc	r2, #6, #1
      50:	605a      	str	r2, [r3, #4]
      52:	4770      	bx	lr
      54:	200226c0 	.word	0x200226c0

00000058 <set_singl_mskd_operator>:
      58:	4a05      	ldr	r2, [pc, #20]	; (70 <set_singl_mskd_operator+0x18>)
      5a:	6853      	ldr	r3, [r2, #4]
      5c:	6851      	ldr	r1, [r2, #4]
      5e:	f3c3 0341 	ubfx	r3, r3, #1, #2
      62:	f043 0301 	orr.w	r3, r3, #1
      66:	f363 0142 	bfi	r1, r3, #1, #2
      6a:	6051      	str	r1, [r2, #4]
      6c:	4770      	bx	lr
      6e:	bf00      	nop
      70:	200226c0 	.word	0x200226c0

00000074 <set_singl_mskd_method>:
      74:	4a05      	ldr	r2, [pc, #20]	; (8c <set_singl_mskd_method+0x18>)
      76:	6853      	ldr	r3, [r2, #4]
      78:	6851      	ldr	r1, [r2, #4]
      7a:	f3c3 0341 	ubfx	r3, r3, #1, #2
      7e:	f043 0301 	orr.w	r3, r3, #1
      82:	f363 0142 	bfi	r1, r3, #1, #2
      86:	6051      	str	r1, [r2, #4]
      88:	4770      	bx	lr
      8a:	bf00      	nop
      8c:	200226c0 	.word	0x200226c0

00000090 <clr_singl_mskd_operator>:
      90:	4a05      	ldr	r2, [pc, #20]	; (a8 <clr_singl_mskd_operator+0x18>)
      92:	6853      	ldr	r3, [r2, #4]
      94:	6851      	ldr	r1, [r2, #4]
      96:	f3c3 0341 	ubfx	r3, r3, #1, #2
      9a:	f003 0302 	and.w	r3, r3, #2
      9e:	f363 0142 	bfi	r1, r3, #1, #2
      a2:	6051      	str	r1, [r2, #4]
      a4:	4770      	bx	lr
      a6:	bf00      	nop
      a8:	200226c0 	.word	0x200226c0

000000ac <clr_singl_mskd_method>:
      ac:	4a05      	ldr	r2, [pc, #20]	; (c4 <clr_singl_mskd_method+0x18>)
      ae:	6853      	ldr	r3, [r2, #4]
      b0:	6851      	ldr	r1, [r2, #4]
      b2:	f3c3 0341 	ubfx	r3, r3, #1, #2
      b6:	f003 0302 	and.w	r3, r3, #2
      ba:	f363 0142 	bfi	r1, r3, #1, #2
      be:	6051      	str	r1, [r2, #4]
      c0:	4770      	bx	lr
      c2:	bf00      	nop
      c4:	200226c0 	.word	0x200226c0

000000c8 <equ_singl_bits_operator>:
      c8:	4b03      	ldr	r3, [pc, #12]	; (d8 <equ_singl_bits_operator+0x10>)
      ca:	2200      	movs	r2, #0
      cc:	605a      	str	r2, [r3, #4]
      ce:	685a      	ldr	r2, [r3, #4]
      d0:	f042 0240 	orr.w	r2, r2, #64	; 0x40
      d4:	605a      	str	r2, [r3, #4]
      d6:	4770      	bx	lr
      d8:	200226c0 	.word	0x200226c0

000000dc <equ_singl_bits_method>:
      dc:	4b03      	ldr	r3, [pc, #12]	; (ec <equ_singl_bits_method+0x10>)
      de:	2200      	movs	r2, #0
      e0:	605a      	str	r2, [r3, #4]
      e2:	685a      	ldr	r2, [r3, #4]
      e4:	f042 0240 	orr.w	r2, r2, #64	; 0x40
      e8:	605a      	str	r2, [r3, #4]
      ea:	4770      	bx	lr
      ec:	200226c0 	.word	0x200226c0

000000f0 <equ_singl_mskd_operator>:
      f0:	4b04      	ldr	r3, [pc, #16]	; (104 <equ_singl_mskd_operator+0x14>)
      f2:	2200      	movs	r2, #0
      f4:	2101      	movs	r1, #1
      f6:	605a      	str	r2, [r3, #4]
      f8:	685a      	ldr	r2, [r3, #4]
      fa:	f361 0242 	bfi	r2, r1, #1, #2
      fe:	605a      	str	r2, [r3, #4]
     100:	4770      	bx	lr
     102:	bf00      	nop
     104:	200226c0 	.word	0x200226c0

00000108 <equ_singl_mskd_method>:
     108:	4b04      	ldr	r3, [pc, #16]	; (11c <equ_singl_mskd_method+0x14>)
     10a:	2200      	movs	r2, #0
     10c:	2101      	movs	r1, #1
     10e:	605a      	str	r2, [r3, #4]
     110:	685a      	ldr	r2, [r3, #4]
     112:	f361 0242 	bfi	r2, r1, #1, #2
     116:	605a      	str	r2, [r3, #4]
     118:	4770      	bx	lr
     11a:	bf00      	nop
     11c:	200226c0 	.word	0x200226c0

00000120 <flp_singl_bits_operator>:
     120:	4a05      	ldr	r2, [pc, #20]	; (138 <flp_singl_bits_operator+0x18>)
     122:	6853      	ldr	r3, [r2, #4]
     124:	6851      	ldr	r1, [r2, #4]
     126:	f3c3 1380 	ubfx	r3, r3, #6, #1
     12a:	f083 0301 	eor.w	r3, r3, #1
     12e:	f363 1186 	bfi	r1, r3, #6, #1
     132:	6051      	str	r1, [r2, #4]
     134:	4770      	bx	lr
     136:	bf00      	nop
     138:	200226c0 	.word	0x200226c0

0000013c <flp_singl_bits_method>:
     13c:	4a05      	ldr	r2, [pc, #20]	; (154 <flp_singl_bits_method+0x18>)
     13e:	6853      	ldr	r3, [r2, #4]
     140:	6851      	ldr	r1, [r2, #4]
     142:	f3c3 1380 	ubfx	r3, r3, #6, #1
     146:	f083 0301 	eor.w	r3, r3, #1
     14a:	f363 1186 	bfi	r1, r3, #6, #1
     14e:	6051      	str	r1, [r2, #4]
     150:	4770      	bx	lr
     152:	bf00      	nop
     154:	200226c0 	.word	0x200226c0

00000158 <flp_singl_mskd_operator>:
     158:	4a05      	ldr	r2, [pc, #20]	; (170 <flp_singl_mskd_operator+0x18>)
     15a:	6853      	ldr	r3, [r2, #4]
     15c:	6851      	ldr	r1, [r2, #4]
     15e:	f3c3 0341 	ubfx	r3, r3, #1, #2
     162:	f083 0301 	eor.w	r3, r3, #1
     166:	f363 0142 	bfi	r1, r3, #1, #2
     16a:	6051      	str	r1, [r2, #4]
     16c:	4770      	bx	lr
     16e:	bf00      	nop
     170:	200226c0 	.word	0x200226c0

00000174 <flp_singl_mskd_method>:
     174:	4a05      	ldr	r2, [pc, #20]	; (18c <flp_singl_mskd_method+0x18>)
     176:	6853      	ldr	r3, [r2, #4]
     178:	6851      	ldr	r1, [r2, #4]
     17a:	f3c3 0341 	ubfx	r3, r3, #1, #2
     17e:	f083 0301 	eor.w	r3, r3, #1
     182:	f363 0142 	bfi	r1, r3, #1, #2
     186:	6051      	str	r1, [r2, #4]
     188:	4770      	bx	lr
     18a:	bf00      	nop
     18c:	200226c0 	.word	0x200226c0

00000190 <ins_singl_mskd_operator>:
     190:	4b03      	ldr	r3, [pc, #12]	; (1a0 <ins_singl_mskd_operator+0x10>)
     192:	2102      	movs	r1, #2
     194:	685a      	ldr	r2, [r3, #4]
     196:	f361 0242 	bfi	r2, r1, #1, #2
     19a:	605a      	str	r2, [r3, #4]
     19c:	4770      	bx	lr
     19e:	bf00      	nop
     1a0:	200226c0 	.word	0x200226c0

000001a4 <ins_singl_mskd_method>:
     1a4:	4b03      	ldr	r3, [pc, #12]	; (1b4 <ins_singl_mskd_method+0x10>)
     1a6:	2102      	movs	r1, #2
     1a8:	685a      	ldr	r2, [r3, #4]
     1aa:	f361 0242 	bfi	r2, r1, #1, #2
     1ae:	605a      	str	r2, [r3, #4]
     1b0:	4770      	bx	lr
     1b2:	bf00      	nop
     1b4:	200226c0 	.word	0x200226c0

000001b8 <set_multi_bits_operator>:
     1b8:	4b04      	ldr	r3, [pc, #16]	; (1cc <set_multi_bits_operator+0x14>)
     1ba:	685a      	ldr	r2, [r3, #4]
     1bc:	f042 0201 	orr.w	r2, r2, #1
     1c0:	605a      	str	r2, [r3, #4]
     1c2:	685a      	ldr	r2, [r3, #4]
     1c4:	f042 0220 	orr.w	r2, r2, #32
     1c8:	605a      	str	r2, [r3, #4]
     1ca:	4770      	bx	lr
     1cc:	200226c0 	.word	0x200226c0

000001d0 <set_multi_bits_method>:
     1d0:	4b04      	ldr	r3, [pc, #16]	; (1e4 <set_multi_bits_method+0x14>)
     1d2:	685a      	ldr	r2, [r3, #4]
     1d4:	f042 0201 	orr.w	r2, r2, #1
     1d8:	605a      	str	r2, [r3, #4]
     1da:	685a      	ldr	r2, [r3, #4]
     1dc:	f042 0220 	orr.w	r2, r2, #32
     1e0:	605a      	str	r2, [r3, #4]
     1e2:	4770      	bx	lr
     1e4:	200226c0 	.word	0x200226c0

000001e8 <ins_multi_mskd_operator>:
     1e8:	4b05      	ldr	r3, [pc, #20]	; (200 <ins_multi_mskd_operator+0x18>)
     1ea:	2003      	movs	r0, #3
     1ec:	2101      	movs	r1, #1
     1ee:	685a      	ldr	r2, [r3, #4]
     1f0:	f360 12cb 	bfi	r2, r0, #7, #5
     1f4:	605a      	str	r2, [r3, #4]
     1f6:	685a      	ldr	r2, [r3, #4]
     1f8:	f361 0242 	bfi	r2, r1, #1, #2
     1fc:	605a      	str	r2, [r3, #4]
     1fe:	4770      	bx	lr
     200:	200226c0 	.word	0x200226c0

00000204 <ins_multi_mskd_method>:
     204:	4b05      	ldr	r3, [pc, #20]	; (21c <ins_multi_mskd_method+0x18>)
     206:	2003      	movs	r0, #3
     208:	2101      	movs	r1, #1
     20a:	685a      	ldr	r2, [r3, #4]
     20c:	f360 12cb 	bfi	r2, r0, #7, #5
     210:	605a      	str	r2, [r3, #4]
     212:	685a      	ldr	r2, [r3, #4]
     214:	f361 0242 	bfi	r2, r1, #1, #2
     218:	605a      	str	r2, [r3, #4]
     21a:	4770      	bx	lr
     21c:	200226c0 	.word	0x200226c0

00000220 <equ_multi_bits_operator>:
     220:	4b05      	ldr	r3, [pc, #20]	; (238 <equ_multi_bits_operator+0x18>)
     222:	2200      	movs	r2, #0
     224:	605a      	str	r2, [r3, #4]
     226:	685a      	ldr	r2, [r3, #4]
     228:	f042 0220 	orr.w	r2, r2, #32
     22c:	605a      	str	r2, [r3, #4]
     22e:	685a      	ldr	r2, [r3, #4]
     230:	f042 0240 	orr.w	r2, r2, #64	; 0x40
     234:	605a      	str	r2, [r3, #4]
     236:	4770      	bx	lr
     238:	200226c0 	.word	0x200226c0

0000023c <equ_multi_bits_method>:
     23c:	4b05      	ldr	r3, [pc, #20]	; (254 <equ_multi_bits_method+0x18>)
     23e:	2200      	movs	r2, #0
     240:	605a      	str	r2, [r3, #4]
     242:	685a      	ldr	r2, [r3, #4]
     244:	f042 0220 	orr.w	r2, r2, #32
     248:	605a      	str	r2, [r3, #4]
     24a:	685a      	ldr	r2, [r3, #4]
     24c:	f042 0240 	orr.w	r2, r2, #64	; 0x40
     250:	605a      	str	r2, [r3, #4]
     252:	4770      	bx	lr
     254:	200226c0 	.word	0x200226c0

00000258 <equ_multi_mskd_operator>:
     258:	4b06      	ldr	r3, [pc, #24]	; (274 <equ_multi_mskd_operator+0x1c>)
     25a:	2200      	movs	r2, #0
     25c:	2001      	movs	r0, #1
     25e:	2106      	movs	r1, #6
     260:	605a      	str	r2, [r3, #4]
     262:	685a      	ldr	r2, [r3, #4]
     264:	f360 02c4 	bfi	r2, r0, #3, #2
     268:	605a      	str	r2, [r3, #4]
     26a:	685a      	ldr	r2, [r3, #4]
     26c:	f361 12cb 	bfi	r2, r1, #7, #5
     270:	605a      	str	r2, [r3, #4]
     272:	4770      	bx	lr
     274:	200226c0 	.word	0x200226c0

00000278 <equ_multi_mskd_method>:
     278:	4b06      	ldr	r3, [pc, #24]	; (294 <equ_multi_mskd_method+0x1c>)
     27a:	2200      	movs	r2, #0
     27c:	2001      	movs	r0, #1
     27e:	2106      	movs	r1, #6
     280:	605a      	str	r2, [r3, #4]
     282:	685a      	ldr	r2, [r3, #4]
     284:	f360 02c4 	bfi	r2, r0, #3, #2
     288:	605a      	str	r2, [r3, #4]
     28a:	685a      	ldr	r2, [r3, #4]
     28c:	f361 12cb 	bfi	r2, r1, #7, #5
     290:	605a      	str	r2, [r3, #4]
     292:	4770      	bx	lr
     294:	200226c0 	.word	0x200226c0

00000298 <equ_bits_mskd_operator>:
     298:	4b06      	ldr	r3, [pc, #24]	; (2b4 <equ_bits_mskd_operator+0x1c>)
     29a:	2200      	movs	r2, #0
     29c:	2101      	movs	r1, #1
     29e:	605a      	str	r2, [r3, #4]
     2a0:	685a      	ldr	r2, [r3, #4]
     2a2:	f042 0220 	orr.w	r2, r2, #32
     2a6:	605a      	str	r2, [r3, #4]
     2a8:	685a      	ldr	r2, [r3, #4]
     2aa:	f361 0242 	bfi	r2, r1, #1, #2
     2ae:	605a      	str	r2, [r3, #4]
     2b0:	4770      	bx	lr
     2b2:	bf00      	nop
     2b4:	200226c0 	.word	0x200226c0

000002b8 <equ_bits_mskd_method>:
     2b8:	4b06      	ldr	r3, [pc, #24]	; (2d4 <equ_bits_mskd_method+0x1c>)
     2ba:	2200      	movs	r2, #0
     2bc:	2101      	movs	r1, #1
     2be:	605a      	str	r2, [r3, #4]
     2c0:	685a      	ldr	r2, [r3, #4]
     2c2:	f042 0220 	orr.w	r2, r2, #32
     2c6:	605a      	str	r2, [r3, #4]
     2c8:	685a      	ldr	r2, [r3, #4]
     2ca:	f361 0242 	bfi	r2, r1, #1, #2
     2ce:	605a      	str	r2, [r3, #4]
     2d0:	4770      	bx	lr
     2d2:	bf00      	nop
     2d4:	200226c0 	.word	0x200226c0

000002d8 <equ_mskd_bits_operator>:
     2d8:	4b06      	ldr	r3, [pc, #24]	; (2f4 <equ_mskd_bits_operator+0x1c>)
     2da:	2200      	movs	r2, #0
     2dc:	2102      	movs	r1, #2
     2de:	605a      	str	r2, [r3, #4]
     2e0:	685a      	ldr	r2, [r3, #4]
     2e2:	f361 0242 	bfi	r2, r1, #1, #2
     2e6:	605a      	str	r2, [r3, #4]
     2e8:	685a      	ldr	r2, [r3, #4]
     2ea:	f042 0240 	orr.w	r2, r2, #64	; 0x40
     2ee:	605a      	str	r2, [r3, #4]
     2f0:	4770      	bx	lr
     2f2:	bf00      	nop
     2f4:	200226c0 	.word	0x200226c0

000002f8 <equ_mskd_bits_method>:
     2f8:	4b06      	ldr	r3, [pc, #24]	; (314 <equ_mskd_bits_method+0x1c>)
     2fa:	2200      	movs	r2, #0
     2fc:	2102      	movs	r1, #2
     2fe:	605a      	str	r2, [r3, #4]
     300:	685a      	ldr	r2, [r3, #4]
     302:	f361 0242 	bfi	r2, r1, #1, #2
     306:	605a      	str	r2, [r3, #4]
     308:	685a      	ldr	r2, [r3, #4]
     30a:	f042 0240 	orr.w	r2, r2, #64	; 0x40
     30e:	605a      	str	r2, [r3, #4]
     310:	4770      	bx	lr
     312:	bf00      	nop
     314:	200226c0 	.word	0x200226c0

00000318 <equ_bits_var>:
     318:	4b06      	ldr	r3, [pc, #24]	; (334 <equ_bits_var+0x1c>)
     31a:	2100      	movs	r1, #0
     31c:	6059      	str	r1, [r3, #4]
     31e:	685a      	ldr	r2, [r3, #4]
     320:	f042 0240 	orr.w	r2, r2, #64	; 0x40
     324:	605a      	str	r2, [r3, #4]
     326:	6059      	str	r1, [r3, #4]
     328:	685a      	ldr	r2, [r3, #4]
     32a:	f042 0201 	orr.w	r2, r2, #1
     32e:	605a      	str	r2, [r3, #4]
     330:	4770      	bx	lr
     332:	bf00      	nop
     334:	200226c0 	.word	0x200226c0

00000338 <equ_mskd_var>:
     338:	4b08      	ldr	r3, [pc, #32]	; (35c <equ_mskd_var+0x24>)
     33a:	2200      	movs	r2, #0
     33c:	2003      	movs	r0, #3
     33e:	b410      	push	{r4}
     340:	605a      	str	r2, [r3, #4]
     342:	2401      	movs	r4, #1
     344:	6859      	ldr	r1, [r3, #4]
     346:	f364 0142 	bfi	r1, r4, #1, #2
     34a:	6059      	str	r1, [r3, #4]
     34c:	605a      	str	r2, [r3, #4]
     34e:	685a      	ldr	r2, [r3, #4]
     350:	f360 12cb 	bfi	r2, r0, #7, #5
     354:	605a      	str	r2, [r3, #4]
     356:	bc10      	pop	{r4}
     358:	4770      	bx	lr
     35a:	bf00      	nop
     35c:	200226c0 	.word	0x200226c0

00000360 <cmp_equ_zero>:
     360:	4a09      	ldr	r2, [pc, #36]	; (388 <cmp_equ_zero+0x28>)
     362:	2100      	movs	r1, #0
     364:	4b09      	ldr	r3, [pc, #36]	; (38c <cmp_equ_zero+0x2c>)
     366:	6051      	str	r1, [r2, #4]
     368:	6059      	str	r1, [r3, #4]
     36a:	6852      	ldr	r2, [r2, #4]
     36c:	b92a      	cbnz	r2, 37a <cmp_equ_zero+0x1a>
     36e:	685a      	ldr	r2, [r3, #4]
     370:	211d      	movs	r1, #29
     372:	f361 625d 	bfi	r2, r1, #25, #5
     376:	605a      	str	r2, [r3, #4]
     378:	4770      	bx	lr
     37a:	685a      	ldr	r2, [r3, #4]
     37c:	2111      	movs	r1, #17
     37e:	f361 625d 	bfi	r2, r1, #25, #5
     382:	605a      	str	r2, [r3, #4]
     384:	4770      	bx	lr
     386:	bf00      	nop
     388:	200226c0 	.word	0x200226c0
     38c:	20022620 	.word	0x20022620

00000390 <cmp_neq_zero>:
     390:	4b07      	ldr	r3, [pc, #28]	; (3b0 <cmp_neq_zero+0x20>)
     392:	2200      	movs	r2, #0
     394:	605a      	str	r2, [r3, #4]
     396:	685a      	ldr	r2, [r3, #4]
     398:	b12a      	cbz	r2, 3a6 <cmp_neq_zero+0x16>
     39a:	685a      	ldr	r2, [r3, #4]
     39c:	2102      	movs	r1, #2
     39e:	f361 0242 	bfi	r2, r1, #1, #2
     3a2:	605a      	str	r2, [r3, #4]
     3a4:	4770      	bx	lr
     3a6:	685a      	ldr	r2, [r3, #4]
     3a8:	f042 0220 	orr.w	r2, r2, #32
     3ac:	605a      	str	r2, [r3, #4]
     3ae:	4770      	bx	lr
     3b0:	200226c0 	.word	0x200226c0

000003b4 <cmp_equ_bits>:
     3b4:	4b09      	ldr	r3, [pc, #36]	; (3dc <cmp_equ_bits+0x28>)
     3b6:	2200      	movs	r2, #0
     3b8:	605a      	str	r2, [r3, #4]
     3ba:	685a      	ldr	r2, [r3, #4]
     3bc:	f042 0240 	orr.w	r2, r2, #64	; 0x40
     3c0:	605a      	str	r2, [r3, #4]
     3c2:	685b      	ldr	r3, [r3, #4]
     3c4:	f013 0f40 	tst.w	r3, #64	; 0x40
     3c8:	4b05      	ldr	r3, [pc, #20]	; (3e0 <cmp_equ_bits+0x2c>)
     3ca:	bf18      	it	ne
     3cc:	210b      	movne	r1, #11
     3ce:	685a      	ldr	r2, [r3, #4]
     3d0:	bf08      	it	eq
     3d2:	210d      	moveq	r1, #13
     3d4:	f361 625d 	bfi	r2, r1, #25, #5
     3d8:	605a      	str	r2, [r3, #4]
     3da:	4770      	bx	lr
     3dc:	200226c0 	.word	0x200226c0
     3e0:	20022620 	.word	0x20022620

000003e4 <cmp_neq_bits>:
     3e4:	4b0b      	ldr	r3, [pc, #44]	; (414 <cmp_neq_bits+0x30>)
     3e6:	2100      	movs	r1, #0
     3e8:	6059      	str	r1, [r3, #4]
     3ea:	685a      	ldr	r2, [r3, #4]
     3ec:	f042 0240 	orr.w	r2, r2, #64	; 0x40
     3f0:	605a      	str	r2, [r3, #4]
     3f2:	685a      	ldr	r2, [r3, #4]
     3f4:	f3c2 1280 	ubfx	r2, r2, #6, #1
     3f8:	b932      	cbnz	r2, 408 <cmp_neq_bits+0x24>
     3fa:	605a      	str	r2, [r3, #4]
     3fc:	2101      	movs	r1, #1
     3fe:	685a      	ldr	r2, [r3, #4]
     400:	f361 0242 	bfi	r2, r1, #1, #2
     404:	605a      	str	r2, [r3, #4]
     406:	4770      	bx	lr
     408:	6059      	str	r1, [r3, #4]
     40a:	685a      	ldr	r2, [r3, #4]
     40c:	f042 0220 	orr.w	r2, r2, #32
     410:	605a      	str	r2, [r3, #4]
     412:	4770      	bx	lr
     414:	200226c0 	.word	0x200226c0

00000418 <cmp_equ_multi_bits>:
     418:	4b10      	ldr	r3, [pc, #64]	; (45c <cmp_equ_multi_bits+0x44>)
     41a:	2100      	movs	r1, #0
     41c:	6059      	str	r1, [r3, #4]
     41e:	685a      	ldr	r2, [r3, #4]
     420:	f042 0220 	orr.w	r2, r2, #32
     424:	605a      	str	r2, [r3, #4]
     426:	685a      	ldr	r2, [r3, #4]
     428:	f042 0240 	orr.w	r2, r2, #64	; 0x40
     42c:	605a      	str	r2, [r3, #4]
     42e:	685a      	ldr	r2, [r3, #4]
     430:	0692      	lsls	r2, r2, #26
     432:	d50a      	bpl.n	44a <cmp_equ_multi_bits+0x32>
     434:	685b      	ldr	r3, [r3, #4]
     436:	065b      	lsls	r3, r3, #25
     438:	d507      	bpl.n	44a <cmp_equ_multi_bits+0x32>
     43a:	4b09      	ldr	r3, [pc, #36]	; (460 <cmp_equ_multi_bits+0x48>)
     43c:	2011      	movs	r0, #17
     43e:	6059      	str	r1, [r3, #4]
     440:	685a      	ldr	r2, [r3, #4]
     442:	f360 625d 	bfi	r2, r0, #25, #5
     446:	605a      	str	r2, [r3, #4]
     448:	4770      	bx	lr
     44a:	4b05      	ldr	r3, [pc, #20]	; (460 <cmp_equ_multi_bits+0x48>)
     44c:	2200      	movs	r2, #0
     44e:	2117      	movs	r1, #23
     450:	605a      	str	r2, [r3, #4]
     452:	685a      	ldr	r2, [r3, #4]
     454:	f361 625d 	bfi	r2, r1, #25, #5
     458:	605a      	str	r2, [r3, #4]
     45a:	4770      	bx	lr
     45c:	200226c0 	.word	0x200226c0
     460:	20022620 	.word	0x20022620

00000464 <cmp_neq_multi_bits>:
     464:	4b10      	ldr	r3, [pc, #64]	; (4a8 <cmp_neq_multi_bits+0x44>)
     466:	2200      	movs	r2, #0
     468:	605a      	str	r2, [r3, #4]
     46a:	685a      	ldr	r2, [r3, #4]
     46c:	f042 0220 	orr.w	r2, r2, #32
     470:	605a      	str	r2, [r3, #4]
     472:	685a      	ldr	r2, [r3, #4]
     474:	f042 0240 	orr.w	r2, r2, #64	; 0x40
     478:	605a      	str	r2, [r3, #4]
     47a:	685a      	ldr	r2, [r3, #4]
     47c:	0692      	lsls	r2, r2, #26
     47e:	d40b      	bmi.n	498 <cmp_neq_multi_bits+0x34>
     480:	685b      	ldr	r3, [r3, #4]
     482:	f3c3 1380 	ubfx	r3, r3, #6, #1
     486:	b93b      	cbnz	r3, 498 <cmp_neq_multi_bits+0x34>
     488:	4a08      	ldr	r2, [pc, #32]	; (4ac <cmp_neq_multi_bits+0x48>)
     48a:	211d      	movs	r1, #29
     48c:	6053      	str	r3, [r2, #4]
     48e:	6853      	ldr	r3, [r2, #4]
     490:	f361 635d 	bfi	r3, r1, #25, #5
     494:	6053      	str	r3, [r2, #4]
     496:	4770      	bx	lr
     498:	4b04      	ldr	r3, [pc, #16]	; (4ac <cmp_neq_multi_bits+0x48>)
     49a:	2200      	movs	r2, #0
     49c:	605a      	str	r2, [r3, #4]
     49e:	685a      	ldr	r2, [r3, #4]
     4a0:	f042 5278 	orr.w	r2, r2, #1040187392	; 0x3e000000
     4a4:	605a      	str	r2, [r3, #4]
     4a6:	4770      	bx	lr
     4a8:	200226c0 	.word	0x200226c0
     4ac:	20022620 	.word	0x20022620

000004b0 <cmp_equ_mskd>:
     4b0:	4b0a      	ldr	r3, [pc, #40]	; (4dc <cmp_equ_mskd+0x2c>)
     4b2:	2200      	movs	r2, #0
     4b4:	211d      	movs	r1, #29
     4b6:	605a      	str	r2, [r3, #4]
     4b8:	685a      	ldr	r2, [r3, #4]
     4ba:	f361 3210 	bfi	r2, r1, #12, #5
     4be:	605a      	str	r2, [r3, #4]
     4c0:	685b      	ldr	r3, [r3, #4]
     4c2:	f3c3 3304 	ubfx	r3, r3, #12, #5
     4c6:	2b11      	cmp	r3, #17
     4c8:	4b05      	ldr	r3, [pc, #20]	; (4e0 <cmp_equ_mskd+0x30>)
     4ca:	bf08      	it	eq
     4cc:	2107      	moveq	r1, #7
     4ce:	685a      	ldr	r2, [r3, #4]
     4d0:	bf18      	it	ne
     4d2:	2111      	movne	r1, #17
     4d4:	f361 625d 	bfi	r2, r1, #25, #5
     4d8:	605a      	str	r2, [r3, #4]
     4da:	4770      	bx	lr
     4dc:	200226c0 	.word	0x200226c0
     4e0:	20022620 	.word	0x20022620

000004e4 <cmp_neq_mskd>:
     4e4:	4b0b      	ldr	r3, [pc, #44]	; (514 <cmp_neq_mskd+0x30>)
     4e6:	2200      	movs	r2, #0
     4e8:	211d      	movs	r1, #29
     4ea:	605a      	str	r2, [r3, #4]
     4ec:	685a      	ldr	r2, [r3, #4]
     4ee:	f361 3210 	bfi	r2, r1, #12, #5
     4f2:	605a      	str	r2, [r3, #4]
     4f4:	685a      	ldr	r2, [r3, #4]
     4f6:	f3c2 3204 	ubfx	r2, r2, #12, #5
     4fa:	2a11      	cmp	r2, #17
     4fc:	685a      	ldr	r2, [r3, #4]
     4fe:	d004      	beq.n	50a <cmp_neq_mskd+0x26>
     500:	2102      	movs	r1, #2
     502:	f361 0242 	bfi	r2, r1, #1, #2
     506:	605a      	str	r2, [r3, #4]
     508:	4770      	bx	lr
     50a:	f042 0240 	orr.w	r2, r2, #64	; 0x40
     50e:	605a      	str	r2, [r3, #4]
     510:	4770      	bx	lr
     512:	bf00      	nop
     514:	200226c0 	.word	0x200226c0

00000518 <cmp_equ_reg>:
     518:	4b1b      	ldr	r3, [pc, #108]	; (588 <cmp_equ_reg+0x70>)
     51a:	2200      	movs	r2, #0
     51c:	2101      	movs	r1, #1
     51e:	605a      	str	r2, [r3, #4]
     520:	685a      	ldr	r2, [r3, #4]
     522:	f042 0220 	orr.w	r2, r2, #32
     526:	605a      	str	r2, [r3, #4]
     528:	685a      	ldr	r2, [r3, #4]
     52a:	f361 0242 	bfi	r2, r1, #1, #2
     52e:	605a      	str	r2, [r3, #4]
     530:	685a      	ldr	r2, [r3, #4]
     532:	07d2      	lsls	r2, r2, #31
     534:	d404      	bmi.n	540 <cmp_equ_reg+0x28>
     536:	685a      	ldr	r2, [r3, #4]
     538:	f3c2 0241 	ubfx	r2, r2, #1, #2
     53c:	428a      	cmp	r2, r1
     53e:	d008      	beq.n	552 <cmp_equ_reg+0x3a>
     540:	4b12      	ldr	r3, [pc, #72]	; (58c <cmp_equ_reg+0x74>)
     542:	2200      	movs	r2, #0
     544:	2117      	movs	r1, #23
     546:	605a      	str	r2, [r3, #4]
     548:	685a      	ldr	r2, [r3, #4]
     54a:	f361 625d 	bfi	r2, r1, #25, #5
     54e:	605a      	str	r2, [r3, #4]
     550:	4770      	bx	lr
     552:	685a      	ldr	r2, [r3, #4]
     554:	07d0      	lsls	r0, r2, #31
     556:	d4f3      	bmi.n	540 <cmp_equ_reg+0x28>
     558:	685a      	ldr	r2, [r3, #4]
     55a:	0691      	lsls	r1, r2, #26
     55c:	d5f0      	bpl.n	540 <cmp_equ_reg+0x28>
     55e:	685a      	ldr	r2, [r3, #4]
     560:	0652      	lsls	r2, r2, #25
     562:	d4ed      	bmi.n	540 <cmp_equ_reg+0x28>
     564:	685a      	ldr	r2, [r3, #4]
     566:	f412 6f78 	tst.w	r2, #3968	; 0xf80
     56a:	d1e9      	bne.n	540 <cmp_equ_reg+0x28>
     56c:	685b      	ldr	r3, [r3, #4]
     56e:	f3c3 3304 	ubfx	r3, r3, #12, #5
     572:	2b00      	cmp	r3, #0
     574:	d1e4      	bne.n	540 <cmp_equ_reg+0x28>
     576:	4a05      	ldr	r2, [pc, #20]	; (58c <cmp_equ_reg+0x74>)
     578:	2115      	movs	r1, #21
     57a:	6053      	str	r3, [r2, #4]
     57c:	6853      	ldr	r3, [r2, #4]
     57e:	f361 635d 	bfi	r3, r1, #25, #5
     582:	6053      	str	r3, [r2, #4]
     584:	4770      	bx	lr
     586:	bf00      	nop
     588:	200226c0 	.word	0x200226c0
     58c:	20022620 	.word	0x20022620

00000590 <cmp_neq_reg>:
     590:	4b1a      	ldr	r3, [pc, #104]	; (5fc <cmp_neq_reg+0x6c>)
     592:	2200      	movs	r2, #0
     594:	2101      	movs	r1, #1
     596:	605a      	str	r2, [r3, #4]
     598:	685a      	ldr	r2, [r3, #4]
     59a:	f042 0220 	orr.w	r2, r2, #32
     59e:	605a      	str	r2, [r3, #4]
     5a0:	685a      	ldr	r2, [r3, #4]
     5a2:	f361 0242 	bfi	r2, r1, #1, #2
     5a6:	605a      	str	r2, [r3, #4]
     5a8:	685a      	ldr	r2, [r3, #4]
     5aa:	07d2      	lsls	r2, r2, #31
     5ac:	d404      	bmi.n	5b8 <cmp_neq_reg+0x28>
     5ae:	685a      	ldr	r2, [r3, #4]
     5b0:	f3c2 0241 	ubfx	r2, r2, #1, #2
     5b4:	428a      	cmp	r2, r1
     5b6:	d008      	beq.n	5ca <cmp_neq_reg+0x3a>
     5b8:	4b10      	ldr	r3, [pc, #64]	; (5fc <cmp_neq_reg+0x6c>)
     5ba:	2200      	movs	r2, #0
     5bc:	2101      	movs	r1, #1
     5be:	605a      	str	r2, [r3, #4]
     5c0:	685a      	ldr	r2, [r3, #4]
     5c2:	f361 0242 	bfi	r2, r1, #1, #2
     5c6:	605a      	str	r2, [r3, #4]
     5c8:	4770      	bx	lr
     5ca:	685a      	ldr	r2, [r3, #4]
     5cc:	07d0      	lsls	r0, r2, #31
     5ce:	d4f3      	bmi.n	5b8 <cmp_neq_reg+0x28>
     5d0:	685a      	ldr	r2, [r3, #4]
     5d2:	0691      	lsls	r1, r2, #26
     5d4:	d5f0      	bpl.n	5b8 <cmp_neq_reg+0x28>
     5d6:	685a      	ldr	r2, [r3, #4]
     5d8:	0652      	lsls	r2, r2, #25
     5da:	d4ed      	bmi.n	5b8 <cmp_neq_reg+0x28>
     5dc:	685a      	ldr	r2, [r3, #4]
     5de:	f412 6f78 	tst.w	r2, #3968	; 0xf80
     5e2:	d1e9      	bne.n	5b8 <cmp_neq_reg+0x28>
     5e4:	685a      	ldr	r2, [r3, #4]
     5e6:	f3c2 3204 	ubfx	r2, r2, #12, #5
     5ea:	2a00      	cmp	r2, #0
     5ec:	d1e4      	bne.n	5b8 <cmp_neq_reg+0x28>
     5ee:	605a      	str	r2, [r3, #4]
     5f0:	685a      	ldr	r2, [r3, #4]
     5f2:	f042 0220 	orr.w	r2, r2, #32
     5f6:	605a      	str	r2, [r3, #4]
     5f8:	4770      	bx	lr
     5fa:	bf00      	nop
     5fc:	200226c0 	.word	0x200226c0

00000600 <constexpr_bits_array>:
     600:	4b06      	ldr	r3, [pc, #24]	; (61c <constexpr_bits_array+0x1c>)
     602:	2200      	movs	r2, #0
     604:	2106      	movs	r1, #6
     606:	62d9      	str	r1, [r3, #44]	; 0x2c
     608:	f8c3 20a0 	str.w	r2, [r3, #160]	; 0xa0
     60c:	f8d3 20a0 	ldr.w	r2, [r3, #160]	; 0xa0
     610:	f442 5200 	orr.w	r2, r2, #8192	; 0x2000
     614:	f8c3 20a0 	str.w	r2, [r3, #160]	; 0xa0
     618:	4770      	bx	lr
     61a:	bf00      	nop
     61c:	20022500 	.word	0x20022500

00000620 <runtime_bits_array>:
     620:	b081      	sub	sp, #4
     622:	2303      	movs	r3, #3
     624:	4a04      	ldr	r2, [pc, #16]	; (638 <runtime_bits_array+0x18>)
     626:	2121      	movs	r1, #33	; 0x21
     628:	9300      	str	r3, [sp, #0]
     62a:	9b00      	ldr	r3, [sp, #0]
     62c:	3308      	adds	r3, #8
     62e:	f842 1023 	str.w	r1, [r2, r3, lsl #2]
     632:	b001      	add	sp, #4
     634:	4770      	bx	lr
     636:	bf00      	nop
     638:	20022500 	.word	0x20022500

0000063c <prescaler_low>:
     63c:	4b05      	ldr	r3, [pc, #20]	; (654 <prescaler_low+0x18>)
     63e:	2077      	movs	r0, #119	; 0x77
     640:	4905      	ldr	r1, [pc, #20]	; (658 <prescaler_low+0x1c>)
     642:	685a      	ldr	r2, [r3, #4]
     644:	f360 0206 	bfi	r2, r0, #0, #7
     648:	605a      	str	r2, [r3, #4]
     64a:	685b      	ldr	r3, [r3, #4]
     64c:	f003 037f 	and.w	r3, r3, #127	; 0x7f
     650:	62cb      	str	r3, [r1, #44]	; 0x2c
     652:	4770      	bx	lr
     654:	20022620 	.word	0x20022620
     658:	20022500 	.word	0x20022500

0000065c <prescaler_high>:
     65c:	4b05      	ldr	r3, [pc, #20]	; (674 <prescaler_high+0x18>)
     65e:	201d      	movs	r0, #29
     660:	4905      	ldr	r1, [pc, #20]	; (678 <prescaler_high+0x1c>)
     662:	685a      	ldr	r2, [r3, #4]
     664:	f360 625d 	bfi	r2, r0, #25, #5
     668:	605a      	str	r2, [r3, #4]
     66a:	685b      	ldr	r3, [r3, #4]
     66c:	f3c3 6344 	ubfx	r3, r3, #25, #5
     670:	62cb      	str	r3, [r1, #44]	; 0x2c
     672:	4770      	bx	lr
     674:	20022620 	.word	0x20022620
     678:	20022500 	.word	0x20022500

0000067c <reg_mskd_lss>:
     67c:	4a0b      	ldr	r2, [pc, #44]	; (6ac <reg_mskd_lss+0x30>)
     67e:	2000      	movs	r0, #0
     680:	4b0b      	ldr	r3, [pc, #44]	; (6b0 <reg_mskd_lss+0x34>)
     682:	b410      	push	{r4}
     684:	241b      	movs	r4, #27
     686:	6851      	ldr	r1, [r2, #4]
     688:	f364 615d 	bfi	r1, r4, #25, #5
     68c:	6051      	str	r1, [r2, #4]
     68e:	6058      	str	r0, [r3, #4]
     690:	6852      	ldr	r2, [r2, #4]
     692:	f3c2 6244 	ubfx	r2, r2, #25, #5
     696:	42a2      	cmp	r2, r4
     698:	685a      	ldr	r2, [r3, #4]
     69a:	bf94      	ite	ls
     69c:	2101      	movls	r1, #1
     69e:	2102      	movhi	r1, #2
     6a0:	f361 0242 	bfi	r2, r1, #1, #2
     6a4:	605a      	str	r2, [r3, #4]
     6a6:	bc10      	pop	{r4}
     6a8:	4770      	bx	lr
     6aa:	bf00      	nop
     6ac:	20022620 	.word	0x20022620
     6b0:	200226c0 	.word	0x200226c0

000006b4 <reg_mskd_leq>:
     6b4:	4b11      	ldr	r3, [pc, #68]	; (6fc <reg_mskd_leq+0x48>)
     6b6:	2000      	movs	r0, #0
     6b8:	4911      	ldr	r1, [pc, #68]	; (700 <reg_mskd_leq+0x4c>)
     6ba:	b410      	push	{r4}
     6bc:	2417      	movs	r4, #23
     6be:	685a      	ldr	r2, [r3, #4]
     6c0:	f364 625d 	bfi	r2, r4, #25, #5
     6c4:	605a      	str	r2, [r3, #4]
     6c6:	6048      	str	r0, [r1, #4]
     6c8:	685a      	ldr	r2, [r3, #4]
     6ca:	f3c2 6244 	ubfx	r2, r2, #25, #5
     6ce:	42a2      	cmp	r2, r4
     6d0:	d804      	bhi.n	6dc <reg_mskd_leq+0x28>
     6d2:	685b      	ldr	r3, [r3, #4]
     6d4:	f3c3 6344 	ubfx	r3, r3, #25, #5
     6d8:	2b18      	cmp	r3, #24
     6da:	d907      	bls.n	6ec <reg_mskd_leq+0x38>
     6dc:	4b08      	ldr	r3, [pc, #32]	; (700 <reg_mskd_leq+0x4c>)
     6de:	2102      	movs	r1, #2
     6e0:	685a      	ldr	r2, [r3, #4]
     6e2:	f361 0242 	bfi	r2, r1, #1, #2
     6e6:	605a      	str	r2, [r3, #4]
     6e8:	bc10      	pop	{r4}
     6ea:	4770      	bx	lr
     6ec:	684b      	ldr	r3, [r1, #4]
     6ee:	2201      	movs	r2, #1
     6f0:	f362 0342 	bfi	r3, r2, #1, #2
     6f4:	604b      	str	r3, [r1, #4]
     6f6:	bc10      	pop	{r4}
     6f8:	4770      	bx	lr
     6fa:	bf00      	nop
     6fc:	20022620 	.word	0x20022620
     700:	200226c0 	.word	0x200226c0

00000704 <reg_mskd_gtr>:
     704:	4a0b      	ldr	r2, [pc, #44]	; (734 <reg_mskd_gtr+0x30>)
     706:	2000      	movs	r0, #0
     708:	4b0b      	ldr	r3, [pc, #44]	; (738 <reg_mskd_gtr+0x34>)
     70a:	b410      	push	{r4}
     70c:	2413      	movs	r4, #19
     70e:	6851      	ldr	r1, [r2, #4]
     710:	f364 615d 	bfi	r1, r4, #25, #5
     714:	6051      	str	r1, [r2, #4]
     716:	6058      	str	r0, [r3, #4]
     718:	6852      	ldr	r2, [r2, #4]
     71a:	f3c2 6244 	ubfx	r2, r2, #25, #5
     71e:	2a12      	cmp	r2, #18
     720:	685a      	ldr	r2, [r3, #4]
     722:	bf8c      	ite	hi
     724:	2101      	movhi	r1, #1
     726:	2102      	movls	r1, #2
     728:	f361 0242 	bfi	r2, r1, #1, #2
     72c:	605a      	str	r2, [r3, #4]
     72e:	bc10      	pop	{r4}
     730:	4770      	bx	lr
     732:	bf00      	nop
     734:	20022620 	.word	0x20022620
     738:	200226c0 	.word	0x200226c0

0000073c <reg_mskd_geq>:
     73c:	4b11      	ldr	r3, [pc, #68]	; (784 <reg_mskd_geq+0x48>)
     73e:	2000      	movs	r0, #0
     740:	4911      	ldr	r1, [pc, #68]	; (788 <reg_mskd_geq+0x4c>)
     742:	b410      	push	{r4}
     744:	2411      	movs	r4, #17
     746:	685a      	ldr	r2, [r3, #4]
     748:	f364 625d 	bfi	r2, r4, #25, #5
     74c:	605a      	str	r2, [r3, #4]
     74e:	6048      	str	r0, [r1, #4]
     750:	685a      	ldr	r2, [r3, #4]
     752:	f3c2 6244 	ubfx	r2, r2, #25, #5
     756:	2a0f      	cmp	r2, #15
     758:	d904      	bls.n	764 <reg_mskd_geq+0x28>
     75a:	685b      	ldr	r3, [r3, #4]
     75c:	f3c3 6344 	ubfx	r3, r3, #25, #5
     760:	2b10      	cmp	r3, #16
     762:	d807      	bhi.n	774 <reg_mskd_geq+0x38>
     764:	4b08      	ldr	r3, [pc, #32]	; (788 <reg_mskd_geq+0x4c>)
     766:	2102      	movs	r1, #2
     768:	685a      	ldr	r2, [r3, #4]
     76a:	f361 0242 	bfi	r2, r1, #1, #2
     76e:	605a      	str	r2, [r3, #4]
     770:	bc10      	pop	{r4}
     772:	4770      	bx	lr
     774:	684b      	ldr	r3, [r1, #4]
     776:	2201      	movs	r2, #1
     778:	f362 0342 	bfi	r3, r2, #1, #2
     77c:	604b      	str	r3, [r1, #4]
     77e:	bc10      	pop	{r4}
     780:	4770      	bx	lr
     782:	bf00      	nop
     784:	20022620 	.word	0x20022620
     788:	200226c0 	.word	0x200226c0

0000078c <pos_cmp_eq>:
     78c:	4b04      	ldr	r3, [pc, #16]	; (7a0 <pos_cmp_eq+0x14>)
     78e:	2200      	movs	r2, #0
     790:	2101      	movs	r1, #1
     792:	605a      	str	r2, [r3, #4]
     794:	685a      	ldr	r2, [r3, #4]
     796:	f361 0242 	bfi	r2, r1, #1, #2
     79a:	605a      	str	r2, [r3, #4]
     79c:	4770      	bx	lr
     79e:	bf00      	nop
     7a0:	200226c0 	.word	0x200226c0

000007a4 <pos_cmp_ne>:
     7a4:	4b04      	ldr	r3, [pc, #16]	; (7b8 <pos_cmp_ne+0x14>)
     7a6:	2200      	movs	r2, #0
     7a8:	2101      	movs	r1, #1
     7aa:	605a      	str	r2, [r3, #4]
     7ac:	685a      	ldr	r2, [r3, #4]
     7ae:	f361 0242 	bfi	r2, r1, #1, #2
     7b2:	605a      	str	r2, [r3, #4]
     7b4:	4770      	bx	lr
     7b6:	bf00      	nop
     7b8:	200226c0 	.word	0x200226c0

000007bc <bits_extract_eq>:
     7bc:	4b08      	ldr	r3, [pc, #32]	; (7e0 <bits_extract_eq+0x24>)
     7be:	2100      	movs	r1, #0
     7c0:	685a      	ldr	r2, [r3, #4]
     7c2:	f042 0240 	orr.w	r2, r2, #64	; 0x40
     7c6:	605a      	str	r2, [r3, #4]
     7c8:	685a      	ldr	r2, [r3, #4]
     7ca:	6059      	str	r1, [r3, #4]
     7cc:	f012 0f40 	tst.w	r2, #64	; 0x40
     7d0:	685a      	ldr	r2, [r3, #4]
     7d2:	bf14      	ite	ne
     7d4:	2101      	movne	r1, #1
     7d6:	2102      	moveq	r1, #2
     7d8:	f361 0242 	bfi	r2, r1, #1, #2
     7dc:	605a      	str	r2, [r3, #4]
     7de:	4770      	bx	lr
     7e0:	200226c0 	.word	0x200226c0

000007e4 <mskd_extract_eq>:
     7e4:	4b09      	ldr	r3, [pc, #36]	; (80c <mskd_extract_eq+0x28>)
     7e6:	2001      	movs	r0, #1
     7e8:	2100      	movs	r1, #0
     7ea:	685a      	ldr	r2, [r3, #4]
     7ec:	f360 0242 	bfi	r2, r0, #1, #2
     7f0:	605a      	str	r2, [r3, #4]
     7f2:	685a      	ldr	r2, [r3, #4]
     7f4:	6059      	str	r1, [r3, #4]
     7f6:	f3c2 0241 	ubfx	r2, r2, #1, #2
     7fa:	4282      	cmp	r2, r0
     7fc:	685a      	ldr	r2, [r3, #4]
     7fe:	bf0c      	ite	eq
     800:	f042 0220 	orreq.w	r2, r2, #32
     804:	f042 0240 	orrne.w	r2, r2, #64	; 0x40
     808:	605a      	str	r2, [r3, #4]
     80a:	4770      	bx	lr
     80c:	200226c0 	.word	0x200226c0

00000810 <mskd_extract_ne>:
     810:	4b0a      	ldr	r3, [pc, #40]	; (83c <mskd_extract_ne+0x2c>)
     812:	2100      	movs	r1, #0
     814:	2002      	movs	r0, #2
     816:	6059      	str	r1, [r3, #4]
     818:	685a      	ldr	r2, [r3, #4]
     81a:	f360 0242 	bfi	r2, r0, #1, #2
     81e:	605a      	str	r2, [r3, #4]
     820:	685a      	ldr	r2, [r3, #4]
     822:	6059      	str	r1, [r3, #4]
     824:	f3c2 0241 	ubfx	r2, r2, #1, #2
     828:	4282      	cmp	r2, r0
     82a:	685a      	ldr	r2, [r3, #4]
     82c:	bf14      	ite	ne
     82e:	f042 0220 	orrne.w	r2, r2, #32
     832:	f042 0240 	orreq.w	r2, r2, #64	; 0x40
     836:	605a      	str	r2, [r3, #4]
     838:	4770      	bx	lr
     83a:	bf00      	nop
     83c:	200226c0 	.word	0x200226c0

00000840 <mskd_extract_lss>:
     840:	4b0b      	ldr	r3, [pc, #44]	; (870 <mskd_extract_lss+0x30>)
     842:	2100      	movs	r1, #0
     844:	4a0b      	ldr	r2, [pc, #44]	; (874 <mskd_extract_lss+0x34>)
     846:	b410      	push	{r4}
     848:	6059      	str	r1, [r3, #4]
     84a:	240b      	movs	r4, #11
     84c:	6858      	ldr	r0, [r3, #4]
     84e:	f364 605d 	bfi	r0, r4, #25, #5
     852:	6058      	str	r0, [r3, #4]
     854:	685b      	ldr	r3, [r3, #4]
     856:	6051      	str	r1, [r2, #4]
     858:	f3c3 6344 	ubfx	r3, r3, #25, #5
     85c:	42a3      	cmp	r3, r4
     85e:	6853      	ldr	r3, [r2, #4]
     860:	bf94      	ite	ls
     862:	f043 0320 	orrls.w	r3, r3, #32
     866:	f043 0340 	orrhi.w	r3, r3, #64	; 0x40
     86a:	6053      	str	r3, [r2, #4]
     86c:	bc10      	pop	{r4}
     86e:	4770      	bx	lr
     870:	20022620 	.word	0x20022620
     874:	200226c0 	.word	0x200226c0

00000878 <mskd_extract_leq>:
     878:	4b0f      	ldr	r3, [pc, #60]	; (8b8 <mskd_extract_leq+0x40>)
     87a:	2200      	movs	r2, #0
     87c:	480f      	ldr	r0, [pc, #60]	; (8bc <mskd_extract_leq+0x44>)
     87e:	b410      	push	{r4}
     880:	605a      	str	r2, [r3, #4]
     882:	2417      	movs	r4, #23
     884:	6859      	ldr	r1, [r3, #4]
     886:	f364 615d 	bfi	r1, r4, #25, #5
     88a:	6059      	str	r1, [r3, #4]
     88c:	685b      	ldr	r3, [r3, #4]
     88e:	6042      	str	r2, [r0, #4]
     890:	f3c3 6244 	ubfx	r2, r3, #25, #5
     894:	42a2      	cmp	r2, r4
     896:	d801      	bhi.n	89c <mskd_extract_leq+0x24>
     898:	2a18      	cmp	r2, #24
     89a:	d906      	bls.n	8aa <mskd_extract_leq+0x32>
     89c:	4a07      	ldr	r2, [pc, #28]	; (8bc <mskd_extract_leq+0x44>)
     89e:	6853      	ldr	r3, [r2, #4]
     8a0:	f043 0340 	orr.w	r3, r3, #64	; 0x40
     8a4:	6053      	str	r3, [r2, #4]
     8a6:	bc10      	pop	{r4}
     8a8:	4770      	bx	lr
     8aa:	6843      	ldr	r3, [r0, #4]
     8ac:	f043 0320 	orr.w	r3, r3, #32
     8b0:	6043      	str	r3, [r0, #4]
     8b2:	bc10      	pop	{r4}
     8b4:	4770      	bx	lr
     8b6:	bf00      	nop
     8b8:	20022620 	.word	0x20022620
     8bc:	200226c0 	.word	0x200226c0

000008c0 <mskd_extract_gtr>:
     8c0:	4b0b      	ldr	r3, [pc, #44]	; (8f0 <mskd_extract_gtr+0x30>)
     8c2:	2100      	movs	r1, #0
     8c4:	4a0b      	ldr	r2, [pc, #44]	; (8f4 <mskd_extract_gtr+0x34>)
     8c6:	b410      	push	{r4}
     8c8:	6059      	str	r1, [r3, #4]
     8ca:	2413      	movs	r4, #19
     8cc:	6858      	ldr	r0, [r3, #4]
     8ce:	f364 605d 	bfi	r0, r4, #25, #5
     8d2:	6058      	str	r0, [r3, #4]
     8d4:	685b      	ldr	r3, [r3, #4]
     8d6:	6051      	str	r1, [r2, #4]
     8d8:	f3c3 6344 	ubfx	r3, r3, #25, #5
     8dc:	2b12      	cmp	r3, #18
     8de:	6853      	ldr	r3, [r2, #4]
     8e0:	bf8c      	ite	hi
     8e2:	f043 0320 	orrhi.w	r3, r3, #32
     8e6:	f043 0340 	orrls.w	r3, r3, #64	; 0x40
     8ea:	6053      	str	r3, [r2, #4]
     8ec:	bc10      	pop	{r4}
     8ee:	4770      	bx	lr
     8f0:	20022620 	.word	0x20022620
     8f4:	200226c0 	.word	0x200226c0

000008f8 <set_bits_global>:
     8f8:	4a02      	ldr	r2, [pc, #8]	; (904 <set_bits_global+0xc>)
     8fa:	6853      	ldr	r3, [r2, #4]
     8fc:	f043 0340 	orr.w	r3, r3, #64	; 0x40
     900:	6053      	str	r3, [r2, #4]
     902:	4770      	bx	lr
     904:	200226c0 	.word	0x200226c0

00000908 <ins_mskd_global>:
     908:	4b03      	ldr	r3, [pc, #12]	; (918 <ins_mskd_global+0x10>)
     90a:	2101      	movs	r1, #1
     90c:	685a      	ldr	r2, [r3, #4]
     90e:	f361 0242 	bfi	r2, r1, #1, #2
     912:	605a      	str	r2, [r3, #4]
     914:	4770      	bx	lr
     916:	bf00      	nop
     918:	200226c0 	.word	0x200226c0

0000091c <assign_array_global>:
     91c:	4b01      	ldr	r3, [pc, #4]	; (924 <assign_array_global+0x8>)
     91e:	22bd      	movs	r2, #189	; 0xbd
     920:	601a      	str	r2, [r3, #0]
     922:	4770      	bx	lr
     924:	2002252c 	.word	0x2002252c

00000928 <shifted_global>:
     928:	4b05      	ldr	r3, [pc, #20]	; (940 <shifted_global+0x18>)
     92a:	2017      	movs	r0, #23
     92c:	4905      	ldr	r1, [pc, #20]	; (944 <shifted_global+0x1c>)
     92e:	685a      	ldr	r2, [r3, #4]
     930:	f360 625d 	bfi	r2, r0, #25, #5
     934:	605a      	str	r2, [r3, #4]
     936:	685b      	ldr	r3, [r3, #4]
     938:	f3c3 6344 	ubfx	r3, r3, #25, #5
     93c:	62cb      	str	r3, [r1, #44]	; 0x2c
     93e:	4770      	bx	lr
     940:	20022620 	.word	0x20022620
     944:	20022500 	.word	0x20022500

00000948 <assign_register_global>:
     948:	4b04      	ldr	r3, [pc, #16]	; (95c <assign_register_global+0x14>)
     94a:	2200      	movs	r2, #0
     94c:	2102      	movs	r1, #2
     94e:	605a      	str	r2, [r3, #4]
     950:	685a      	ldr	r2, [r3, #4]
     952:	f361 0242 	bfi	r2, r1, #1, #2
     956:	605a      	str	r2, [r3, #4]
     958:	4770      	bx	lr
     95a:	bf00      	nop
     95c:	200226c0 	.word	0x200226c0

00000960 <copy_bits_equ>:
     960:	4b0b      	ldr	r3, [pc, #44]	; (990 <copy_bits_equ+0x30>)
     962:	2100      	movs	r1, #0
     964:	6059      	str	r1, [r3, #4]
     966:	685a      	ldr	r2, [r3, #4]
     968:	f042 0240 	orr.w	r2, r2, #64	; 0x40
     96c:	605a      	str	r2, [r3, #4]
     96e:	685a      	ldr	r2, [r3, #4]
     970:	6059      	str	r1, [r3, #4]
     972:	f3c2 1280 	ubfx	r2, r2, #6, #1
     976:	b92a      	cbnz	r2, 984 <copy_bits_equ+0x24>
     978:	685a      	ldr	r2, [r3, #4]
     97a:	2102      	movs	r1, #2
     97c:	f361 0242 	bfi	r2, r1, #1, #2
     980:	605a      	str	r2, [r3, #4]
     982:	4770      	bx	lr
     984:	6859      	ldr	r1, [r3, #4]
     986:	f362 0142 	bfi	r1, r2, #1, #2
     98a:	6059      	str	r1, [r3, #4]
     98c:	4770      	bx	lr
     98e:	bf00      	nop
     990:	200226c0 	.word	0x200226c0

00000994 <copy_bits_neq>:
     994:	4b09      	ldr	r3, [pc, #36]	; (9bc <copy_bits_neq+0x28>)
     996:	2100      	movs	r1, #0
     998:	6059      	str	r1, [r3, #4]
     99a:	685a      	ldr	r2, [r3, #4]
     99c:	f042 0240 	orr.w	r2, r2, #64	; 0x40
     9a0:	605a      	str	r2, [r3, #4]
     9a2:	685a      	ldr	r2, [r3, #4]
     9a4:	6059      	str	r1, [r3, #4]
     9a6:	f012 0f40 	tst.w	r2, #64	; 0x40
     9aa:	685a      	ldr	r2, [r3, #4]
     9ac:	bf0c      	ite	eq
     9ae:	2101      	moveq	r1, #1
     9b0:	2102      	movne	r1, #2
     9b2:	f361 0242 	bfi	r2, r1, #1, #2
     9b6:	605a      	str	r2, [r3, #4]
     9b8:	4770      	bx	lr
     9ba:	bf00      	nop
     9bc:	200226c0 	.word	0x200226c0

000009c0 <copy_mskd_equ>:
     9c0:	2100      	movs	r1, #0
     9c2:	4b0b      	ldr	r3, [pc, #44]	; (9f0 <copy_mskd_equ+0x30>)
     9c4:	4a0b      	ldr	r2, [pc, #44]	; (9f4 <copy_mskd_equ+0x34>)
     9c6:	b410      	push	{r4}
     9c8:	6059      	str	r1, [r3, #4]
     9ca:	240b      	movs	r4, #11
     9cc:	6858      	ldr	r0, [r3, #4]
     9ce:	f364 605d 	bfi	r0, r4, #25, #5
     9d2:	6058      	str	r0, [r3, #4]
     9d4:	685b      	ldr	r3, [r3, #4]
     9d6:	6051      	str	r1, [r2, #4]
     9d8:	f3c3 6344 	ubfx	r3, r3, #25, #5
     9dc:	42a3      	cmp	r3, r4
     9de:	6853      	ldr	r3, [r2, #4]
     9e0:	bf0c      	ite	eq
     9e2:	2101      	moveq	r1, #1
     9e4:	2102      	movne	r1, #2
     9e6:	f361 0342 	bfi	r3, r1, #1, #2
     9ea:	6053      	str	r3, [r2, #4]
     9ec:	bc10      	pop	{r4}
     9ee:	4770      	bx	lr
     9f0:	20022620 	.word	0x20022620
     9f4:	200226c0 	.word	0x200226c0

000009f8 <copy_mskd_neq>:
     9f8:	2100      	movs	r1, #0
     9fa:	4b0b      	ldr	r3, [pc, #44]	; (a28 <copy_mskd_neq+0x30>)
     9fc:	4a0b      	ldr	r2, [pc, #44]	; (a2c <copy_mskd_neq+0x34>)
     9fe:	b410      	push	{r4}
     a00:	6059      	str	r1, [r3, #4]
     a02:	240d      	movs	r4, #13
     a04:	6858      	ldr	r0, [r3, #4]
     a06:	f364 605d 	bfi	r0, r4, #25, #5
     a0a:	6058      	str	r0, [r3, #4]
     a0c:	685b      	ldr	r3, [r3, #4]
     a0e:	6051      	str	r1, [r2, #4]
     a10:	f3c3 6344 	ubfx	r3, r3, #25, #5
     a14:	42a3      	cmp	r3, r4
     a16:	6853      	ldr	r3, [r2, #4]
     a18:	bf14      	ite	ne
     a1a:	2101      	movne	r1, #1
     a1c:	2102      	moveq	r1, #2
     a1e:	f361 0342 	bfi	r3, r1, #1, #2
     a22:	6053      	str	r3, [r2, #4]
     a24:	bc10      	pop	{r4}
     a26:	4770      	bx	lr
     a28:	20022620 	.word	0x20022620
     a2c:	200226c0 	.word	0x200226c0

00000a30 <copy_mskd_lss>:
     a30:	2100      	movs	r1, #0
     a32:	4b0b      	ldr	r3, [pc, #44]	; (a60 <copy_mskd_lss+0x30>)
     a34:	4a0b      	ldr	r2, [pc, #44]	; (a64 <copy_mskd_lss+0x34>)
     a36:	b410      	push	{r4}
     a38:	6059      	str	r1, [r3, #4]
     a3a:	241b      	movs	r4, #27
     a3c:	6858      	ldr	r0, [r3, #4]
     a3e:	f364 605d 	bfi	r0, r4, #25, #5
     a42:	6058      	str	r0, [r3, #4]
     a44:	685b      	ldr	r3, [r3, #4]
     a46:	6051      	str	r1, [r2, #4]
     a48:	f3c3 6344 	ubfx	r3, r3, #25, #5
     a4c:	42a3      	cmp	r3, r4
     a4e:	6853      	ldr	r3, [r2, #4]
     a50:	bf94      	ite	ls
     a52:	2101      	movls	r1, #1
     a54:	2102      	movhi	r1, #2
     a56:	f361 0342 	bfi	r3, r1, #1, #2
     a5a:	6053      	str	r3, [r2, #4]
     a5c:	bc10      	pop	{r4}
     a5e:	4770      	bx	lr
     a60:	20022620 	.word	0x20022620
     a64:	200226c0 	.word	0x200226c0

00000a68 <copy_mskd_leq>:
     a68:	2100      	movs	r1, #0
     a6a:	4b0b      	ldr	r3, [pc, #44]	; (a98 <copy_mskd_leq+0x30>)
     a6c:	4a0b      	ldr	r2, [pc, #44]	; (a9c <copy_mskd_leq+0x34>)
     a6e:	b410      	push	{r4}
     a70:	6059      	str	r1, [r3, #4]
     a72:	2417      	movs	r4, #23
     a74:	6858      	ldr	r0, [r3, #4]
     a76:	f364 605d 	bfi	r0, r4, #25, #5
     a7a:	6058      	str	r0, [r3, #4]
     a7c:	685b      	ldr	r3, [r3, #4]
     a7e:	6051      	str	r1, [r2, #4]
     a80:	f3c3 6344 	ubfx	r3, r3, #25, #5
     a84:	42a3      	cmp	r3, r4
     a86:	6853      	ldr	r3, [r2, #4]
     a88:	bf94      	ite	ls
     a8a:	2101      	movls	r1, #1
     a8c:	2102      	movhi	r1, #2
     a8e:	f361 0342 	bfi	r3, r1, #1, #2
     a92:	6053      	str	r3, [r2, #4]
     a94:	bc10      	pop	{r4}
     a96:	4770      	bx	lr
     a98:	20022620 	.word	0x20022620
     a9c:	200226c0 	.word	0x200226c0

00000aa0 <copy_mskd_gtr>:
     aa0:	2100      	movs	r1, #0
     aa2:	4b0b      	ldr	r3, [pc, #44]	; (ad0 <copy_mskd_gtr+0x30>)
     aa4:	4a0b      	ldr	r2, [pc, #44]	; (ad4 <copy_mskd_gtr+0x34>)
     aa6:	b410      	push	{r4}
     aa8:	6059      	str	r1, [r3, #4]
     aaa:	2413      	movs	r4, #19
     aac:	6858      	ldr	r0, [r3, #4]
     aae:	f364 605d 	bfi	r0, r4, #25, #5
     ab2:	6058      	str	r0, [r3, #4]
     ab4:	685b      	ldr	r3, [r3, #4]
     ab6:	6051      	str	r1, [r2, #4]
     ab8:	f3c3 6344 	ubfx	r3, r3, #25, #5
     abc:	2b12      	cmp	r3, #18
     abe:	6853      	ldr	r3, [r2, #4]
     ac0:	bf8c      	ite	hi
     ac2:	2101      	movhi	r1, #1
     ac4:	2102      	movls	r1, #2
     ac6:	f361 0342 	bfi	r3, r1, #1, #2
     aca:	6053      	str	r3, [r2, #4]
     acc:	bc10      	pop	{r4}
     ace:	4770      	bx	lr
     ad0:	20022620 	.word	0x20022620
     ad4:	200226c0 	.word	0x200226c0

00000ad8 <copy_mskd_geq>:
     ad8:	2100      	movs	r1, #0
     ada:	4b0b      	ldr	r3, [pc, #44]	; (b08 <copy_mskd_geq+0x30>)
     adc:	4a0b      	ldr	r2, [pc, #44]	; (b0c <copy_mskd_geq+0x34>)
     ade:	b410      	push	{r4}
     ae0:	6059      	str	r1, [r3, #4]
     ae2:	2411      	movs	r4, #17
     ae4:	6858      	ldr	r0, [r3, #4]
     ae6:	f364 605d 	bfi	r0, r4, #25, #5
     aea:	6058      	str	r0, [r3, #4]
     aec:	685b      	ldr	r3, [r3, #4]
     aee:	6051      	str	r1, [r2, #4]
     af0:	f3c3 6344 	ubfx	r3, r3, #25, #5
     af4:	2b10      	cmp	r3, #16
     af6:	6853      	ldr	r3, [r2, #4]
     af8:	bf8c      	ite	hi
     afa:	2101      	movhi	r1, #1
     afc:	2102      	movls	r1, #2
     afe:	f361 0342 	bfi	r3, r1, #1, #2
     b02:	6053      	str	r3, [r2, #4]
     b04:	bc10      	pop	{r4}
     b06:	4770      	bx	lr
     b08:	20022620 	.word	0x20022620
     b0c:	200226c0 	.word	0x200226c0

00000b10 <copy_shifted>:
     b10:	2100      	movs	r1, #0
     b12:	4b0b      	ldr	r3, [pc, #44]	; (b40 <copy_shifted+0x30>)
     b14:	4a0b      	ldr	r2, [pc, #44]	; (b44 <copy_shifted+0x34>)
     b16:	b410      	push	{r4}
     b18:	6059      	str	r1, [r3, #4]
     b1a:	240b      	movs	r4, #11
     b1c:	6858      	ldr	r0, [r3, #4]
     b1e:	f364 605d 	bfi	r0, r4, #25, #5
     b22:	6058      	str	r0, [r3, #4]
     b24:	685b      	ldr	r3, [r3, #4]
     b26:	6051      	str	r1, [r2, #4]
     b28:	f3c3 6344 	ubfx	r3, r3, #25, #5
     b2c:	42a3      	cmp	r3, r4
     b2e:	6853      	ldr	r3, [r2, #4]
     b30:	bf0c      	ite	eq
     b32:	2101      	moveq	r1, #1
     b34:	2102      	movne	r1, #2
     b36:	f361 0342 	bfi	r3, r1, #1, #2
     b3a:	6053      	str	r3, [r2, #4]
     b3c:	bc10      	pop	{r4}
     b3e:	4770      	bx	lr
     b40:	20022620 	.word	0x20022620
     b44:	200226c0 	.word	0x200226c0

00000b48 <shifted_ref.constprop.0>:
     b48:	4b06      	ldr	r3, [pc, #24]	; (b64 <shifted_ref.constprop.0+0x1c>)
     b4a:	2200      	movs	r2, #0
     b4c:	2017      	movs	r0, #23
     b4e:	4906      	ldr	r1, [pc, #24]	; (b68 <shifted_ref.constprop.0+0x20>)
     b50:	605a      	str	r2, [r3, #4]
     b52:	685a      	ldr	r2, [r3, #4]
     b54:	f360 625d 	bfi	r2, r0, #25, #5
     b58:	605a      	str	r2, [r3, #4]
     b5a:	685b      	ldr	r3, [r3, #4]
     b5c:	f3c3 6344 	ubfx	r3, r3, #25, #5
     b60:	62cb      	str	r3, [r1, #44]	; 0x2c
     b62:	4770      	bx	lr
     b64:	20022620 	.word	0x20022620
     b68:	20022500 	.word	0x20022500

00000b6c <call_shifted_const_ref>:
     b6c:	b500      	push	{lr}
     b6e:	b081      	sub	sp, #4
     b70:	2301      	movs	r3, #1
     b72:	4668      	mov	r0, sp
     b74:	9300      	str	r3, [sp, #0]
     b76:	f7ff ffe7 	bl	b48 <shifted_ref.constprop.0>
     b7a:	b001      	add	sp, #4
     b7c:	f85d fb04 	ldr.w	pc, [sp], #4

00000b80 <call_shifted_var_ref>:
     b80:	b500      	push	{lr}
     b82:	b081      	sub	sp, #4
     b84:	2301      	movs	r3, #1
     b86:	4668      	mov	r0, sp
     b88:	9300      	str	r3, [sp, #0]
     b8a:	f7ff ffdd 	bl	b48 <shifted_ref.constprop.0>
     b8e:	b001      	add	sp, #4
     b90:	f85d fb04 	ldr.w	pc, [sp], #4

00000b94 <call_shifted_global_ref>:
     b94:	b500      	push	{lr}
     b96:	b081      	sub	sp, #4
     b98:	2301      	movs	r3, #1
     b9a:	4668      	mov	r0, sp
     b9c:	9300      	str	r3, [sp, #0]
     b9e:	f7ff ffd3 	bl	b48 <shifted_ref.constprop.0>
     ba2:	b001      	add	sp, #4
     ba4:	f85d fb04 	ldr.w	pc, [sp], #4

00000ba8 <shifted_val.constprop.1>:
     ba8:	4b06      	ldr	r3, [pc, #24]	; (bc4 <shifted_val.constprop.1+0x1c>)
     baa:	2200      	movs	r2, #0
     bac:	2017      	movs	r0, #23
     bae:	4906      	ldr	r1, [pc, #24]	; (bc8 <shifted_val.constprop.1+0x20>)
     bb0:	605a      	str	r2, [r3, #4]
     bb2:	685a      	ldr	r2, [r3, #4]
     bb4:	f360 625d 	bfi	r2, r0, #25, #5
     bb8:	605a      	str	r2, [r3, #4]
     bba:	685b      	ldr	r3, [r3, #4]
     bbc:	f3c3 6344 	ubfx	r3, r3, #25, #5
     bc0:	62cb      	str	r3, [r1, #44]	; 0x2c
     bc2:	4770      	bx	lr
     bc4:	20022620 	.word	0x20022620
     bc8:	20022500 	.word	0x20022500

00000bcc <call_shifted_const_val>:
     bcc:	e7ec      	b.n	ba8 <shifted_val.constprop.1>
     bce:	bf00      	nop

00000bd0 <call_shifted_var_val>:
     bd0:	e7ea      	b.n	ba8 <shifted_val.constprop.1>
     bd2:	bf00      	nop

00000bd4 <call_shifted_global_val>:
     bd4:	e7e8      	b.n	ba8 <shifted_val.constprop.1>
     bd6:	bf00      	nop

00000bd8 <pos_ref.constprop.2>:
     bd8:	4b01      	ldr	r3, [pc, #4]	; (be0 <pos_ref.constprop.2+0x8>)
     bda:	2266      	movs	r2, #102	; 0x66
     bdc:	62da      	str	r2, [r3, #44]	; 0x2c
     bde:	4770      	bx	lr
     be0:	20022500 	.word	0x20022500

00000be4 <pos_ref.constprop.3>:
     be4:	4b01      	ldr	r3, [pc, #4]	; (bec <pos_ref.constprop.3+0x8>)
     be6:	2277      	movs	r2, #119	; 0x77
     be8:	62da      	str	r2, [r3, #44]	; 0x2c
     bea:	4770      	bx	lr
     bec:	20022500 	.word	0x20022500

00000bf0 <call_pos_ref_global>:
     bf0:	b500      	push	{lr}
     bf2:	b081      	sub	sp, #4
     bf4:	2304      	movs	r3, #4
     bf6:	4668      	mov	r0, sp
     bf8:	9300      	str	r3, [sp, #0]
     bfa:	f7ff fff3 	bl	be4 <pos_ref.constprop.3>
     bfe:	b001      	add	sp, #4
     c00:	f85d fb04 	ldr.w	pc, [sp], #4

00000c04 <pos_val.constprop.4>:
     c04:	4b01      	ldr	r3, [pc, #4]	; (c0c <pos_val.constprop.4+0x8>)
     c06:	2233      	movs	r2, #51	; 0x33
     c08:	62da      	str	r2, [r3, #44]	; 0x2c
     c0a:	4770      	bx	lr
     c0c:	20022500 	.word	0x20022500

00000c10 <pos_val.constprop.5>:
     c10:	4b01      	ldr	r3, [pc, #4]	; (c18 <pos_val.constprop.5+0x8>)
     c12:	2244      	movs	r2, #68	; 0x44
     c14:	62da      	str	r2, [r3, #44]	; 0x2c
     c16:	4770      	bx	lr
     c18:	20022500 	.word	0x20022500

00000c1c <call_pos_val>:
     c1c:	b500      	push	{lr}
     c1e:	f7ff fff1 	bl	c04 <pos_val.constprop.4>
     c22:	f85d eb04 	ldr.w	lr, [sp], #4
     c26:	e7f3      	b.n	c10 <pos_val.constprop.5>

00000c28 <call_pos_val_global>:
     c28:	e7f2      	b.n	c10 <pos_val.constprop.5>
     c2a:	bf00      	nop

00000c2c <reg_mskd_ref.constprop.6>:
     c2c:	4b03      	ldr	r3, [pc, #12]	; (c3c <reg_mskd_ref.constprop.6+0x10>)
     c2e:	2101      	movs	r1, #1
     c30:	681a      	ldr	r2, [r3, #0]
     c32:	f361 0242 	bfi	r2, r1, #1, #2
     c36:	601a      	str	r2, [r3, #0]
     c38:	4770      	bx	lr
     c3a:	bf00      	nop
     c3c:	200226c4 	.word	0x200226c4

00000c40 <call_reg_mskd_ref>:
     c40:	b500      	push	{lr}
     c42:	b081      	sub	sp, #4
     c44:	2301      	movs	r3, #1
     c46:	4668      	mov	r0, sp
     c48:	9300      	str	r3, [sp, #0]
     c4a:	f7ff ffef 	bl	c2c <reg_mskd_ref.constprop.6>
     c4e:	b001      	add	sp, #4
     c50:	f85d fb04 	ldr.w	pc, [sp], #4

00000c54 <periph_mskd_ref.constprop.7>:
     c54:	4b03      	ldr	r3, [pc, #12]	; (c64 <periph_mskd_ref.constprop.7+0x10>)
     c56:	2101      	movs	r1, #1
     c58:	685a      	ldr	r2, [r3, #4]
     c5a:	f361 0242 	bfi	r2, r1, #1, #2
     c5e:	605a      	str	r2, [r3, #4]
     c60:	4770      	bx	lr
     c62:	bf00      	nop
     c64:	200226c0 	.word	0x200226c0

00000c68 <call_periph_mskd_ref>:
     c68:	b500      	push	{lr}
     c6a:	b081      	sub	sp, #4
     c6c:	2301      	movs	r3, #1
     c6e:	4668      	mov	r0, sp
     c70:	9300      	str	r3, [sp, #0]
     c72:	f7ff ffef 	bl	c54 <periph_mskd_ref.constprop.7>
     c76:	b001      	add	sp, #4
     c78:	f85d fb04 	ldr.w	pc, [sp], #4

00000c7c <reg_mskd_val.constprop.8>:
     c7c:	4b03      	ldr	r3, [pc, #12]	; (c8c <reg_mskd_val.constprop.8+0x10>)
     c7e:	2101      	movs	r1, #1
     c80:	681a      	ldr	r2, [r3, #0]
     c82:	f361 0242 	bfi	r2, r1, #1, #2
     c86:	601a      	str	r2, [r3, #0]
     c88:	4770      	bx	lr
     c8a:	bf00      	nop
     c8c:	200226c4 	.word	0x200226c4

00000c90 <call_reg_mskd_val>:
     c90:	e7f4      	b.n	c7c <reg_mskd_val.constprop.8>
     c92:	bf00      	nop

00000c94 <periph_mskd_val.constprop.9>:
     c94:	4b03      	ldr	r3, [pc, #12]	; (ca4 <periph_mskd_val.constprop.9+0x10>)
     c96:	2101      	movs	r1, #1
     c98:	685a      	ldr	r2, [r3, #4]
     c9a:	f361 0242 	bfi	r2, r1, #1, #2
     c9e:	605a      	str	r2, [r3, #4]
     ca0:	4770      	bx	lr
     ca2:	bf00      	nop
     ca4:	200226c0 	.word	0x200226c0

00000ca8 <call_periph_mskd_val>:
     ca8:	e7f4      	b.n	c94 <periph_mskd_val.constprop.9>
     caa:	bf00      	nop

00000cac <reg_bits_ref.constprop.10>:
     cac:	4a02      	ldr	r2, [pc, #8]	; (cb8 <reg_bits_ref.constprop.10+0xc>)
     cae:	6813      	ldr	r3, [r2, #0]
     cb0:	f043 0340 	orr.w	r3, r3, #64	; 0x40
     cb4:	6013      	str	r3, [r2, #0]
     cb6:	4770      	bx	lr
     cb8:	200226c4 	.word	0x200226c4

00000cbc <call_reg_bits_ref>:
     cbc:	b500      	push	{lr}
     cbe:	b081      	sub	sp, #4
     cc0:	2304      	movs	r3, #4
     cc2:	4668      	mov	r0, sp
     cc4:	9300      	str	r3, [sp, #0]
     cc6:	f7ff fff1 	bl	cac <reg_bits_ref.constprop.10>
     cca:	b001      	add	sp, #4
     ccc:	f85d fb04 	ldr.w	pc, [sp], #4

00000cd0 <periph_bits_ref.constprop.11>:
     cd0:	4a02      	ldr	r2, [pc, #8]	; (cdc <periph_bits_ref.constprop.11+0xc>)
     cd2:	6853      	ldr	r3, [r2, #4]
     cd4:	f043 0340 	orr.w	r3, r3, #64	; 0x40
     cd8:	6053      	str	r3, [r2, #4]
     cda:	4770      	bx	lr
     cdc:	200226c0 	.word	0x200226c0

00000ce0 <call_periph_bits_ref>:
     ce0:	b500      	push	{lr}
     ce2:	b081      	sub	sp, #4
     ce4:	2304      	movs	r3, #4
     ce6:	4668      	mov	r0, sp
     ce8:	9300      	str	r3, [sp, #0]
     cea:	f7ff fff1 	bl	cd0 <periph_bits_ref.constprop.11>
     cee:	b001      	add	sp, #4
     cf0:	f85d fb04 	ldr.w	pc, [sp], #4

00000cf4 <reg_bits_val.constprop.12>:
     cf4:	4a02      	ldr	r2, [pc, #8]	; (d00 <reg_bits_val.constprop.12+0xc>)
     cf6:	6813      	ldr	r3, [r2, #0]
     cf8:	f043 0340 	orr.w	r3, r3, #64	; 0x40
     cfc:	6013      	str	r3, [r2, #0]
     cfe:	4770      	bx	lr
     d00:	200226c4 	.word	0x200226c4

00000d04 <call_reg_bits_val>:
     d04:	e7f6      	b.n	cf4 <reg_bits_val.constprop.12>
     d06:	bf00      	nop

00000d08 <periph_bits_val.constprop.13>:
     d08:	4a02      	ldr	r2, [pc, #8]	; (d14 <periph_bits_val.constprop.13+0xc>)
     d0a:	6853      	ldr	r3, [r2, #4]
     d0c:	f043 0340 	orr.w	r3, r3, #64	; 0x40
     d10:	6053      	str	r3, [r2, #4]
     d12:	4770      	bx	lr
     d14:	200226c0 	.word	0x200226c0

00000d18 <call_periph_bits_val>:
     d18:	e7f6      	b.n	d08 <periph_bits_val.constprop.13>
     d1a:	bf00      	nop

00000d1c <mskd_ref.constprop.14>:
     d1c:	4b05      	ldr	r3, [pc, #20]	; (d34 <mskd_ref.constprop.14+0x18>)
     d1e:	6808      	ldr	r0, [r1, #0]
     d20:	685a      	ldr	r2, [r3, #4]
     d22:	f360 0242 	bfi	r2, r0, #1, #2
     d26:	605a      	str	r2, [r3, #4]
     d28:	6809      	ldr	r1, [r1, #0]
     d2a:	685a      	ldr	r2, [r3, #4]
     d2c:	f361 0242 	bfi	r2, r1, #1, #2
     d30:	605a      	str	r2, [r3, #4]
     d32:	4770      	bx	lr
     d34:	200226c0 	.word	0x200226c0

00000d38 <call_mskd_ref_const>:
     d38:	b500      	push	{lr}
     d3a:	b082      	sub	sp, #8
     d3c:	2201      	movs	r2, #1
     d3e:	2302      	movs	r3, #2
     d40:	a901      	add	r1, sp, #4
     d42:	4668      	mov	r0, sp
     d44:	e88d 000c 	stmia.w	sp, {r2, r3}
     d48:	f7ff ffe8 	bl	d1c <mskd_ref.constprop.14>
     d4c:	b002      	add	sp, #8
     d4e:	f85d fb04 	ldr.w	pc, [sp], #4
     d52:	bf00      	nop

00000d54 <call_mskd_ref_var>:
     d54:	b500      	push	{lr}
     d56:	b082      	sub	sp, #8
     d58:	2301      	movs	r3, #1
     d5a:	a901      	add	r1, sp, #4
     d5c:	4668      	mov	r0, sp
     d5e:	9300      	str	r3, [sp, #0]
     d60:	9301      	str	r3, [sp, #4]
     d62:	f7ff ffdb 	bl	d1c <mskd_ref.constprop.14>
     d66:	b002      	add	sp, #8
     d68:	f85d fb04 	ldr.w	pc, [sp], #4

00000d6c <call_mskd_ref_global>:
     d6c:	b500      	push	{lr}
     d6e:	b082      	sub	sp, #8
     d70:	2301      	movs	r3, #1
     d72:	a901      	add	r1, sp, #4
     d74:	4668      	mov	r0, sp
     d76:	9300      	str	r3, [sp, #0]
     d78:	9301      	str	r3, [sp, #4]
     d7a:	f7ff ffcf 	bl	d1c <mskd_ref.constprop.14>
     d7e:	b002      	add	sp, #8
     d80:	f85d fb04 	ldr.w	pc, [sp], #4

00000d84 <mskd_val.constprop.15>:
     d84:	4b05      	ldr	r3, [pc, #20]	; (d9c <mskd_val.constprop.15+0x18>)
     d86:	2101      	movs	r1, #1
     d88:	685a      	ldr	r2, [r3, #4]
     d8a:	f361 0242 	bfi	r2, r1, #1, #2
     d8e:	605a      	str	r2, [r3, #4]
     d90:	685a      	ldr	r2, [r3, #4]
     d92:	f361 0242 	bfi	r2, r1, #1, #2
     d96:	605a      	str	r2, [r3, #4]
     d98:	4770      	bx	lr
     d9a:	bf00      	nop
     d9c:	200226c0 	.word	0x200226c0

00000da0 <call_mskd_val_const>:
     da0:	b500      	push	{lr}
     da2:	f7ff ffef 	bl	d84 <mskd_val.constprop.15>
     da6:	f85d eb04 	ldr.w	lr, [sp], #4
     daa:	e7eb      	b.n	d84 <mskd_val.constprop.15>

00000dac <call_mskd_val_var>:
     dac:	b500      	push	{lr}
     dae:	f7ff ffe9 	bl	d84 <mskd_val.constprop.15>
     db2:	f85d eb04 	ldr.w	lr, [sp], #4
     db6:	e7e5      	b.n	d84 <mskd_val.constprop.15>

00000db8 <call_mskd_val_global>:
     db8:	e7e4      	b.n	d84 <mskd_val.constprop.15>
     dba:	bf00      	nop

00000dbc <bits_ref.constprop.16>:
     dbc:	4b05      	ldr	r3, [pc, #20]	; (dd4 <bits_ref.constprop.16+0x18>)
     dbe:	685a      	ldr	r2, [r3, #4]
     dc0:	f042 0201 	orr.w	r2, r2, #1
     dc4:	605a      	str	r2, [r3, #4]
     dc6:	6809      	ldr	r1, [r1, #0]
     dc8:	685a      	ldr	r2, [r3, #4]
     dca:	f361 0200 	bfi	r2, r1, #0, #1
     dce:	605a      	str	r2, [r3, #4]
     dd0:	4770      	bx	lr
     dd2:	bf00      	nop
     dd4:	200226c0 	.word	0x200226c0

00000dd8 <call_bits_ref_const>:
     dd8:	b500      	push	{lr}
     dda:	b082      	sub	sp, #8
     ddc:	2200      	movs	r2, #0
     dde:	2301      	movs	r3, #1
     de0:	a901      	add	r1, sp, #4
     de2:	4668      	mov	r0, sp
     de4:	e88d 000c 	stmia.w	sp, {r2, r3}
     de8:	f7ff ffe8 	bl	dbc <bits_ref.constprop.16>
     dec:	b002      	add	sp, #8
     dee:	f85d fb04 	ldr.w	pc, [sp], #4
     df2:	bf00      	nop

00000df4 <call_bits_ref_var>:
     df4:	b500      	push	{lr}
     df6:	b082      	sub	sp, #8
     df8:	2200      	movs	r2, #0
     dfa:	2301      	movs	r3, #1
     dfc:	a901      	add	r1, sp, #4
     dfe:	4668      	mov	r0, sp
     e00:	e88d 000c 	stmia.w	sp, {r2, r3}
     e04:	f7ff ffda 	bl	dbc <bits_ref.constprop.16>
     e08:	b002      	add	sp, #8
     e0a:	f85d fb04 	ldr.w	pc, [sp], #4
     e0e:	bf00      	nop

00000e10 <bits_ref.constprop.17>:
     e10:	4b05      	ldr	r3, [pc, #20]	; (e28 <bits_ref.constprop.17+0x18>)
     e12:	685a      	ldr	r2, [r3, #4]
     e14:	f042 0240 	orr.w	r2, r2, #64	; 0x40
     e18:	605a      	str	r2, [r3, #4]
     e1a:	6809      	ldr	r1, [r1, #0]
     e1c:	685a      	ldr	r2, [r3, #4]
     e1e:	f361 1286 	bfi	r2, r1, #6, #1
     e22:	605a      	str	r2, [r3, #4]
     e24:	4770      	bx	lr
     e26:	bf00      	nop
     e28:	200226c0 	.word	0x200226c0

00000e2c <call_bits_ref_global>:
     e2c:	b500      	push	{lr}
     e2e:	2204      	movs	r2, #4
     e30:	b082      	sub	sp, #8
     e32:	2301      	movs	r3, #1
     e34:	eb0d 0102 	add.w	r1, sp, r2
     e38:	4668      	mov	r0, sp
     e3a:	e88d 000c 	stmia.w	sp, {r2, r3}
     e3e:	f7ff ffe7 	bl	e10 <bits_ref.constprop.17>
     e42:	b002      	add	sp, #8
     e44:	f85d fb04 	ldr.w	pc, [sp], #4

00000e48 <bits_val.constprop.18>:
     e48:	4b04      	ldr	r3, [pc, #16]	; (e5c <bits_val.constprop.18+0x14>)
     e4a:	685a      	ldr	r2, [r3, #4]
     e4c:	f042 0240 	orr.w	r2, r2, #64	; 0x40
     e50:	605a      	str	r2, [r3, #4]
     e52:	685a      	ldr	r2, [r3, #4]
     e54:	f042 0240 	orr.w	r2, r2, #64	; 0x40
     e58:	605a      	str	r2, [r3, #4]
     e5a:	4770      	bx	lr
     e5c:	200226c0 	.word	0x200226c0

00000e60 <call_bits_val_const>:
     e60:	e7f2      	b.n	e48 <bits_val.constprop.18>
     e62:	bf00      	nop

00000e64 <call_bits_val_var>:
     e64:	e7f0      	b.n	e48 <bits_val.constprop.18>
     e66:	bf00      	nop

00000e68 <call_bits_val_global>:
     e68:	e7ee      	b.n	e48 <bits_val.constprop.18>
     e6a:	bf00      	nop

00000e6c <bits_val>:
     e6c:	2803      	cmp	r0, #3
     e6e:	d003      	beq.n	e78 <bits_val+0xc>
     e70:	2804      	cmp	r0, #4
     e72:	d019      	beq.n	ea8 <bits_val+0x3c>
     e74:	b160      	cbz	r0, e90 <bits_val+0x24>
     e76:	4770      	bx	lr
     e78:	4b11      	ldr	r3, [pc, #68]	; (ec0 <bits_val+0x54>)
     e7a:	f001 0101 	and.w	r1, r1, #1
     e7e:	685a      	ldr	r2, [r3, #4]
     e80:	f361 1245 	bfi	r2, r1, #5, #1
     e84:	605a      	str	r2, [r3, #4]
     e86:	685a      	ldr	r2, [r3, #4]
     e88:	f361 1245 	bfi	r2, r1, #5, #1
     e8c:	605a      	str	r2, [r3, #4]
     e8e:	4770      	bx	lr
     e90:	4b0b      	ldr	r3, [pc, #44]	; (ec0 <bits_val+0x54>)
     e92:	f001 0101 	and.w	r1, r1, #1
     e96:	685a      	ldr	r2, [r3, #4]
     e98:	f361 0200 	bfi	r2, r1, #0, #1
     e9c:	605a      	str	r2, [r3, #4]
     e9e:	685a      	ldr	r2, [r3, #4]
     ea0:	f361 0200 	bfi	r2, r1, #0, #1
     ea4:	605a      	str	r2, [r3, #4]
     ea6:	4770      	bx	lr
     ea8:	4b05      	ldr	r3, [pc, #20]	; (ec0 <bits_val+0x54>)
     eaa:	f001 0101 	and.w	r1, r1, #1
     eae:	685a      	ldr	r2, [r3, #4]
     eb0:	f361 1286 	bfi	r2, r1, #6, #1
     eb4:	605a      	str	r2, [r3, #4]
     eb6:	685a      	ldr	r2, [r3, #4]
     eb8:	f361 1286 	bfi	r2, r1, #6, #1
     ebc:	605a      	str	r2, [r3, #4]
     ebe:	4770      	bx	lr
     ec0:	200226c0 	.word	0x200226c0

00000ec4 <bits_ref>:
     ec4:	6803      	ldr	r3, [r0, #0]
     ec6:	2b03      	cmp	r3, #3
     ec8:	d003      	beq.n	ed2 <bits_ref+0xe>
     eca:	2b04      	cmp	r3, #4
     ecc:	d019      	beq.n	f02 <bits_ref+0x3e>
     ece:	b163      	cbz	r3, eea <bits_ref+0x26>
     ed0:	4770      	bx	lr
     ed2:	4b12      	ldr	r3, [pc, #72]	; (f1c <bits_ref+0x58>)
     ed4:	6808      	ldr	r0, [r1, #0]
     ed6:	685a      	ldr	r2, [r3, #4]
     ed8:	f360 1245 	bfi	r2, r0, #5, #1
     edc:	605a      	str	r2, [r3, #4]
     ede:	6809      	ldr	r1, [r1, #0]
     ee0:	685a      	ldr	r2, [r3, #4]
     ee2:	f361 1245 	bfi	r2, r1, #5, #1
     ee6:	605a      	str	r2, [r3, #4]
     ee8:	4770      	bx	lr
     eea:	4b0c      	ldr	r3, [pc, #48]	; (f1c <bits_ref+0x58>)
     eec:	6808      	ldr	r0, [r1, #0]
     eee:	685a      	ldr	r2, [r3, #4]
     ef0:	f360 0200 	bfi	r2, r0, #0, #1
     ef4:	605a      	str	r2, [r3, #4]
     ef6:	6809      	ldr	r1, [r1, #0]
     ef8:	685a      	ldr	r2, [r3, #4]
     efa:	f361 0200 	bfi	r2, r1, #0, #1
     efe:	605a      	str	r2, [r3, #4]
     f00:	4770      	bx	lr
     f02:	4b06      	ldr	r3, [pc, #24]	; (f1c <bits_ref+0x58>)
     f04:	6808      	ldr	r0, [r1, #0]
     f06:	685a      	ldr	r2, [r3, #4]
     f08:	f360 1286 	bfi	r2, r0, #6, #1
     f0c:	605a      	str	r2, [r3, #4]
     f0e:	6809      	ldr	r1, [r1, #0]
     f10:	685a      	ldr	r2, [r3, #4]
     f12:	f361 1286 	bfi	r2, r1, #6, #1
     f16:	605a      	str	r2, [r3, #4]
     f18:	4770      	bx	lr
     f1a:	bf00      	nop
     f1c:	200226c0 	.word	0x200226c0

00000f20 <mskd_val>:
     f20:	2806      	cmp	r0, #6
     f22:	d810      	bhi.n	f46 <mskd_val+0x26>
     f24:	e8df f000 	tbb	[pc, r0]
     f28:	1c104034 	.word	0x1c104034
     f2c:	2810      	.short	0x2810
     f2e:	04          	.byte	0x04
     f2f:	00          	.byte	0x00
     f30:	4b23      	ldr	r3, [pc, #140]	; (fc0 <mskd_val+0xa0>)
     f32:	f001 011f 	and.w	r1, r1, #31
     f36:	685a      	ldr	r2, [r3, #4]
     f38:	f361 3210 	bfi	r2, r1, #12, #5
     f3c:	605a      	str	r2, [r3, #4]
     f3e:	685a      	ldr	r2, [r3, #4]
     f40:	f361 3210 	bfi	r2, r1, #12, #5
     f44:	605a      	str	r2, [r3, #4]
     f46:	4770      	bx	lr
     f48:	4b1d      	ldr	r3, [pc, #116]	; (fc0 <mskd_val+0xa0>)
     f4a:	f001 0103 	and.w	r1, r1, #3
     f4e:	685a      	ldr	r2, [r3, #4]
     f50:	f361 02c4 	bfi	r2, r1, #3, #2
     f54:	605a      	str	r2, [r3, #4]
     f56:	685a      	ldr	r2, [r3, #4]
     f58:	f361 02c4 	bfi	r2, r1, #3, #2
     f5c:	605a      	str	r2, [r3, #4]
     f5e:	4770      	bx	lr
     f60:	4b17      	ldr	r3, [pc, #92]	; (fc0 <mskd_val+0xa0>)
     f62:	f001 0101 	and.w	r1, r1, #1
     f66:	685a      	ldr	r2, [r3, #4]
     f68:	f361 1245 	bfi	r2, r1, #5, #1
     f6c:	605a      	str	r2, [r3, #4]
     f6e:	685a      	ldr	r2, [r3, #4]
     f70:	f361 1245 	bfi	r2, r1, #5, #1
     f74:	605a      	str	r2, [r3, #4]
     f76:	4770      	bx	lr
     f78:	4b11      	ldr	r3, [pc, #68]	; (fc0 <mskd_val+0xa0>)
     f7a:	f001 011f 	and.w	r1, r1, #31
     f7e:	685a      	ldr	r2, [r3, #4]
     f80:	f361 12cb 	bfi	r2, r1, #7, #5
     f84:	605a      	str	r2, [r3, #4]
     f86:	685a      	ldr	r2, [r3, #4]
     f88:	f361 12cb 	bfi	r2, r1, #7, #5
     f8c:	605a      	str	r2, [r3, #4]
     f8e:	4770      	bx	lr
     f90:	4b0b      	ldr	r3, [pc, #44]	; (fc0 <mskd_val+0xa0>)
     f92:	f001 0101 	and.w	r1, r1, #1
     f96:	685a      	ldr	r2, [r3, #4]
     f98:	f361 0200 	bfi	r2, r1, #0, #1
     f9c:	605a      	str	r2, [r3, #4]
     f9e:	685a      	ldr	r2, [r3, #4]
     fa0:	f361 0200 	bfi	r2, r1, #0, #1
     fa4:	605a      	str	r2, [r3, #4]
     fa6:	4770      	bx	lr
     fa8:	4b05      	ldr	r3, [pc, #20]	; (fc0 <mskd_val+0xa0>)
     faa:	f001 0103 	and.w	r1, r1, #3
     fae:	685a      	ldr	r2, [r3, #4]
     fb0:	f361 0242 	bfi	r2, r1, #1, #2
     fb4:	605a      	str	r2, [r3, #4]
     fb6:	685a      	ldr	r2, [r3, #4]
     fb8:	f361 0242 	bfi	r2, r1, #1, #2
     fbc:	605a      	str	r2, [r3, #4]
     fbe:	4770      	bx	lr
     fc0:	200226c0 	.word	0x200226c0

00000fc4 <mskd_ref>:
     fc4:	6803      	ldr	r3, [r0, #0]
     fc6:	2b06      	cmp	r3, #6
     fc8:	d810      	bhi.n	fec <mskd_ref+0x28>
     fca:	e8df f003 	tbb	[pc, r3]
     fce:	4034      	.short	0x4034
     fd0:	28101c10 	.word	0x28101c10
     fd4:	04          	.byte	0x04
     fd5:	00          	.byte	0x00
     fd6:	4b24      	ldr	r3, [pc, #144]	; (1068 <mskd_ref+0xa4>)
     fd8:	6808      	ldr	r0, [r1, #0]
     fda:	685a      	ldr	r2, [r3, #4]
     fdc:	f360 3210 	bfi	r2, r0, #12, #5
     fe0:	605a      	str	r2, [r3, #4]
     fe2:	6809      	ldr	r1, [r1, #0]
     fe4:	685a      	ldr	r2, [r3, #4]
     fe6:	f361 3210 	bfi	r2, r1, #12, #5
     fea:	605a      	str	r2, [r3, #4]
     fec:	4770      	bx	lr
     fee:	4b1e      	ldr	r3, [pc, #120]	; (1068 <mskd_ref+0xa4>)
     ff0:	6808      	ldr	r0, [r1, #0]
     ff2:	685a      	ldr	r2, [r3, #4]
     ff4:	f360 02c4 	bfi	r2, r0, #3, #2
     ff8:	605a      	str	r2, [r3, #4]
     ffa:	6809      	ldr	r1, [r1, #0]
     ffc:	685a      	ldr	r2, [r3, #4]
     ffe:	f361 02c4 	bfi	r2, r1, #3, #2
    1002:	605a      	str	r2, [r3, #4]
    1004:	4770      	bx	lr
    1006:	4b18      	ldr	r3, [pc, #96]	; (1068 <mskd_ref+0xa4>)
    1008:	6808      	ldr	r0, [r1, #0]
    100a:	685a      	ldr	r2, [r3, #4]
    100c:	f360 1245 	bfi	r2, r0, #5, #1
    1010:	605a      	str	r2, [r3, #4]
    1012:	6809      	ldr	r1, [r1, #0]
    1014:	685a      	ldr	r2, [r3, #4]
    1016:	f361 1245 	bfi	r2, r1, #5, #1
    101a:	605a      	str	r2, [r3, #4]
    101c:	4770      	bx	lr
    101e:	4b12      	ldr	r3, [pc, #72]	; (1068 <mskd_ref+0xa4>)
    1020:	6808      	ldr	r0, [r1, #0]
    1022:	685a      	ldr	r2, [r3, #4]
    1024:	f360 12cb 	bfi	r2, r0, #7, #5
    1028:	605a      	str	r2, [r3, #4]
    102a:	6809      	ldr	r1, [r1, #0]
    102c:	685a      	ldr	r2, [r3, #4]
    102e:	f361 12cb 	bfi	r2, r1, #7, #5
    1032:	605a      	str	r2, [r3, #4]
    1034:	4770      	bx	lr
    1036:	4b0c      	ldr	r3, [pc, #48]	; (1068 <mskd_ref+0xa4>)
    1038:	6808      	ldr	r0, [r1, #0]
    103a:	685a      	ldr	r2, [r3, #4]
    103c:	f360 0200 	bfi	r2, r0, #0, #1
    1040:	605a      	str	r2, [r3, #4]
    1042:	6809      	ldr	r1, [r1, #0]
    1044:	685a      	ldr	r2, [r3, #4]
    1046:	f361 0200 	bfi	r2, r1, #0, #1
    104a:	605a      	str	r2, [r3, #4]
    104c:	4770      	bx	lr
    104e:	4b06      	ldr	r3, [pc, #24]	; (1068 <mskd_ref+0xa4>)
    1050:	6808      	ldr	r0, [r1, #0]
    1052:	685a      	ldr	r2, [r3, #4]
    1054:	f360 0242 	bfi	r2, r0, #1, #2
    1058:	605a      	str	r2, [r3, #4]
    105a:	6809      	ldr	r1, [r1, #0]
    105c:	685a      	ldr	r2, [r3, #4]
    105e:	f361 0242 	bfi	r2, r1, #1, #2
    1062:	605a      	str	r2, [r3, #4]
    1064:	4770      	bx	lr
    1066:	bf00      	nop
    1068:	200226c0 	.word	0x200226c0

0000106c <periph_bits>:
    106c:	6843      	ldr	r3, [r0, #4]
    106e:	f043 0340 	orr.w	r3, r3, #64	; 0x40
    1072:	6043      	str	r3, [r0, #4]
    1074:	4770      	bx	lr
    1076:	bf00      	nop

00001078 <call_periph_bits>:
    1078:	4801      	ldr	r0, [pc, #4]	; (1080 <call_periph_bits+0x8>)
    107a:	f7ff bffe 	b.w	106c <periph_bits>
    107e:	bf00      	nop
    1080:	200226c0 	.word	0x200226c0

00001084 <periph_bits_val>:
    1084:	2904      	cmp	r1, #4
    1086:	d103      	bne.n	1090 <periph_bits_val+0xc>
    1088:	6843      	ldr	r3, [r0, #4]
    108a:	f043 0340 	orr.w	r3, r3, #64	; 0x40
    108e:	6043      	str	r3, [r0, #4]
    1090:	4770      	bx	lr
    1092:	bf00      	nop

00001094 <reg_bits_val>:
    1094:	2904      	cmp	r1, #4
    1096:	d103      	bne.n	10a0 <reg_bits_val+0xc>
    1098:	6803      	ldr	r3, [r0, #0]
    109a:	f043 0340 	orr.w	r3, r3, #64	; 0x40
    109e:	6003      	str	r3, [r0, #0]
    10a0:	4770      	bx	lr
    10a2:	bf00      	nop

000010a4 <periph_bits_ref>:
    10a4:	680b      	ldr	r3, [r1, #0]
    10a6:	2b04      	cmp	r3, #4
    10a8:	d103      	bne.n	10b2 <periph_bits_ref+0xe>
    10aa:	6843      	ldr	r3, [r0, #4]
    10ac:	f043 0340 	orr.w	r3, r3, #64	; 0x40
    10b0:	6043      	str	r3, [r0, #4]
    10b2:	4770      	bx	lr

000010b4 <reg_bits_ref>:
    10b4:	680b      	ldr	r3, [r1, #0]
    10b6:	2b04      	cmp	r3, #4
    10b8:	d103      	bne.n	10c2 <reg_bits_ref+0xe>
    10ba:	6803      	ldr	r3, [r0, #0]
    10bc:	f043 0340 	orr.w	r3, r3, #64	; 0x40
    10c0:	6003      	str	r3, [r0, #0]
    10c2:	4770      	bx	lr

000010c4 <periph_mskd>:
    10c4:	6843      	ldr	r3, [r0, #4]
    10c6:	2201      	movs	r2, #1
    10c8:	f362 0342 	bfi	r3, r2, #1, #2
    10cc:	6043      	str	r3, [r0, #4]
    10ce:	4770      	bx	lr

000010d0 <call_periph_mskd>:
    10d0:	4801      	ldr	r0, [pc, #4]	; (10d8 <call_periph_mskd+0x8>)
    10d2:	f7ff bffe 	b.w	10c4 <periph_mskd>
    10d6:	bf00      	nop
    10d8:	200226c0 	.word	0x200226c0

000010dc <periph_mskd_val>:
    10dc:	2901      	cmp	r1, #1
    10de:	d103      	bne.n	10e8 <periph_mskd_val+0xc>
    10e0:	6843      	ldr	r3, [r0, #4]
    10e2:	f361 0342 	bfi	r3, r1, #1, #2
    10e6:	6043      	str	r3, [r0, #4]
    10e8:	4770      	bx	lr
    10ea:	bf00      	nop

000010ec <reg_mskd_val>:
    10ec:	2901      	cmp	r1, #1
    10ee:	d103      	bne.n	10f8 <reg_mskd_val+0xc>
    10f0:	6803      	ldr	r3, [r0, #0]
    10f2:	f361 0342 	bfi	r3, r1, #1, #2
    10f6:	6003      	str	r3, [r0, #0]
    10f8:	4770      	bx	lr
    10fa:	bf00      	nop

000010fc <periph_mskd_ref>:
    10fc:	680b      	ldr	r3, [r1, #0]
    10fe:	2b01      	cmp	r3, #1
    1100:	d103      	bne.n	110a <periph_mskd_ref+0xe>
    1102:	6842      	ldr	r2, [r0, #4]
    1104:	f363 0242 	bfi	r2, r3, #1, #2
    1108:	6042      	str	r2, [r0, #4]
    110a:	4770      	bx	lr

0000110c <reg_mskd_ref>:
    110c:	680b      	ldr	r3, [r1, #0]
    110e:	2b01      	cmp	r3, #1
    1110:	d103      	bne.n	111a <reg_mskd_ref+0xe>
    1112:	6802      	ldr	r2, [r0, #0]
    1114:	f363 0242 	bfi	r2, r3, #1, #2
    1118:	6002      	str	r2, [r0, #0]
    111a:	4770      	bx	lr

0000111c <return_bits>:
    111c:	2001      	movs	r0, #1
    111e:	4770      	bx	lr

00001120 <call_return_bits>:
    1120:	b500      	push	{lr}
    1122:	f7ff fffe 	bl	111c <return_bits>
    1126:	4b08      	ldr	r3, [pc, #32]	; (1148 <call_return_bits+0x28>)
    1128:	2200      	movs	r2, #0
    112a:	2801      	cmp	r0, #1
    112c:	605a      	str	r2, [r3, #4]
    112e:	685a      	ldr	r2, [r3, #4]
    1130:	d004      	beq.n	113c <call_return_bits+0x1c>
    1132:	f042 5278 	orr.w	r2, r2, #1040187392	; 0x3e000000
    1136:	605a      	str	r2, [r3, #4]
    1138:	f85d fb04 	ldr.w	pc, [sp], #4
    113c:	2115      	movs	r1, #21
    113e:	f361 625d 	bfi	r2, r1, #25, #5
    1142:	605a      	str	r2, [r3, #4]
    1144:	f85d fb04 	ldr.w	pc, [sp], #4
    1148:	20022620 	.word	0x20022620

0000114c <return_mskd>:
    114c:	2202      	movs	r2, #2
    114e:	2301      	movs	r3, #1
    1150:	6002      	str	r2, [r0, #0]
    1152:	600b      	str	r3, [r1, #0]
    1154:	4770      	bx	lr
    1156:	bf00      	nop

00001158 <call_return_mskd>:
    1158:	b500      	push	{lr}
    115a:	b082      	sub	sp, #8
    115c:	a901      	add	r1, sp, #4
    115e:	4668      	mov	r0, sp
    1160:	f7ff fffe 	bl	114c <return_mskd>
    1164:	9a00      	ldr	r2, [sp, #0]
    1166:	4b0c      	ldr	r3, [pc, #48]	; (1198 <call_return_mskd+0x40>)
    1168:	2100      	movs	r1, #0
    116a:	2a02      	cmp	r2, #2
    116c:	6059      	str	r1, [r3, #4]
    116e:	d008      	beq.n	1182 <call_return_mskd+0x2a>
    1170:	4b09      	ldr	r3, [pc, #36]	; (1198 <call_return_mskd+0x40>)
    1172:	2113      	movs	r1, #19
    1174:	685a      	ldr	r2, [r3, #4]
    1176:	f361 625d 	bfi	r2, r1, #25, #5
    117a:	605a      	str	r2, [r3, #4]
    117c:	b002      	add	sp, #8
    117e:	f85d fb04 	ldr.w	pc, [sp], #4
    1182:	9a01      	ldr	r2, [sp, #4]
    1184:	2a01      	cmp	r2, #1
    1186:	d1f3      	bne.n	1170 <call_return_mskd+0x18>
    1188:	685a      	ldr	r2, [r3, #4]
    118a:	2111      	movs	r1, #17
    118c:	f361 625d 	bfi	r2, r1, #25, #5
    1190:	605a      	str	r2, [r3, #4]
    1192:	b002      	add	sp, #8
    1194:	f85d fb04 	ldr.w	pc, [sp], #4
    1198:	20022620 	.word	0x20022620

0000119c <return_reg>:
    119c:	4b04      	ldr	r3, [pc, #16]	; (11b0 <return_reg+0x14>)
    119e:	2200      	movs	r2, #0
    11a0:	4804      	ldr	r0, [pc, #16]	; (11b4 <return_reg+0x18>)
    11a2:	605a      	str	r2, [r3, #4]
    11a4:	685a      	ldr	r2, [r3, #4]
    11a6:	f042 0240 	orr.w	r2, r2, #64	; 0x40
    11aa:	605a      	str	r2, [r3, #4]
    11ac:	4770      	bx	lr
    11ae:	bf00      	nop
    11b0:	200226c0 	.word	0x200226c0
    11b4:	200226c4 	.word	0x200226c4

000011b8 <call_return_reg>:
    11b8:	b500      	push	{lr}
    11ba:	f7ff fffe 	bl	119c <return_reg>
    11be:	4b07      	ldr	r3, [pc, #28]	; (11dc <call_return_reg+0x24>)
    11c0:	2200      	movs	r2, #0
    11c2:	605a      	str	r2, [r3, #4]
    11c4:	6802      	ldr	r2, [r0, #0]
    11c6:	f012 0f40 	tst.w	r2, #64	; 0x40
    11ca:	685a      	ldr	r2, [r3, #4]
    11cc:	bf14      	ite	ne
    11ce:	210f      	movne	r1, #15
    11d0:	2117      	moveq	r1, #23
    11d2:	f361 625d 	bfi	r2, r1, #25, #5
    11d6:	605a      	str	r2, [r3, #4]
    11d8:	f85d fb04 	ldr.w	pc, [sp], #4
    11dc:	20022620 	.word	0x20022620

000011e0 <return_periph>:
    11e0:	4b04      	ldr	r3, [pc, #16]	; (11f4 <return_periph+0x14>)
    11e2:	2200      	movs	r2, #0
    11e4:	605a      	str	r2, [r3, #4]
    11e6:	4618      	mov	r0, r3
    11e8:	685a      	ldr	r2, [r3, #4]
    11ea:	f042 0240 	orr.w	r2, r2, #64	; 0x40
    11ee:	605a      	str	r2, [r3, #4]
    11f0:	4770      	bx	lr
    11f2:	bf00      	nop
    11f4:	200226c0 	.word	0x200226c0

000011f8 <call_return_periph>:
    11f8:	b500      	push	{lr}
    11fa:	f7ff fffe 	bl	11e0 <return_periph>
    11fe:	6843      	ldr	r3, [r0, #4]
    1200:	f013 0f40 	tst.w	r3, #64	; 0x40
    1204:	4b05      	ldr	r3, [pc, #20]	; (121c <call_return_periph+0x24>)
    1206:	bf18      	it	ne
    1208:	2113      	movne	r1, #19
    120a:	685a      	ldr	r2, [r3, #4]
    120c:	bf08      	it	eq
    120e:	2115      	moveq	r1, #21
    1210:	f361 625d 	bfi	r2, r1, #25, #5
    1214:	605a      	str	r2, [r3, #4]
    1216:	f85d fb04 	ldr.w	pc, [sp], #4
    121a:	bf00      	nop
    121c:	20022620 	.word	0x20022620

00001220 <pos_val>:
    1220:	2803      	cmp	r0, #3
    1222:	4b05      	ldr	r3, [pc, #20]	; (1238 <pos_val+0x18>)
    1224:	d005      	beq.n	1232 <pos_val+0x12>
    1226:	2804      	cmp	r0, #4
    1228:	bf0c      	ite	eq
    122a:	2244      	moveq	r2, #68	; 0x44
    122c:	2255      	movne	r2, #85	; 0x55
    122e:	62da      	str	r2, [r3, #44]	; 0x2c
    1230:	4770      	bx	lr
    1232:	2233      	movs	r2, #51	; 0x33
    1234:	62da      	str	r2, [r3, #44]	; 0x2c
    1236:	4770      	bx	lr
    1238:	20022500 	.word	0x20022500

0000123c <pos_ref>:
    123c:	6803      	ldr	r3, [r0, #0]
    123e:	2b03      	cmp	r3, #3
    1240:	d006      	beq.n	1250 <pos_ref+0x14>
    1242:	2b04      	cmp	r3, #4
    1244:	4b04      	ldr	r3, [pc, #16]	; (1258 <pos_ref+0x1c>)
    1246:	bf0c      	ite	eq
    1248:	2277      	moveq	r2, #119	; 0x77
    124a:	2288      	movne	r2, #136	; 0x88
    124c:	62da      	str	r2, [r3, #44]	; 0x2c
    124e:	4770      	bx	lr
    1250:	4b01      	ldr	r3, [pc, #4]	; (1258 <pos_ref+0x1c>)
    1252:	2266      	movs	r2, #102	; 0x66
    1254:	62da      	str	r2, [r3, #44]	; 0x2c
    1256:	4770      	bx	lr
    1258:	20022500 	.word	0x20022500

0000125c <call_pos_ref>:
    125c:	b500      	push	{lr}
    125e:	b081      	sub	sp, #4
    1260:	2303      	movs	r3, #3
    1262:	4668      	mov	r0, sp
    1264:	9300      	str	r3, [sp, #0]
    1266:	f7ff fcb7 	bl	bd8 <pos_ref.constprop.2>
    126a:	4668      	mov	r0, sp
    126c:	f7ff fffe 	bl	123c <pos_ref>
    1270:	b001      	add	sp, #4
    1272:	f85d fb04 	ldr.w	pc, [sp], #4
    1276:	bf00      	nop

00001278 <runtime_range_val>:
    1278:	4b02      	ldr	r3, [pc, #8]	; (1284 <runtime_range_val+0xc>)
    127a:	685a      	ldr	r2, [r3, #4]
    127c:	f360 3210 	bfi	r2, r0, #12, #5
    1280:	605a      	str	r2, [r3, #4]
    1282:	4770      	bx	lr
    1284:	200226c0 	.word	0x200226c0

00001288 <call_range_val>:
    1288:	b2c0      	uxtb	r0, r0
    128a:	f7ff bffe 	b.w	1278 <runtime_range_val>
    128e:	bf00      	nop

00001290 <call_range_val_port>:
    1290:	201f      	movs	r0, #31
    1292:	f7ff bffe 	b.w	1288 <call_range_val>
    1296:	bf00      	nop

00001298 <runtime_range_ref>:
    1298:	4b03      	ldr	r3, [pc, #12]	; (12a8 <runtime_range_ref+0x10>)
    129a:	6801      	ldr	r1, [r0, #0]
    129c:	685a      	ldr	r2, [r3, #4]
    129e:	f361 3210 	bfi	r2, r1, #12, #5
    12a2:	605a      	str	r2, [r3, #4]
    12a4:	4770      	bx	lr
    12a6:	bf00      	nop
    12a8:	200226c0 	.word	0x200226c0

000012ac <call_range_ref>:
    12ac:	b500      	push	{lr}
    12ae:	b081      	sub	sp, #4
    12b0:	9000      	str	r0, [sp, #0]
    12b2:	4668      	mov	r0, sp
    12b4:	f7ff fffe 	bl	1298 <runtime_range_ref>
    12b8:	b001      	add	sp, #4
    12ba:	f85d fb04 	ldr.w	pc, [sp], #4
    12be:	bf00      	nop

000012c0 <call_range_ref_port>:
    12c0:	200c      	movs	r0, #12
    12c2:	f7ff bffe 	b.w	12ac <call_range_ref>
    12c6:	bf00      	nop

000012c8 <check_array_range_pass>:
    12c8:	2816      	cmp	r0, #22
    12ca:	4b03      	ldr	r3, [pc, #12]	; (12d8 <check_array_range_pass+0x10>)
    12cc:	bf94      	ite	ls
    12ce:	227f      	movls	r2, #127	; 0x7f
    12d0:	2283      	movhi	r2, #131	; 0x83
    12d2:	62da      	str	r2, [r3, #44]	; 0x2c
    12d4:	4770      	bx	lr
    12d6:	bf00      	nop
    12d8:	20022500 	.word	0x20022500

000012dc <check_array_range_fail>:
    12dc:	2816      	cmp	r0, #22
    12de:	4b03      	ldr	r3, [pc, #12]	; (12ec <check_array_range_fail+0x10>)
    12e0:	bf94      	ite	ls
    12e2:	2295      	movls	r2, #149	; 0x95
    12e4:	2297      	movhi	r2, #151	; 0x97
    12e6:	62da      	str	r2, [r3, #44]	; 0x2c
    12e8:	4770      	bx	lr
    12ea:	bf00      	nop
    12ec:	20022500 	.word	0x20022500

000012f0 <check_bits_range_pass>:
    12f0:	280f      	cmp	r0, #15
    12f2:	4b03      	ldr	r3, [pc, #12]	; (1300 <check_bits_range_pass+0x10>)
    12f4:	bf94      	ite	ls
    12f6:	229d      	movls	r2, #157	; 0x9d
    12f8:	22a3      	movhi	r2, #163	; 0xa3
    12fa:	62da      	str	r2, [r3, #44]	; 0x2c
    12fc:	4770      	bx	lr
    12fe:	bf00      	nop
    1300:	20022500 	.word	0x20022500

00001304 <check_bits_range_fail>:
    1304:	280f      	cmp	r0, #15
    1306:	4b03      	ldr	r3, [pc, #12]	; (1314 <check_bits_range_fail+0x10>)
    1308:	bf94      	ite	ls
    130a:	22a7      	movls	r2, #167	; 0xa7
    130c:	22ad      	movhi	r2, #173	; 0xad
    130e:	62da      	str	r2, [r3, #44]	; 0x2c
    1310:	4770      	bx	lr
    1312:	bf00      	nop
    1314:	20022500 	.word	0x20022500

00001318 <check_mskd_range_pass>:
    1318:	281f      	cmp	r0, #31
    131a:	4b03      	ldr	r3, [pc, #12]	; (1328 <check_mskd_range_pass+0x10>)
    131c:	bf94      	ite	ls
    131e:	22b3      	movls	r2, #179	; 0xb3
    1320:	22b5      	movhi	r2, #181	; 0xb5
    1322:	62da      	str	r2, [r3, #44]	; 0x2c
    1324:	4770      	bx	lr
    1326:	bf00      	nop
    1328:	20022500 	.word	0x20022500

0000132c <check_mskd_range_fail>:
    132c:	281f      	cmp	r0, #31
    132e:	4b03      	ldr	r3, [pc, #12]	; (133c <check_mskd_range_fail+0x10>)
    1330:	bf94      	ite	ls
    1332:	22bf      	movls	r2, #191	; 0xbf
    1334:	22c1      	movhi	r2, #193	; 0xc1
    1336:	62da      	str	r2, [r3, #44]	; 0x2c
    1338:	4770      	bx	lr
    133a:	bf00      	nop
    133c:	20022500 	.word	0x20022500

00001340 <bits_extract_ne>:
    1340:	4b08      	ldr	r3, [pc, #32]	; (1364 <bits_extract_ne+0x24>)
    1342:	2100      	movs	r1, #0
    1344:	685a      	ldr	r2, [r3, #4]
    1346:	f042 0220 	orr.w	r2, r2, #32
    134a:	605a      	str	r2, [r3, #4]
    134c:	685a      	ldr	r2, [r3, #4]
    134e:	6059      	str	r1, [r3, #4]
    1350:	f012 0f20 	tst.w	r2, #32
    1354:	685a      	ldr	r2, [r3, #4]
    1356:	bf0c      	ite	eq
    1358:	2101      	moveq	r1, #1
    135a:	2102      	movne	r1, #2
    135c:	f361 0242 	bfi	r2, r1, #1, #2
    1360:	605a      	str	r2, [r3, #4]
    1362:	4770      	bx	lr
    1364:	200226c0 	.word	0x200226c0

00001368 <mskd_extract_geq>:
    1368:	4b0f      	ldr	r3, [pc, #60]	; (13a8 <mskd_extract_geq+0x40>)
    136a:	2200      	movs	r2, #0
    136c:	480f      	ldr	r0, [pc, #60]	; (13ac <mskd_extract_geq+0x44>)
    136e:	b410      	push	{r4}
    1370:	605a      	str	r2, [r3, #4]
    1372:	240b      	movs	r4, #11
    1374:	6859      	ldr	r1, [r3, #4]
    1376:	f364 615d 	bfi	r1, r4, #25, #5
    137a:	6059      	str	r1, [r3, #4]
    137c:	685b      	ldr	r3, [r3, #4]
    137e:	6042      	str	r2, [r0, #4]
    1380:	f3c3 6244 	ubfx	r2, r3, #25, #5
    1384:	2a09      	cmp	r2, #9
    1386:	d901      	bls.n	138c <mskd_extract_geq+0x24>
    1388:	2a0a      	cmp	r2, #10
    138a:	d806      	bhi.n	139a <mskd_extract_geq+0x32>
    138c:	4a07      	ldr	r2, [pc, #28]	; (13ac <mskd_extract_geq+0x44>)
    138e:	6853      	ldr	r3, [r2, #4]
    1390:	f043 0340 	orr.w	r3, r3, #64	; 0x40
    1394:	6053      	str	r3, [r2, #4]
    1396:	bc10      	pop	{r4}
    1398:	4770      	bx	lr
    139a:	6843      	ldr	r3, [r0, #4]
    139c:	f043 0320 	orr.w	r3, r3, #32
    13a0:	6043      	str	r3, [r0, #4]
    13a2:	bc10      	pop	{r4}
    13a4:	4770      	bx	lr
    13a6:	bf00      	nop
    13a8:	20022620 	.word	0x20022620
    13ac:	200226c0 	.word	0x200226c0

000013b0 <shifted_val>:
    13b0:	4b07      	ldr	r3, [pc, #28]	; (13d0 <shifted_val+0x20>)
    13b2:	2200      	movs	r2, #0
    13b4:	2117      	movs	r1, #23
    13b6:	2801      	cmp	r0, #1
    13b8:	605a      	str	r2, [r3, #4]
    13ba:	685a      	ldr	r2, [r3, #4]
    13bc:	f361 625d 	bfi	r2, r1, #25, #5
    13c0:	605a      	str	r2, [r3, #4]
    13c2:	d104      	bne.n	13ce <shifted_val+0x1e>
    13c4:	685b      	ldr	r3, [r3, #4]
    13c6:	4a03      	ldr	r2, [pc, #12]	; (13d4 <shifted_val+0x24>)
    13c8:	f3c3 6344 	ubfx	r3, r3, #25, #5
    13cc:	62d3      	str	r3, [r2, #44]	; 0x2c
    13ce:	4770      	bx	lr
    13d0:	20022620 	.word	0x20022620
    13d4:	20022500 	.word	0x20022500

000013d8 <shifted_ref>:
    13d8:	4b08      	ldr	r3, [pc, #32]	; (13fc <shifted_ref+0x24>)
    13da:	2200      	movs	r2, #0
    13dc:	2117      	movs	r1, #23
    13de:	605a      	str	r2, [r3, #4]
    13e0:	685a      	ldr	r2, [r3, #4]
    13e2:	f361 625d 	bfi	r2, r1, #25, #5
    13e6:	605a      	str	r2, [r3, #4]
    13e8:	6802      	ldr	r2, [r0, #0]
    13ea:	2a01      	cmp	r2, #1
    13ec:	d104      	bne.n	13f8 <shifted_ref+0x20>
    13ee:	685b      	ldr	r3, [r3, #4]
    13f0:	4a03      	ldr	r2, [pc, #12]	; (1400 <shifted_ref+0x28>)
    13f2:	f3c3 6344 	ubfx	r3, r3, #25, #5
    13f6:	62d3      	str	r3, [r2, #44]	; 0x2c
    13f8:	4770      	bx	lr
    13fa:	bf00      	nop
    13fc:	20022620 	.word	0x20022620
    1400:	20022500 	.word	0x20022500

00001404 <copy_bits_val>:
    1404:	4b07      	ldr	r3, [pc, #28]	; (1424 <copy_bits_val+0x20>)
    1406:	2200      	movs	r2, #0
    1408:	2801      	cmp	r0, #1
    140a:	605a      	str	r2, [r3, #4]
    140c:	685a      	ldr	r2, [r3, #4]
    140e:	d004      	beq.n	141a <copy_bits_val+0x16>
    1410:	2102      	movs	r1, #2
    1412:	f361 0242 	bfi	r2, r1, #1, #2
    1416:	605a      	str	r2, [r3, #4]
    1418:	4770      	bx	lr
    141a:	f360 0242 	bfi	r2, r0, #1, #2
    141e:	605a      	str	r2, [r3, #4]
    1420:	4770      	bx	lr
    1422:	bf00      	nop
    1424:	200226c0 	.word	0x200226c0

00001428 <call_copy_bits_val>:
    1428:	4b05      	ldr	r3, [pc, #20]	; (1440 <call_copy_bits_val+0x18>)
    142a:	2200      	movs	r2, #0
    142c:	605a      	str	r2, [r3, #4]
    142e:	685a      	ldr	r2, [r3, #4]
    1430:	f042 0240 	orr.w	r2, r2, #64	; 0x40
    1434:	605a      	str	r2, [r3, #4]
    1436:	6858      	ldr	r0, [r3, #4]
    1438:	f3c0 1080 	ubfx	r0, r0, #6, #1
    143c:	f7ff bffe 	b.w	1404 <copy_bits_val>
    1440:	200226c0 	.word	0x200226c0

00001444 <copy_bits_ref>:
    1444:	2200      	movs	r2, #0
    1446:	4b08      	ldr	r3, [pc, #32]	; (1468 <copy_bits_ref+0x24>)
    1448:	605a      	str	r2, [r3, #4]
    144a:	6802      	ldr	r2, [r0, #0]
    144c:	2a01      	cmp	r2, #1
    144e:	d005      	beq.n	145c <copy_bits_ref+0x18>
    1450:	685a      	ldr	r2, [r3, #4]
    1452:	2102      	movs	r1, #2
    1454:	f361 0242 	bfi	r2, r1, #1, #2
    1458:	605a      	str	r2, [r3, #4]
    145a:	4770      	bx	lr
    145c:	6859      	ldr	r1, [r3, #4]
    145e:	f362 0142 	bfi	r1, r2, #1, #2
    1462:	6059      	str	r1, [r3, #4]
    1464:	4770      	bx	lr
    1466:	bf00      	nop
    1468:	200226c0 	.word	0x200226c0

0000146c <call_copy_bits_ref>:
    146c:	4b09      	ldr	r3, [pc, #36]	; (1494 <call_copy_bits_ref+0x28>)
    146e:	2200      	movs	r2, #0
    1470:	b500      	push	{lr}
    1472:	605a      	str	r2, [r3, #4]
    1474:	b081      	sub	sp, #4
    1476:	685a      	ldr	r2, [r3, #4]
    1478:	4668      	mov	r0, sp
    147a:	f042 0240 	orr.w	r2, r2, #64	; 0x40
    147e:	605a      	str	r2, [r3, #4]
    1480:	685b      	ldr	r3, [r3, #4]
    1482:	f3c3 1380 	ubfx	r3, r3, #6, #1
    1486:	9300      	str	r3, [sp, #0]
    1488:	f7ff fffe 	bl	1444 <copy_bits_ref>
    148c:	b001      	add	sp, #4
    148e:	f85d fb04 	ldr.w	pc, [sp], #4
    1492:	bf00      	nop
    1494:	200226c0 	.word	0x200226c0

00001498 <run>:
    1498:	b570      	push	{r4, r5, r6, lr}
    149a:	4cd3      	ldr	r4, [pc, #844]	; (17e8 <run+0x350>)
    149c:	2200      	movs	r2, #0
    149e:	48d3      	ldr	r0, [pc, #844]	; (17ec <run+0x354>)
    14a0:	4621      	mov	r1, r4
    14a2:	4ed3      	ldr	r6, [pc, #844]	; (17f0 <run+0x358>)
    14a4:	f7ff fffe 	bl	0 <do_test>
    14a8:	4621      	mov	r1, r4
    14aa:	2201      	movs	r2, #1
    14ac:	48d1      	ldr	r0, [pc, #836]	; (17f4 <run+0x35c>)
    14ae:	f7ff fffe 	bl	0 <do_test>
    14b2:	4621      	mov	r1, r4
    14b4:	2202      	movs	r2, #2
    14b6:	48d0      	ldr	r0, [pc, #832]	; (17f8 <run+0x360>)
    14b8:	f7ff fffe 	bl	0 <do_test>
    14bc:	4621      	mov	r1, r4
    14be:	2203      	movs	r2, #3
    14c0:	48ce      	ldr	r0, [pc, #824]	; (17fc <run+0x364>)
    14c2:	f7ff fffe 	bl	0 <do_test>
    14c6:	4621      	mov	r1, r4
    14c8:	2204      	movs	r2, #4
    14ca:	48cd      	ldr	r0, [pc, #820]	; (1800 <run+0x368>)
    14cc:	f7ff fffe 	bl	0 <do_test>
    14d0:	4621      	mov	r1, r4
    14d2:	2205      	movs	r2, #5
    14d4:	48cb      	ldr	r0, [pc, #812]	; (1804 <run+0x36c>)
    14d6:	f7ff fffe 	bl	0 <do_test>
    14da:	4621      	mov	r1, r4
    14dc:	2206      	movs	r2, #6
    14de:	48ca      	ldr	r0, [pc, #808]	; (1808 <run+0x370>)
    14e0:	f7ff fffe 	bl	0 <do_test>
    14e4:	4621      	mov	r1, r4
    14e6:	2207      	movs	r2, #7
    14e8:	48c8      	ldr	r0, [pc, #800]	; (180c <run+0x374>)
    14ea:	f7ff fffe 	bl	0 <do_test>
    14ee:	4621      	mov	r1, r4
    14f0:	2208      	movs	r2, #8
    14f2:	48c7      	ldr	r0, [pc, #796]	; (1810 <run+0x378>)
    14f4:	f7ff fffe 	bl	0 <do_test>
    14f8:	4621      	mov	r1, r4
    14fa:	2209      	movs	r2, #9
    14fc:	48c5      	ldr	r0, [pc, #788]	; (1814 <run+0x37c>)
    14fe:	f7ff fffe 	bl	0 <do_test>
    1502:	4621      	mov	r1, r4
    1504:	220a      	movs	r2, #10
    1506:	48c4      	ldr	r0, [pc, #784]	; (1818 <run+0x380>)
    1508:	f7ff fffe 	bl	0 <do_test>
    150c:	4621      	mov	r1, r4
    150e:	220b      	movs	r2, #11
    1510:	48c2      	ldr	r0, [pc, #776]	; (181c <run+0x384>)
    1512:	f7ff fffe 	bl	0 <do_test>
    1516:	4621      	mov	r1, r4
    1518:	220c      	movs	r2, #12
    151a:	48c1      	ldr	r0, [pc, #772]	; (1820 <run+0x388>)
    151c:	f7ff fffe 	bl	0 <do_test>
    1520:	4621      	mov	r1, r4
    1522:	220d      	movs	r2, #13
    1524:	48bf      	ldr	r0, [pc, #764]	; (1824 <run+0x38c>)
    1526:	f7ff fffe 	bl	0 <do_test>
    152a:	4621      	mov	r1, r4
    152c:	220e      	movs	r2, #14
    152e:	48be      	ldr	r0, [pc, #760]	; (1828 <run+0x390>)
    1530:	f7ff fffe 	bl	0 <do_test>
    1534:	4621      	mov	r1, r4
    1536:	220f      	movs	r2, #15
    1538:	48bc      	ldr	r0, [pc, #752]	; (182c <run+0x394>)
    153a:	f7ff fffe 	bl	0 <do_test>
    153e:	4621      	mov	r1, r4
    1540:	2210      	movs	r2, #16
    1542:	48bb      	ldr	r0, [pc, #748]	; (1830 <run+0x398>)
    1544:	f7ff fffe 	bl	0 <do_test>
    1548:	4621      	mov	r1, r4
    154a:	2211      	movs	r2, #17
    154c:	48b9      	ldr	r0, [pc, #740]	; (1834 <run+0x39c>)
    154e:	f7ff fffe 	bl	0 <do_test>
    1552:	4621      	mov	r1, r4
    1554:	2212      	movs	r2, #18
    1556:	48b8      	ldr	r0, [pc, #736]	; (1838 <run+0x3a0>)
    1558:	f7ff fffe 	bl	0 <do_test>
    155c:	4621      	mov	r1, r4
    155e:	2213      	movs	r2, #19
    1560:	48b6      	ldr	r0, [pc, #728]	; (183c <run+0x3a4>)
    1562:	f7ff fffe 	bl	0 <do_test>
    1566:	4621      	mov	r1, r4
    1568:	2214      	movs	r2, #20
    156a:	48b5      	ldr	r0, [pc, #724]	; (1840 <run+0x3a8>)
    156c:	f7ff fffe 	bl	0 <do_test>
    1570:	4621      	mov	r1, r4
    1572:	2215      	movs	r2, #21
    1574:	48b3      	ldr	r0, [pc, #716]	; (1844 <run+0x3ac>)
    1576:	f7ff fffe 	bl	0 <do_test>
    157a:	4621      	mov	r1, r4
    157c:	2216      	movs	r2, #22
    157e:	48b2      	ldr	r0, [pc, #712]	; (1848 <run+0x3b0>)
    1580:	f7ff fffe 	bl	0 <do_test>
    1584:	4621      	mov	r1, r4
    1586:	2217      	movs	r2, #23
    1588:	48b0      	ldr	r0, [pc, #704]	; (184c <run+0x3b4>)
    158a:	f7ff fffe 	bl	0 <do_test>
    158e:	4621      	mov	r1, r4
    1590:	2218      	movs	r2, #24
    1592:	48af      	ldr	r0, [pc, #700]	; (1850 <run+0x3b8>)
    1594:	f7ff fffe 	bl	0 <do_test>
    1598:	4621      	mov	r1, r4
    159a:	2219      	movs	r2, #25
    159c:	48ad      	ldr	r0, [pc, #692]	; (1854 <run+0x3bc>)
    159e:	f7ff fffe 	bl	0 <do_test>
    15a2:	4621      	mov	r1, r4
    15a4:	221a      	movs	r2, #26
    15a6:	48ac      	ldr	r0, [pc, #688]	; (1858 <run+0x3c0>)
    15a8:	f7ff fffe 	bl	0 <do_test>
    15ac:	4621      	mov	r1, r4
    15ae:	221b      	movs	r2, #27
    15b0:	48aa      	ldr	r0, [pc, #680]	; (185c <run+0x3c4>)
    15b2:	f7ff fffe 	bl	0 <do_test>
    15b6:	4621      	mov	r1, r4
    15b8:	221c      	movs	r2, #28
    15ba:	48a9      	ldr	r0, [pc, #676]	; (1860 <run+0x3c8>)
    15bc:	f7ff fffe 	bl	0 <do_test>
    15c0:	4621      	mov	r1, r4
    15c2:	221d      	movs	r2, #29
    15c4:	48a7      	ldr	r0, [pc, #668]	; (1864 <run+0x3cc>)
    15c6:	f7ff fffe 	bl	0 <do_test>
    15ca:	4621      	mov	r1, r4
    15cc:	221e      	movs	r2, #30
    15ce:	48a6      	ldr	r0, [pc, #664]	; (1868 <run+0x3d0>)
    15d0:	f7ff fffe 	bl	0 <do_test>
    15d4:	4621      	mov	r1, r4
    15d6:	221f      	movs	r2, #31
    15d8:	48a4      	ldr	r0, [pc, #656]	; (186c <run+0x3d4>)
    15da:	f7ff fffe 	bl	0 <do_test>
    15de:	4621      	mov	r1, r4
    15e0:	2220      	movs	r2, #32
    15e2:	48a3      	ldr	r0, [pc, #652]	; (1870 <run+0x3d8>)
    15e4:	f7ff fffe 	bl	0 <do_test>
    15e8:	4621      	mov	r1, r4
    15ea:	2221      	movs	r2, #33	; 0x21
    15ec:	48a1      	ldr	r0, [pc, #644]	; (1874 <run+0x3dc>)
    15ee:	f7ff fffe 	bl	0 <do_test>
    15f2:	4621      	mov	r1, r4
    15f4:	2222      	movs	r2, #34	; 0x22
    15f6:	48a0      	ldr	r0, [pc, #640]	; (1878 <run+0x3e0>)
    15f8:	f7ff fffe 	bl	0 <do_test>
    15fc:	4621      	mov	r1, r4
    15fe:	2223      	movs	r2, #35	; 0x23
    1600:	489e      	ldr	r0, [pc, #632]	; (187c <run+0x3e4>)
    1602:	f7ff fffe 	bl	0 <do_test>
    1606:	4621      	mov	r1, r4
    1608:	2224      	movs	r2, #36	; 0x24
    160a:	489d      	ldr	r0, [pc, #628]	; (1880 <run+0x3e8>)
    160c:	f7ff fffe 	bl	0 <do_test>
    1610:	4631      	mov	r1, r6
    1612:	2225      	movs	r2, #37	; 0x25
    1614:	489b      	ldr	r0, [pc, #620]	; (1884 <run+0x3ec>)
    1616:	f7ff fffe 	bl	0 <do_test>
    161a:	4631      	mov	r1, r6
    161c:	2226      	movs	r2, #38	; 0x26
    161e:	489a      	ldr	r0, [pc, #616]	; (1888 <run+0x3f0>)
    1620:	f7ff fffe 	bl	0 <do_test>
    1624:	4631      	mov	r1, r6
    1626:	2227      	movs	r2, #39	; 0x27
    1628:	4898      	ldr	r0, [pc, #608]	; (188c <run+0x3f4>)
    162a:	f7ff fffe 	bl	0 <do_test>
    162e:	4621      	mov	r1, r4
    1630:	2228      	movs	r2, #40	; 0x28
    1632:	4897      	ldr	r0, [pc, #604]	; (1890 <run+0x3f8>)
    1634:	f7ff fffe 	bl	0 <do_test>
    1638:	4621      	mov	r1, r4
    163a:	2229      	movs	r2, #41	; 0x29
    163c:	4895      	ldr	r0, [pc, #596]	; (1894 <run+0x3fc>)
    163e:	f7ff fffe 	bl	0 <do_test>
    1642:	4621      	mov	r1, r4
    1644:	222a      	movs	r2, #42	; 0x2a
    1646:	4894      	ldr	r0, [pc, #592]	; (1898 <run+0x400>)
    1648:	4d94      	ldr	r5, [pc, #592]	; (189c <run+0x404>)
    164a:	f7ff fffe 	bl	0 <do_test>
    164e:	4621      	mov	r1, r4
    1650:	222b      	movs	r2, #43	; 0x2b
    1652:	4893      	ldr	r0, [pc, #588]	; (18a0 <run+0x408>)
    1654:	f7ff fffe 	bl	0 <do_test>
    1658:	4621      	mov	r1, r4
    165a:	222c      	movs	r2, #44	; 0x2c
    165c:	4891      	ldr	r0, [pc, #580]	; (18a4 <run+0x40c>)
    165e:	f7ff fffe 	bl	0 <do_test>
    1662:	4629      	mov	r1, r5
    1664:	222d      	movs	r2, #45	; 0x2d
    1666:	4890      	ldr	r0, [pc, #576]	; (18a8 <run+0x410>)
    1668:	f7ff fffe 	bl	0 <do_test>
    166c:	4621      	mov	r1, r4
    166e:	222e      	movs	r2, #46	; 0x2e
    1670:	488e      	ldr	r0, [pc, #568]	; (18ac <run+0x414>)
    1672:	f7ff fffe 	bl	0 <do_test>
    1676:	4621      	mov	r1, r4
    1678:	222f      	movs	r2, #47	; 0x2f
    167a:	488d      	ldr	r0, [pc, #564]	; (18b0 <run+0x418>)
    167c:	f7ff fffe 	bl	0 <do_test>
    1680:	4621      	mov	r1, r4
    1682:	2230      	movs	r2, #48	; 0x30
    1684:	488b      	ldr	r0, [pc, #556]	; (18b4 <run+0x41c>)
    1686:	f7ff fffe 	bl	0 <do_test>
    168a:	4621      	mov	r1, r4
    168c:	2231      	movs	r2, #49	; 0x31
    168e:	488a      	ldr	r0, [pc, #552]	; (18b8 <run+0x420>)
    1690:	f7ff fffe 	bl	0 <do_test>
    1694:	4621      	mov	r1, r4
    1696:	2232      	movs	r2, #50	; 0x32
    1698:	4888      	ldr	r0, [pc, #544]	; (18bc <run+0x424>)
    169a:	f7ff fffe 	bl	0 <do_test>
    169e:	4621      	mov	r1, r4
    16a0:	2233      	movs	r2, #51	; 0x33
    16a2:	4887      	ldr	r0, [pc, #540]	; (18c0 <run+0x428>)
    16a4:	f7ff fffe 	bl	0 <do_test>
    16a8:	4621      	mov	r1, r4
    16aa:	2234      	movs	r2, #52	; 0x34
    16ac:	4885      	ldr	r0, [pc, #532]	; (18c4 <run+0x42c>)
    16ae:	f7ff fffe 	bl	0 <do_test>
    16b2:	4621      	mov	r1, r4
    16b4:	2235      	movs	r2, #53	; 0x35
    16b6:	4884      	ldr	r0, [pc, #528]	; (18c8 <run+0x430>)
    16b8:	f7ff fffe 	bl	0 <do_test>
    16bc:	4621      	mov	r1, r4
    16be:	2236      	movs	r2, #54	; 0x36
    16c0:	4882      	ldr	r0, [pc, #520]	; (18cc <run+0x434>)
    16c2:	f7ff fffe 	bl	0 <do_test>
    16c6:	4621      	mov	r1, r4
    16c8:	2237      	movs	r2, #55	; 0x37
    16ca:	4881      	ldr	r0, [pc, #516]	; (18d0 <run+0x438>)
    16cc:	f7ff fffe 	bl	0 <do_test>
    16d0:	4621      	mov	r1, r4
    16d2:	2238      	movs	r2, #56	; 0x38
    16d4:	487f      	ldr	r0, [pc, #508]	; (18d4 <run+0x43c>)
    16d6:	f7ff fffe 	bl	0 <do_test>
    16da:	4621      	mov	r1, r4
    16dc:	2239      	movs	r2, #57	; 0x39
    16de:	487e      	ldr	r0, [pc, #504]	; (18d8 <run+0x440>)
    16e0:	f7ff fffe 	bl	0 <do_test>
    16e4:	4621      	mov	r1, r4
    16e6:	223a      	movs	r2, #58	; 0x3a
    16e8:	487c      	ldr	r0, [pc, #496]	; (18dc <run+0x444>)
    16ea:	f7ff fffe 	bl	0 <do_test>
    16ee:	4621      	mov	r1, r4
    16f0:	223b      	movs	r2, #59	; 0x3b
    16f2:	487b      	ldr	r0, [pc, #492]	; (18e0 <run+0x448>)
    16f4:	f7ff fffe 	bl	0 <do_test>
    16f8:	4621      	mov	r1, r4
    16fa:	223c      	movs	r2, #60	; 0x3c
    16fc:	4879      	ldr	r0, [pc, #484]	; (18e4 <run+0x44c>)
    16fe:	f7ff fffe 	bl	0 <do_test>
    1702:	4621      	mov	r1, r4
    1704:	223d      	movs	r2, #61	; 0x3d
    1706:	4878      	ldr	r0, [pc, #480]	; (18e8 <run+0x450>)
    1708:	f7ff fffe 	bl	0 <do_test>
    170c:	4621      	mov	r1, r4
    170e:	223e      	movs	r2, #62	; 0x3e
    1710:	4876      	ldr	r0, [pc, #472]	; (18ec <run+0x454>)
    1712:	f7ff fffe 	bl	0 <do_test>
    1716:	4621      	mov	r1, r4
    1718:	223f      	movs	r2, #63	; 0x3f
    171a:	4875      	ldr	r0, [pc, #468]	; (18f0 <run+0x458>)
    171c:	f7ff fffe 	bl	0 <do_test>
    1720:	4631      	mov	r1, r6
    1722:	2240      	movs	r2, #64	; 0x40
    1724:	4873      	ldr	r0, [pc, #460]	; (18f4 <run+0x45c>)
    1726:	f7ff fffe 	bl	0 <do_test>
    172a:	4631      	mov	r1, r6
    172c:	2241      	movs	r2, #65	; 0x41
    172e:	4872      	ldr	r0, [pc, #456]	; (18f8 <run+0x460>)
    1730:	f7ff fffe 	bl	0 <do_test>
    1734:	4631      	mov	r1, r6
    1736:	2242      	movs	r2, #66	; 0x42
    1738:	4870      	ldr	r0, [pc, #448]	; (18fc <run+0x464>)
    173a:	f7ff fffe 	bl	0 <do_test>
    173e:	4621      	mov	r1, r4
    1740:	2243      	movs	r2, #67	; 0x43
    1742:	486f      	ldr	r0, [pc, #444]	; (1900 <run+0x468>)
    1744:	f7ff fffe 	bl	0 <do_test>
    1748:	4629      	mov	r1, r5
    174a:	2244      	movs	r2, #68	; 0x44
    174c:	486d      	ldr	r0, [pc, #436]	; (1904 <run+0x46c>)
    174e:	f7ff fffe 	bl	0 <do_test>
    1752:	4629      	mov	r1, r5
    1754:	2245      	movs	r2, #69	; 0x45
    1756:	486c      	ldr	r0, [pc, #432]	; (1908 <run+0x470>)
    1758:	f7ff fffe 	bl	0 <do_test>
    175c:	4621      	mov	r1, r4
    175e:	2246      	movs	r2, #70	; 0x46
    1760:	486a      	ldr	r0, [pc, #424]	; (190c <run+0x474>)
    1762:	f7ff fffe 	bl	0 <do_test>
    1766:	4621      	mov	r1, r4
    1768:	2247      	movs	r2, #71	; 0x47
    176a:	4869      	ldr	r0, [pc, #420]	; (1910 <run+0x478>)
    176c:	f7ff fffe 	bl	0 <do_test>
    1770:	4629      	mov	r1, r5
    1772:	2248      	movs	r2, #72	; 0x48
    1774:	4867      	ldr	r0, [pc, #412]	; (1914 <run+0x47c>)
    1776:	f7ff fffe 	bl	0 <do_test>
    177a:	4629      	mov	r1, r5
    177c:	2249      	movs	r2, #73	; 0x49
    177e:	4866      	ldr	r0, [pc, #408]	; (1918 <run+0x480>)
    1780:	f7ff fffe 	bl	0 <do_test>
    1784:	4621      	mov	r1, r4
    1786:	224a      	movs	r2, #74	; 0x4a
    1788:	4864      	ldr	r0, [pc, #400]	; (191c <run+0x484>)
    178a:	f7ff fffe 	bl	0 <do_test>
    178e:	4621      	mov	r1, r4
    1790:	224b      	movs	r2, #75	; 0x4b
    1792:	4863      	ldr	r0, [pc, #396]	; (1920 <run+0x488>)
    1794:	f7ff fffe 	bl	0 <do_test>
    1798:	4621      	mov	r1, r4
    179a:	224c      	movs	r2, #76	; 0x4c
    179c:	4861      	ldr	r0, [pc, #388]	; (1924 <run+0x48c>)
    179e:	f7ff fffe 	bl	0 <do_test>
    17a2:	4621      	mov	r1, r4
    17a4:	224d      	movs	r2, #77	; 0x4d
    17a6:	4860      	ldr	r0, [pc, #384]	; (1928 <run+0x490>)
    17a8:	f7ff fffe 	bl	0 <do_test>
    17ac:	4e5f      	ldr	r6, [pc, #380]	; (192c <run+0x494>)
    17ae:	4621      	mov	r1, r4
    17b0:	224e      	movs	r2, #78	; 0x4e
    17b2:	485f      	ldr	r0, [pc, #380]	; (1930 <run+0x498>)
    17b4:	f7ff fffe 	bl	0 <do_test>
    17b8:	4621      	mov	r1, r4
    17ba:	224f      	movs	r2, #79	; 0x4f
    17bc:	485d      	ldr	r0, [pc, #372]	; (1934 <run+0x49c>)
    17be:	f7ff fffe 	bl	0 <do_test>
    17c2:	4621      	mov	r1, r4
    17c4:	4630      	mov	r0, r6
    17c6:	2250      	movs	r2, #80	; 0x50
    17c8:	f7ff fffe 	bl	0 <do_test>
    17cc:	4630      	mov	r0, r6
    17ce:	4621      	mov	r1, r4
    17d0:	2251      	movs	r2, #81	; 0x51
    17d2:	f7ff fffe 	bl	0 <do_test>
    17d6:	4621      	mov	r1, r4
    17d8:	2252      	movs	r2, #82	; 0x52
    17da:	4857      	ldr	r0, [pc, #348]	; (1938 <run+0x4a0>)
    17dc:	f7ff fffe 	bl	0 <do_test>
    17e0:	4e56      	ldr	r6, [pc, #344]	; (193c <run+0x4a4>)
    17e2:	4621      	mov	r1, r4
    17e4:	2253      	movs	r2, #83	; 0x53
    17e6:	e0ab      	b.n	1940 <run+0x4a8>
    17e8:	200226c4 	.word	0x200226c4
    17ec:	00000000 	.word	0x00000000
    17f0:	20022624 	.word	0x20022624
	...
    189c:	2002252c 	.word	0x2002252c
	...
    1940:	4852      	ldr	r0, [pc, #328]	; (14c <do_test+0x14c>)
    1942:	f7ff fffe 	bl	0 <do_test>
    1946:	4621      	mov	r1, r4
    1948:	2254      	movs	r2, #84	; 0x54
    194a:	4851      	ldr	r0, [pc, #324]	; (1a90 <run+0x5f8>)
    194c:	f7ff fffe 	bl	0 <do_test>
    1950:	4621      	mov	r1, r4
    1952:	4630      	mov	r0, r6
    1954:	2255      	movs	r2, #85	; 0x55
    1956:	f7ff fffe 	bl	0 <do_test>
    195a:	4621      	mov	r1, r4
    195c:	2256      	movs	r2, #86	; 0x56
    195e:	484d      	ldr	r0, [pc, #308]	; (1a94 <run+0x5fc>)
    1960:	f7ff fffe 	bl	0 <do_test>
    1964:	4630      	mov	r0, r6
    1966:	4621      	mov	r1, r4
    1968:	2257      	movs	r2, #87	; 0x57
    196a:	f7ff fffe 	bl	0 <do_test>
    196e:	4621      	mov	r1, r4
    1970:	2258      	movs	r2, #88	; 0x58
    1972:	4849      	ldr	r0, [pc, #292]	; (1a98 <run+0x600>)
    1974:	f7ff fffe 	bl	0 <do_test>
    1978:	4621      	mov	r1, r4
    197a:	2259      	movs	r2, #89	; 0x59
    197c:	4847      	ldr	r0, [pc, #284]	; (1a9c <run+0x604>)
    197e:	f7ff fffe 	bl	0 <do_test>
    1982:	4629      	mov	r1, r5
    1984:	225a      	movs	r2, #90	; 0x5a
    1986:	4846      	ldr	r0, [pc, #280]	; (1aa0 <run+0x608>)
    1988:	f7ff fffe 	bl	0 <do_test>
    198c:	4629      	mov	r1, r5
    198e:	225b      	movs	r2, #91	; 0x5b
    1990:	4844      	ldr	r0, [pc, #272]	; (1aa4 <run+0x60c>)
    1992:	f7ff fffe 	bl	0 <do_test>
    1996:	4621      	mov	r1, r4
    1998:	225c      	movs	r2, #92	; 0x5c
    199a:	4843      	ldr	r0, [pc, #268]	; (1aa8 <run+0x610>)
    199c:	f7ff fffe 	bl	0 <do_test>
    19a0:	4629      	mov	r1, r5
    19a2:	225d      	movs	r2, #93	; 0x5d
    19a4:	4841      	ldr	r0, [pc, #260]	; (1aac <run+0x614>)
    19a6:	f7ff fffe 	bl	0 <do_test>
    19aa:	4629      	mov	r1, r5
    19ac:	225e      	movs	r2, #94	; 0x5e
    19ae:	4840      	ldr	r0, [pc, #256]	; (1ab0 <run+0x618>)
    19b0:	f7ff fffe 	bl	0 <do_test>
    19b4:	4621      	mov	r1, r4
    19b6:	225f      	movs	r2, #95	; 0x5f
    19b8:	483e      	ldr	r0, [pc, #248]	; (1ab4 <run+0x61c>)
    19ba:	f7ff fffe 	bl	0 <do_test>
    19be:	4621      	mov	r1, r4
    19c0:	2260      	movs	r2, #96	; 0x60
    19c2:	483d      	ldr	r0, [pc, #244]	; (1ab8 <run+0x620>)
    19c4:	f7ff fffe 	bl	0 <do_test>
    19c8:	4621      	mov	r1, r4
    19ca:	2261      	movs	r2, #97	; 0x61
    19cc:	483b      	ldr	r0, [pc, #236]	; (1abc <run+0x624>)
    19ce:	f7ff fffe 	bl	0 <do_test>
    19d2:	4621      	mov	r1, r4
    19d4:	2262      	movs	r2, #98	; 0x62
    19d6:	483a      	ldr	r0, [pc, #232]	; (1ac0 <run+0x628>)
    19d8:	f7ff fffe 	bl	0 <do_test>
    19dc:	4629      	mov	r1, r5
    19de:	2263      	movs	r2, #99	; 0x63
    19e0:	4838      	ldr	r0, [pc, #224]	; (1ac4 <run+0x62c>)
    19e2:	f7ff fffe 	bl	0 <do_test>
    19e6:	4629      	mov	r1, r5
    19e8:	2264      	movs	r2, #100	; 0x64
    19ea:	4837      	ldr	r0, [pc, #220]	; (1ac8 <run+0x630>)
    19ec:	f7ff fffe 	bl	0 <do_test>
    19f0:	4629      	mov	r1, r5
    19f2:	2265      	movs	r2, #101	; 0x65
    19f4:	4835      	ldr	r0, [pc, #212]	; (1acc <run+0x634>)
    19f6:	f7ff fffe 	bl	0 <do_test>
    19fa:	4629      	mov	r1, r5
    19fc:	2266      	movs	r2, #102	; 0x66
    19fe:	4834      	ldr	r0, [pc, #208]	; (1ad0 <run+0x638>)
    1a00:	f7ff fffe 	bl	0 <do_test>
    1a04:	4629      	mov	r1, r5
    1a06:	2267      	movs	r2, #103	; 0x67
    1a08:	4832      	ldr	r0, [pc, #200]	; (1ad4 <run+0x63c>)
    1a0a:	f7ff fffe 	bl	0 <do_test>
    1a0e:	4629      	mov	r1, r5
    1a10:	2268      	movs	r2, #104	; 0x68
    1a12:	4831      	ldr	r0, [pc, #196]	; (1ad8 <run+0x640>)
    1a14:	f7ff fffe 	bl	0 <do_test>
    1a18:	4621      	mov	r1, r4
    1a1a:	2269      	movs	r2, #105	; 0x69
    1a1c:	482f      	ldr	r0, [pc, #188]	; (1adc <run+0x644>)
    1a1e:	f7ff fffe 	bl	0 <do_test>
    1a22:	4621      	mov	r1, r4
    1a24:	226a      	movs	r2, #106	; 0x6a
    1a26:	482e      	ldr	r0, [pc, #184]	; (1ae0 <run+0x648>)
    1a28:	f7ff fffe 	bl	0 <do_test>
    1a2c:	4621      	mov	r1, r4
    1a2e:	226b      	movs	r2, #107	; 0x6b
    1a30:	482c      	ldr	r0, [pc, #176]	; (1ae4 <run+0x64c>)
    1a32:	f7ff fffe 	bl	0 <do_test>
    1a36:	4621      	mov	r1, r4
    1a38:	226c      	movs	r2, #108	; 0x6c
    1a3a:	482b      	ldr	r0, [pc, #172]	; (1ae8 <run+0x650>)
    1a3c:	f7ff fffe 	bl	0 <do_test>
    1a40:	4621      	mov	r1, r4
    1a42:	226d      	movs	r2, #109	; 0x6d
    1a44:	4829      	ldr	r0, [pc, #164]	; (1aec <run+0x654>)
    1a46:	f7ff fffe 	bl	0 <do_test>
    1a4a:	4621      	mov	r1, r4
    1a4c:	226e      	movs	r2, #110	; 0x6e
    1a4e:	4828      	ldr	r0, [pc, #160]	; (1af0 <run+0x658>)
    1a50:	f7ff fffe 	bl	0 <do_test>
    1a54:	4621      	mov	r1, r4
    1a56:	226f      	movs	r2, #111	; 0x6f
    1a58:	4826      	ldr	r0, [pc, #152]	; (1af4 <run+0x65c>)
    1a5a:	f7ff fffe 	bl	0 <do_test>
    1a5e:	4621      	mov	r1, r4
    1a60:	2270      	movs	r2, #112	; 0x70
    1a62:	4825      	ldr	r0, [pc, #148]	; (1af8 <run+0x660>)
    1a64:	f7ff fffe 	bl	0 <do_test>
    1a68:	4621      	mov	r1, r4
    1a6a:	2271      	movs	r2, #113	; 0x71
    1a6c:	4823      	ldr	r0, [pc, #140]	; (1afc <run+0x664>)
    1a6e:	f7ff fffe 	bl	0 <do_test>
    1a72:	4621      	mov	r1, r4
    1a74:	2272      	movs	r2, #114	; 0x72
    1a76:	4822      	ldr	r0, [pc, #136]	; (1b00 <run+0x668>)
    1a78:	f7ff fffe 	bl	0 <do_test>
    1a7c:	4621      	mov	r1, r4
    1a7e:	2273      	movs	r2, #115	; 0x73
    1a80:	4820      	ldr	r0, [pc, #128]	; (1b04 <run+0x66c>)
    1a82:	e8bd 4070 	ldmia.w	sp!, {r4, r5, r6, lr}
    1a86:	f7ff bffe 	b.w	0 <do_test>
    1a8a:	bf00      	nop
	...
