
O1/raw.elf:     file format elf32-littlearm


Disassembly of section .text:

20020000 <INTERRUPT_VECTORS>:
20020000:	00 c0 07 20 a5 17 02 20 b1 16 02 20 b3 16 02 20     ... ... ... ... 
20020010:	b5 16 02 20 b7 16 02 20 b9 16 02 20 bb 16 02 20     ... ... ... ... 
20020020:	bd 16 02 20 bf 16 02 20 c1 16 02 20 c3 16 02 20     ... ... ... ... 
20020030:	c5 16 02 20 c7 16 02 20 c9 16 02 20 cb 16 02 20     ... ... ... ... 
20020040:	cd 16 02 20 cf 16 02 20 d1 16 02 20 d3 16 02 20     ... ... ... ... 
20020050:	d5 16 02 20 d7 16 02 20 d9 16 02 20 db 16 02 20     ... ... ... ... 
20020060:	dd 16 02 20 df 16 02 20 e1 16 02 20 e3 16 02 20     ... ... ... ... 
20020070:	e5 16 02 20 e7 16 02 20 e9 16 02 20 eb 16 02 20     ... ... ... ... 
20020080:	ed 16 02 20 ef 16 02 20 f1 16 02 20 f3 16 02 20     ... ... ... ... 
20020090:	f5 16 02 20 f7 16 02 20 f9 16 02 20 fb 16 02 20     ... ... ... ... 
200200a0:	fd 16 02 20 ff 16 02 20 01 17 02 20 03 17 02 20     ... ... ... ... 
200200b0:	05 17 02 20 07 17 02 20 09 17 02 20 0b 17 02 20     ... ... ... ... 
200200c0:	0d 17 02 20 0f 17 02 20 11 17 02 20 13 17 02 20     ... ... ... ... 
200200d0:	15 17 02 20 17 17 02 20 19 17 02 20 1b 17 02 20     ... ... ... ... 
200200e0:	1d 17 02 20 1f 17 02 20 21 17 02 20 23 17 02 20     ... ... !.. #.. 
200200f0:	25 17 02 20 27 17 02 20 29 17 02 20 2b 17 02 20     %.. '.. ).. +.. 
20020100:	2d 17 02 20 2f 17 02 20 31 17 02 20 33 17 02 20     -.. /.. 1.. 3.. 
20020110:	35 17 02 20 37 17 02 20 39 17 02 20 3b 17 02 20     5.. 7.. 9.. ;.. 
20020120:	3d 17 02 20 3f 17 02 20 41 17 02 20 43 17 02 20     =.. ?.. A.. C.. 
20020130:	45 17 02 20 47 17 02 20 49 17 02 20 4b 17 02 20     E.. G.. I.. K.. 
20020140:	4d 17 02 20 4f 17 02 20 51 17 02 20 53 17 02 20     M.. O.. Q.. S.. 
20020150:	55 17 02 20 57 17 02 20 59 17 02 20 5b 17 02 20     U.. W.. Y.. [.. 
20020160:	5d 17 02 20 5f 17 02 20 61 17 02 20 63 17 02 20     ].. _.. a.. c.. 
20020170:	65 17 02 20 67 17 02 20 69 17 02 20 6b 17 02 20     e.. g.. i.. k.. 
20020180:	6d 17 02 20 6f 17 02 20 71 17 02 20 73 17 02 20     m.. o.. q.. s.. 
20020190:	75 17 02 20 77 17 02 20 79 17 02 20 7b 17 02 20     u.. w.. y.. {.. 
200201a0:	7d 17 02 20 7f 17 02 20 81 17 02 20 83 17 02 20     }.. ... ... ... 
200201b0:	85 17 02 20 87 17 02 20 89 17 02 20 8b 17 02 20     ... ... ... ... 
200201c0:	8d 17 02 20 8f 17 02 20 91 17 02 20 93 17 02 20     ... ... ... ... 
200201d0:	95 17 02 20 97 17 02 20 99 17 02 20 9b 17 02 20     ... ... ... ... 
200201e0:	9d 17 02 20 9f 17 02 20 a1 17 02 20 a3 17 02 20     ... ... ... ... 

200201f0 <zero_reg>:
200201f0:	4b01      	ldr	r3, [pc, #4]	; (200201f8 <zero_reg+0x8>)
200201f2:	2200      	movs	r2, #0
200201f4:	601a      	str	r2, [r3, #0]
200201f6:	4770      	bx	lr
200201f8:	200226c4 	.word	0x200226c4

200201fc <zero_array>:
200201fc:	4b01      	ldr	r3, [pc, #4]	; (20020204 <zero_array+0x8>)
200201fe:	2200      	movs	r2, #0
20020200:	601a      	str	r2, [r3, #0]
20020202:	4770      	bx	lr
20020204:	2002252c 	.word	0x2002252c

20020208 <set_singl_bits_operator>:
20020208:	4a02      	ldr	r2, [pc, #8]	; (20020214 <set_singl_bits_operator+0xc>)
2002020a:	6813      	ldr	r3, [r2, #0]
2002020c:	f043 0340 	orr.w	r3, r3, #64	; 0x40
20020210:	6013      	str	r3, [r2, #0]
20020212:	4770      	bx	lr
20020214:	200226c4 	.word	0x200226c4

20020218 <set_singl_bits_method>:
20020218:	4a02      	ldr	r2, [pc, #8]	; (20020224 <set_singl_bits_method+0xc>)
2002021a:	6813      	ldr	r3, [r2, #0]
2002021c:	f043 0340 	orr.w	r3, r3, #64	; 0x40
20020220:	6013      	str	r3, [r2, #0]
20020222:	4770      	bx	lr
20020224:	200226c4 	.word	0x200226c4

20020228 <clr_singl_bits_operator>:
20020228:	4a02      	ldr	r2, [pc, #8]	; (20020234 <clr_singl_bits_operator+0xc>)
2002022a:	6813      	ldr	r3, [r2, #0]
2002022c:	f023 0340 	bic.w	r3, r3, #64	; 0x40
20020230:	6013      	str	r3, [r2, #0]
20020232:	4770      	bx	lr
20020234:	200226c4 	.word	0x200226c4

20020238 <clr_singl_bits_method>:
20020238:	4a02      	ldr	r2, [pc, #8]	; (20020244 <clr_singl_bits_method+0xc>)
2002023a:	6813      	ldr	r3, [r2, #0]
2002023c:	f023 0340 	bic.w	r3, r3, #64	; 0x40
20020240:	6013      	str	r3, [r2, #0]
20020242:	4770      	bx	lr
20020244:	200226c4 	.word	0x200226c4

20020248 <set_singl_mskd_operator>:
20020248:	4a02      	ldr	r2, [pc, #8]	; (20020254 <set_singl_mskd_operator+0xc>)
2002024a:	6813      	ldr	r3, [r2, #0]
2002024c:	f043 0302 	orr.w	r3, r3, #2
20020250:	6013      	str	r3, [r2, #0]
20020252:	4770      	bx	lr
20020254:	200226c4 	.word	0x200226c4

20020258 <set_singl_mskd_method>:
20020258:	4a02      	ldr	r2, [pc, #8]	; (20020264 <set_singl_mskd_method+0xc>)
2002025a:	6813      	ldr	r3, [r2, #0]
2002025c:	f043 0302 	orr.w	r3, r3, #2
20020260:	6013      	str	r3, [r2, #0]
20020262:	4770      	bx	lr
20020264:	200226c4 	.word	0x200226c4

20020268 <clr_singl_mskd_operator>:
20020268:	4a02      	ldr	r2, [pc, #8]	; (20020274 <clr_singl_mskd_operator+0xc>)
2002026a:	6813      	ldr	r3, [r2, #0]
2002026c:	f023 0302 	bic.w	r3, r3, #2
20020270:	6013      	str	r3, [r2, #0]
20020272:	4770      	bx	lr
20020274:	200226c4 	.word	0x200226c4

20020278 <clr_singl_mskd_method>:
20020278:	4a02      	ldr	r2, [pc, #8]	; (20020284 <clr_singl_mskd_method+0xc>)
2002027a:	6813      	ldr	r3, [r2, #0]
2002027c:	f023 0302 	bic.w	r3, r3, #2
20020280:	6013      	str	r3, [r2, #0]
20020282:	4770      	bx	lr
20020284:	200226c4 	.word	0x200226c4

20020288 <equ_singl_bits_operator>:
20020288:	4b01      	ldr	r3, [pc, #4]	; (20020290 <equ_singl_bits_operator+0x8>)
2002028a:	2240      	movs	r2, #64	; 0x40
2002028c:	601a      	str	r2, [r3, #0]
2002028e:	4770      	bx	lr
20020290:	200226c4 	.word	0x200226c4

20020294 <equ_singl_bits_method>:
20020294:	4b01      	ldr	r3, [pc, #4]	; (2002029c <equ_singl_bits_method+0x8>)
20020296:	2240      	movs	r2, #64	; 0x40
20020298:	601a      	str	r2, [r3, #0]
2002029a:	4770      	bx	lr
2002029c:	200226c4 	.word	0x200226c4

200202a0 <equ_singl_mskd_operator>:
200202a0:	4b01      	ldr	r3, [pc, #4]	; (200202a8 <equ_singl_mskd_operator+0x8>)
200202a2:	2202      	movs	r2, #2
200202a4:	601a      	str	r2, [r3, #0]
200202a6:	4770      	bx	lr
200202a8:	200226c4 	.word	0x200226c4

200202ac <equ_singl_mskd_method>:
200202ac:	4b01      	ldr	r3, [pc, #4]	; (200202b4 <equ_singl_mskd_method+0x8>)
200202ae:	2202      	movs	r2, #2
200202b0:	601a      	str	r2, [r3, #0]
200202b2:	4770      	bx	lr
200202b4:	200226c4 	.word	0x200226c4

200202b8 <flp_singl_bits_operator>:
200202b8:	4a02      	ldr	r2, [pc, #8]	; (200202c4 <flp_singl_bits_operator+0xc>)
200202ba:	6813      	ldr	r3, [r2, #0]
200202bc:	f083 0340 	eor.w	r3, r3, #64	; 0x40
200202c0:	6013      	str	r3, [r2, #0]
200202c2:	4770      	bx	lr
200202c4:	200226c4 	.word	0x200226c4

200202c8 <flp_singl_bits_method>:
200202c8:	4a02      	ldr	r2, [pc, #8]	; (200202d4 <flp_singl_bits_method+0xc>)
200202ca:	6813      	ldr	r3, [r2, #0]
200202cc:	f083 0340 	eor.w	r3, r3, #64	; 0x40
200202d0:	6013      	str	r3, [r2, #0]
200202d2:	4770      	bx	lr
200202d4:	200226c4 	.word	0x200226c4

200202d8 <flp_singl_mskd_operator>:
200202d8:	4a02      	ldr	r2, [pc, #8]	; (200202e4 <flp_singl_mskd_operator+0xc>)
200202da:	6813      	ldr	r3, [r2, #0]
200202dc:	f083 0302 	eor.w	r3, r3, #2
200202e0:	6013      	str	r3, [r2, #0]
200202e2:	4770      	bx	lr
200202e4:	200226c4 	.word	0x200226c4

200202e8 <flp_singl_mskd_method>:
200202e8:	4a02      	ldr	r2, [pc, #8]	; (200202f4 <flp_singl_mskd_method+0xc>)
200202ea:	6813      	ldr	r3, [r2, #0]
200202ec:	f083 0302 	eor.w	r3, r3, #2
200202f0:	6013      	str	r3, [r2, #0]
200202f2:	4770      	bx	lr
200202f4:	200226c4 	.word	0x200226c4

200202f8 <ins_singl_mskd_operator>:
200202f8:	4a03      	ldr	r2, [pc, #12]	; (20020308 <ins_singl_mskd_operator+0x10>)
200202fa:	6813      	ldr	r3, [r2, #0]
200202fc:	f023 0306 	bic.w	r3, r3, #6
20020300:	f043 0304 	orr.w	r3, r3, #4
20020304:	6013      	str	r3, [r2, #0]
20020306:	4770      	bx	lr
20020308:	200226c4 	.word	0x200226c4

2002030c <ins_singl_mskd_method>:
2002030c:	4a03      	ldr	r2, [pc, #12]	; (2002031c <ins_singl_mskd_method+0x10>)
2002030e:	6813      	ldr	r3, [r2, #0]
20020310:	f023 0306 	bic.w	r3, r3, #6
20020314:	f043 0304 	orr.w	r3, r3, #4
20020318:	6013      	str	r3, [r2, #0]
2002031a:	4770      	bx	lr
2002031c:	200226c4 	.word	0x200226c4

20020320 <set_multi_bits_operator>:
20020320:	4a02      	ldr	r2, [pc, #8]	; (2002032c <set_multi_bits_operator+0xc>)
20020322:	6813      	ldr	r3, [r2, #0]
20020324:	f043 0321 	orr.w	r3, r3, #33	; 0x21
20020328:	6013      	str	r3, [r2, #0]
2002032a:	4770      	bx	lr
2002032c:	200226c4 	.word	0x200226c4

20020330 <set_multi_bits_method>:
20020330:	4a02      	ldr	r2, [pc, #8]	; (2002033c <set_multi_bits_method+0xc>)
20020332:	6813      	ldr	r3, [r2, #0]
20020334:	f043 0321 	orr.w	r3, r3, #33	; 0x21
20020338:	6013      	str	r3, [r2, #0]
2002033a:	4770      	bx	lr
2002033c:	200226c4 	.word	0x200226c4

20020340 <ins_multi_mskd_operator>:
20020340:	4a03      	ldr	r2, [pc, #12]	; (20020350 <ins_multi_mskd_operator+0x10>)
20020342:	6811      	ldr	r1, [r2, #0]
20020344:	4b03      	ldr	r3, [pc, #12]	; (20020354 <ins_multi_mskd_operator+0x14>)
20020346:	400b      	ands	r3, r1
20020348:	f443 73c1 	orr.w	r3, r3, #386	; 0x182
2002034c:	6013      	str	r3, [r2, #0]
2002034e:	4770      	bx	lr
20020350:	200226c4 	.word	0x200226c4
20020354:	fffff079 	.word	0xfffff079

20020358 <ins_multi_mskd_method>:
20020358:	4a03      	ldr	r2, [pc, #12]	; (20020368 <ins_multi_mskd_method+0x10>)
2002035a:	6811      	ldr	r1, [r2, #0]
2002035c:	4b03      	ldr	r3, [pc, #12]	; (2002036c <ins_multi_mskd_method+0x14>)
2002035e:	400b      	ands	r3, r1
20020360:	f443 73c1 	orr.w	r3, r3, #386	; 0x182
20020364:	6013      	str	r3, [r2, #0]
20020366:	4770      	bx	lr
20020368:	200226c4 	.word	0x200226c4
2002036c:	fffff079 	.word	0xfffff079

20020370 <equ_multi_bits_operator>:
20020370:	4b01      	ldr	r3, [pc, #4]	; (20020378 <equ_multi_bits_operator+0x8>)
20020372:	2260      	movs	r2, #96	; 0x60
20020374:	601a      	str	r2, [r3, #0]
20020376:	4770      	bx	lr
20020378:	200226c4 	.word	0x200226c4

2002037c <equ_multi_bits_method>:
2002037c:	4b01      	ldr	r3, [pc, #4]	; (20020384 <equ_multi_bits_method+0x8>)
2002037e:	2260      	movs	r2, #96	; 0x60
20020380:	601a      	str	r2, [r3, #0]
20020382:	4770      	bx	lr
20020384:	200226c4 	.word	0x200226c4

20020388 <equ_multi_mskd_operator>:
20020388:	4b02      	ldr	r3, [pc, #8]	; (20020394 <equ_multi_mskd_operator+0xc>)
2002038a:	f44f 7242 	mov.w	r2, #776	; 0x308
2002038e:	601a      	str	r2, [r3, #0]
20020390:	4770      	bx	lr
20020392:	bf00      	nop
20020394:	200226c4 	.word	0x200226c4

20020398 <equ_multi_mskd_method>:
20020398:	4b02      	ldr	r3, [pc, #8]	; (200203a4 <equ_multi_mskd_method+0xc>)
2002039a:	f44f 7242 	mov.w	r2, #776	; 0x308
2002039e:	601a      	str	r2, [r3, #0]
200203a0:	4770      	bx	lr
200203a2:	bf00      	nop
200203a4:	200226c4 	.word	0x200226c4

200203a8 <equ_bits_mskd_operator>:
200203a8:	4b01      	ldr	r3, [pc, #4]	; (200203b0 <equ_bits_mskd_operator+0x8>)
200203aa:	2222      	movs	r2, #34	; 0x22
200203ac:	601a      	str	r2, [r3, #0]
200203ae:	4770      	bx	lr
200203b0:	200226c4 	.word	0x200226c4

200203b4 <equ_bits_mskd_method>:
200203b4:	4b01      	ldr	r3, [pc, #4]	; (200203bc <equ_bits_mskd_method+0x8>)
200203b6:	2222      	movs	r2, #34	; 0x22
200203b8:	601a      	str	r2, [r3, #0]
200203ba:	4770      	bx	lr
200203bc:	200226c4 	.word	0x200226c4

200203c0 <equ_mskd_bits_operator>:
200203c0:	4b01      	ldr	r3, [pc, #4]	; (200203c8 <equ_mskd_bits_operator+0x8>)
200203c2:	2244      	movs	r2, #68	; 0x44
200203c4:	601a      	str	r2, [r3, #0]
200203c6:	4770      	bx	lr
200203c8:	200226c4 	.word	0x200226c4

200203cc <equ_mskd_bits_method>:
200203cc:	4b01      	ldr	r3, [pc, #4]	; (200203d4 <equ_mskd_bits_method+0x8>)
200203ce:	2244      	movs	r2, #68	; 0x44
200203d0:	601a      	str	r2, [r3, #0]
200203d2:	4770      	bx	lr
200203d4:	200226c4 	.word	0x200226c4

200203d8 <equ_bits_var>:
200203d8:	4b02      	ldr	r3, [pc, #8]	; (200203e4 <equ_bits_var+0xc>)
200203da:	2240      	movs	r2, #64	; 0x40
200203dc:	601a      	str	r2, [r3, #0]
200203de:	2201      	movs	r2, #1
200203e0:	601a      	str	r2, [r3, #0]
200203e2:	4770      	bx	lr
200203e4:	200226c4 	.word	0x200226c4

200203e8 <equ_mskd_var>:
200203e8:	4b03      	ldr	r3, [pc, #12]	; (200203f8 <equ_mskd_var+0x10>)
200203ea:	2202      	movs	r2, #2
200203ec:	601a      	str	r2, [r3, #0]
200203ee:	f44f 72c0 	mov.w	r2, #384	; 0x180
200203f2:	601a      	str	r2, [r3, #0]
200203f4:	4770      	bx	lr
200203f6:	bf00      	nop
200203f8:	200226c4 	.word	0x200226c4

200203fc <cmp_equ_zero>:
200203fc:	4b07      	ldr	r3, [pc, #28]	; (2002041c <cmp_equ_zero+0x20>)
200203fe:	2200      	movs	r2, #0
20020400:	601a      	str	r2, [r3, #0]
20020402:	681b      	ldr	r3, [r3, #0]
20020404:	b923      	cbnz	r3, 20020410 <cmp_equ_zero+0x14>
20020406:	4b06      	ldr	r3, [pc, #24]	; (20020420 <cmp_equ_zero+0x24>)
20020408:	f04f 5268 	mov.w	r2, #973078528	; 0x3a000000
2002040c:	601a      	str	r2, [r3, #0]
2002040e:	4770      	bx	lr
20020410:	4b03      	ldr	r3, [pc, #12]	; (20020420 <cmp_equ_zero+0x24>)
20020412:	f04f 5208 	mov.w	r2, #570425344	; 0x22000000
20020416:	601a      	str	r2, [r3, #0]
20020418:	4770      	bx	lr
2002041a:	bf00      	nop
2002041c:	200226c4 	.word	0x200226c4
20020420:	20022624 	.word	0x20022624

20020424 <cmp_neq_zero>:
20020424:	4b06      	ldr	r3, [pc, #24]	; (20020440 <cmp_neq_zero+0x1c>)
20020426:	2200      	movs	r2, #0
20020428:	601a      	str	r2, [r3, #0]
2002042a:	681b      	ldr	r3, [r3, #0]
2002042c:	b11b      	cbz	r3, 20020436 <cmp_neq_zero+0x12>
2002042e:	4b04      	ldr	r3, [pc, #16]	; (20020440 <cmp_neq_zero+0x1c>)
20020430:	2204      	movs	r2, #4
20020432:	601a      	str	r2, [r3, #0]
20020434:	4770      	bx	lr
20020436:	4b02      	ldr	r3, [pc, #8]	; (20020440 <cmp_neq_zero+0x1c>)
20020438:	2220      	movs	r2, #32
2002043a:	601a      	str	r2, [r3, #0]
2002043c:	4770      	bx	lr
2002043e:	bf00      	nop
20020440:	200226c4 	.word	0x200226c4

20020444 <cmp_equ_bits>:
20020444:	4b06      	ldr	r3, [pc, #24]	; (20020460 <cmp_equ_bits+0x1c>)
20020446:	2240      	movs	r2, #64	; 0x40
20020448:	601a      	str	r2, [r3, #0]
2002044a:	681b      	ldr	r3, [r3, #0]
2002044c:	f013 0f40 	tst.w	r3, #64	; 0x40
20020450:	4b04      	ldr	r3, [pc, #16]	; (20020464 <cmp_equ_bits+0x20>)
20020452:	bf14      	ite	ne
20020454:	f04f 52b0 	movne.w	r2, #369098752	; 0x16000000
20020458:	f04f 52d0 	moveq.w	r2, #436207616	; 0x1a000000
2002045c:	601a      	str	r2, [r3, #0]
2002045e:	4770      	bx	lr
20020460:	200226c4 	.word	0x200226c4
20020464:	20022624 	.word	0x20022624

20020468 <cmp_neq_bits>:
20020468:	4b05      	ldr	r3, [pc, #20]	; (20020480 <cmp_neq_bits+0x18>)
2002046a:	2240      	movs	r2, #64	; 0x40
2002046c:	601a      	str	r2, [r3, #0]
2002046e:	681b      	ldr	r3, [r3, #0]
20020470:	f013 0f40 	tst.w	r3, #64	; 0x40
20020474:	4b02      	ldr	r3, [pc, #8]	; (20020480 <cmp_neq_bits+0x18>)
20020476:	bf0c      	ite	eq
20020478:	2202      	moveq	r2, #2
2002047a:	2220      	movne	r2, #32
2002047c:	601a      	str	r2, [r3, #0]
2002047e:	4770      	bx	lr
20020480:	200226c4 	.word	0x200226c4

20020484 <cmp_equ_multi_bits>:
20020484:	4b06      	ldr	r3, [pc, #24]	; (200204a0 <cmp_equ_multi_bits+0x1c>)
20020486:	2260      	movs	r2, #96	; 0x60
20020488:	601a      	str	r2, [r3, #0]
2002048a:	681b      	ldr	r3, [r3, #0]
2002048c:	4013      	ands	r3, r2
2002048e:	4293      	cmp	r3, r2
20020490:	4b04      	ldr	r3, [pc, #16]	; (200204a4 <cmp_equ_multi_bits+0x20>)
20020492:	bf0c      	ite	eq
20020494:	f04f 5208 	moveq.w	r2, #570425344	; 0x22000000
20020498:	f04f 5238 	movne.w	r2, #771751936	; 0x2e000000
2002049c:	601a      	str	r2, [r3, #0]
2002049e:	4770      	bx	lr
200204a0:	200226c4 	.word	0x200226c4
200204a4:	20022624 	.word	0x20022624

200204a8 <cmp_neq_multi_bits>:
200204a8:	4b06      	ldr	r3, [pc, #24]	; (200204c4 <cmp_neq_multi_bits+0x1c>)
200204aa:	2260      	movs	r2, #96	; 0x60
200204ac:	601a      	str	r2, [r3, #0]
200204ae:	681b      	ldr	r3, [r3, #0]
200204b0:	4013      	ands	r3, r2
200204b2:	4293      	cmp	r3, r2
200204b4:	4b04      	ldr	r3, [pc, #16]	; (200204c8 <cmp_neq_multi_bits+0x20>)
200204b6:	bf14      	ite	ne
200204b8:	f04f 5268 	movne.w	r2, #973078528	; 0x3a000000
200204bc:	f04f 5278 	moveq.w	r2, #1040187392	; 0x3e000000
200204c0:	601a      	str	r2, [r3, #0]
200204c2:	4770      	bx	lr
200204c4:	200226c4 	.word	0x200226c4
200204c8:	20022624 	.word	0x20022624

200204cc <cmp_equ_mskd>:
200204cc:	4b09      	ldr	r3, [pc, #36]	; (200204f4 <cmp_equ_mskd+0x28>)
200204ce:	f44f 32e8 	mov.w	r2, #118784	; 0x1d000
200204d2:	601a      	str	r2, [r3, #0]
200204d4:	681b      	ldr	r3, [r3, #0]
200204d6:	f403 33f8 	and.w	r3, r3, #126976	; 0x1f000
200204da:	f5b3 3f88 	cmp.w	r3, #69632	; 0x11000
200204de:	4a06      	ldr	r2, [pc, #24]	; (200204f8 <cmp_equ_mskd+0x2c>)
200204e0:	6813      	ldr	r3, [r2, #0]
200204e2:	f023 5378 	bic.w	r3, r3, #1040187392	; 0x3e000000
200204e6:	bf0c      	ite	eq
200204e8:	f043 6360 	orreq.w	r3, r3, #234881024	; 0xe000000
200204ec:	f043 5308 	orrne.w	r3, r3, #570425344	; 0x22000000
200204f0:	6013      	str	r3, [r2, #0]
200204f2:	4770      	bx	lr
200204f4:	200226c4 	.word	0x200226c4
200204f8:	20022624 	.word	0x20022624

200204fc <cmp_neq_mskd>:
200204fc:	4b0b      	ldr	r3, [pc, #44]	; (2002052c <cmp_neq_mskd+0x30>)
200204fe:	f44f 32e8 	mov.w	r2, #118784	; 0x1d000
20020502:	601a      	str	r2, [r3, #0]
20020504:	681b      	ldr	r3, [r3, #0]
20020506:	f403 33f8 	and.w	r3, r3, #126976	; 0x1f000
2002050a:	f5b3 3f88 	cmp.w	r3, #69632	; 0x11000
2002050e:	d007      	beq.n	20020520 <cmp_neq_mskd+0x24>
20020510:	4a06      	ldr	r2, [pc, #24]	; (2002052c <cmp_neq_mskd+0x30>)
20020512:	6813      	ldr	r3, [r2, #0]
20020514:	f023 0306 	bic.w	r3, r3, #6
20020518:	f043 0304 	orr.w	r3, r3, #4
2002051c:	6013      	str	r3, [r2, #0]
2002051e:	4770      	bx	lr
20020520:	4a02      	ldr	r2, [pc, #8]	; (2002052c <cmp_neq_mskd+0x30>)
20020522:	6813      	ldr	r3, [r2, #0]
20020524:	f043 0340 	orr.w	r3, r3, #64	; 0x40
20020528:	6013      	str	r3, [r2, #0]
2002052a:	4770      	bx	lr
2002052c:	200226c4 	.word	0x200226c4

20020530 <cmp_equ_reg>:
20020530:	4b06      	ldr	r3, [pc, #24]	; (2002054c <cmp_equ_reg+0x1c>)
20020532:	2222      	movs	r2, #34	; 0x22
20020534:	601a      	str	r2, [r3, #0]
20020536:	681b      	ldr	r3, [r3, #0]
20020538:	4293      	cmp	r3, r2
2002053a:	4b05      	ldr	r3, [pc, #20]	; (20020550 <cmp_equ_reg+0x20>)
2002053c:	bf0c      	ite	eq
2002053e:	f04f 5228 	moveq.w	r2, #704643072	; 0x2a000000
20020542:	f04f 5238 	movne.w	r2, #771751936	; 0x2e000000
20020546:	601a      	str	r2, [r3, #0]
20020548:	4770      	bx	lr
2002054a:	bf00      	nop
2002054c:	200226c4 	.word	0x200226c4
20020550:	20022624 	.word	0x20022624

20020554 <cmp_neq_reg>:
20020554:	4b05      	ldr	r3, [pc, #20]	; (2002056c <cmp_neq_reg+0x18>)
20020556:	2222      	movs	r2, #34	; 0x22
20020558:	601a      	str	r2, [r3, #0]
2002055a:	681b      	ldr	r3, [r3, #0]
2002055c:	4293      	cmp	r3, r2
2002055e:	4b03      	ldr	r3, [pc, #12]	; (2002056c <cmp_neq_reg+0x18>)
20020560:	bf14      	ite	ne
20020562:	2202      	movne	r2, #2
20020564:	2220      	moveq	r2, #32
20020566:	601a      	str	r2, [r3, #0]
20020568:	4770      	bx	lr
2002056a:	bf00      	nop
2002056c:	200226c4 	.word	0x200226c4

20020570 <constexpr_bits_array>:
20020570:	4b03      	ldr	r3, [pc, #12]	; (20020580 <constexpr_bits_array+0x10>)
20020572:	2206      	movs	r2, #6
20020574:	601a      	str	r2, [r3, #0]
20020576:	3374      	adds	r3, #116	; 0x74
20020578:	f44f 5200 	mov.w	r2, #8192	; 0x2000
2002057c:	601a      	str	r2, [r3, #0]
2002057e:	4770      	bx	lr
20020580:	2002252c 	.word	0x2002252c

20020584 <runtime_bits_array>:
20020584:	b081      	sub	sp, #4
20020586:	2303      	movs	r3, #3
20020588:	9300      	str	r3, [sp, #0]
2002058a:	9a00      	ldr	r2, [sp, #0]
2002058c:	4b02      	ldr	r3, [pc, #8]	; (20020598 <runtime_bits_array+0x14>)
2002058e:	2121      	movs	r1, #33	; 0x21
20020590:	f843 1022 	str.w	r1, [r3, r2, lsl #2]
20020594:	b001      	add	sp, #4
20020596:	4770      	bx	lr
20020598:	20022520 	.word	0x20022520

2002059c <prescaler_low>:
2002059c:	4b04      	ldr	r3, [pc, #16]	; (200205b0 <prescaler_low+0x14>)
2002059e:	2277      	movs	r2, #119	; 0x77
200205a0:	601a      	str	r2, [r3, #0]
200205a2:	681b      	ldr	r3, [r3, #0]
200205a4:	f003 037f 	and.w	r3, r3, #127	; 0x7f
200205a8:	4a02      	ldr	r2, [pc, #8]	; (200205b4 <prescaler_low+0x18>)
200205aa:	6013      	str	r3, [r2, #0]
200205ac:	4770      	bx	lr
200205ae:	bf00      	nop
200205b0:	20022624 	.word	0x20022624
200205b4:	2002252c 	.word	0x2002252c

200205b8 <prescaler_high>:
200205b8:	4b04      	ldr	r3, [pc, #16]	; (200205cc <prescaler_high+0x14>)
200205ba:	f04f 5268 	mov.w	r2, #973078528	; 0x3a000000
200205be:	601a      	str	r2, [r3, #0]
200205c0:	681b      	ldr	r3, [r3, #0]
200205c2:	f3c3 6344 	ubfx	r3, r3, #25, #5
200205c6:	4a02      	ldr	r2, [pc, #8]	; (200205d0 <prescaler_high+0x18>)
200205c8:	6013      	str	r3, [r2, #0]
200205ca:	4770      	bx	lr
200205cc:	20022624 	.word	0x20022624
200205d0:	2002252c 	.word	0x2002252c

200205d4 <reg_mskd_lss>:
200205d4:	4b07      	ldr	r3, [pc, #28]	; (200205f4 <reg_mskd_lss+0x20>)
200205d6:	f04f 5258 	mov.w	r2, #905969664	; 0x36000000
200205da:	601a      	str	r2, [r3, #0]
200205dc:	681b      	ldr	r3, [r3, #0]
200205de:	f003 5378 	and.w	r3, r3, #1040187392	; 0x3e000000
200205e2:	f1b3 5f60 	cmp.w	r3, #939524096	; 0x38000000
200205e6:	4b04      	ldr	r3, [pc, #16]	; (200205f8 <reg_mskd_lss+0x24>)
200205e8:	bf34      	ite	cc
200205ea:	2202      	movcc	r2, #2
200205ec:	2204      	movcs	r2, #4
200205ee:	601a      	str	r2, [r3, #0]
200205f0:	4770      	bx	lr
200205f2:	bf00      	nop
200205f4:	20022624 	.word	0x20022624
200205f8:	200226c4 	.word	0x200226c4

200205fc <reg_mskd_leq>:
200205fc:	4b0b      	ldr	r3, [pc, #44]	; (2002062c <reg_mskd_leq+0x30>)
200205fe:	f04f 5238 	mov.w	r2, #771751936	; 0x2e000000
20020602:	601a      	str	r2, [r3, #0]
20020604:	681b      	ldr	r3, [r3, #0]
20020606:	f003 5378 	and.w	r3, r3, #1040187392	; 0x3e000000
2002060a:	4293      	cmp	r3, r2
2002060c:	d80a      	bhi.n	20020624 <reg_mskd_leq+0x28>
2002060e:	4b07      	ldr	r3, [pc, #28]	; (2002062c <reg_mskd_leq+0x30>)
20020610:	681b      	ldr	r3, [r3, #0]
20020612:	f003 5378 	and.w	r3, r3, #1040187392	; 0x3e000000
20020616:	f1b3 5f40 	cmp.w	r3, #805306368	; 0x30000000
2002061a:	d803      	bhi.n	20020624 <reg_mskd_leq+0x28>
2002061c:	4b04      	ldr	r3, [pc, #16]	; (20020630 <reg_mskd_leq+0x34>)
2002061e:	2202      	movs	r2, #2
20020620:	601a      	str	r2, [r3, #0]
20020622:	4770      	bx	lr
20020624:	4b02      	ldr	r3, [pc, #8]	; (20020630 <reg_mskd_leq+0x34>)
20020626:	2204      	movs	r2, #4
20020628:	601a      	str	r2, [r3, #0]
2002062a:	4770      	bx	lr
2002062c:	20022624 	.word	0x20022624
20020630:	200226c4 	.word	0x200226c4

20020634 <reg_mskd_gtr>:
20020634:	4b07      	ldr	r3, [pc, #28]	; (20020654 <reg_mskd_gtr+0x20>)
20020636:	f04f 5218 	mov.w	r2, #637534208	; 0x26000000
2002063a:	601a      	str	r2, [r3, #0]
2002063c:	681b      	ldr	r3, [r3, #0]
2002063e:	f003 5378 	and.w	r3, r3, #1040187392	; 0x3e000000
20020642:	f1b3 5f10 	cmp.w	r3, #603979776	; 0x24000000
20020646:	4b04      	ldr	r3, [pc, #16]	; (20020658 <reg_mskd_gtr+0x24>)
20020648:	bf8c      	ite	hi
2002064a:	2202      	movhi	r2, #2
2002064c:	2204      	movls	r2, #4
2002064e:	601a      	str	r2, [r3, #0]
20020650:	4770      	bx	lr
20020652:	bf00      	nop
20020654:	20022624 	.word	0x20022624
20020658:	200226c4 	.word	0x200226c4

2002065c <reg_mskd_geq>:
2002065c:	4b0b      	ldr	r3, [pc, #44]	; (2002068c <reg_mskd_geq+0x30>)
2002065e:	f04f 5208 	mov.w	r2, #570425344	; 0x22000000
20020662:	601a      	str	r2, [r3, #0]
20020664:	681b      	ldr	r3, [r3, #0]
20020666:	f003 5378 	and.w	r3, r3, #1040187392	; 0x3e000000
2002066a:	f1b3 5f00 	cmp.w	r3, #536870912	; 0x20000000
2002066e:	d309      	bcc.n	20020684 <reg_mskd_geq+0x28>
20020670:	4b06      	ldr	r3, [pc, #24]	; (2002068c <reg_mskd_geq+0x30>)
20020672:	681b      	ldr	r3, [r3, #0]
20020674:	f003 5378 	and.w	r3, r3, #1040187392	; 0x3e000000
20020678:	4293      	cmp	r3, r2
2002067a:	d303      	bcc.n	20020684 <reg_mskd_geq+0x28>
2002067c:	4b04      	ldr	r3, [pc, #16]	; (20020690 <reg_mskd_geq+0x34>)
2002067e:	2202      	movs	r2, #2
20020680:	601a      	str	r2, [r3, #0]
20020682:	4770      	bx	lr
20020684:	4b02      	ldr	r3, [pc, #8]	; (20020690 <reg_mskd_geq+0x34>)
20020686:	2204      	movs	r2, #4
20020688:	601a      	str	r2, [r3, #0]
2002068a:	4770      	bx	lr
2002068c:	20022624 	.word	0x20022624
20020690:	200226c4 	.word	0x200226c4

20020694 <pos_cmp_eq>:
20020694:	4b01      	ldr	r3, [pc, #4]	; (2002069c <pos_cmp_eq+0x8>)
20020696:	2202      	movs	r2, #2
20020698:	601a      	str	r2, [r3, #0]
2002069a:	4770      	bx	lr
2002069c:	200226c4 	.word	0x200226c4

200206a0 <pos_cmp_ne>:
200206a0:	4b01      	ldr	r3, [pc, #4]	; (200206a8 <pos_cmp_ne+0x8>)
200206a2:	2202      	movs	r2, #2
200206a4:	601a      	str	r2, [r3, #0]
200206a6:	4770      	bx	lr
200206a8:	200226c4 	.word	0x200226c4

200206ac <bits_extract_eq>:
200206ac:	4b05      	ldr	r3, [pc, #20]	; (200206c4 <bits_extract_eq+0x18>)
200206ae:	2240      	movs	r2, #64	; 0x40
200206b0:	601a      	str	r2, [r3, #0]
200206b2:	681b      	ldr	r3, [r3, #0]
200206b4:	4293      	cmp	r3, r2
200206b6:	4b03      	ldr	r3, [pc, #12]	; (200206c4 <bits_extract_eq+0x18>)
200206b8:	bf0c      	ite	eq
200206ba:	2202      	moveq	r2, #2
200206bc:	2204      	movne	r2, #4
200206be:	601a      	str	r2, [r3, #0]
200206c0:	4770      	bx	lr
200206c2:	bf00      	nop
200206c4:	200226c4 	.word	0x200226c4

200206c8 <mskd_extract_eq>:
200206c8:	4b06      	ldr	r3, [pc, #24]	; (200206e4 <mskd_extract_eq+0x1c>)
200206ca:	2202      	movs	r2, #2
200206cc:	601a      	str	r2, [r3, #0]
200206ce:	681b      	ldr	r3, [r3, #0]
200206d0:	f003 0306 	and.w	r3, r3, #6
200206d4:	4293      	cmp	r3, r2
200206d6:	4b03      	ldr	r3, [pc, #12]	; (200206e4 <mskd_extract_eq+0x1c>)
200206d8:	bf0c      	ite	eq
200206da:	2220      	moveq	r2, #32
200206dc:	2240      	movne	r2, #64	; 0x40
200206de:	601a      	str	r2, [r3, #0]
200206e0:	4770      	bx	lr
200206e2:	bf00      	nop
200206e4:	200226c4 	.word	0x200226c4

200206e8 <mskd_extract_ne>:
200206e8:	4b06      	ldr	r3, [pc, #24]	; (20020704 <mskd_extract_ne+0x1c>)
200206ea:	2204      	movs	r2, #4
200206ec:	601a      	str	r2, [r3, #0]
200206ee:	681b      	ldr	r3, [r3, #0]
200206f0:	f003 0306 	and.w	r3, r3, #6
200206f4:	4293      	cmp	r3, r2
200206f6:	4b03      	ldr	r3, [pc, #12]	; (20020704 <mskd_extract_ne+0x1c>)
200206f8:	bf14      	ite	ne
200206fa:	2220      	movne	r2, #32
200206fc:	2240      	moveq	r2, #64	; 0x40
200206fe:	601a      	str	r2, [r3, #0]
20020700:	4770      	bx	lr
20020702:	bf00      	nop
20020704:	200226c4 	.word	0x200226c4

20020708 <mskd_extract_lss>:
20020708:	4b07      	ldr	r3, [pc, #28]	; (20020728 <mskd_extract_lss+0x20>)
2002070a:	f04f 52b0 	mov.w	r2, #369098752	; 0x16000000
2002070e:	601a      	str	r2, [r3, #0]
20020710:	681b      	ldr	r3, [r3, #0]
20020712:	f003 5378 	and.w	r3, r3, #1040187392	; 0x3e000000
20020716:	f1b3 5fc0 	cmp.w	r3, #402653184	; 0x18000000
2002071a:	4b04      	ldr	r3, [pc, #16]	; (2002072c <mskd_extract_lss+0x24>)
2002071c:	bf34      	ite	cc
2002071e:	2220      	movcc	r2, #32
20020720:	2240      	movcs	r2, #64	; 0x40
20020722:	601a      	str	r2, [r3, #0]
20020724:	4770      	bx	lr
20020726:	bf00      	nop
20020728:	20022624 	.word	0x20022624
2002072c:	200226c4 	.word	0x200226c4

20020730 <mskd_extract_leq>:
20020730:	4b06      	ldr	r3, [pc, #24]	; (2002074c <mskd_extract_leq+0x1c>)
20020732:	f04f 5238 	mov.w	r2, #771751936	; 0x2e000000
20020736:	601a      	str	r2, [r3, #0]
20020738:	681b      	ldr	r3, [r3, #0]
2002073a:	f003 5378 	and.w	r3, r3, #1040187392	; 0x3e000000
2002073e:	4293      	cmp	r3, r2
20020740:	4b03      	ldr	r3, [pc, #12]	; (20020750 <mskd_extract_leq+0x20>)
20020742:	bf94      	ite	ls
20020744:	2220      	movls	r2, #32
20020746:	2240      	movhi	r2, #64	; 0x40
20020748:	601a      	str	r2, [r3, #0]
2002074a:	4770      	bx	lr
2002074c:	20022624 	.word	0x20022624
20020750:	200226c4 	.word	0x200226c4

20020754 <mskd_extract_gtr>:
20020754:	4b07      	ldr	r3, [pc, #28]	; (20020774 <mskd_extract_gtr+0x20>)
20020756:	f04f 5218 	mov.w	r2, #637534208	; 0x26000000
2002075a:	601a      	str	r2, [r3, #0]
2002075c:	681b      	ldr	r3, [r3, #0]
2002075e:	f003 5378 	and.w	r3, r3, #1040187392	; 0x3e000000
20020762:	f1b3 5f10 	cmp.w	r3, #603979776	; 0x24000000
20020766:	4b04      	ldr	r3, [pc, #16]	; (20020778 <mskd_extract_gtr+0x24>)
20020768:	bf8c      	ite	hi
2002076a:	2220      	movhi	r2, #32
2002076c:	2240      	movls	r2, #64	; 0x40
2002076e:	601a      	str	r2, [r3, #0]
20020770:	4770      	bx	lr
20020772:	bf00      	nop
20020774:	20022624 	.word	0x20022624
20020778:	200226c4 	.word	0x200226c4

2002077c <set_bits_global>:
2002077c:	4a02      	ldr	r2, [pc, #8]	; (20020788 <set_bits_global+0xc>)
2002077e:	6813      	ldr	r3, [r2, #0]
20020780:	f043 0340 	orr.w	r3, r3, #64	; 0x40
20020784:	6013      	str	r3, [r2, #0]
20020786:	4770      	bx	lr
20020788:	200226c4 	.word	0x200226c4

2002078c <ins_mskd_global>:
2002078c:	4a03      	ldr	r2, [pc, #12]	; (2002079c <ins_mskd_global+0x10>)
2002078e:	6813      	ldr	r3, [r2, #0]
20020790:	f023 0306 	bic.w	r3, r3, #6
20020794:	f043 0302 	orr.w	r3, r3, #2
20020798:	6013      	str	r3, [r2, #0]
2002079a:	4770      	bx	lr
2002079c:	200226c4 	.word	0x200226c4

200207a0 <assign_array_global>:
200207a0:	4b01      	ldr	r3, [pc, #4]	; (200207a8 <assign_array_global+0x8>)
200207a2:	22bd      	movs	r2, #189	; 0xbd
200207a4:	601a      	str	r2, [r3, #0]
200207a6:	4770      	bx	lr
200207a8:	2002252c 	.word	0x2002252c

200207ac <shifted_global>:
200207ac:	4b04      	ldr	r3, [pc, #16]	; (200207c0 <shifted_global+0x14>)
200207ae:	f04f 5238 	mov.w	r2, #771751936	; 0x2e000000
200207b2:	601a      	str	r2, [r3, #0]
200207b4:	681b      	ldr	r3, [r3, #0]
200207b6:	f3c3 6344 	ubfx	r3, r3, #25, #5
200207ba:	4a02      	ldr	r2, [pc, #8]	; (200207c4 <shifted_global+0x18>)
200207bc:	6013      	str	r3, [r2, #0]
200207be:	4770      	bx	lr
200207c0:	20022624 	.word	0x20022624
200207c4:	2002252c 	.word	0x2002252c

200207c8 <assign_register_global>:
200207c8:	4b01      	ldr	r3, [pc, #4]	; (200207d0 <assign_register_global+0x8>)
200207ca:	2204      	movs	r2, #4
200207cc:	601a      	str	r2, [r3, #0]
200207ce:	4770      	bx	lr
200207d0:	200226c4 	.word	0x200226c4

200207d4 <copy_bits_equ>:
200207d4:	4b05      	ldr	r3, [pc, #20]	; (200207ec <copy_bits_equ+0x18>)
200207d6:	2240      	movs	r2, #64	; 0x40
200207d8:	601a      	str	r2, [r3, #0]
200207da:	681b      	ldr	r3, [r3, #0]
200207dc:	f013 0f40 	tst.w	r3, #64	; 0x40
200207e0:	4b02      	ldr	r3, [pc, #8]	; (200207ec <copy_bits_equ+0x18>)
200207e2:	bf14      	ite	ne
200207e4:	2202      	movne	r2, #2
200207e6:	2204      	moveq	r2, #4
200207e8:	601a      	str	r2, [r3, #0]
200207ea:	4770      	bx	lr
200207ec:	200226c4 	.word	0x200226c4

200207f0 <copy_bits_neq>:
200207f0:	4b05      	ldr	r3, [pc, #20]	; (20020808 <copy_bits_neq+0x18>)
200207f2:	2240      	movs	r2, #64	; 0x40
200207f4:	601a      	str	r2, [r3, #0]
200207f6:	681b      	ldr	r3, [r3, #0]
200207f8:	f013 0f40 	tst.w	r3, #64	; 0x40
200207fc:	4b02      	ldr	r3, [pc, #8]	; (20020808 <copy_bits_neq+0x18>)
200207fe:	bf0c      	ite	eq
20020800:	2202      	moveq	r2, #2
20020802:	2204      	movne	r2, #4
20020804:	601a      	str	r2, [r3, #0]
20020806:	4770      	bx	lr
20020808:	200226c4 	.word	0x200226c4

2002080c <copy_mskd_equ>:
2002080c:	4b06      	ldr	r3, [pc, #24]	; (20020828 <copy_mskd_equ+0x1c>)
2002080e:	f04f 52b0 	mov.w	r2, #369098752	; 0x16000000
20020812:	601a      	str	r2, [r3, #0]
20020814:	681b      	ldr	r3, [r3, #0]
20020816:	f003 5378 	and.w	r3, r3, #1040187392	; 0x3e000000
2002081a:	4293      	cmp	r3, r2
2002081c:	4b03      	ldr	r3, [pc, #12]	; (2002082c <copy_mskd_equ+0x20>)
2002081e:	bf0c      	ite	eq
20020820:	2202      	moveq	r2, #2
20020822:	2204      	movne	r2, #4
20020824:	601a      	str	r2, [r3, #0]
20020826:	4770      	bx	lr
20020828:	20022624 	.word	0x20022624
2002082c:	200226c4 	.word	0x200226c4

20020830 <copy_mskd_neq>:
20020830:	4b06      	ldr	r3, [pc, #24]	; (2002084c <copy_mskd_neq+0x1c>)
20020832:	f04f 52b0 	mov.w	r2, #369098752	; 0x16000000
20020836:	601a      	str	r2, [r3, #0]
20020838:	681b      	ldr	r3, [r3, #0]
2002083a:	f003 5378 	and.w	r3, r3, #1040187392	; 0x3e000000
2002083e:	4293      	cmp	r3, r2
20020840:	4b03      	ldr	r3, [pc, #12]	; (20020850 <copy_mskd_neq+0x20>)
20020842:	bf14      	ite	ne
20020844:	2202      	movne	r2, #2
20020846:	2204      	moveq	r2, #4
20020848:	601a      	str	r2, [r3, #0]
2002084a:	4770      	bx	lr
2002084c:	20022624 	.word	0x20022624
20020850:	200226c4 	.word	0x200226c4

20020854 <copy_mskd_lss>:
20020854:	4b07      	ldr	r3, [pc, #28]	; (20020874 <copy_mskd_lss+0x20>)
20020856:	f04f 5258 	mov.w	r2, #905969664	; 0x36000000
2002085a:	601a      	str	r2, [r3, #0]
2002085c:	681b      	ldr	r3, [r3, #0]
2002085e:	f003 5378 	and.w	r3, r3, #1040187392	; 0x3e000000
20020862:	f1b3 5f60 	cmp.w	r3, #939524096	; 0x38000000
20020866:	4b04      	ldr	r3, [pc, #16]	; (20020878 <copy_mskd_lss+0x24>)
20020868:	bf34      	ite	cc
2002086a:	2202      	movcc	r2, #2
2002086c:	2204      	movcs	r2, #4
2002086e:	601a      	str	r2, [r3, #0]
20020870:	4770      	bx	lr
20020872:	bf00      	nop
20020874:	20022624 	.word	0x20022624
20020878:	200226c4 	.word	0x200226c4

2002087c <copy_mskd_leq>:
2002087c:	4b06      	ldr	r3, [pc, #24]	; (20020898 <copy_mskd_leq+0x1c>)
2002087e:	f04f 5238 	mov.w	r2, #771751936	; 0x2e000000
20020882:	601a      	str	r2, [r3, #0]
20020884:	681b      	ldr	r3, [r3, #0]
20020886:	f003 5378 	and.w	r3, r3, #1040187392	; 0x3e000000
2002088a:	4293      	cmp	r3, r2
2002088c:	4b03      	ldr	r3, [pc, #12]	; (2002089c <copy_mskd_leq+0x20>)
2002088e:	bf94      	ite	ls
20020890:	2202      	movls	r2, #2
20020892:	2204      	movhi	r2, #4
20020894:	601a      	str	r2, [r3, #0]
20020896:	4770      	bx	lr
20020898:	20022624 	.word	0x20022624
2002089c:	200226c4 	.word	0x200226c4

200208a0 <copy_mskd_gtr>:
200208a0:	4b07      	ldr	r3, [pc, #28]	; (200208c0 <copy_mskd_gtr+0x20>)
200208a2:	f04f 5218 	mov.w	r2, #637534208	; 0x26000000
200208a6:	601a      	str	r2, [r3, #0]
200208a8:	681b      	ldr	r3, [r3, #0]
200208aa:	f003 5378 	and.w	r3, r3, #1040187392	; 0x3e000000
200208ae:	f1b3 5f10 	cmp.w	r3, #603979776	; 0x24000000
200208b2:	4b04      	ldr	r3, [pc, #16]	; (200208c4 <copy_mskd_gtr+0x24>)
200208b4:	bf8c      	ite	hi
200208b6:	2202      	movhi	r2, #2
200208b8:	2204      	movls	r2, #4
200208ba:	601a      	str	r2, [r3, #0]
200208bc:	4770      	bx	lr
200208be:	bf00      	nop
200208c0:	20022624 	.word	0x20022624
200208c4:	200226c4 	.word	0x200226c4

200208c8 <copy_mskd_geq>:
200208c8:	4b06      	ldr	r3, [pc, #24]	; (200208e4 <copy_mskd_geq+0x1c>)
200208ca:	f04f 5208 	mov.w	r2, #570425344	; 0x22000000
200208ce:	601a      	str	r2, [r3, #0]
200208d0:	681b      	ldr	r3, [r3, #0]
200208d2:	f003 5378 	and.w	r3, r3, #1040187392	; 0x3e000000
200208d6:	4293      	cmp	r3, r2
200208d8:	4b03      	ldr	r3, [pc, #12]	; (200208e8 <copy_mskd_geq+0x20>)
200208da:	bf2c      	ite	cs
200208dc:	2202      	movcs	r2, #2
200208de:	2204      	movcc	r2, #4
200208e0:	601a      	str	r2, [r3, #0]
200208e2:	4770      	bx	lr
200208e4:	20022624 	.word	0x20022624
200208e8:	200226c4 	.word	0x200226c4

200208ec <copy_shifted>:
200208ec:	4b06      	ldr	r3, [pc, #24]	; (20020908 <copy_shifted+0x1c>)
200208ee:	f04f 52b0 	mov.w	r2, #369098752	; 0x16000000
200208f2:	601a      	str	r2, [r3, #0]
200208f4:	681b      	ldr	r3, [r3, #0]
200208f6:	f3c3 6344 	ubfx	r3, r3, #25, #5
200208fa:	2b0b      	cmp	r3, #11
200208fc:	4b03      	ldr	r3, [pc, #12]	; (2002090c <copy_shifted+0x20>)
200208fe:	bf0c      	ite	eq
20020900:	2202      	moveq	r2, #2
20020902:	2204      	movne	r2, #4
20020904:	601a      	str	r2, [r3, #0]
20020906:	4770      	bx	lr
20020908:	20022624 	.word	0x20022624
2002090c:	200226c4 	.word	0x200226c4

20020910 <bits_val>:
20020910:	4b01      	ldr	r3, [pc, #4]	; (20020918 <bits_val+0x8>)
20020912:	6018      	str	r0, [r3, #0]
20020914:	4770      	bx	lr
20020916:	bf00      	nop
20020918:	200226c4 	.word	0x200226c4

2002091c <call_bits_val_const>:
2002091c:	b500      	push	{lr}
2002091e:	2040      	movs	r0, #64	; 0x40
20020920:	f7ff fff6 	bl	20020910 <bits_val>
20020924:	f85d fb04 	ldr.w	pc, [sp], #4

20020928 <call_bits_val_var>:
20020928:	b500      	push	{lr}
2002092a:	2040      	movs	r0, #64	; 0x40
2002092c:	f7ff fff0 	bl	20020910 <bits_val>
20020930:	f85d fb04 	ldr.w	pc, [sp], #4

20020934 <call_bits_val_zero>:
20020934:	b500      	push	{lr}
20020936:	2000      	movs	r0, #0
20020938:	f7ff ffea 	bl	20020910 <bits_val>
2002093c:	f85d fb04 	ldr.w	pc, [sp], #4

20020940 <call_bits_val_global>:
20020940:	b500      	push	{lr}
20020942:	2040      	movs	r0, #64	; 0x40
20020944:	f7ff ffe4 	bl	20020910 <bits_val>
20020948:	f85d fb04 	ldr.w	pc, [sp], #4

2002094c <bits_ref>:
2002094c:	6802      	ldr	r2, [r0, #0]
2002094e:	4b01      	ldr	r3, [pc, #4]	; (20020954 <bits_ref+0x8>)
20020950:	601a      	str	r2, [r3, #0]
20020952:	4770      	bx	lr
20020954:	200226c4 	.word	0x200226c4

20020958 <call_bits_ref_const>:
20020958:	b500      	push	{lr}
2002095a:	b081      	sub	sp, #4
2002095c:	2301      	movs	r3, #1
2002095e:	9300      	str	r3, [sp, #0]
20020960:	4668      	mov	r0, sp
20020962:	f7ff fff3 	bl	2002094c <bits_ref>
20020966:	b001      	add	sp, #4
20020968:	f85d fb04 	ldr.w	pc, [sp], #4

2002096c <call_bits_ref_var>:
2002096c:	b500      	push	{lr}
2002096e:	b081      	sub	sp, #4
20020970:	2301      	movs	r3, #1
20020972:	9300      	str	r3, [sp, #0]
20020974:	4668      	mov	r0, sp
20020976:	f7ff ffe9 	bl	2002094c <bits_ref>
2002097a:	b001      	add	sp, #4
2002097c:	f85d fb04 	ldr.w	pc, [sp], #4

20020980 <call_bits_ref_zero>:
20020980:	b500      	push	{lr}
20020982:	b081      	sub	sp, #4
20020984:	2300      	movs	r3, #0
20020986:	9300      	str	r3, [sp, #0]
20020988:	4668      	mov	r0, sp
2002098a:	f7ff ffdf 	bl	2002094c <bits_ref>
2002098e:	b001      	add	sp, #4
20020990:	f85d fb04 	ldr.w	pc, [sp], #4

20020994 <call_bits_ref_global>:
20020994:	b500      	push	{lr}
20020996:	b081      	sub	sp, #4
20020998:	2340      	movs	r3, #64	; 0x40
2002099a:	9300      	str	r3, [sp, #0]
2002099c:	4668      	mov	r0, sp
2002099e:	f7ff ffd5 	bl	2002094c <bits_ref>
200209a2:	b001      	add	sp, #4
200209a4:	f85d fb04 	ldr.w	pc, [sp], #4

200209a8 <mskd_val>:
200209a8:	4a03      	ldr	r2, [pc, #12]	; (200209b8 <mskd_val+0x10>)
200209aa:	6813      	ldr	r3, [r2, #0]
200209ac:	ea23 0000 	bic.w	r0, r3, r0
200209b0:	4308      	orrs	r0, r1
200209b2:	6010      	str	r0, [r2, #0]
200209b4:	4770      	bx	lr
200209b6:	bf00      	nop
200209b8:	200226c4 	.word	0x200226c4

200209bc <call_mskd_val_const>:
200209bc:	b500      	push	{lr}
200209be:	2102      	movs	r1, #2
200209c0:	2006      	movs	r0, #6
200209c2:	f7ff fff1 	bl	200209a8 <mskd_val>
200209c6:	2102      	movs	r1, #2
200209c8:	2006      	movs	r0, #6
200209ca:	f7ff ffed 	bl	200209a8 <mskd_val>
200209ce:	f85d fb04 	ldr.w	pc, [sp], #4

200209d2 <call_mskd_val_var>:
200209d2:	b500      	push	{lr}
200209d4:	2102      	movs	r1, #2
200209d6:	2006      	movs	r0, #6
200209d8:	f7ff ffe6 	bl	200209a8 <mskd_val>
200209dc:	2102      	movs	r1, #2
200209de:	2006      	movs	r0, #6
200209e0:	f7ff ffe2 	bl	200209a8 <mskd_val>
200209e4:	f85d fb04 	ldr.w	pc, [sp], #4

200209e8 <call_mskd_val_global>:
200209e8:	b500      	push	{lr}
200209ea:	2102      	movs	r1, #2
200209ec:	2006      	movs	r0, #6
200209ee:	f7ff ffdb 	bl	200209a8 <mskd_val>
200209f2:	f85d fb04 	ldr.w	pc, [sp], #4

200209f6 <mskd_ref>:
200209f6:	4a04      	ldr	r2, [pc, #16]	; (20020a08 <mskd_ref+0x12>)
200209f8:	6813      	ldr	r3, [r2, #0]
200209fa:	6801      	ldr	r1, [r0, #0]
200209fc:	ea23 0301 	bic.w	r3, r3, r1
20020a00:	6841      	ldr	r1, [r0, #4]
20020a02:	430b      	orrs	r3, r1
20020a04:	6013      	str	r3, [r2, #0]
20020a06:	4770      	bx	lr
20020a08:	200226c4 	.word	0x200226c4

20020a0c <call_mskd_ref_const>:
20020a0c:	b500      	push	{lr}
20020a0e:	b082      	sub	sp, #8
20020a10:	4b04      	ldr	r3, [pc, #16]	; (20020a24 <call_mskd_ref_const+0x18>)
20020a12:	cb0c      	ldmia	r3, {r2, r3}
20020a14:	e88d 000c 	stmia.w	sp, {r2, r3}
20020a18:	4668      	mov	r0, sp
20020a1a:	f7ff ffec 	bl	200209f6 <mskd_ref>
20020a1e:	b002      	add	sp, #8
20020a20:	f85d fb04 	ldr.w	pc, [sp], #4
20020a24:	200217d8 	.word	0x200217d8

20020a28 <call_mskd_ref_var>:
20020a28:	b500      	push	{lr}
20020a2a:	b082      	sub	sp, #8
20020a2c:	4b05      	ldr	r3, [pc, #20]	; (20020a44 <call_mskd_ref_var+0x1c>)
20020a2e:	f103 0308 	add.w	r3, r3, #8
20020a32:	cb0c      	ldmia	r3, {r2, r3}
20020a34:	e88d 000c 	stmia.w	sp, {r2, r3}
20020a38:	4668      	mov	r0, sp
20020a3a:	f7ff ffdc 	bl	200209f6 <mskd_ref>
20020a3e:	b002      	add	sp, #8
20020a40:	f85d fb04 	ldr.w	pc, [sp], #4
20020a44:	200217d8 	.word	0x200217d8

20020a48 <call_mskd_ref_global>:
20020a48:	b500      	push	{lr}
20020a4a:	b082      	sub	sp, #8
20020a4c:	4b05      	ldr	r3, [pc, #20]	; (20020a64 <call_mskd_ref_global+0x1c>)
20020a4e:	f103 0308 	add.w	r3, r3, #8
20020a52:	cb0c      	ldmia	r3, {r2, r3}
20020a54:	e88d 000c 	stmia.w	sp, {r2, r3}
20020a58:	4668      	mov	r0, sp
20020a5a:	f7ff ffcc 	bl	200209f6 <mskd_ref>
20020a5e:	b002      	add	sp, #8
20020a60:	f85d fb04 	ldr.w	pc, [sp], #4
20020a64:	200217d8 	.word	0x200217d8

20020a68 <periph_bits>:
20020a68:	6843      	ldr	r3, [r0, #4]
20020a6a:	f043 0340 	orr.w	r3, r3, #64	; 0x40
20020a6e:	6043      	str	r3, [r0, #4]
20020a70:	4770      	bx	lr

20020a72 <call_periph_bits>:
20020a72:	b500      	push	{lr}
20020a74:	4802      	ldr	r0, [pc, #8]	; (20020a80 <call_periph_bits+0xe>)
20020a76:	f7ff fff7 	bl	20020a68 <periph_bits>
20020a7a:	f85d fb04 	ldr.w	pc, [sp], #4
20020a7e:	bf00      	nop
20020a80:	200226c0 	.word	0x200226c0

20020a84 <periph_bits_val>:
20020a84:	6843      	ldr	r3, [r0, #4]
20020a86:	4319      	orrs	r1, r3
20020a88:	6041      	str	r1, [r0, #4]
20020a8a:	4770      	bx	lr

20020a8c <call_periph_bits_val>:
20020a8c:	b500      	push	{lr}
20020a8e:	2140      	movs	r1, #64	; 0x40
20020a90:	4802      	ldr	r0, [pc, #8]	; (20020a9c <call_periph_bits_val+0x10>)
20020a92:	f7ff fff7 	bl	20020a84 <periph_bits_val>
20020a96:	f85d fb04 	ldr.w	pc, [sp], #4
20020a9a:	bf00      	nop
20020a9c:	200226c0 	.word	0x200226c0

20020aa0 <reg_bits_val>:
20020aa0:	6803      	ldr	r3, [r0, #0]
20020aa2:	4319      	orrs	r1, r3
20020aa4:	6001      	str	r1, [r0, #0]
20020aa6:	4770      	bx	lr

20020aa8 <call_reg_bits_val>:
20020aa8:	b500      	push	{lr}
20020aaa:	2140      	movs	r1, #64	; 0x40
20020aac:	4802      	ldr	r0, [pc, #8]	; (20020ab8 <call_reg_bits_val+0x10>)
20020aae:	f7ff fff7 	bl	20020aa0 <reg_bits_val>
20020ab2:	f85d fb04 	ldr.w	pc, [sp], #4
20020ab6:	bf00      	nop
20020ab8:	200226c4 	.word	0x200226c4

20020abc <periph_bits_ref>:
20020abc:	6843      	ldr	r3, [r0, #4]
20020abe:	680a      	ldr	r2, [r1, #0]
20020ac0:	4313      	orrs	r3, r2
20020ac2:	6043      	str	r3, [r0, #4]
20020ac4:	4770      	bx	lr

20020ac6 <call_periph_bits_ref>:
20020ac6:	b500      	push	{lr}
20020ac8:	b081      	sub	sp, #4
20020aca:	2340      	movs	r3, #64	; 0x40
20020acc:	9300      	str	r3, [sp, #0]
20020ace:	4669      	mov	r1, sp
20020ad0:	4802      	ldr	r0, [pc, #8]	; (20020adc <call_periph_bits_ref+0x16>)
20020ad2:	f7ff fff3 	bl	20020abc <periph_bits_ref>
20020ad6:	b001      	add	sp, #4
20020ad8:	f85d fb04 	ldr.w	pc, [sp], #4
20020adc:	200226c0 	.word	0x200226c0

20020ae0 <reg_bits_ref>:
20020ae0:	6803      	ldr	r3, [r0, #0]
20020ae2:	680a      	ldr	r2, [r1, #0]
20020ae4:	4313      	orrs	r3, r2
20020ae6:	6003      	str	r3, [r0, #0]
20020ae8:	4770      	bx	lr

20020aea <call_reg_bits_ref>:
20020aea:	b500      	push	{lr}
20020aec:	b081      	sub	sp, #4
20020aee:	2340      	movs	r3, #64	; 0x40
20020af0:	9300      	str	r3, [sp, #0]
20020af2:	4669      	mov	r1, sp
20020af4:	4802      	ldr	r0, [pc, #8]	; (20020b00 <call_reg_bits_ref+0x16>)
20020af6:	f7ff fff3 	bl	20020ae0 <reg_bits_ref>
20020afa:	b001      	add	sp, #4
20020afc:	f85d fb04 	ldr.w	pc, [sp], #4
20020b00:	200226c4 	.word	0x200226c4

20020b04 <periph_mskd>:
20020b04:	6843      	ldr	r3, [r0, #4]
20020b06:	f023 0306 	bic.w	r3, r3, #6
20020b0a:	f043 0302 	orr.w	r3, r3, #2
20020b0e:	6043      	str	r3, [r0, #4]
20020b10:	4770      	bx	lr

20020b12 <call_periph_mskd>:
20020b12:	b500      	push	{lr}
20020b14:	4802      	ldr	r0, [pc, #8]	; (20020b20 <call_periph_mskd+0xe>)
20020b16:	f7ff fff5 	bl	20020b04 <periph_mskd>
20020b1a:	f85d fb04 	ldr.w	pc, [sp], #4
20020b1e:	bf00      	nop
20020b20:	200226c0 	.word	0x200226c0

20020b24 <periph_mskd_val>:
20020b24:	6843      	ldr	r3, [r0, #4]
20020b26:	ea23 0101 	bic.w	r1, r3, r1
20020b2a:	4311      	orrs	r1, r2
20020b2c:	6041      	str	r1, [r0, #4]
20020b2e:	4770      	bx	lr

20020b30 <call_periph_mskd_val>:
20020b30:	b500      	push	{lr}
20020b32:	2202      	movs	r2, #2
20020b34:	2106      	movs	r1, #6
20020b36:	4802      	ldr	r0, [pc, #8]	; (20020b40 <call_periph_mskd_val+0x10>)
20020b38:	f7ff fff4 	bl	20020b24 <periph_mskd_val>
20020b3c:	f85d fb04 	ldr.w	pc, [sp], #4
20020b40:	200226c0 	.word	0x200226c0

20020b44 <reg_mskd_val>:
20020b44:	6803      	ldr	r3, [r0, #0]
20020b46:	ea23 0101 	bic.w	r1, r3, r1
20020b4a:	4311      	orrs	r1, r2
20020b4c:	6001      	str	r1, [r0, #0]
20020b4e:	4770      	bx	lr

20020b50 <call_reg_mskd_val>:
20020b50:	b500      	push	{lr}
20020b52:	2202      	movs	r2, #2
20020b54:	2106      	movs	r1, #6
20020b56:	4802      	ldr	r0, [pc, #8]	; (20020b60 <call_reg_mskd_val+0x10>)
20020b58:	f7ff fff4 	bl	20020b44 <reg_mskd_val>
20020b5c:	f85d fb04 	ldr.w	pc, [sp], #4
20020b60:	200226c4 	.word	0x200226c4

20020b64 <periph_mskd_ref>:
20020b64:	6843      	ldr	r3, [r0, #4]
20020b66:	680a      	ldr	r2, [r1, #0]
20020b68:	ea23 0302 	bic.w	r3, r3, r2
20020b6c:	684a      	ldr	r2, [r1, #4]
20020b6e:	4313      	orrs	r3, r2
20020b70:	6043      	str	r3, [r0, #4]
20020b72:	4770      	bx	lr

20020b74 <call_periph_mskd_ref>:
20020b74:	b500      	push	{lr}
20020b76:	b082      	sub	sp, #8
20020b78:	4b06      	ldr	r3, [pc, #24]	; (20020b94 <call_periph_mskd_ref+0x20>)
20020b7a:	f103 0308 	add.w	r3, r3, #8
20020b7e:	cb0c      	ldmia	r3, {r2, r3}
20020b80:	e88d 000c 	stmia.w	sp, {r2, r3}
20020b84:	4669      	mov	r1, sp
20020b86:	4804      	ldr	r0, [pc, #16]	; (20020b98 <call_periph_mskd_ref+0x24>)
20020b88:	f7ff ffec 	bl	20020b64 <periph_mskd_ref>
20020b8c:	b002      	add	sp, #8
20020b8e:	f85d fb04 	ldr.w	pc, [sp], #4
20020b92:	bf00      	nop
20020b94:	200217d8 	.word	0x200217d8
20020b98:	200226c0 	.word	0x200226c0

20020b9c <reg_mskd_ref>:
20020b9c:	6803      	ldr	r3, [r0, #0]
20020b9e:	680a      	ldr	r2, [r1, #0]
20020ba0:	ea23 0302 	bic.w	r3, r3, r2
20020ba4:	684a      	ldr	r2, [r1, #4]
20020ba6:	4313      	orrs	r3, r2
20020ba8:	6003      	str	r3, [r0, #0]
20020baa:	4770      	bx	lr

20020bac <call_reg_mskd_ref>:
20020bac:	b500      	push	{lr}
20020bae:	b082      	sub	sp, #8
20020bb0:	4b06      	ldr	r3, [pc, #24]	; (20020bcc <call_reg_mskd_ref+0x20>)
20020bb2:	f103 0308 	add.w	r3, r3, #8
20020bb6:	cb0c      	ldmia	r3, {r2, r3}
20020bb8:	e88d 000c 	stmia.w	sp, {r2, r3}
20020bbc:	4669      	mov	r1, sp
20020bbe:	4804      	ldr	r0, [pc, #16]	; (20020bd0 <call_reg_mskd_ref+0x24>)
20020bc0:	f7ff ffec 	bl	20020b9c <reg_mskd_ref>
20020bc4:	b002      	add	sp, #8
20020bc6:	f85d fb04 	ldr.w	pc, [sp], #4
20020bca:	bf00      	nop
20020bcc:	200217d8 	.word	0x200217d8
20020bd0:	200226c4 	.word	0x200226c4

20020bd4 <return_bits>:
20020bd4:	2020      	movs	r0, #32
20020bd6:	4770      	bx	lr

20020bd8 <call_return_bits>:
20020bd8:	b500      	push	{lr}
20020bda:	f7ff fffb 	bl	20020bd4 <return_bits>
20020bde:	2820      	cmp	r0, #32
20020be0:	4b04      	ldr	r3, [pc, #16]	; (20020bf4 <call_return_bits+0x1c>)
20020be2:	bf0c      	ite	eq
20020be4:	f04f 5228 	moveq.w	r2, #704643072	; 0x2a000000
20020be8:	f04f 5278 	movne.w	r2, #1040187392	; 0x3e000000
20020bec:	601a      	str	r2, [r3, #0]
20020bee:	f85d fb04 	ldr.w	pc, [sp], #4
20020bf2:	bf00      	nop
20020bf4:	20022624 	.word	0x20022624

20020bf8 <return_mskd>:
20020bf8:	2318      	movs	r3, #24
20020bfa:	6003      	str	r3, [r0, #0]
20020bfc:	2308      	movs	r3, #8
20020bfe:	600b      	str	r3, [r1, #0]
20020c00:	4770      	bx	lr

20020c02 <call_return_mskd>:
20020c02:	b500      	push	{lr}
20020c04:	b082      	sub	sp, #8
20020c06:	4669      	mov	r1, sp
20020c08:	a801      	add	r0, sp, #4
20020c0a:	f7ff fff5 	bl	20020bf8 <return_mskd>
20020c0e:	9b01      	ldr	r3, [sp, #4]
20020c10:	2b18      	cmp	r3, #24
20020c12:	d006      	beq.n	20020c22 <call_return_mskd+0x20>
20020c14:	4b07      	ldr	r3, [pc, #28]	; (20020c34 <call_return_mskd+0x32>)
20020c16:	f04f 5218 	mov.w	r2, #637534208	; 0x26000000
20020c1a:	601a      	str	r2, [r3, #0]
20020c1c:	b002      	add	sp, #8
20020c1e:	f85d fb04 	ldr.w	pc, [sp], #4
20020c22:	9b00      	ldr	r3, [sp, #0]
20020c24:	2b08      	cmp	r3, #8
20020c26:	d1f5      	bne.n	20020c14 <call_return_mskd+0x12>
20020c28:	4b02      	ldr	r3, [pc, #8]	; (20020c34 <call_return_mskd+0x32>)
20020c2a:	f04f 5208 	mov.w	r2, #570425344	; 0x22000000
20020c2e:	601a      	str	r2, [r3, #0]
20020c30:	e7f4      	b.n	20020c1c <call_return_mskd+0x1a>
20020c32:	bf00      	nop
20020c34:	20022624 	.word	0x20022624

20020c38 <return_reg>:
20020c38:	4801      	ldr	r0, [pc, #4]	; (20020c40 <return_reg+0x8>)
20020c3a:	2340      	movs	r3, #64	; 0x40
20020c3c:	6003      	str	r3, [r0, #0]
20020c3e:	4770      	bx	lr
20020c40:	200226c4 	.word	0x200226c4

20020c44 <call_return_reg>:
20020c44:	b500      	push	{lr}
20020c46:	f7ff fff7 	bl	20020c38 <return_reg>
20020c4a:	6803      	ldr	r3, [r0, #0]
20020c4c:	2b40      	cmp	r3, #64	; 0x40
20020c4e:	4b04      	ldr	r3, [pc, #16]	; (20020c60 <call_return_reg+0x1c>)
20020c50:	bf0c      	ite	eq
20020c52:	f04f 52f0 	moveq.w	r2, #503316480	; 0x1e000000
20020c56:	f04f 5238 	movne.w	r2, #771751936	; 0x2e000000
20020c5a:	601a      	str	r2, [r3, #0]
20020c5c:	f85d fb04 	ldr.w	pc, [sp], #4
20020c60:	20022624 	.word	0x20022624

20020c64 <return_periph>:
20020c64:	4b02      	ldr	r3, [pc, #8]	; (20020c70 <return_periph+0xc>)
20020c66:	2240      	movs	r2, #64	; 0x40
20020c68:	601a      	str	r2, [r3, #0]
20020c6a:	4802      	ldr	r0, [pc, #8]	; (20020c74 <return_periph+0x10>)
20020c6c:	4770      	bx	lr
20020c6e:	bf00      	nop
20020c70:	200226c4 	.word	0x200226c4
20020c74:	200226c0 	.word	0x200226c0

20020c78 <call_return_periph>:
20020c78:	b500      	push	{lr}
20020c7a:	f7ff fff3 	bl	20020c64 <return_periph>
20020c7e:	6843      	ldr	r3, [r0, #4]
20020c80:	2b40      	cmp	r3, #64	; 0x40
20020c82:	4b04      	ldr	r3, [pc, #16]	; (20020c94 <call_return_periph+0x1c>)
20020c84:	bf0c      	ite	eq
20020c86:	f04f 5218 	moveq.w	r2, #637534208	; 0x26000000
20020c8a:	f04f 5228 	movne.w	r2, #704643072	; 0x2a000000
20020c8e:	601a      	str	r2, [r3, #0]
20020c90:	f85d fb04 	ldr.w	pc, [sp], #4
20020c94:	20022624 	.word	0x20022624

20020c98 <pos_val>:
20020c98:	b2c0      	uxtb	r0, r0
20020c9a:	2805      	cmp	r0, #5
20020c9c:	d006      	beq.n	20020cac <pos_val+0x14>
20020c9e:	2806      	cmp	r0, #6
20020ca0:	4b04      	ldr	r3, [pc, #16]	; (20020cb4 <pos_val+0x1c>)
20020ca2:	bf0c      	ite	eq
20020ca4:	2244      	moveq	r2, #68	; 0x44
20020ca6:	2255      	movne	r2, #85	; 0x55
20020ca8:	601a      	str	r2, [r3, #0]
20020caa:	4770      	bx	lr
20020cac:	4b01      	ldr	r3, [pc, #4]	; (20020cb4 <pos_val+0x1c>)
20020cae:	2233      	movs	r2, #51	; 0x33
20020cb0:	601a      	str	r2, [r3, #0]
20020cb2:	4770      	bx	lr
20020cb4:	2002252c 	.word	0x2002252c

20020cb8 <call_pos_val>:
20020cb8:	b500      	push	{lr}
20020cba:	2005      	movs	r0, #5
20020cbc:	f7ff ffec 	bl	20020c98 <pos_val>
20020cc0:	2006      	movs	r0, #6
20020cc2:	f7ff ffe9 	bl	20020c98 <pos_val>
20020cc6:	f85d fb04 	ldr.w	pc, [sp], #4

20020cca <call_pos_val_global>:
20020cca:	b500      	push	{lr}
20020ccc:	2006      	movs	r0, #6
20020cce:	f7ff ffe3 	bl	20020c98 <pos_val>
20020cd2:	f85d fb04 	ldr.w	pc, [sp], #4

20020cd6 <pos_ref>:
20020cd6:	7803      	ldrb	r3, [r0, #0]
20020cd8:	2b05      	cmp	r3, #5
20020cda:	d006      	beq.n	20020cea <pos_ref+0x14>
20020cdc:	2b06      	cmp	r3, #6
20020cde:	4b05      	ldr	r3, [pc, #20]	; (20020cf4 <pos_ref+0x1e>)
20020ce0:	bf0c      	ite	eq
20020ce2:	2277      	moveq	r2, #119	; 0x77
20020ce4:	2288      	movne	r2, #136	; 0x88
20020ce6:	601a      	str	r2, [r3, #0]
20020ce8:	4770      	bx	lr
20020cea:	4b02      	ldr	r3, [pc, #8]	; (20020cf4 <pos_ref+0x1e>)
20020cec:	2266      	movs	r2, #102	; 0x66
20020cee:	601a      	str	r2, [r3, #0]
20020cf0:	4770      	bx	lr
20020cf2:	bf00      	nop
20020cf4:	2002252c 	.word	0x2002252c

20020cf8 <call_pos_ref>:
20020cf8:	b500      	push	{lr}
20020cfa:	b081      	sub	sp, #4
20020cfc:	2305      	movs	r3, #5
20020cfe:	f88d 3003 	strb.w	r3, [sp, #3]
20020d02:	f10d 0003 	add.w	r0, sp, #3
20020d06:	f7ff ffe6 	bl	20020cd6 <pos_ref>
20020d0a:	f10d 0003 	add.w	r0, sp, #3
20020d0e:	f7ff ffe2 	bl	20020cd6 <pos_ref>
20020d12:	b001      	add	sp, #4
20020d14:	f85d fb04 	ldr.w	pc, [sp], #4

20020d18 <call_pos_ref_global>:
20020d18:	b500      	push	{lr}
20020d1a:	b081      	sub	sp, #4
20020d1c:	2306      	movs	r3, #6
20020d1e:	f88d 3003 	strb.w	r3, [sp, #3]
20020d22:	f10d 0003 	add.w	r0, sp, #3
20020d26:	f7ff ffd6 	bl	20020cd6 <pos_ref>
20020d2a:	b001      	add	sp, #4
20020d2c:	f85d fb04 	ldr.w	pc, [sp], #4

20020d30 <runtime_range_val>:
20020d30:	4a03      	ldr	r2, [pc, #12]	; (20020d40 <runtime_range_val+0x10>)
20020d32:	6813      	ldr	r3, [r2, #0]
20020d34:	ea23 0000 	bic.w	r0, r3, r0
20020d38:	4308      	orrs	r0, r1
20020d3a:	6010      	str	r0, [r2, #0]
20020d3c:	4770      	bx	lr
20020d3e:	bf00      	nop
20020d40:	200226c4 	.word	0x200226c4

20020d44 <call_range_val>:
20020d44:	b500      	push	{lr}
20020d46:	0301      	lsls	r1, r0, #12
20020d48:	f401 31f8 	and.w	r1, r1, #126976	; 0x1f000
20020d4c:	f44f 30f8 	mov.w	r0, #126976	; 0x1f000
20020d50:	f7ff ffee 	bl	20020d30 <runtime_range_val>
20020d54:	f85d fb04 	ldr.w	pc, [sp], #4

20020d58 <call_range_val_port>:
20020d58:	b500      	push	{lr}
20020d5a:	201f      	movs	r0, #31
20020d5c:	f7ff fff2 	bl	20020d44 <call_range_val>
20020d60:	f85d fb04 	ldr.w	pc, [sp], #4

20020d64 <runtime_range_ref>:
20020d64:	4a04      	ldr	r2, [pc, #16]	; (20020d78 <runtime_range_ref+0x14>)
20020d66:	6813      	ldr	r3, [r2, #0]
20020d68:	6801      	ldr	r1, [r0, #0]
20020d6a:	ea23 0301 	bic.w	r3, r3, r1
20020d6e:	6841      	ldr	r1, [r0, #4]
20020d70:	430b      	orrs	r3, r1
20020d72:	6013      	str	r3, [r2, #0]
20020d74:	4770      	bx	lr
20020d76:	bf00      	nop
20020d78:	200226c4 	.word	0x200226c4

20020d7c <call_range_ref>:
20020d7c:	b500      	push	{lr}
20020d7e:	b082      	sub	sp, #8
20020d80:	f44f 33f8 	mov.w	r3, #126976	; 0x1f000
20020d84:	9300      	str	r3, [sp, #0]
20020d86:	0300      	lsls	r0, r0, #12
20020d88:	4018      	ands	r0, r3
20020d8a:	9001      	str	r0, [sp, #4]
20020d8c:	4668      	mov	r0, sp
20020d8e:	f7ff ffe9 	bl	20020d64 <runtime_range_ref>
20020d92:	b002      	add	sp, #8
20020d94:	f85d fb04 	ldr.w	pc, [sp], #4

20020d98 <call_range_ref_port>:
20020d98:	b500      	push	{lr}
20020d9a:	200c      	movs	r0, #12
20020d9c:	f7ff ffee 	bl	20020d7c <call_range_ref>
20020da0:	f85d fb04 	ldr.w	pc, [sp], #4

20020da4 <check_array_range_pass>:
20020da4:	2816      	cmp	r0, #22
20020da6:	4b03      	ldr	r3, [pc, #12]	; (20020db4 <check_array_range_pass+0x10>)
20020da8:	bf94      	ite	ls
20020daa:	227f      	movls	r2, #127	; 0x7f
20020dac:	2283      	movhi	r2, #131	; 0x83
20020dae:	601a      	str	r2, [r3, #0]
20020db0:	4770      	bx	lr
20020db2:	bf00      	nop
20020db4:	2002252c 	.word	0x2002252c

20020db8 <check_array_range_fail>:
20020db8:	2816      	cmp	r0, #22
20020dba:	4b03      	ldr	r3, [pc, #12]	; (20020dc8 <check_array_range_fail+0x10>)
20020dbc:	bf94      	ite	ls
20020dbe:	2295      	movls	r2, #149	; 0x95
20020dc0:	2297      	movhi	r2, #151	; 0x97
20020dc2:	601a      	str	r2, [r3, #0]
20020dc4:	4770      	bx	lr
20020dc6:	bf00      	nop
20020dc8:	2002252c 	.word	0x2002252c

20020dcc <check_bits_range_pass>:
20020dcc:	280f      	cmp	r0, #15
20020dce:	4b03      	ldr	r3, [pc, #12]	; (20020ddc <check_bits_range_pass+0x10>)
20020dd0:	bf94      	ite	ls
20020dd2:	229d      	movls	r2, #157	; 0x9d
20020dd4:	22a3      	movhi	r2, #163	; 0xa3
20020dd6:	601a      	str	r2, [r3, #0]
20020dd8:	4770      	bx	lr
20020dda:	bf00      	nop
20020ddc:	2002252c 	.word	0x2002252c

20020de0 <check_bits_range_fail>:
20020de0:	280f      	cmp	r0, #15
20020de2:	4b03      	ldr	r3, [pc, #12]	; (20020df0 <check_bits_range_fail+0x10>)
20020de4:	bf94      	ite	ls
20020de6:	22a7      	movls	r2, #167	; 0xa7
20020de8:	22ad      	movhi	r2, #173	; 0xad
20020dea:	601a      	str	r2, [r3, #0]
20020dec:	4770      	bx	lr
20020dee:	bf00      	nop
20020df0:	2002252c 	.word	0x2002252c

20020df4 <check_mskd_range_pass>:
20020df4:	281f      	cmp	r0, #31
20020df6:	4b03      	ldr	r3, [pc, #12]	; (20020e04 <check_mskd_range_pass+0x10>)
20020df8:	bf94      	ite	ls
20020dfa:	22b3      	movls	r2, #179	; 0xb3
20020dfc:	22b5      	movhi	r2, #181	; 0xb5
20020dfe:	601a      	str	r2, [r3, #0]
20020e00:	4770      	bx	lr
20020e02:	bf00      	nop
20020e04:	2002252c 	.word	0x2002252c

20020e08 <check_mskd_range_fail>:
20020e08:	281f      	cmp	r0, #31
20020e0a:	4b03      	ldr	r3, [pc, #12]	; (20020e18 <check_mskd_range_fail+0x10>)
20020e0c:	bf94      	ite	ls
20020e0e:	22bf      	movls	r2, #191	; 0xbf
20020e10:	22c1      	movhi	r2, #193	; 0xc1
20020e12:	601a      	str	r2, [r3, #0]
20020e14:	4770      	bx	lr
20020e16:	bf00      	nop
20020e18:	2002252c 	.word	0x2002252c

20020e1c <bits_extract_ne>:
20020e1c:	4b05      	ldr	r3, [pc, #20]	; (20020e34 <bits_extract_ne+0x18>)
20020e1e:	2220      	movs	r2, #32
20020e20:	601a      	str	r2, [r3, #0]
20020e22:	681b      	ldr	r3, [r3, #0]
20020e24:	4293      	cmp	r3, r2
20020e26:	4b03      	ldr	r3, [pc, #12]	; (20020e34 <bits_extract_ne+0x18>)
20020e28:	bf14      	ite	ne
20020e2a:	2202      	movne	r2, #2
20020e2c:	2204      	moveq	r2, #4
20020e2e:	601a      	str	r2, [r3, #0]
20020e30:	4770      	bx	lr
20020e32:	bf00      	nop
20020e34:	200226c4 	.word	0x200226c4

20020e38 <mskd_extract_geq>:
20020e38:	4b06      	ldr	r3, [pc, #24]	; (20020e54 <mskd_extract_geq+0x1c>)
20020e3a:	f04f 52b0 	mov.w	r2, #369098752	; 0x16000000
20020e3e:	601a      	str	r2, [r3, #0]
20020e40:	681b      	ldr	r3, [r3, #0]
20020e42:	f003 5378 	and.w	r3, r3, #1040187392	; 0x3e000000
20020e46:	4293      	cmp	r3, r2
20020e48:	4b03      	ldr	r3, [pc, #12]	; (20020e58 <mskd_extract_geq+0x20>)
20020e4a:	bf2c      	ite	cs
20020e4c:	2220      	movcs	r2, #32
20020e4e:	2240      	movcc	r2, #64	; 0x40
20020e50:	601a      	str	r2, [r3, #0]
20020e52:	4770      	bx	lr
20020e54:	20022624 	.word	0x20022624
20020e58:	200226c4 	.word	0x200226c4

20020e5c <shifted_val>:
20020e5c:	4b04      	ldr	r3, [pc, #16]	; (20020e70 <shifted_val+0x14>)
20020e5e:	f04f 5238 	mov.w	r2, #771751936	; 0x2e000000
20020e62:	601a      	str	r2, [r3, #0]
20020e64:	681b      	ldr	r3, [r3, #0]
20020e66:	4018      	ands	r0, r3
20020e68:	40c8      	lsrs	r0, r1
20020e6a:	4b02      	ldr	r3, [pc, #8]	; (20020e74 <shifted_val+0x18>)
20020e6c:	6018      	str	r0, [r3, #0]
20020e6e:	4770      	bx	lr
20020e70:	20022624 	.word	0x20022624
20020e74:	2002252c 	.word	0x2002252c

20020e78 <call_shifted_const_val>:
20020e78:	b500      	push	{lr}
20020e7a:	2119      	movs	r1, #25
20020e7c:	f04f 5078 	mov.w	r0, #1040187392	; 0x3e000000
20020e80:	f7ff ffec 	bl	20020e5c <shifted_val>
20020e84:	f85d fb04 	ldr.w	pc, [sp], #4

20020e88 <call_shifted_var_val>:
20020e88:	b500      	push	{lr}
20020e8a:	2119      	movs	r1, #25
20020e8c:	f04f 5078 	mov.w	r0, #1040187392	; 0x3e000000
20020e90:	f7ff ffe4 	bl	20020e5c <shifted_val>
20020e94:	f85d fb04 	ldr.w	pc, [sp], #4

20020e98 <call_shifted_global_val>:
20020e98:	b500      	push	{lr}
20020e9a:	2119      	movs	r1, #25
20020e9c:	f04f 5078 	mov.w	r0, #1040187392	; 0x3e000000
20020ea0:	f7ff ffdc 	bl	20020e5c <shifted_val>
20020ea4:	f85d fb04 	ldr.w	pc, [sp], #4

20020ea8 <shifted_ref>:
20020ea8:	4b05      	ldr	r3, [pc, #20]	; (20020ec0 <shifted_ref+0x18>)
20020eaa:	f04f 5238 	mov.w	r2, #771751936	; 0x2e000000
20020eae:	601a      	str	r2, [r3, #0]
20020eb0:	681b      	ldr	r3, [r3, #0]
20020eb2:	6802      	ldr	r2, [r0, #0]
20020eb4:	4013      	ands	r3, r2
20020eb6:	6842      	ldr	r2, [r0, #4]
20020eb8:	40d3      	lsrs	r3, r2
20020eba:	4a02      	ldr	r2, [pc, #8]	; (20020ec4 <shifted_ref+0x1c>)
20020ebc:	6013      	str	r3, [r2, #0]
20020ebe:	4770      	bx	lr
20020ec0:	20022624 	.word	0x20022624
20020ec4:	2002252c 	.word	0x2002252c

20020ec8 <call_shifted_const_ref>:
20020ec8:	b500      	push	{lr}
20020eca:	b082      	sub	sp, #8
20020ecc:	4b05      	ldr	r3, [pc, #20]	; (20020ee4 <call_shifted_const_ref+0x1c>)
20020ece:	f103 0310 	add.w	r3, r3, #16
20020ed2:	cb0c      	ldmia	r3, {r2, r3}
20020ed4:	e88d 000c 	stmia.w	sp, {r2, r3}
20020ed8:	4668      	mov	r0, sp
20020eda:	f7ff ffe5 	bl	20020ea8 <shifted_ref>
20020ede:	b002      	add	sp, #8
20020ee0:	f85d fb04 	ldr.w	pc, [sp], #4
20020ee4:	200217d8 	.word	0x200217d8

20020ee8 <call_shifted_var_ref>:
20020ee8:	b500      	push	{lr}
20020eea:	b082      	sub	sp, #8
20020eec:	4b05      	ldr	r3, [pc, #20]	; (20020f04 <call_shifted_var_ref+0x1c>)
20020eee:	f103 0310 	add.w	r3, r3, #16
20020ef2:	cb0c      	ldmia	r3, {r2, r3}
20020ef4:	e88d 000c 	stmia.w	sp, {r2, r3}
20020ef8:	4668      	mov	r0, sp
20020efa:	f7ff ffd5 	bl	20020ea8 <shifted_ref>
20020efe:	b002      	add	sp, #8
20020f00:	f85d fb04 	ldr.w	pc, [sp], #4
20020f04:	200217d8 	.word	0x200217d8

20020f08 <call_shifted_global_ref>:
20020f08:	b500      	push	{lr}
20020f0a:	b082      	sub	sp, #8
20020f0c:	4b05      	ldr	r3, [pc, #20]	; (20020f24 <call_shifted_global_ref+0x1c>)
20020f0e:	f103 0310 	add.w	r3, r3, #16
20020f12:	cb0c      	ldmia	r3, {r2, r3}
20020f14:	e88d 000c 	stmia.w	sp, {r2, r3}
20020f18:	4668      	mov	r0, sp
20020f1a:	f7ff ffc5 	bl	20020ea8 <shifted_ref>
20020f1e:	b002      	add	sp, #8
20020f20:	f85d fb04 	ldr.w	pc, [sp], #4
20020f24:	200217d8 	.word	0x200217d8

20020f28 <copy_bits_val>:
20020f28:	f010 0f40 	tst.w	r0, #64	; 0x40
20020f2c:	4b02      	ldr	r3, [pc, #8]	; (20020f38 <copy_bits_val+0x10>)
20020f2e:	bf14      	ite	ne
20020f30:	2202      	movne	r2, #2
20020f32:	2204      	moveq	r2, #4
20020f34:	601a      	str	r2, [r3, #0]
20020f36:	4770      	bx	lr
20020f38:	200226c4 	.word	0x200226c4

20020f3c <call_copy_bits_val>:
20020f3c:	b500      	push	{lr}
20020f3e:	4b04      	ldr	r3, [pc, #16]	; (20020f50 <call_copy_bits_val+0x14>)
20020f40:	2240      	movs	r2, #64	; 0x40
20020f42:	601a      	str	r2, [r3, #0]
20020f44:	6818      	ldr	r0, [r3, #0]
20020f46:	f7ff ffef 	bl	20020f28 <copy_bits_val>
20020f4a:	f85d fb04 	ldr.w	pc, [sp], #4
20020f4e:	bf00      	nop
20020f50:	200226c4 	.word	0x200226c4

20020f54 <copy_bits_ref>:
20020f54:	6803      	ldr	r3, [r0, #0]
20020f56:	f013 0f40 	tst.w	r3, #64	; 0x40
20020f5a:	4b03      	ldr	r3, [pc, #12]	; (20020f68 <copy_bits_ref+0x14>)
20020f5c:	bf14      	ite	ne
20020f5e:	2202      	movne	r2, #2
20020f60:	2204      	moveq	r2, #4
20020f62:	601a      	str	r2, [r3, #0]
20020f64:	4770      	bx	lr
20020f66:	bf00      	nop
20020f68:	200226c4 	.word	0x200226c4

20020f6c <call_copy_bits_ref>:
20020f6c:	b500      	push	{lr}
20020f6e:	b081      	sub	sp, #4
20020f70:	4b05      	ldr	r3, [pc, #20]	; (20020f88 <call_copy_bits_ref+0x1c>)
20020f72:	2240      	movs	r2, #64	; 0x40
20020f74:	601a      	str	r2, [r3, #0]
20020f76:	681b      	ldr	r3, [r3, #0]
20020f78:	9300      	str	r3, [sp, #0]
20020f7a:	4668      	mov	r0, sp
20020f7c:	f7ff ffea 	bl	20020f54 <copy_bits_ref>
20020f80:	b001      	add	sp, #4
20020f82:	f85d fb04 	ldr.w	pc, [sp], #4
20020f86:	bf00      	nop
20020f88:	200226c4 	.word	0x200226c4

20020f8c <run>:
20020f8c:	b570      	push	{r4, r5, r6, lr}
20020f8e:	4cd3      	ldr	r4, [pc, #844]	; (200212dc <run+0x350>)
20020f90:	2200      	movs	r2, #0
20020f92:	4621      	mov	r1, r4
20020f94:	48d2      	ldr	r0, [pc, #840]	; (200212e0 <run+0x354>)
20020f96:	f000 fb4c 	bl	20021632 <do_test>
20020f9a:	2201      	movs	r2, #1
20020f9c:	4621      	mov	r1, r4
20020f9e:	48d1      	ldr	r0, [pc, #836]	; (200212e4 <run+0x358>)
20020fa0:	f000 fb47 	bl	20021632 <do_test>
20020fa4:	2202      	movs	r2, #2
20020fa6:	4621      	mov	r1, r4
20020fa8:	48cf      	ldr	r0, [pc, #828]	; (200212e8 <run+0x35c>)
20020faa:	f000 fb42 	bl	20021632 <do_test>
20020fae:	2203      	movs	r2, #3
20020fb0:	4621      	mov	r1, r4
20020fb2:	48ce      	ldr	r0, [pc, #824]	; (200212ec <run+0x360>)
20020fb4:	f000 fb3d 	bl	20021632 <do_test>
20020fb8:	2204      	movs	r2, #4
20020fba:	4621      	mov	r1, r4
20020fbc:	48cc      	ldr	r0, [pc, #816]	; (200212f0 <run+0x364>)
20020fbe:	f000 fb38 	bl	20021632 <do_test>
20020fc2:	2205      	movs	r2, #5
20020fc4:	4621      	mov	r1, r4
20020fc6:	48cb      	ldr	r0, [pc, #812]	; (200212f4 <run+0x368>)
20020fc8:	f000 fb33 	bl	20021632 <do_test>
20020fcc:	2206      	movs	r2, #6
20020fce:	4621      	mov	r1, r4
20020fd0:	48c9      	ldr	r0, [pc, #804]	; (200212f8 <run+0x36c>)
20020fd2:	f000 fb2e 	bl	20021632 <do_test>
20020fd6:	2207      	movs	r2, #7
20020fd8:	4621      	mov	r1, r4
20020fda:	48c8      	ldr	r0, [pc, #800]	; (200212fc <run+0x370>)
20020fdc:	f000 fb29 	bl	20021632 <do_test>
20020fe0:	2208      	movs	r2, #8
20020fe2:	4621      	mov	r1, r4
20020fe4:	48c6      	ldr	r0, [pc, #792]	; (20021300 <run+0x374>)
20020fe6:	f000 fb24 	bl	20021632 <do_test>
20020fea:	2209      	movs	r2, #9
20020fec:	4621      	mov	r1, r4
20020fee:	48c5      	ldr	r0, [pc, #788]	; (20021304 <run+0x378>)
20020ff0:	f000 fb1f 	bl	20021632 <do_test>
20020ff4:	220a      	movs	r2, #10
20020ff6:	4621      	mov	r1, r4
20020ff8:	48c3      	ldr	r0, [pc, #780]	; (20021308 <run+0x37c>)
20020ffa:	f000 fb1a 	bl	20021632 <do_test>
20020ffe:	220b      	movs	r2, #11
20021000:	4621      	mov	r1, r4
20021002:	48c2      	ldr	r0, [pc, #776]	; (2002130c <run+0x380>)
20021004:	f000 fb15 	bl	20021632 <do_test>
20021008:	220c      	movs	r2, #12
2002100a:	4621      	mov	r1, r4
2002100c:	48c0      	ldr	r0, [pc, #768]	; (20021310 <run+0x384>)
2002100e:	f000 fb10 	bl	20021632 <do_test>
20021012:	220d      	movs	r2, #13
20021014:	4621      	mov	r1, r4
20021016:	48bf      	ldr	r0, [pc, #764]	; (20021314 <run+0x388>)
20021018:	f000 fb0b 	bl	20021632 <do_test>
2002101c:	220e      	movs	r2, #14
2002101e:	4621      	mov	r1, r4
20021020:	48bd      	ldr	r0, [pc, #756]	; (20021318 <run+0x38c>)
20021022:	f000 fb06 	bl	20021632 <do_test>
20021026:	220f      	movs	r2, #15
20021028:	4621      	mov	r1, r4
2002102a:	48bc      	ldr	r0, [pc, #752]	; (2002131c <run+0x390>)
2002102c:	f000 fb01 	bl	20021632 <do_test>
20021030:	2210      	movs	r2, #16
20021032:	4621      	mov	r1, r4
20021034:	48ba      	ldr	r0, [pc, #744]	; (20021320 <run+0x394>)
20021036:	f000 fafc 	bl	20021632 <do_test>
2002103a:	2211      	movs	r2, #17
2002103c:	4621      	mov	r1, r4
2002103e:	48b9      	ldr	r0, [pc, #740]	; (20021324 <run+0x398>)
20021040:	f000 faf7 	bl	20021632 <do_test>
20021044:	2212      	movs	r2, #18
20021046:	4621      	mov	r1, r4
20021048:	48b7      	ldr	r0, [pc, #732]	; (20021328 <run+0x39c>)
2002104a:	f000 faf2 	bl	20021632 <do_test>
2002104e:	2213      	movs	r2, #19
20021050:	4621      	mov	r1, r4
20021052:	48b6      	ldr	r0, [pc, #728]	; (2002132c <run+0x3a0>)
20021054:	f000 faed 	bl	20021632 <do_test>
20021058:	2214      	movs	r2, #20
2002105a:	4621      	mov	r1, r4
2002105c:	48b4      	ldr	r0, [pc, #720]	; (20021330 <run+0x3a4>)
2002105e:	f000 fae8 	bl	20021632 <do_test>
20021062:	2215      	movs	r2, #21
20021064:	4621      	mov	r1, r4
20021066:	48b3      	ldr	r0, [pc, #716]	; (20021334 <run+0x3a8>)
20021068:	f000 fae3 	bl	20021632 <do_test>
2002106c:	2216      	movs	r2, #22
2002106e:	4621      	mov	r1, r4
20021070:	48b1      	ldr	r0, [pc, #708]	; (20021338 <run+0x3ac>)
20021072:	f000 fade 	bl	20021632 <do_test>
20021076:	2217      	movs	r2, #23
20021078:	4621      	mov	r1, r4
2002107a:	48b0      	ldr	r0, [pc, #704]	; (2002133c <run+0x3b0>)
2002107c:	f000 fad9 	bl	20021632 <do_test>
20021080:	2218      	movs	r2, #24
20021082:	4621      	mov	r1, r4
20021084:	48ae      	ldr	r0, [pc, #696]	; (20021340 <run+0x3b4>)
20021086:	f000 fad4 	bl	20021632 <do_test>
2002108a:	2219      	movs	r2, #25
2002108c:	4621      	mov	r1, r4
2002108e:	48ad      	ldr	r0, [pc, #692]	; (20021344 <run+0x3b8>)
20021090:	f000 facf 	bl	20021632 <do_test>
20021094:	221a      	movs	r2, #26
20021096:	4621      	mov	r1, r4
20021098:	48ab      	ldr	r0, [pc, #684]	; (20021348 <run+0x3bc>)
2002109a:	f000 faca 	bl	20021632 <do_test>
2002109e:	221b      	movs	r2, #27
200210a0:	4621      	mov	r1, r4
200210a2:	48aa      	ldr	r0, [pc, #680]	; (2002134c <run+0x3c0>)
200210a4:	f000 fac5 	bl	20021632 <do_test>
200210a8:	221c      	movs	r2, #28
200210aa:	4621      	mov	r1, r4
200210ac:	48a8      	ldr	r0, [pc, #672]	; (20021350 <run+0x3c4>)
200210ae:	f000 fac0 	bl	20021632 <do_test>
200210b2:	221d      	movs	r2, #29
200210b4:	4621      	mov	r1, r4
200210b6:	48a7      	ldr	r0, [pc, #668]	; (20021354 <run+0x3c8>)
200210b8:	f000 fabb 	bl	20021632 <do_test>
200210bc:	221e      	movs	r2, #30
200210be:	4621      	mov	r1, r4
200210c0:	48a5      	ldr	r0, [pc, #660]	; (20021358 <run+0x3cc>)
200210c2:	f000 fab6 	bl	20021632 <do_test>
200210c6:	221f      	movs	r2, #31
200210c8:	4621      	mov	r1, r4
200210ca:	48a4      	ldr	r0, [pc, #656]	; (2002135c <run+0x3d0>)
200210cc:	f000 fab1 	bl	20021632 <do_test>
200210d0:	2220      	movs	r2, #32
200210d2:	4621      	mov	r1, r4
200210d4:	48a2      	ldr	r0, [pc, #648]	; (20021360 <run+0x3d4>)
200210d6:	f000 faac 	bl	20021632 <do_test>
200210da:	2221      	movs	r2, #33	; 0x21
200210dc:	4621      	mov	r1, r4
200210de:	48a1      	ldr	r0, [pc, #644]	; (20021364 <run+0x3d8>)
200210e0:	f000 faa7 	bl	20021632 <do_test>
200210e4:	2222      	movs	r2, #34	; 0x22
200210e6:	4621      	mov	r1, r4
200210e8:	489f      	ldr	r0, [pc, #636]	; (20021368 <run+0x3dc>)
200210ea:	f000 faa2 	bl	20021632 <do_test>
200210ee:	2223      	movs	r2, #35	; 0x23
200210f0:	4621      	mov	r1, r4
200210f2:	489e      	ldr	r0, [pc, #632]	; (2002136c <run+0x3e0>)
200210f4:	f000 fa9d 	bl	20021632 <do_test>
200210f8:	2224      	movs	r2, #36	; 0x24
200210fa:	4621      	mov	r1, r4
200210fc:	489c      	ldr	r0, [pc, #624]	; (20021370 <run+0x3e4>)
200210fe:	f000 fa98 	bl	20021632 <do_test>
20021102:	4e9c      	ldr	r6, [pc, #624]	; (20021374 <run+0x3e8>)
20021104:	2225      	movs	r2, #37	; 0x25
20021106:	4631      	mov	r1, r6
20021108:	489b      	ldr	r0, [pc, #620]	; (20021378 <run+0x3ec>)
2002110a:	f000 fa92 	bl	20021632 <do_test>
2002110e:	2226      	movs	r2, #38	; 0x26
20021110:	4631      	mov	r1, r6
20021112:	489a      	ldr	r0, [pc, #616]	; (2002137c <run+0x3f0>)
20021114:	f000 fa8d 	bl	20021632 <do_test>
20021118:	2227      	movs	r2, #39	; 0x27
2002111a:	4631      	mov	r1, r6
2002111c:	4898      	ldr	r0, [pc, #608]	; (20021380 <run+0x3f4>)
2002111e:	f000 fa88 	bl	20021632 <do_test>
20021122:	2228      	movs	r2, #40	; 0x28
20021124:	4621      	mov	r1, r4
20021126:	4897      	ldr	r0, [pc, #604]	; (20021384 <run+0x3f8>)
20021128:	f000 fa83 	bl	20021632 <do_test>
2002112c:	2229      	movs	r2, #41	; 0x29
2002112e:	4621      	mov	r1, r4
20021130:	4895      	ldr	r0, [pc, #596]	; (20021388 <run+0x3fc>)
20021132:	f000 fa7e 	bl	20021632 <do_test>
20021136:	222a      	movs	r2, #42	; 0x2a
20021138:	4621      	mov	r1, r4
2002113a:	4894      	ldr	r0, [pc, #592]	; (2002138c <run+0x400>)
2002113c:	f000 fa79 	bl	20021632 <do_test>
20021140:	222b      	movs	r2, #43	; 0x2b
20021142:	4621      	mov	r1, r4
20021144:	4892      	ldr	r0, [pc, #584]	; (20021390 <run+0x404>)
20021146:	f000 fa74 	bl	20021632 <do_test>
2002114a:	222c      	movs	r2, #44	; 0x2c
2002114c:	4621      	mov	r1, r4
2002114e:	4891      	ldr	r0, [pc, #580]	; (20021394 <run+0x408>)
20021150:	f000 fa6f 	bl	20021632 <do_test>
20021154:	4d90      	ldr	r5, [pc, #576]	; (20021398 <run+0x40c>)
20021156:	222d      	movs	r2, #45	; 0x2d
20021158:	4629      	mov	r1, r5
2002115a:	4890      	ldr	r0, [pc, #576]	; (2002139c <run+0x410>)
2002115c:	f000 fa69 	bl	20021632 <do_test>
20021160:	222e      	movs	r2, #46	; 0x2e
20021162:	4621      	mov	r1, r4
20021164:	488e      	ldr	r0, [pc, #568]	; (200213a0 <run+0x414>)
20021166:	f000 fa64 	bl	20021632 <do_test>
2002116a:	222f      	movs	r2, #47	; 0x2f
2002116c:	4621      	mov	r1, r4
2002116e:	488d      	ldr	r0, [pc, #564]	; (200213a4 <run+0x418>)
20021170:	f000 fa5f 	bl	20021632 <do_test>
20021174:	2230      	movs	r2, #48	; 0x30
20021176:	4621      	mov	r1, r4
20021178:	488b      	ldr	r0, [pc, #556]	; (200213a8 <run+0x41c>)
2002117a:	f000 fa5a 	bl	20021632 <do_test>
2002117e:	2231      	movs	r2, #49	; 0x31
20021180:	4621      	mov	r1, r4
20021182:	488a      	ldr	r0, [pc, #552]	; (200213ac <run+0x420>)
20021184:	f000 fa55 	bl	20021632 <do_test>
20021188:	2232      	movs	r2, #50	; 0x32
2002118a:	4621      	mov	r1, r4
2002118c:	4888      	ldr	r0, [pc, #544]	; (200213b0 <run+0x424>)
2002118e:	f000 fa50 	bl	20021632 <do_test>
20021192:	2233      	movs	r2, #51	; 0x33
20021194:	4621      	mov	r1, r4
20021196:	4887      	ldr	r0, [pc, #540]	; (200213b4 <run+0x428>)
20021198:	f000 fa4b 	bl	20021632 <do_test>
2002119c:	2234      	movs	r2, #52	; 0x34
2002119e:	4621      	mov	r1, r4
200211a0:	4885      	ldr	r0, [pc, #532]	; (200213b8 <run+0x42c>)
200211a2:	f000 fa46 	bl	20021632 <do_test>
200211a6:	2235      	movs	r2, #53	; 0x35
200211a8:	4621      	mov	r1, r4
200211aa:	4884      	ldr	r0, [pc, #528]	; (200213bc <run+0x430>)
200211ac:	f000 fa41 	bl	20021632 <do_test>
200211b0:	2236      	movs	r2, #54	; 0x36
200211b2:	4621      	mov	r1, r4
200211b4:	4882      	ldr	r0, [pc, #520]	; (200213c0 <run+0x434>)
200211b6:	f000 fa3c 	bl	20021632 <do_test>
200211ba:	2237      	movs	r2, #55	; 0x37
200211bc:	4621      	mov	r1, r4
200211be:	4881      	ldr	r0, [pc, #516]	; (200213c4 <run+0x438>)
200211c0:	f000 fa37 	bl	20021632 <do_test>
200211c4:	2238      	movs	r2, #56	; 0x38
200211c6:	4621      	mov	r1, r4
200211c8:	487f      	ldr	r0, [pc, #508]	; (200213c8 <run+0x43c>)
200211ca:	f000 fa32 	bl	20021632 <do_test>
200211ce:	2239      	movs	r2, #57	; 0x39
200211d0:	4621      	mov	r1, r4
200211d2:	487e      	ldr	r0, [pc, #504]	; (200213cc <run+0x440>)
200211d4:	f000 fa2d 	bl	20021632 <do_test>
200211d8:	223a      	movs	r2, #58	; 0x3a
200211da:	4621      	mov	r1, r4
200211dc:	487c      	ldr	r0, [pc, #496]	; (200213d0 <run+0x444>)
200211de:	f000 fa28 	bl	20021632 <do_test>
200211e2:	223b      	movs	r2, #59	; 0x3b
200211e4:	4621      	mov	r1, r4
200211e6:	487b      	ldr	r0, [pc, #492]	; (200213d4 <run+0x448>)
200211e8:	f000 fa23 	bl	20021632 <do_test>
200211ec:	223c      	movs	r2, #60	; 0x3c
200211ee:	4621      	mov	r1, r4
200211f0:	4879      	ldr	r0, [pc, #484]	; (200213d8 <run+0x44c>)
200211f2:	f000 fa1e 	bl	20021632 <do_test>
200211f6:	223d      	movs	r2, #61	; 0x3d
200211f8:	4621      	mov	r1, r4
200211fa:	4878      	ldr	r0, [pc, #480]	; (200213dc <run+0x450>)
200211fc:	f000 fa19 	bl	20021632 <do_test>
20021200:	223e      	movs	r2, #62	; 0x3e
20021202:	4621      	mov	r1, r4
20021204:	4876      	ldr	r0, [pc, #472]	; (200213e0 <run+0x454>)
20021206:	f000 fa14 	bl	20021632 <do_test>
2002120a:	223f      	movs	r2, #63	; 0x3f
2002120c:	4621      	mov	r1, r4
2002120e:	4875      	ldr	r0, [pc, #468]	; (200213e4 <run+0x458>)
20021210:	f000 fa0f 	bl	20021632 <do_test>
20021214:	2240      	movs	r2, #64	; 0x40
20021216:	4621      	mov	r1, r4
20021218:	4873      	ldr	r0, [pc, #460]	; (200213e8 <run+0x45c>)
2002121a:	f000 fa0a 	bl	20021632 <do_test>
2002121e:	2241      	movs	r2, #65	; 0x41
20021220:	4621      	mov	r1, r4
20021222:	4872      	ldr	r0, [pc, #456]	; (200213ec <run+0x460>)
20021224:	f000 fa05 	bl	20021632 <do_test>
20021228:	2242      	movs	r2, #66	; 0x42
2002122a:	4631      	mov	r1, r6
2002122c:	4870      	ldr	r0, [pc, #448]	; (200213f0 <run+0x464>)
2002122e:	f000 fa00 	bl	20021632 <do_test>
20021232:	2243      	movs	r2, #67	; 0x43
20021234:	4631      	mov	r1, r6
20021236:	486f      	ldr	r0, [pc, #444]	; (200213f4 <run+0x468>)
20021238:	f000 f9fb 	bl	20021632 <do_test>
2002123c:	2244      	movs	r2, #68	; 0x44
2002123e:	4631      	mov	r1, r6
20021240:	486d      	ldr	r0, [pc, #436]	; (200213f8 <run+0x46c>)
20021242:	f000 f9f6 	bl	20021632 <do_test>
20021246:	2245      	movs	r2, #69	; 0x45
20021248:	4621      	mov	r1, r4
2002124a:	486c      	ldr	r0, [pc, #432]	; (200213fc <run+0x470>)
2002124c:	f000 f9f1 	bl	20021632 <do_test>
20021250:	2246      	movs	r2, #70	; 0x46
20021252:	4629      	mov	r1, r5
20021254:	486a      	ldr	r0, [pc, #424]	; (20021400 <run+0x474>)
20021256:	f000 f9ec 	bl	20021632 <do_test>
2002125a:	2247      	movs	r2, #71	; 0x47
2002125c:	4629      	mov	r1, r5
2002125e:	4869      	ldr	r0, [pc, #420]	; (20021404 <run+0x478>)
20021260:	f000 f9e7 	bl	20021632 <do_test>
20021264:	2248      	movs	r2, #72	; 0x48
20021266:	4621      	mov	r1, r4
20021268:	4867      	ldr	r0, [pc, #412]	; (20021408 <run+0x47c>)
2002126a:	f000 f9e2 	bl	20021632 <do_test>
2002126e:	2249      	movs	r2, #73	; 0x49
20021270:	4621      	mov	r1, r4
20021272:	4866      	ldr	r0, [pc, #408]	; (2002140c <run+0x480>)
20021274:	f000 f9dd 	bl	20021632 <do_test>
20021278:	224a      	movs	r2, #74	; 0x4a
2002127a:	4629      	mov	r1, r5
2002127c:	4864      	ldr	r0, [pc, #400]	; (20021410 <run+0x484>)
2002127e:	f000 f9d8 	bl	20021632 <do_test>
20021282:	224b      	movs	r2, #75	; 0x4b
20021284:	4629      	mov	r1, r5
20021286:	4863      	ldr	r0, [pc, #396]	; (20021414 <run+0x488>)
20021288:	f000 f9d3 	bl	20021632 <do_test>
2002128c:	224c      	movs	r2, #76	; 0x4c
2002128e:	4621      	mov	r1, r4
20021290:	4861      	ldr	r0, [pc, #388]	; (20021418 <run+0x48c>)
20021292:	f000 f9ce 	bl	20021632 <do_test>
20021296:	224d      	movs	r2, #77	; 0x4d
20021298:	4621      	mov	r1, r4
2002129a:	4860      	ldr	r0, [pc, #384]	; (2002141c <run+0x490>)
2002129c:	f000 f9c9 	bl	20021632 <do_test>
200212a0:	224e      	movs	r2, #78	; 0x4e
200212a2:	4621      	mov	r1, r4
200212a4:	485e      	ldr	r0, [pc, #376]	; (20021420 <run+0x494>)
200212a6:	f000 f9c4 	bl	20021632 <do_test>
200212aa:	224f      	movs	r2, #79	; 0x4f
200212ac:	4621      	mov	r1, r4
200212ae:	485d      	ldr	r0, [pc, #372]	; (20021424 <run+0x498>)
200212b0:	f000 f9bf 	bl	20021632 <do_test>
200212b4:	2250      	movs	r2, #80	; 0x50
200212b6:	4621      	mov	r1, r4
200212b8:	485b      	ldr	r0, [pc, #364]	; (20021428 <run+0x49c>)
200212ba:	f000 f9ba 	bl	20021632 <do_test>
200212be:	2251      	movs	r2, #81	; 0x51
200212c0:	4621      	mov	r1, r4
200212c2:	485a      	ldr	r0, [pc, #360]	; (2002142c <run+0x4a0>)
200212c4:	f000 f9b5 	bl	20021632 <do_test>
200212c8:	4e59      	ldr	r6, [pc, #356]	; (20021430 <run+0x4a4>)
200212ca:	2252      	movs	r2, #82	; 0x52
200212cc:	4621      	mov	r1, r4
200212ce:	4630      	mov	r0, r6
200212d0:	f000 f9af 	bl	20021632 <do_test>
200212d4:	2253      	movs	r2, #83	; 0x53
200212d6:	4621      	mov	r1, r4
200212d8:	4630      	mov	r0, r6
200212da:	e0ab      	b.n	20021434 <run+0x4a8>
200212dc:	200226c4 	.word	0x200226c4
200212e0:	200201f1 	.word	0x200201f1
200212e4:	200201fd 	.word	0x200201fd
200212e8:	20020209 	.word	0x20020209
200212ec:	20020219 	.word	0x20020219
200212f0:	20020229 	.word	0x20020229
200212f4:	20020239 	.word	0x20020239
200212f8:	20020249 	.word	0x20020249
200212fc:	20020259 	.word	0x20020259
20021300:	20020269 	.word	0x20020269
20021304:	20020279 	.word	0x20020279
20021308:	20020289 	.word	0x20020289
2002130c:	20020295 	.word	0x20020295
20021310:	200202a1 	.word	0x200202a1
20021314:	200202ad 	.word	0x200202ad
20021318:	200202b9 	.word	0x200202b9
2002131c:	200202c9 	.word	0x200202c9
20021320:	200202d9 	.word	0x200202d9
20021324:	200202e9 	.word	0x200202e9
20021328:	200202f9 	.word	0x200202f9
2002132c:	2002030d 	.word	0x2002030d
20021330:	20020321 	.word	0x20020321
20021334:	20020331 	.word	0x20020331
20021338:	20020341 	.word	0x20020341
2002133c:	20020359 	.word	0x20020359
20021340:	20020371 	.word	0x20020371
20021344:	2002037d 	.word	0x2002037d
20021348:	20020389 	.word	0x20020389
2002134c:	20020399 	.word	0x20020399
20021350:	200203a9 	.word	0x200203a9
20021354:	200203b5 	.word	0x200203b5
20021358:	200203c1 	.word	0x200203c1
2002135c:	200203cd 	.word	0x200203cd
20021360:	200203d9 	.word	0x200203d9
20021364:	200203e9 	.word	0x200203e9
20021368:	200203fd 	.word	0x200203fd
2002136c:	20020425 	.word	0x20020425
20021370:	20020445 	.word	0x20020445
20021374:	20022624 	.word	0x20022624
20021378:	20020469 	.word	0x20020469
2002137c:	20020485 	.word	0x20020485
20021380:	200204a9 	.word	0x200204a9
20021384:	200204cd 	.word	0x200204cd
20021388:	200204fd 	.word	0x200204fd
2002138c:	20020531 	.word	0x20020531
20021390:	20020555 	.word	0x20020555
20021394:	20020571 	.word	0x20020571
20021398:	2002252c 	.word	0x2002252c
2002139c:	20020585 	.word	0x20020585
200213a0:	2002091d 	.word	0x2002091d
200213a4:	20020929 	.word	0x20020929
200213a8:	20020935 	.word	0x20020935
200213ac:	20020959 	.word	0x20020959
200213b0:	2002096d 	.word	0x2002096d
200213b4:	20020981 	.word	0x20020981
200213b8:	200209bd 	.word	0x200209bd
200213bc:	200209d3 	.word	0x200209d3
200213c0:	20020a0d 	.word	0x20020a0d
200213c4:	20020a29 	.word	0x20020a29
200213c8:	20020a73 	.word	0x20020a73
200213cc:	20020a8d 	.word	0x20020a8d
200213d0:	20020aa9 	.word	0x20020aa9
200213d4:	20020ac7 	.word	0x20020ac7
200213d8:	20020aeb 	.word	0x20020aeb
200213dc:	20020b13 	.word	0x20020b13
200213e0:	20020b31 	.word	0x20020b31
200213e4:	20020b51 	.word	0x20020b51
200213e8:	20020b75 	.word	0x20020b75
200213ec:	20020bad 	.word	0x20020bad
200213f0:	20020bd9 	.word	0x20020bd9
200213f4:	20020c03 	.word	0x20020c03
200213f8:	20020c45 	.word	0x20020c45
200213fc:	20020c79 	.word	0x20020c79
20021400:	20020cb9 	.word	0x20020cb9
20021404:	20020cf9 	.word	0x20020cf9
20021408:	20020d59 	.word	0x20020d59
2002140c:	20020d99 	.word	0x20020d99
20021410:	2002059d 	.word	0x2002059d
20021414:	200205b9 	.word	0x200205b9
20021418:	200205d5 	.word	0x200205d5
2002141c:	200205fd 	.word	0x200205fd
20021420:	20020635 	.word	0x20020635
20021424:	2002065d 	.word	0x2002065d
20021428:	20020695 	.word	0x20020695
2002142c:	200206a1 	.word	0x200206a1
20021430:	200206ad 	.word	0x200206ad
20021434:	f000 f8fd 	bl	20021632 <do_test>
20021438:	2254      	movs	r2, #84	; 0x54
2002143a:	4621      	mov	r1, r4
2002143c:	4854      	ldr	r0, [pc, #336]	; (20021590 <run+0x604>)
2002143e:	f000 f8f8 	bl	20021632 <do_test>
20021442:	2255      	movs	r2, #85	; 0x55
20021444:	4621      	mov	r1, r4
20021446:	4853      	ldr	r0, [pc, #332]	; (20021594 <run+0x608>)
20021448:	f000 f8f3 	bl	20021632 <do_test>
2002144c:	2256      	movs	r2, #86	; 0x56
2002144e:	4621      	mov	r1, r4
20021450:	4851      	ldr	r0, [pc, #324]	; (20021598 <run+0x60c>)
20021452:	f000 f8ee 	bl	20021632 <do_test>
20021456:	4e51      	ldr	r6, [pc, #324]	; (2002159c <run+0x610>)
20021458:	2257      	movs	r2, #87	; 0x57
2002145a:	4621      	mov	r1, r4
2002145c:	4630      	mov	r0, r6
2002145e:	f000 f8e8 	bl	20021632 <do_test>
20021462:	2258      	movs	r2, #88	; 0x58
20021464:	4621      	mov	r1, r4
20021466:	484e      	ldr	r0, [pc, #312]	; (200215a0 <run+0x614>)
20021468:	f000 f8e3 	bl	20021632 <do_test>
2002146c:	2259      	movs	r2, #89	; 0x59
2002146e:	4621      	mov	r1, r4
20021470:	4630      	mov	r0, r6
20021472:	f000 f8de 	bl	20021632 <do_test>
20021476:	225a      	movs	r2, #90	; 0x5a
20021478:	4621      	mov	r1, r4
2002147a:	484a      	ldr	r0, [pc, #296]	; (200215a4 <run+0x618>)
2002147c:	f000 f8d9 	bl	20021632 <do_test>
20021480:	225b      	movs	r2, #91	; 0x5b
20021482:	4621      	mov	r1, r4
20021484:	4848      	ldr	r0, [pc, #288]	; (200215a8 <run+0x61c>)
20021486:	f000 f8d4 	bl	20021632 <do_test>
2002148a:	225c      	movs	r2, #92	; 0x5c
2002148c:	4629      	mov	r1, r5
2002148e:	4847      	ldr	r0, [pc, #284]	; (200215ac <run+0x620>)
20021490:	f000 f8cf 	bl	20021632 <do_test>
20021494:	225d      	movs	r2, #93	; 0x5d
20021496:	4629      	mov	r1, r5
20021498:	4845      	ldr	r0, [pc, #276]	; (200215b0 <run+0x624>)
2002149a:	f000 f8ca 	bl	20021632 <do_test>
2002149e:	225e      	movs	r2, #94	; 0x5e
200214a0:	4621      	mov	r1, r4
200214a2:	4844      	ldr	r0, [pc, #272]	; (200215b4 <run+0x628>)
200214a4:	f000 f8c5 	bl	20021632 <do_test>
200214a8:	225f      	movs	r2, #95	; 0x5f
200214aa:	4629      	mov	r1, r5
200214ac:	4842      	ldr	r0, [pc, #264]	; (200215b8 <run+0x62c>)
200214ae:	f000 f8c0 	bl	20021632 <do_test>
200214b2:	2260      	movs	r2, #96	; 0x60
200214b4:	4629      	mov	r1, r5
200214b6:	4841      	ldr	r0, [pc, #260]	; (200215bc <run+0x630>)
200214b8:	f000 f8bb 	bl	20021632 <do_test>
200214bc:	2261      	movs	r2, #97	; 0x61
200214be:	4621      	mov	r1, r4
200214c0:	483f      	ldr	r0, [pc, #252]	; (200215c0 <run+0x634>)
200214c2:	f000 f8b6 	bl	20021632 <do_test>
200214c6:	2262      	movs	r2, #98	; 0x62
200214c8:	4621      	mov	r1, r4
200214ca:	483e      	ldr	r0, [pc, #248]	; (200215c4 <run+0x638>)
200214cc:	f000 f8b1 	bl	20021632 <do_test>
200214d0:	2263      	movs	r2, #99	; 0x63
200214d2:	4621      	mov	r1, r4
200214d4:	483c      	ldr	r0, [pc, #240]	; (200215c8 <run+0x63c>)
200214d6:	f000 f8ac 	bl	20021632 <do_test>
200214da:	2264      	movs	r2, #100	; 0x64
200214dc:	4621      	mov	r1, r4
200214de:	483b      	ldr	r0, [pc, #236]	; (200215cc <run+0x640>)
200214e0:	f000 f8a7 	bl	20021632 <do_test>
200214e4:	2265      	movs	r2, #101	; 0x65
200214e6:	4629      	mov	r1, r5
200214e8:	4839      	ldr	r0, [pc, #228]	; (200215d0 <run+0x644>)
200214ea:	f000 f8a2 	bl	20021632 <do_test>
200214ee:	2266      	movs	r2, #102	; 0x66
200214f0:	4629      	mov	r1, r5
200214f2:	4838      	ldr	r0, [pc, #224]	; (200215d4 <run+0x648>)
200214f4:	f000 f89d 	bl	20021632 <do_test>
200214f8:	2267      	movs	r2, #103	; 0x67
200214fa:	4629      	mov	r1, r5
200214fc:	4836      	ldr	r0, [pc, #216]	; (200215d8 <run+0x64c>)
200214fe:	f000 f898 	bl	20021632 <do_test>
20021502:	2268      	movs	r2, #104	; 0x68
20021504:	4629      	mov	r1, r5
20021506:	4835      	ldr	r0, [pc, #212]	; (200215dc <run+0x650>)
20021508:	f000 f893 	bl	20021632 <do_test>
2002150c:	2269      	movs	r2, #105	; 0x69
2002150e:	4629      	mov	r1, r5
20021510:	4833      	ldr	r0, [pc, #204]	; (200215e0 <run+0x654>)
20021512:	f000 f88e 	bl	20021632 <do_test>
20021516:	226a      	movs	r2, #106	; 0x6a
20021518:	4629      	mov	r1, r5
2002151a:	4832      	ldr	r0, [pc, #200]	; (200215e4 <run+0x658>)
2002151c:	f000 f889 	bl	20021632 <do_test>
20021520:	226b      	movs	r2, #107	; 0x6b
20021522:	4621      	mov	r1, r4
20021524:	4830      	ldr	r0, [pc, #192]	; (200215e8 <run+0x65c>)
20021526:	f000 f884 	bl	20021632 <do_test>
2002152a:	226c      	movs	r2, #108	; 0x6c
2002152c:	4621      	mov	r1, r4
2002152e:	482f      	ldr	r0, [pc, #188]	; (200215ec <run+0x660>)
20021530:	f000 f87f 	bl	20021632 <do_test>
20021534:	226d      	movs	r2, #109	; 0x6d
20021536:	4621      	mov	r1, r4
20021538:	482d      	ldr	r0, [pc, #180]	; (200215f0 <run+0x664>)
2002153a:	f000 f87a 	bl	20021632 <do_test>
2002153e:	226e      	movs	r2, #110	; 0x6e
20021540:	4621      	mov	r1, r4
20021542:	482c      	ldr	r0, [pc, #176]	; (200215f4 <run+0x668>)
20021544:	f000 f875 	bl	20021632 <do_test>
20021548:	226f      	movs	r2, #111	; 0x6f
2002154a:	4621      	mov	r1, r4
2002154c:	482a      	ldr	r0, [pc, #168]	; (200215f8 <run+0x66c>)
2002154e:	f000 f870 	bl	20021632 <do_test>
20021552:	2270      	movs	r2, #112	; 0x70
20021554:	4621      	mov	r1, r4
20021556:	4829      	ldr	r0, [pc, #164]	; (200215fc <run+0x670>)
20021558:	f000 f86b 	bl	20021632 <do_test>
2002155c:	2271      	movs	r2, #113	; 0x71
2002155e:	4621      	mov	r1, r4
20021560:	4827      	ldr	r0, [pc, #156]	; (20021600 <run+0x674>)
20021562:	f000 f866 	bl	20021632 <do_test>
20021566:	2272      	movs	r2, #114	; 0x72
20021568:	4621      	mov	r1, r4
2002156a:	4826      	ldr	r0, [pc, #152]	; (20021604 <run+0x678>)
2002156c:	f000 f861 	bl	20021632 <do_test>
20021570:	2273      	movs	r2, #115	; 0x73
20021572:	4621      	mov	r1, r4
20021574:	4824      	ldr	r0, [pc, #144]	; (20021608 <run+0x67c>)
20021576:	f000 f85c 	bl	20021632 <do_test>
2002157a:	2274      	movs	r2, #116	; 0x74
2002157c:	4621      	mov	r1, r4
2002157e:	4823      	ldr	r0, [pc, #140]	; (2002160c <run+0x680>)
20021580:	f000 f857 	bl	20021632 <do_test>
20021584:	2275      	movs	r2, #117	; 0x75
20021586:	4621      	mov	r1, r4
20021588:	4821      	ldr	r0, [pc, #132]	; (20021610 <run+0x684>)
2002158a:	f000 f852 	bl	20021632 <do_test>
2002158e:	bd70      	pop	{r4, r5, r6, pc}
20021590:	200206c9 	.word	0x200206c9
20021594:	200206e9 	.word	0x200206e9
20021598:	20020709 	.word	0x20020709
2002159c:	20020731 	.word	0x20020731
200215a0:	20020755 	.word	0x20020755
200215a4:	2002077d 	.word	0x2002077d
200215a8:	2002078d 	.word	0x2002078d
200215ac:	200207a1 	.word	0x200207a1
200215b0:	200207ad 	.word	0x200207ad
200215b4:	200207c9 	.word	0x200207c9
200215b8:	20020ccb 	.word	0x20020ccb
200215bc:	20020d19 	.word	0x20020d19
200215c0:	20020941 	.word	0x20020941
200215c4:	20020995 	.word	0x20020995
200215c8:	200209e9 	.word	0x200209e9
200215cc:	20020a49 	.word	0x20020a49
200215d0:	20020e79 	.word	0x20020e79
200215d4:	20020e89 	.word	0x20020e89
200215d8:	20020e99 	.word	0x20020e99
200215dc:	20020ec9 	.word	0x20020ec9
200215e0:	20020ee9 	.word	0x20020ee9
200215e4:	20020f09 	.word	0x20020f09
200215e8:	200207d5 	.word	0x200207d5
200215ec:	200207f1 	.word	0x200207f1
200215f0:	2002080d 	.word	0x2002080d
200215f4:	20020831 	.word	0x20020831
200215f8:	20020855 	.word	0x20020855
200215fc:	2002087d 	.word	0x2002087d
20021600:	200208a1 	.word	0x200208a1
20021604:	200208c9 	.word	0x200208c9
20021608:	200208ed 	.word	0x200208ed
2002160c:	20020f3d 	.word	0x20020f3d
20021610:	20020f6d 	.word	0x20020f6d

20021614 <memset>:
20021614:	4402      	add	r2, r0
20021616:	4290      	cmp	r0, r2
20021618:	d20a      	bcs.n	20021630 <memset+0x1c>
2002161a:	b410      	push	{r4}
2002161c:	4604      	mov	r4, r0
2002161e:	b2c9      	uxtb	r1, r1
20021620:	4623      	mov	r3, r4
20021622:	f803 1b01 	strb.w	r1, [r3], #1
20021626:	461c      	mov	r4, r3
20021628:	429a      	cmp	r2, r3
2002162a:	d1f9      	bne.n	20021620 <memset+0xc>
2002162c:	bc10      	pop	{r4}
2002162e:	4770      	bx	lr
20021630:	4770      	bx	lr

20021632 <do_test>:
20021632:	e92d 43f0 	stmdb	sp!, {r4, r5, r6, r7, r8, r9, lr}
20021636:	4607      	mov	r7, r0
20021638:	460e      	mov	r6, r1
2002163a:	4614      	mov	r4, r2
2002163c:	4b16      	ldr	r3, [pc, #88]	; (20021698 <do_test+0x66>)
2002163e:	2200      	movs	r2, #0
20021640:	601a      	str	r2, [r3, #0]
20021642:	609a      	str	r2, [r3, #8]
20021644:	2205      	movs	r2, #5
20021646:	601a      	str	r2, [r3, #0]
20021648:	f06f 427f 	mvn.w	r2, #4278190080	; 0xff000000
2002164c:	605a      	str	r2, [r3, #4]
2002164e:	689b      	ldr	r3, [r3, #8]
20021650:	b923      	cbnz	r3, 2002165c <do_test+0x2a>
20021652:	4a11      	ldr	r2, [pc, #68]	; (20021698 <do_test+0x66>)
20021654:	bf00      	nop
20021656:	6893      	ldr	r3, [r2, #8]
20021658:	2b00      	cmp	r3, #0
2002165a:	d0fb      	beq.n	20021654 <do_test+0x22>
2002165c:	f8df 8038 	ldr.w	r8, [pc, #56]	; 20021698 <do_test+0x66>
20021660:	f8d8 5008 	ldr.w	r5, [r8, #8]
20021664:	2300      	movs	r3, #0
20021666:	6033      	str	r3, [r6, #0]
20021668:	47b8      	blx	r7
2002166a:	0064      	lsls	r4, r4, #1
2002166c:	6833      	ldr	r3, [r6, #0]
2002166e:	f8df 9030 	ldr.w	r9, [pc, #48]	; 200216a0 <do_test+0x6e>
20021672:	f849 3024 	str.w	r3, [r9, r4, lsl #2]
20021676:	f04f 33ff 	mov.w	r3, #4294967295	; 0xffffffff
2002167a:	6033      	str	r3, [r6, #0]
2002167c:	47b8      	blx	r7
2002167e:	6833      	ldr	r3, [r6, #0]
20021680:	3401      	adds	r4, #1
20021682:	f849 3024 	str.w	r3, [r9, r4, lsl #2]
20021686:	f8d8 1008 	ldr.w	r1, [r8, #8]
2002168a:	4a04      	ldr	r2, [pc, #16]	; (2002169c <do_test+0x6a>)
2002168c:	6813      	ldr	r3, [r2, #0]
2002168e:	442b      	add	r3, r5
20021690:	1a5b      	subs	r3, r3, r1
20021692:	6013      	str	r3, [r2, #0]
20021694:	e8bd 83f0 	ldmia.w	sp!, {r4, r5, r6, r7, r8, r9, pc}
20021698:	e000e010 	.word	0xe000e010
2002169c:	200217f0 	.word	0x200217f0
200216a0:	200217f4 	.word	0x200217f4

200216a4 <main>:
200216a4:	b500      	push	{lr}
200216a6:	f7ff fc71 	bl	20020f8c <run>
200216aa:	bf00      	nop
200216ac:	e7fd      	b.n	200216aa <main+0x6>
200216ae:	bf00      	nop

200216b0 <NMI_IRQ_Handler>:
200216b0:	e7fe      	b.n	200216b0 <NMI_IRQ_Handler>

200216b2 <HardFault_IRQ_Handler>:
200216b2:	e7fe      	b.n	200216b2 <HardFault_IRQ_Handler>

200216b4 <MemManage_IRQ_Handler>:
200216b4:	e7fe      	b.n	200216b4 <MemManage_IRQ_Handler>

200216b6 <BusFault_IRQ_Handler>:
200216b6:	e7fe      	b.n	200216b6 <BusFault_IRQ_Handler>

200216b8 <UsageFault_IRQ_Handler>:
200216b8:	e7fe      	b.n	200216b8 <UsageFault_IRQ_Handler>

200216ba <Reserved1_IRQ_Handler>:
200216ba:	e7fe      	b.n	200216ba <Reserved1_IRQ_Handler>

200216bc <Reserved2_IRQ_Handler>:
200216bc:	e7fe      	b.n	200216bc <Reserved2_IRQ_Handler>

200216be <Reserved3_IRQ_Handler>:
200216be:	e7fe      	b.n	200216be <Reserved3_IRQ_Handler>

200216c0 <Reserved4_IRQ_Handler>:
200216c0:	e7fe      	b.n	200216c0 <Reserved4_IRQ_Handler>

200216c2 <SVCall_IRQ_Handler>:
200216c2:	e7fe      	b.n	200216c2 <SVCall_IRQ_Handler>

200216c4 <Debug_IRQ_Handler>:
200216c4:	e7fe      	b.n	200216c4 <Debug_IRQ_Handler>

200216c6 <Reserved5_IRQ_Handler>:
200216c6:	e7fe      	b.n	200216c6 <Reserved5_IRQ_Handler>

200216c8 <PendSV_IRQ_Handler>:
200216c8:	e7fe      	b.n	200216c8 <PendSV_IRQ_Handler>

200216ca <SysTick_IRQ_Handler>:
200216ca:	e7fe      	b.n	200216ca <SysTick_IRQ_Handler>

200216cc <WWDG_IRQ_Handler>:
200216cc:	e7fe      	b.n	200216cc <WWDG_IRQ_Handler>

200216ce <PVD_IRQ_Handler>:
200216ce:	e7fe      	b.n	200216ce <PVD_IRQ_Handler>

200216d0 <TAMP_STAMP_IRQ_Handler>:
200216d0:	e7fe      	b.n	200216d0 <TAMP_STAMP_IRQ_Handler>

200216d2 <RTC_WKUP_IRQ_Handler>:
200216d2:	e7fe      	b.n	200216d2 <RTC_WKUP_IRQ_Handler>

200216d4 <FLASH_IRQ_Handler>:
200216d4:	e7fe      	b.n	200216d4 <FLASH_IRQ_Handler>

200216d6 <RCC_IRQ_Handler>:
200216d6:	e7fe      	b.n	200216d6 <RCC_IRQ_Handler>

200216d8 <EXTI0_IRQ_Handler>:
200216d8:	e7fe      	b.n	200216d8 <EXTI0_IRQ_Handler>

200216da <EXTI1_IRQ_Handler>:
200216da:	e7fe      	b.n	200216da <EXTI1_IRQ_Handler>

200216dc <EXTI2_IRQ_Handler>:
200216dc:	e7fe      	b.n	200216dc <EXTI2_IRQ_Handler>

200216de <EXTI3_IRQ_Handler>:
200216de:	e7fe      	b.n	200216de <EXTI3_IRQ_Handler>

200216e0 <EXTI4_IRQ_Handler>:
200216e0:	e7fe      	b.n	200216e0 <EXTI4_IRQ_Handler>

200216e2 <DMA1_Stream0_IRQ_Handler>:
200216e2:	e7fe      	b.n	200216e2 <DMA1_Stream0_IRQ_Handler>

200216e4 <DMA1_Stream1_IRQ_Handler>:
200216e4:	e7fe      	b.n	200216e4 <DMA1_Stream1_IRQ_Handler>

200216e6 <DMA1_Stream2_IRQ_Handler>:
200216e6:	e7fe      	b.n	200216e6 <DMA1_Stream2_IRQ_Handler>

200216e8 <DMA1_Stream3_IRQ_Handler>:
200216e8:	e7fe      	b.n	200216e8 <DMA1_Stream3_IRQ_Handler>

200216ea <DMA1_Stream4_IRQ_Handler>:
200216ea:	e7fe      	b.n	200216ea <DMA1_Stream4_IRQ_Handler>

200216ec <DMA1_Stream5_IRQ_Handler>:
200216ec:	e7fe      	b.n	200216ec <DMA1_Stream5_IRQ_Handler>

200216ee <DMA1_Stream6_IRQ_Handler>:
200216ee:	e7fe      	b.n	200216ee <DMA1_Stream6_IRQ_Handler>

200216f0 <ADC_IRQ_Handler>:
200216f0:	e7fe      	b.n	200216f0 <ADC_IRQ_Handler>

200216f2 <CAN1_TX_IRQ_Handler>:
200216f2:	e7fe      	b.n	200216f2 <CAN1_TX_IRQ_Handler>

200216f4 <CAN1_RX0_IRQ_Handler>:
200216f4:	e7fe      	b.n	200216f4 <CAN1_RX0_IRQ_Handler>

200216f6 <CAN1_RX1_IRQ_Handler>:
200216f6:	e7fe      	b.n	200216f6 <CAN1_RX1_IRQ_Handler>

200216f8 <CAN1_SCE_IRQ_Handler>:
200216f8:	e7fe      	b.n	200216f8 <CAN1_SCE_IRQ_Handler>

200216fa <EXTI9_5_IRQ_Handler>:
200216fa:	e7fe      	b.n	200216fa <EXTI9_5_IRQ_Handler>

200216fc <TIM1_BRK_TIM9_IRQ_Handler>:
200216fc:	e7fe      	b.n	200216fc <TIM1_BRK_TIM9_IRQ_Handler>

200216fe <TIM1_UP_TIM10_IRQ_Handler>:
200216fe:	e7fe      	b.n	200216fe <TIM1_UP_TIM10_IRQ_Handler>

20021700 <TIM1_TRG_COM_TIM11_IRQ_Handler>:
20021700:	e7fe      	b.n	20021700 <TIM1_TRG_COM_TIM11_IRQ_Handler>

20021702 <TIM1_CC_IRQ_Handler>:
20021702:	e7fe      	b.n	20021702 <TIM1_CC_IRQ_Handler>

20021704 <TIM2_IRQ_Handler>:
20021704:	e7fe      	b.n	20021704 <TIM2_IRQ_Handler>

20021706 <TIM3_IRQ_Handler>:
20021706:	e7fe      	b.n	20021706 <TIM3_IRQ_Handler>

20021708 <TIM4_IRQ_Handler>:
20021708:	e7fe      	b.n	20021708 <TIM4_IRQ_Handler>

2002170a <I2C1_EV_IRQ_Handler>:
2002170a:	e7fe      	b.n	2002170a <I2C1_EV_IRQ_Handler>

2002170c <I2C1_ER_IRQ_Handler>:
2002170c:	e7fe      	b.n	2002170c <I2C1_ER_IRQ_Handler>

2002170e <I2C2_EV_IRQ_Handler>:
2002170e:	e7fe      	b.n	2002170e <I2C2_EV_IRQ_Handler>

20021710 <I2C2_ER_IRQ_Handler>:
20021710:	e7fe      	b.n	20021710 <I2C2_ER_IRQ_Handler>

20021712 <SPI1_IRQ_Handler>:
20021712:	e7fe      	b.n	20021712 <SPI1_IRQ_Handler>

20021714 <SPI2_IRQ_Handler>:
20021714:	e7fe      	b.n	20021714 <SPI2_IRQ_Handler>

20021716 <USART1_IRQ_Handler>:
20021716:	e7fe      	b.n	20021716 <USART1_IRQ_Handler>

20021718 <USART2_IRQ_Handler>:
20021718:	e7fe      	b.n	20021718 <USART2_IRQ_Handler>

2002171a <USART3_IRQ_Handler>:
2002171a:	e7fe      	b.n	2002171a <USART3_IRQ_Handler>

2002171c <EXTI15_10_IRQ_Handler>:
2002171c:	e7fe      	b.n	2002171c <EXTI15_10_IRQ_Handler>

2002171e <RTC_Alarm_IRQ_Handler>:
2002171e:	e7fe      	b.n	2002171e <RTC_Alarm_IRQ_Handler>

20021720 <OTG_FS_WKUP_IRQ_Handler>:
20021720:	e7fe      	b.n	20021720 <OTG_FS_WKUP_IRQ_Handler>

20021722 <TIM8_BRK_TIM12_IRQ_Handler>:
20021722:	e7fe      	b.n	20021722 <TIM8_BRK_TIM12_IRQ_Handler>

20021724 <TIM8_UP_TIM13_IRQ_Handler>:
20021724:	e7fe      	b.n	20021724 <TIM8_UP_TIM13_IRQ_Handler>

20021726 <TIM8_TRG_COM_TIM14_IRQ_Handler>:
20021726:	e7fe      	b.n	20021726 <TIM8_TRG_COM_TIM14_IRQ_Handler>

20021728 <TIM8_CC_IRQ_Handler>:
20021728:	e7fe      	b.n	20021728 <TIM8_CC_IRQ_Handler>

2002172a <DMA1_Stream7_IRQ_Handler>:
2002172a:	e7fe      	b.n	2002172a <DMA1_Stream7_IRQ_Handler>

2002172c <FMC_IRQ_Handler>:
2002172c:	e7fe      	b.n	2002172c <FMC_IRQ_Handler>

2002172e <SDMMC1_IRQ_Handler>:
2002172e:	e7fe      	b.n	2002172e <SDMMC1_IRQ_Handler>

20021730 <TIM5_IRQ_Handler>:
20021730:	e7fe      	b.n	20021730 <TIM5_IRQ_Handler>

20021732 <SPI3_IRQ_Handler>:
20021732:	e7fe      	b.n	20021732 <SPI3_IRQ_Handler>

20021734 <UART4_IRQ_Handler>:
20021734:	e7fe      	b.n	20021734 <UART4_IRQ_Handler>

20021736 <UART5_IRQ_Handler>:
20021736:	e7fe      	b.n	20021736 <UART5_IRQ_Handler>

20021738 <TIM6_DAC_IRQ_Handler>:
20021738:	e7fe      	b.n	20021738 <TIM6_DAC_IRQ_Handler>

2002173a <TIM7_IRQ_Handler>:
2002173a:	e7fe      	b.n	2002173a <TIM7_IRQ_Handler>

2002173c <DMA2_Stream0_IRQ_Handler>:
2002173c:	e7fe      	b.n	2002173c <DMA2_Stream0_IRQ_Handler>

2002173e <DMA2_Stream1_IRQ_Handler>:
2002173e:	e7fe      	b.n	2002173e <DMA2_Stream1_IRQ_Handler>

20021740 <DMA2_Stream2_IRQ_Handler>:
20021740:	e7fe      	b.n	20021740 <DMA2_Stream2_IRQ_Handler>

20021742 <DMA2_Stream3_IRQ_Handler>:
20021742:	e7fe      	b.n	20021742 <DMA2_Stream3_IRQ_Handler>

20021744 <DMA2_Stream4_IRQ_Handler>:
20021744:	e7fe      	b.n	20021744 <DMA2_Stream4_IRQ_Handler>

20021746 <ETH_IRQ_Handler>:
20021746:	e7fe      	b.n	20021746 <ETH_IRQ_Handler>

20021748 <ETH_WKUP_IRQ_Handler>:
20021748:	e7fe      	b.n	20021748 <ETH_WKUP_IRQ_Handler>

2002174a <CAN2_TX_IRQ_Handler>:
2002174a:	e7fe      	b.n	2002174a <CAN2_TX_IRQ_Handler>

2002174c <CAN2_RX0_IRQ_Handler>:
2002174c:	e7fe      	b.n	2002174c <CAN2_RX0_IRQ_Handler>

2002174e <CAN2_RX1_IRQ_Handler>:
2002174e:	e7fe      	b.n	2002174e <CAN2_RX1_IRQ_Handler>

20021750 <CAN2_SCE_IRQ_Handler>:
20021750:	e7fe      	b.n	20021750 <CAN2_SCE_IRQ_Handler>

20021752 <OTG_FS_IRQ_Handler>:
20021752:	e7fe      	b.n	20021752 <OTG_FS_IRQ_Handler>

20021754 <DMA2_Stream5_IRQ_Handler>:
20021754:	e7fe      	b.n	20021754 <DMA2_Stream5_IRQ_Handler>

20021756 <DMA2_Stream6_IRQ_Handler>:
20021756:	e7fe      	b.n	20021756 <DMA2_Stream6_IRQ_Handler>

20021758 <DMA2_Stream7_IRQ_Handler>:
20021758:	e7fe      	b.n	20021758 <DMA2_Stream7_IRQ_Handler>

2002175a <USART6_IRQ_Handler>:
2002175a:	e7fe      	b.n	2002175a <USART6_IRQ_Handler>

2002175c <I2C3_EV_IRQ_Handler>:
2002175c:	e7fe      	b.n	2002175c <I2C3_EV_IRQ_Handler>

2002175e <I2C3_ER_IRQ_Handler>:
2002175e:	e7fe      	b.n	2002175e <I2C3_ER_IRQ_Handler>

20021760 <OTG_HS_EP1_OUT_IRQ_Handler>:
20021760:	e7fe      	b.n	20021760 <OTG_HS_EP1_OUT_IRQ_Handler>

20021762 <OTG_HS_EP1_IN_IRQ_Handler>:
20021762:	e7fe      	b.n	20021762 <OTG_HS_EP1_IN_IRQ_Handler>

20021764 <OTG_HS_WKUP_IRQ_Handler>:
20021764:	e7fe      	b.n	20021764 <OTG_HS_WKUP_IRQ_Handler>

20021766 <OTG_HS_IRQ_Handler>:
20021766:	e7fe      	b.n	20021766 <OTG_HS_IRQ_Handler>

20021768 <DCMI_IRQ_Handler>:
20021768:	e7fe      	b.n	20021768 <DCMI_IRQ_Handler>

2002176a <RNG_IRQ_Handler>:
2002176a:	e7fe      	b.n	2002176a <RNG_IRQ_Handler>

2002176c <FPU_IRQ_Handler>:
2002176c:	e7fe      	b.n	2002176c <FPU_IRQ_Handler>

2002176e <UART7_IRQ_Handler>:
2002176e:	e7fe      	b.n	2002176e <UART7_IRQ_Handler>

20021770 <UART8_IRQ_Handler>:
20021770:	e7fe      	b.n	20021770 <UART8_IRQ_Handler>

20021772 <SPI4_IRQ_Handler>:
20021772:	e7fe      	b.n	20021772 <SPI4_IRQ_Handler>

20021774 <SPI5_IRQ_Handler>:
20021774:	e7fe      	b.n	20021774 <SPI5_IRQ_Handler>

20021776 <SPI6_IRQ_Handler>:
20021776:	e7fe      	b.n	20021776 <SPI6_IRQ_Handler>

20021778 <SAI1_IRQ_Handler>:
20021778:	e7fe      	b.n	20021778 <SAI1_IRQ_Handler>

2002177a <LTDC_IRQ_Handler>:
2002177a:	e7fe      	b.n	2002177a <LTDC_IRQ_Handler>

2002177c <LTDC_ER_IRQ_Handler>:
2002177c:	e7fe      	b.n	2002177c <LTDC_ER_IRQ_Handler>

2002177e <DMA2D_IRQ_Handler>:
2002177e:	e7fe      	b.n	2002177e <DMA2D_IRQ_Handler>

20021780 <SAI2_IRQ_Handler>:
20021780:	e7fe      	b.n	20021780 <SAI2_IRQ_Handler>

20021782 <QUADSPI_IRQ_Handler>:
20021782:	e7fe      	b.n	20021782 <QUADSPI_IRQ_Handler>

20021784 <LPTIM1_IRQ_Handler>:
20021784:	e7fe      	b.n	20021784 <LPTIM1_IRQ_Handler>

20021786 <CEC_IRQ_Handler>:
20021786:	e7fe      	b.n	20021786 <CEC_IRQ_Handler>

20021788 <I2C4_EV_IRQ_Handler>:
20021788:	e7fe      	b.n	20021788 <I2C4_EV_IRQ_Handler>

2002178a <I2C4_ER_IRQ_Handler>:
2002178a:	e7fe      	b.n	2002178a <I2C4_ER_IRQ_Handler>

2002178c <SPDIF_RX_IRQ_Handler>:
2002178c:	e7fe      	b.n	2002178c <SPDIF_RX_IRQ_Handler>

2002178e <DFSDM1_FLT0_IRQ_Handler>:
2002178e:	e7fe      	b.n	2002178e <DFSDM1_FLT0_IRQ_Handler>

20021790 <DFSDM1_FLT1_IRQ_Handler>:
20021790:	e7fe      	b.n	20021790 <DFSDM1_FLT1_IRQ_Handler>

20021792 <DFSDM1_FLT2_IRQ_Handler>:
20021792:	e7fe      	b.n	20021792 <DFSDM1_FLT2_IRQ_Handler>

20021794 <DFSDM1_FLT3_IRQ_Handler>:
20021794:	e7fe      	b.n	20021794 <DFSDM1_FLT3_IRQ_Handler>

20021796 <SDMMC2_IRQ_Handler>:
20021796:	e7fe      	b.n	20021796 <SDMMC2_IRQ_Handler>

20021798 <CAN3_TX_IRQ_Handler>:
20021798:	e7fe      	b.n	20021798 <CAN3_TX_IRQ_Handler>

2002179a <CAN3_RX0_IRQ_Handler>:
2002179a:	e7fe      	b.n	2002179a <CAN3_RX0_IRQ_Handler>

2002179c <CAN3_RX1_IRQ_Handler>:
2002179c:	e7fe      	b.n	2002179c <CAN3_RX1_IRQ_Handler>

2002179e <CAN3_SCE_IRQ_Handler>:
2002179e:	e7fe      	b.n	2002179e <CAN3_SCE_IRQ_Handler>

200217a0 <JPEG_IRQ_Handler>:
200217a0:	e7fe      	b.n	200217a0 <JPEG_IRQ_Handler>

200217a2 <MDIOS_IRQ_Handler>:
200217a2:	e7fe      	b.n	200217a2 <MDIOS_IRQ_Handler>

200217a4 <init>:
200217a4:	b500      	push	{lr}
200217a6:	4a08      	ldr	r2, [pc, #32]	; (200217c8 <init+0x24>)
200217a8:	4b08      	ldr	r3, [pc, #32]	; (200217cc <init+0x28>)
200217aa:	429a      	cmp	r2, r3
200217ac:	d004      	beq.n	200217b8 <init+0x14>
200217ae:	2100      	movs	r1, #0
200217b0:	f803 1b01 	strb.w	r1, [r3], #1
200217b4:	4293      	cmp	r3, r2
200217b6:	d1fb      	bne.n	200217b0 <init+0xc>
200217b8:	4a05      	ldr	r2, [pc, #20]	; (200217d0 <init+0x2c>)
200217ba:	4b06      	ldr	r3, [pc, #24]	; (200217d4 <init+0x30>)
200217bc:	609a      	str	r2, [r3, #8]
200217be:	f7ff ff71 	bl	200216a4 <main>
200217c2:	f85d fb04 	ldr.w	pc, [sp], #4
200217c6:	bf00      	nop
200217c8:	20021b94 	.word	0x20021b94
200217cc:	200217f0 	.word	0x200217f0
200217d0:	20020000 	.word	0x20020000
200217d4:	e000ed00 	.word	0xe000ed00

Disassembly of section .rodata:

200217d8 <.rodata>:
200217d8:	00000006 	.word	0x00000006
200217dc:	00000004 	.word	0x00000004
200217e0:	00000006 	.word	0x00000006
200217e4:	00000002 	.word	0x00000002
200217e8:	3e000000 	.word	0x3e000000
200217ec:	00000019 	.word	0x00000019

Disassembly of section .bss:

200217f0 <elapsed_time>:
200217f0:	00000000                                ....

200217f4 <results>:
	...
