
O1/bitfield.o:     file format elf32-littlearm


Disassembly of section .text:

00000000 <zero_reg>:
       0:	4b01      	ldr	r3, [pc, #4]	; (8 <zero_reg+0x8>)
       2:	2200      	movs	r2, #0
       4:	605a      	str	r2, [r3, #4]
       6:	4770      	bx	lr
       8:	10001dc0 	.word	0x10001dc0

0000000c <zero_array>:
       c:	4b01      	ldr	r3, [pc, #4]	; (14 <zero_array+0x8>)
       e:	2200      	movs	r2, #0
      10:	62da      	str	r2, [r3, #44]	; 0x2c
      12:	4770      	bx	lr
      14:	10001c00 	.word	0x10001c00

00000018 <set_singl_bits_operator>:
      18:	4a02      	ldr	r2, [pc, #8]	; (24 <set_singl_bits_operator+0xc>)
      1a:	6853      	ldr	r3, [r2, #4]
      1c:	2140      	movs	r1, #64	; 0x40
      1e:	430b      	orrs	r3, r1
      20:	6053      	str	r3, [r2, #4]
      22:	4770      	bx	lr
      24:	10001dc0 	.word	0x10001dc0

00000028 <set_singl_bits_method>:
      28:	4a02      	ldr	r2, [pc, #8]	; (34 <set_singl_bits_method+0xc>)
      2a:	6853      	ldr	r3, [r2, #4]
      2c:	2140      	movs	r1, #64	; 0x40
      2e:	430b      	orrs	r3, r1
      30:	6053      	str	r3, [r2, #4]
      32:	4770      	bx	lr
      34:	10001dc0 	.word	0x10001dc0

00000038 <clr_singl_bits_operator>:
      38:	4a02      	ldr	r2, [pc, #8]	; (44 <clr_singl_bits_operator+0xc>)
      3a:	6853      	ldr	r3, [r2, #4]
      3c:	2140      	movs	r1, #64	; 0x40
      3e:	438b      	bics	r3, r1
      40:	6053      	str	r3, [r2, #4]
      42:	4770      	bx	lr
      44:	10001dc0 	.word	0x10001dc0

00000048 <clr_singl_bits_method>:
      48:	4a02      	ldr	r2, [pc, #8]	; (54 <clr_singl_bits_method+0xc>)
      4a:	6853      	ldr	r3, [r2, #4]
      4c:	2140      	movs	r1, #64	; 0x40
      4e:	438b      	bics	r3, r1
      50:	6053      	str	r3, [r2, #4]
      52:	4770      	bx	lr
      54:	10001dc0 	.word	0x10001dc0

00000058 <set_singl_mskd_operator>:
      58:	4906      	ldr	r1, [pc, #24]	; (74 <set_singl_mskd_operator+0x1c>)
      5a:	684b      	ldr	r3, [r1, #4]
      5c:	075b      	lsls	r3, r3, #29
      5e:	0f9b      	lsrs	r3, r3, #30
      60:	2201      	movs	r2, #1
      62:	4313      	orrs	r3, r2
      64:	005b      	lsls	r3, r3, #1
      66:	684a      	ldr	r2, [r1, #4]
      68:	2006      	movs	r0, #6
      6a:	4382      	bics	r2, r0
      6c:	4313      	orrs	r3, r2
      6e:	604b      	str	r3, [r1, #4]
      70:	4770      	bx	lr
      72:	46c0      	nop			; (mov r8, r8)
      74:	10001dc0 	.word	0x10001dc0

00000078 <set_singl_mskd_method>:
      78:	4906      	ldr	r1, [pc, #24]	; (94 <set_singl_mskd_method+0x1c>)
      7a:	684b      	ldr	r3, [r1, #4]
      7c:	075b      	lsls	r3, r3, #29
      7e:	0f9b      	lsrs	r3, r3, #30
      80:	2201      	movs	r2, #1
      82:	4313      	orrs	r3, r2
      84:	005b      	lsls	r3, r3, #1
      86:	684a      	ldr	r2, [r1, #4]
      88:	2006      	movs	r0, #6
      8a:	4382      	bics	r2, r0
      8c:	4313      	orrs	r3, r2
      8e:	604b      	str	r3, [r1, #4]
      90:	4770      	bx	lr
      92:	46c0      	nop			; (mov r8, r8)
      94:	10001dc0 	.word	0x10001dc0

00000098 <clr_singl_mskd_operator>:
      98:	4905      	ldr	r1, [pc, #20]	; (b0 <clr_singl_mskd_operator+0x18>)
      9a:	684b      	ldr	r3, [r1, #4]
      9c:	085b      	lsrs	r3, r3, #1
      9e:	2202      	movs	r2, #2
      a0:	4013      	ands	r3, r2
      a2:	005b      	lsls	r3, r3, #1
      a4:	684a      	ldr	r2, [r1, #4]
      a6:	2006      	movs	r0, #6
      a8:	4382      	bics	r2, r0
      aa:	4313      	orrs	r3, r2
      ac:	604b      	str	r3, [r1, #4]
      ae:	4770      	bx	lr
      b0:	10001dc0 	.word	0x10001dc0

000000b4 <clr_singl_mskd_method>:
      b4:	4905      	ldr	r1, [pc, #20]	; (cc <clr_singl_mskd_method+0x18>)
      b6:	684b      	ldr	r3, [r1, #4]
      b8:	085b      	lsrs	r3, r3, #1
      ba:	2202      	movs	r2, #2
      bc:	4013      	ands	r3, r2
      be:	005b      	lsls	r3, r3, #1
      c0:	684a      	ldr	r2, [r1, #4]
      c2:	2006      	movs	r0, #6
      c4:	4382      	bics	r2, r0
      c6:	4313      	orrs	r3, r2
      c8:	604b      	str	r3, [r1, #4]
      ca:	4770      	bx	lr
      cc:	10001dc0 	.word	0x10001dc0

000000d0 <equ_singl_bits_operator>:
      d0:	4b03      	ldr	r3, [pc, #12]	; (e0 <equ_singl_bits_operator+0x10>)
      d2:	2200      	movs	r2, #0
      d4:	605a      	str	r2, [r3, #4]
      d6:	685a      	ldr	r2, [r3, #4]
      d8:	2140      	movs	r1, #64	; 0x40
      da:	430a      	orrs	r2, r1
      dc:	605a      	str	r2, [r3, #4]
      de:	4770      	bx	lr
      e0:	10001dc0 	.word	0x10001dc0

000000e4 <equ_singl_bits_method>:
      e4:	4b03      	ldr	r3, [pc, #12]	; (f4 <equ_singl_bits_method+0x10>)
      e6:	2200      	movs	r2, #0
      e8:	605a      	str	r2, [r3, #4]
      ea:	685a      	ldr	r2, [r3, #4]
      ec:	2140      	movs	r1, #64	; 0x40
      ee:	430a      	orrs	r2, r1
      f0:	605a      	str	r2, [r3, #4]
      f2:	4770      	bx	lr
      f4:	10001dc0 	.word	0x10001dc0

000000f8 <equ_singl_mskd_operator>:
      f8:	4a04      	ldr	r2, [pc, #16]	; (10c <equ_singl_mskd_operator+0x14>)
      fa:	2300      	movs	r3, #0
      fc:	6053      	str	r3, [r2, #4]
      fe:	6853      	ldr	r3, [r2, #4]
     100:	2106      	movs	r1, #6
     102:	438b      	bics	r3, r1
     104:	3904      	subs	r1, #4
     106:	430b      	orrs	r3, r1
     108:	6053      	str	r3, [r2, #4]
     10a:	4770      	bx	lr
     10c:	10001dc0 	.word	0x10001dc0

00000110 <equ_singl_mskd_method>:
     110:	4a04      	ldr	r2, [pc, #16]	; (124 <equ_singl_mskd_method+0x14>)
     112:	2300      	movs	r3, #0
     114:	6053      	str	r3, [r2, #4]
     116:	6853      	ldr	r3, [r2, #4]
     118:	2106      	movs	r1, #6
     11a:	438b      	bics	r3, r1
     11c:	3904      	subs	r1, #4
     11e:	430b      	orrs	r3, r1
     120:	6053      	str	r3, [r2, #4]
     122:	4770      	bx	lr
     124:	10001dc0 	.word	0x10001dc0

00000128 <flp_singl_bits_operator>:
     128:	4906      	ldr	r1, [pc, #24]	; (144 <flp_singl_bits_operator+0x1c>)
     12a:	684b      	ldr	r3, [r1, #4]
     12c:	065b      	lsls	r3, r3, #25
     12e:	0fdb      	lsrs	r3, r3, #31
     130:	2201      	movs	r2, #1
     132:	4053      	eors	r3, r2
     134:	019b      	lsls	r3, r3, #6
     136:	684a      	ldr	r2, [r1, #4]
     138:	2040      	movs	r0, #64	; 0x40
     13a:	4382      	bics	r2, r0
     13c:	4313      	orrs	r3, r2
     13e:	604b      	str	r3, [r1, #4]
     140:	4770      	bx	lr
     142:	46c0      	nop			; (mov r8, r8)
     144:	10001dc0 	.word	0x10001dc0

00000148 <flp_singl_bits_method>:
     148:	4906      	ldr	r1, [pc, #24]	; (164 <flp_singl_bits_method+0x1c>)
     14a:	684b      	ldr	r3, [r1, #4]
     14c:	065b      	lsls	r3, r3, #25
     14e:	0fdb      	lsrs	r3, r3, #31
     150:	2201      	movs	r2, #1
     152:	4053      	eors	r3, r2
     154:	019b      	lsls	r3, r3, #6
     156:	684a      	ldr	r2, [r1, #4]
     158:	2040      	movs	r0, #64	; 0x40
     15a:	4382      	bics	r2, r0
     15c:	4313      	orrs	r3, r2
     15e:	604b      	str	r3, [r1, #4]
     160:	4770      	bx	lr
     162:	46c0      	nop			; (mov r8, r8)
     164:	10001dc0 	.word	0x10001dc0

00000168 <flp_singl_mskd_operator>:
     168:	4906      	ldr	r1, [pc, #24]	; (184 <flp_singl_mskd_operator+0x1c>)
     16a:	684b      	ldr	r3, [r1, #4]
     16c:	075b      	lsls	r3, r3, #29
     16e:	0f9b      	lsrs	r3, r3, #30
     170:	2201      	movs	r2, #1
     172:	4053      	eors	r3, r2
     174:	005b      	lsls	r3, r3, #1
     176:	684a      	ldr	r2, [r1, #4]
     178:	2006      	movs	r0, #6
     17a:	4382      	bics	r2, r0
     17c:	4313      	orrs	r3, r2
     17e:	604b      	str	r3, [r1, #4]
     180:	4770      	bx	lr
     182:	46c0      	nop			; (mov r8, r8)
     184:	10001dc0 	.word	0x10001dc0

00000188 <flp_singl_mskd_method>:
     188:	4906      	ldr	r1, [pc, #24]	; (1a4 <flp_singl_mskd_method+0x1c>)
     18a:	684b      	ldr	r3, [r1, #4]
     18c:	075b      	lsls	r3, r3, #29
     18e:	0f9b      	lsrs	r3, r3, #30
     190:	2201      	movs	r2, #1
     192:	4053      	eors	r3, r2
     194:	005b      	lsls	r3, r3, #1
     196:	684a      	ldr	r2, [r1, #4]
     198:	2006      	movs	r0, #6
     19a:	4382      	bics	r2, r0
     19c:	4313      	orrs	r3, r2
     19e:	604b      	str	r3, [r1, #4]
     1a0:	4770      	bx	lr
     1a2:	46c0      	nop			; (mov r8, r8)
     1a4:	10001dc0 	.word	0x10001dc0

000001a8 <ins_singl_mskd_operator>:
     1a8:	4a03      	ldr	r2, [pc, #12]	; (1b8 <ins_singl_mskd_operator+0x10>)
     1aa:	6853      	ldr	r3, [r2, #4]
     1ac:	2106      	movs	r1, #6
     1ae:	438b      	bics	r3, r1
     1b0:	3902      	subs	r1, #2
     1b2:	430b      	orrs	r3, r1
     1b4:	6053      	str	r3, [r2, #4]
     1b6:	4770      	bx	lr
     1b8:	10001dc0 	.word	0x10001dc0

000001bc <ins_singl_mskd_method>:
     1bc:	4a03      	ldr	r2, [pc, #12]	; (1cc <ins_singl_mskd_method+0x10>)
     1be:	6853      	ldr	r3, [r2, #4]
     1c0:	2106      	movs	r1, #6
     1c2:	438b      	bics	r3, r1
     1c4:	3902      	subs	r1, #2
     1c6:	430b      	orrs	r3, r1
     1c8:	6053      	str	r3, [r2, #4]
     1ca:	4770      	bx	lr
     1cc:	10001dc0 	.word	0x10001dc0

000001d0 <set_multi_bits_operator>:
     1d0:	4b04      	ldr	r3, [pc, #16]	; (1e4 <set_multi_bits_operator+0x14>)
     1d2:	685a      	ldr	r2, [r3, #4]
     1d4:	2101      	movs	r1, #1
     1d6:	430a      	orrs	r2, r1
     1d8:	605a      	str	r2, [r3, #4]
     1da:	685a      	ldr	r2, [r3, #4]
     1dc:	311f      	adds	r1, #31
     1de:	430a      	orrs	r2, r1
     1e0:	605a      	str	r2, [r3, #4]
     1e2:	4770      	bx	lr
     1e4:	10001dc0 	.word	0x10001dc0

000001e8 <set_multi_bits_method>:
     1e8:	4b04      	ldr	r3, [pc, #16]	; (1fc <set_multi_bits_method+0x14>)
     1ea:	685a      	ldr	r2, [r3, #4]
     1ec:	2101      	movs	r1, #1
     1ee:	430a      	orrs	r2, r1
     1f0:	605a      	str	r2, [r3, #4]
     1f2:	685a      	ldr	r2, [r3, #4]
     1f4:	311f      	adds	r1, #31
     1f6:	430a      	orrs	r2, r1
     1f8:	605a      	str	r2, [r3, #4]
     1fa:	4770      	bx	lr
     1fc:	10001dc0 	.word	0x10001dc0

00000200 <ins_multi_mskd_operator>:
     200:	4a07      	ldr	r2, [pc, #28]	; (220 <ins_multi_mskd_operator+0x20>)
     202:	6853      	ldr	r3, [r2, #4]
     204:	4907      	ldr	r1, [pc, #28]	; (224 <ins_multi_mskd_operator+0x24>)
     206:	4019      	ands	r1, r3
     208:	23c0      	movs	r3, #192	; 0xc0
     20a:	005b      	lsls	r3, r3, #1
     20c:	430b      	orrs	r3, r1
     20e:	6053      	str	r3, [r2, #4]
     210:	6853      	ldr	r3, [r2, #4]
     212:	2106      	movs	r1, #6
     214:	438b      	bics	r3, r1
     216:	3904      	subs	r1, #4
     218:	430b      	orrs	r3, r1
     21a:	6053      	str	r3, [r2, #4]
     21c:	4770      	bx	lr
     21e:	46c0      	nop			; (mov r8, r8)
     220:	10001dc0 	.word	0x10001dc0
     224:	fffff07f 	.word	0xfffff07f

00000228 <ins_multi_mskd_method>:
     228:	4a07      	ldr	r2, [pc, #28]	; (248 <ins_multi_mskd_method+0x20>)
     22a:	6853      	ldr	r3, [r2, #4]
     22c:	4907      	ldr	r1, [pc, #28]	; (24c <ins_multi_mskd_method+0x24>)
     22e:	4019      	ands	r1, r3
     230:	23c0      	movs	r3, #192	; 0xc0
     232:	005b      	lsls	r3, r3, #1
     234:	430b      	orrs	r3, r1
     236:	6053      	str	r3, [r2, #4]
     238:	6853      	ldr	r3, [r2, #4]
     23a:	2106      	movs	r1, #6
     23c:	438b      	bics	r3, r1
     23e:	3904      	subs	r1, #4
     240:	430b      	orrs	r3, r1
     242:	6053      	str	r3, [r2, #4]
     244:	4770      	bx	lr
     246:	46c0      	nop			; (mov r8, r8)
     248:	10001dc0 	.word	0x10001dc0
     24c:	fffff07f 	.word	0xfffff07f

00000250 <equ_multi_bits_operator>:
     250:	4b05      	ldr	r3, [pc, #20]	; (268 <equ_multi_bits_operator+0x18>)
     252:	2200      	movs	r2, #0
     254:	605a      	str	r2, [r3, #4]
     256:	685a      	ldr	r2, [r3, #4]
     258:	2120      	movs	r1, #32
     25a:	430a      	orrs	r2, r1
     25c:	605a      	str	r2, [r3, #4]
     25e:	685a      	ldr	r2, [r3, #4]
     260:	3120      	adds	r1, #32
     262:	430a      	orrs	r2, r1
     264:	605a      	str	r2, [r3, #4]
     266:	4770      	bx	lr
     268:	10001dc0 	.word	0x10001dc0

0000026c <equ_multi_bits_method>:
     26c:	4b05      	ldr	r3, [pc, #20]	; (284 <equ_multi_bits_method+0x18>)
     26e:	2200      	movs	r2, #0
     270:	605a      	str	r2, [r3, #4]
     272:	685a      	ldr	r2, [r3, #4]
     274:	2120      	movs	r1, #32
     276:	430a      	orrs	r2, r1
     278:	605a      	str	r2, [r3, #4]
     27a:	685a      	ldr	r2, [r3, #4]
     27c:	3120      	adds	r1, #32
     27e:	430a      	orrs	r2, r1
     280:	605a      	str	r2, [r3, #4]
     282:	4770      	bx	lr
     284:	10001dc0 	.word	0x10001dc0

00000288 <equ_multi_mskd_operator>:
     288:	4b08      	ldr	r3, [pc, #32]	; (2ac <equ_multi_mskd_operator+0x24>)
     28a:	2200      	movs	r2, #0
     28c:	605a      	str	r2, [r3, #4]
     28e:	685a      	ldr	r2, [r3, #4]
     290:	2118      	movs	r1, #24
     292:	438a      	bics	r2, r1
     294:	3910      	subs	r1, #16
     296:	430a      	orrs	r2, r1
     298:	605a      	str	r2, [r3, #4]
     29a:	685a      	ldr	r2, [r3, #4]
     29c:	4904      	ldr	r1, [pc, #16]	; (2b0 <equ_multi_mskd_operator+0x28>)
     29e:	4011      	ands	r1, r2
     2a0:	22c0      	movs	r2, #192	; 0xc0
     2a2:	0092      	lsls	r2, r2, #2
     2a4:	430a      	orrs	r2, r1
     2a6:	605a      	str	r2, [r3, #4]
     2a8:	4770      	bx	lr
     2aa:	46c0      	nop			; (mov r8, r8)
     2ac:	10001dc0 	.word	0x10001dc0
     2b0:	fffff07f 	.word	0xfffff07f

000002b4 <equ_multi_mskd_method>:
     2b4:	4b08      	ldr	r3, [pc, #32]	; (2d8 <equ_multi_mskd_method+0x24>)
     2b6:	2200      	movs	r2, #0
     2b8:	605a      	str	r2, [r3, #4]
     2ba:	685a      	ldr	r2, [r3, #4]
     2bc:	2118      	movs	r1, #24
     2be:	438a      	bics	r2, r1
     2c0:	3910      	subs	r1, #16
     2c2:	430a      	orrs	r2, r1
     2c4:	605a      	str	r2, [r3, #4]
     2c6:	685a      	ldr	r2, [r3, #4]
     2c8:	4904      	ldr	r1, [pc, #16]	; (2dc <equ_multi_mskd_method+0x28>)
     2ca:	4011      	ands	r1, r2
     2cc:	22c0      	movs	r2, #192	; 0xc0
     2ce:	0092      	lsls	r2, r2, #2
     2d0:	430a      	orrs	r2, r1
     2d2:	605a      	str	r2, [r3, #4]
     2d4:	4770      	bx	lr
     2d6:	46c0      	nop			; (mov r8, r8)
     2d8:	10001dc0 	.word	0x10001dc0
     2dc:	fffff07f 	.word	0xfffff07f

000002e0 <equ_bits_mskd_operator>:
     2e0:	4b06      	ldr	r3, [pc, #24]	; (2fc <equ_bits_mskd_operator+0x1c>)
     2e2:	2200      	movs	r2, #0
     2e4:	605a      	str	r2, [r3, #4]
     2e6:	685a      	ldr	r2, [r3, #4]
     2e8:	2120      	movs	r1, #32
     2ea:	430a      	orrs	r2, r1
     2ec:	605a      	str	r2, [r3, #4]
     2ee:	685a      	ldr	r2, [r3, #4]
     2f0:	391a      	subs	r1, #26
     2f2:	438a      	bics	r2, r1
     2f4:	3904      	subs	r1, #4
     2f6:	430a      	orrs	r2, r1
     2f8:	605a      	str	r2, [r3, #4]
     2fa:	4770      	bx	lr
     2fc:	10001dc0 	.word	0x10001dc0

00000300 <equ_bits_mskd_method>:
     300:	4b06      	ldr	r3, [pc, #24]	; (31c <equ_bits_mskd_method+0x1c>)
     302:	2200      	movs	r2, #0
     304:	605a      	str	r2, [r3, #4]
     306:	685a      	ldr	r2, [r3, #4]
     308:	2120      	movs	r1, #32
     30a:	430a      	orrs	r2, r1
     30c:	605a      	str	r2, [r3, #4]
     30e:	685a      	ldr	r2, [r3, #4]
     310:	391a      	subs	r1, #26
     312:	438a      	bics	r2, r1
     314:	3904      	subs	r1, #4
     316:	430a      	orrs	r2, r1
     318:	605a      	str	r2, [r3, #4]
     31a:	4770      	bx	lr
     31c:	10001dc0 	.word	0x10001dc0

00000320 <equ_mskd_bits_operator>:
     320:	4b06      	ldr	r3, [pc, #24]	; (33c <equ_mskd_bits_operator+0x1c>)
     322:	2200      	movs	r2, #0
     324:	605a      	str	r2, [r3, #4]
     326:	685a      	ldr	r2, [r3, #4]
     328:	2106      	movs	r1, #6
     32a:	438a      	bics	r2, r1
     32c:	3902      	subs	r1, #2
     32e:	430a      	orrs	r2, r1
     330:	605a      	str	r2, [r3, #4]
     332:	685a      	ldr	r2, [r3, #4]
     334:	313c      	adds	r1, #60	; 0x3c
     336:	430a      	orrs	r2, r1
     338:	605a      	str	r2, [r3, #4]
     33a:	4770      	bx	lr
     33c:	10001dc0 	.word	0x10001dc0

00000340 <equ_mskd_bits_method>:
     340:	4b06      	ldr	r3, [pc, #24]	; (35c <equ_mskd_bits_method+0x1c>)
     342:	2200      	movs	r2, #0
     344:	605a      	str	r2, [r3, #4]
     346:	685a      	ldr	r2, [r3, #4]
     348:	2106      	movs	r1, #6
     34a:	438a      	bics	r2, r1
     34c:	3902      	subs	r1, #2
     34e:	430a      	orrs	r2, r1
     350:	605a      	str	r2, [r3, #4]
     352:	685a      	ldr	r2, [r3, #4]
     354:	313c      	adds	r1, #60	; 0x3c
     356:	430a      	orrs	r2, r1
     358:	605a      	str	r2, [r3, #4]
     35a:	4770      	bx	lr
     35c:	10001dc0 	.word	0x10001dc0

00000360 <equ_bits_var>:
     360:	4b06      	ldr	r3, [pc, #24]	; (37c <equ_bits_var+0x1c>)
     362:	2100      	movs	r1, #0
     364:	6059      	str	r1, [r3, #4]
     366:	685a      	ldr	r2, [r3, #4]
     368:	2040      	movs	r0, #64	; 0x40
     36a:	4302      	orrs	r2, r0
     36c:	605a      	str	r2, [r3, #4]
     36e:	6059      	str	r1, [r3, #4]
     370:	685a      	ldr	r2, [r3, #4]
     372:	3101      	adds	r1, #1
     374:	430a      	orrs	r2, r1
     376:	605a      	str	r2, [r3, #4]
     378:	4770      	bx	lr
     37a:	46c0      	nop			; (mov r8, r8)
     37c:	10001dc0 	.word	0x10001dc0

00000380 <equ_mskd_var>:
     380:	4b08      	ldr	r3, [pc, #32]	; (3a4 <equ_mskd_var+0x24>)
     382:	2100      	movs	r1, #0
     384:	6059      	str	r1, [r3, #4]
     386:	685a      	ldr	r2, [r3, #4]
     388:	2006      	movs	r0, #6
     38a:	4382      	bics	r2, r0
     38c:	3804      	subs	r0, #4
     38e:	4302      	orrs	r2, r0
     390:	605a      	str	r2, [r3, #4]
     392:	6059      	str	r1, [r3, #4]
     394:	685a      	ldr	r2, [r3, #4]
     396:	4904      	ldr	r1, [pc, #16]	; (3a8 <equ_mskd_var+0x28>)
     398:	4011      	ands	r1, r2
     39a:	22c0      	movs	r2, #192	; 0xc0
     39c:	0052      	lsls	r2, r2, #1
     39e:	430a      	orrs	r2, r1
     3a0:	605a      	str	r2, [r3, #4]
     3a2:	4770      	bx	lr
     3a4:	10001dc0 	.word	0x10001dc0
     3a8:	fffff07f 	.word	0xfffff07f

000003ac <cmp_equ_zero>:
     3ac:	4b0c      	ldr	r3, [pc, #48]	; (3e0 <cmp_equ_zero+0x34>)
     3ae:	2200      	movs	r2, #0
     3b0:	605a      	str	r2, [r3, #4]
     3b2:	490c      	ldr	r1, [pc, #48]	; (3e4 <cmp_equ_zero+0x38>)
     3b4:	604a      	str	r2, [r1, #4]
     3b6:	685b      	ldr	r3, [r3, #4]
     3b8:	2b00      	cmp	r3, #0
     3ba:	d107      	bne.n	3cc <cmp_equ_zero+0x20>
     3bc:	684b      	ldr	r3, [r1, #4]
     3be:	4a0a      	ldr	r2, [pc, #40]	; (3e8 <cmp_equ_zero+0x3c>)
     3c0:	401a      	ands	r2, r3
     3c2:	23e8      	movs	r3, #232	; 0xe8
     3c4:	059b      	lsls	r3, r3, #22
     3c6:	4313      	orrs	r3, r2
     3c8:	604b      	str	r3, [r1, #4]
     3ca:	4770      	bx	lr
     3cc:	4905      	ldr	r1, [pc, #20]	; (3e4 <cmp_equ_zero+0x38>)
     3ce:	684b      	ldr	r3, [r1, #4]
     3d0:	4a05      	ldr	r2, [pc, #20]	; (3e8 <cmp_equ_zero+0x3c>)
     3d2:	401a      	ands	r2, r3
     3d4:	2388      	movs	r3, #136	; 0x88
     3d6:	059b      	lsls	r3, r3, #22
     3d8:	4313      	orrs	r3, r2
     3da:	604b      	str	r3, [r1, #4]
     3dc:	e7f5      	b.n	3ca <cmp_equ_zero+0x1e>
     3de:	46c0      	nop			; (mov r8, r8)
     3e0:	10001dc0 	.word	0x10001dc0
     3e4:	10001d20 	.word	0x10001d20
     3e8:	c1ffffff 	.word	0xc1ffffff

000003ec <cmp_neq_zero>:
     3ec:	4b09      	ldr	r3, [pc, #36]	; (414 <cmp_neq_zero+0x28>)
     3ee:	2200      	movs	r2, #0
     3f0:	605a      	str	r2, [r3, #4]
     3f2:	685b      	ldr	r3, [r3, #4]
     3f4:	2b00      	cmp	r3, #0
     3f6:	d007      	beq.n	408 <cmp_neq_zero+0x1c>
     3f8:	4a06      	ldr	r2, [pc, #24]	; (414 <cmp_neq_zero+0x28>)
     3fa:	6853      	ldr	r3, [r2, #4]
     3fc:	2106      	movs	r1, #6
     3fe:	438b      	bics	r3, r1
     400:	3902      	subs	r1, #2
     402:	430b      	orrs	r3, r1
     404:	6053      	str	r3, [r2, #4]
     406:	4770      	bx	lr
     408:	4a02      	ldr	r2, [pc, #8]	; (414 <cmp_neq_zero+0x28>)
     40a:	6853      	ldr	r3, [r2, #4]
     40c:	2120      	movs	r1, #32
     40e:	430b      	orrs	r3, r1
     410:	6053      	str	r3, [r2, #4]
     412:	e7f8      	b.n	406 <cmp_neq_zero+0x1a>
     414:	10001dc0 	.word	0x10001dc0

00000418 <cmp_equ_bits>:
     418:	4b0d      	ldr	r3, [pc, #52]	; (450 <cmp_equ_bits+0x38>)
     41a:	2200      	movs	r2, #0
     41c:	605a      	str	r2, [r3, #4]
     41e:	685a      	ldr	r2, [r3, #4]
     420:	2140      	movs	r1, #64	; 0x40
     422:	430a      	orrs	r2, r1
     424:	605a      	str	r2, [r3, #4]
     426:	685b      	ldr	r3, [r3, #4]
     428:	065b      	lsls	r3, r3, #25
     42a:	d508      	bpl.n	43e <cmp_equ_bits+0x26>
     42c:	4909      	ldr	r1, [pc, #36]	; (454 <cmp_equ_bits+0x3c>)
     42e:	684b      	ldr	r3, [r1, #4]
     430:	4a09      	ldr	r2, [pc, #36]	; (458 <cmp_equ_bits+0x40>)
     432:	401a      	ands	r2, r3
     434:	23b0      	movs	r3, #176	; 0xb0
     436:	055b      	lsls	r3, r3, #21
     438:	4313      	orrs	r3, r2
     43a:	604b      	str	r3, [r1, #4]
     43c:	4770      	bx	lr
     43e:	4905      	ldr	r1, [pc, #20]	; (454 <cmp_equ_bits+0x3c>)
     440:	684b      	ldr	r3, [r1, #4]
     442:	4a05      	ldr	r2, [pc, #20]	; (458 <cmp_equ_bits+0x40>)
     444:	401a      	ands	r2, r3
     446:	23d0      	movs	r3, #208	; 0xd0
     448:	055b      	lsls	r3, r3, #21
     44a:	4313      	orrs	r3, r2
     44c:	604b      	str	r3, [r1, #4]
     44e:	e7f5      	b.n	43c <cmp_equ_bits+0x24>
     450:	10001dc0 	.word	0x10001dc0
     454:	10001d20 	.word	0x10001d20
     458:	c1ffffff 	.word	0xc1ffffff

0000045c <cmp_neq_bits>:
     45c:	4b0d      	ldr	r3, [pc, #52]	; (494 <cmp_neq_bits+0x38>)
     45e:	2200      	movs	r2, #0
     460:	605a      	str	r2, [r3, #4]
     462:	685a      	ldr	r2, [r3, #4]
     464:	2140      	movs	r1, #64	; 0x40
     466:	430a      	orrs	r2, r1
     468:	605a      	str	r2, [r3, #4]
     46a:	685b      	ldr	r3, [r3, #4]
     46c:	065b      	lsls	r3, r3, #25
     46e:	d409      	bmi.n	484 <cmp_neq_bits+0x28>
     470:	4a08      	ldr	r2, [pc, #32]	; (494 <cmp_neq_bits+0x38>)
     472:	2300      	movs	r3, #0
     474:	6053      	str	r3, [r2, #4]
     476:	6853      	ldr	r3, [r2, #4]
     478:	393a      	subs	r1, #58	; 0x3a
     47a:	438b      	bics	r3, r1
     47c:	3904      	subs	r1, #4
     47e:	430b      	orrs	r3, r1
     480:	6053      	str	r3, [r2, #4]
     482:	4770      	bx	lr
     484:	4b03      	ldr	r3, [pc, #12]	; (494 <cmp_neq_bits+0x38>)
     486:	2200      	movs	r2, #0
     488:	605a      	str	r2, [r3, #4]
     48a:	685a      	ldr	r2, [r3, #4]
     48c:	2120      	movs	r1, #32
     48e:	430a      	orrs	r2, r1
     490:	605a      	str	r2, [r3, #4]
     492:	e7f6      	b.n	482 <cmp_neq_bits+0x26>
     494:	10001dc0 	.word	0x10001dc0

00000498 <cmp_equ_multi_bits>:
     498:	4b13      	ldr	r3, [pc, #76]	; (4e8 <cmp_equ_multi_bits+0x50>)
     49a:	2200      	movs	r2, #0
     49c:	605a      	str	r2, [r3, #4]
     49e:	685a      	ldr	r2, [r3, #4]
     4a0:	2120      	movs	r1, #32
     4a2:	430a      	orrs	r2, r1
     4a4:	605a      	str	r2, [r3, #4]
     4a6:	685a      	ldr	r2, [r3, #4]
     4a8:	3120      	adds	r1, #32
     4aa:	430a      	orrs	r2, r1
     4ac:	605a      	str	r2, [r3, #4]
     4ae:	685b      	ldr	r3, [r3, #4]
     4b0:	069b      	lsls	r3, r3, #26
     4b2:	d50e      	bpl.n	4d2 <cmp_equ_multi_bits+0x3a>
     4b4:	4b0c      	ldr	r3, [pc, #48]	; (4e8 <cmp_equ_multi_bits+0x50>)
     4b6:	685b      	ldr	r3, [r3, #4]
     4b8:	065b      	lsls	r3, r3, #25
     4ba:	d50a      	bpl.n	4d2 <cmp_equ_multi_bits+0x3a>
     4bc:	4b0b      	ldr	r3, [pc, #44]	; (4ec <cmp_equ_multi_bits+0x54>)
     4be:	2200      	movs	r2, #0
     4c0:	605a      	str	r2, [r3, #4]
     4c2:	685a      	ldr	r2, [r3, #4]
     4c4:	490a      	ldr	r1, [pc, #40]	; (4f0 <cmp_equ_multi_bits+0x58>)
     4c6:	4011      	ands	r1, r2
     4c8:	2288      	movs	r2, #136	; 0x88
     4ca:	0592      	lsls	r2, r2, #22
     4cc:	430a      	orrs	r2, r1
     4ce:	605a      	str	r2, [r3, #4]
     4d0:	e009      	b.n	4e6 <cmp_equ_multi_bits+0x4e>
     4d2:	4b06      	ldr	r3, [pc, #24]	; (4ec <cmp_equ_multi_bits+0x54>)
     4d4:	2200      	movs	r2, #0
     4d6:	605a      	str	r2, [r3, #4]
     4d8:	685a      	ldr	r2, [r3, #4]
     4da:	4905      	ldr	r1, [pc, #20]	; (4f0 <cmp_equ_multi_bits+0x58>)
     4dc:	4011      	ands	r1, r2
     4de:	22b8      	movs	r2, #184	; 0xb8
     4e0:	0592      	lsls	r2, r2, #22
     4e2:	430a      	orrs	r2, r1
     4e4:	605a      	str	r2, [r3, #4]
     4e6:	4770      	bx	lr
     4e8:	10001dc0 	.word	0x10001dc0
     4ec:	10001d20 	.word	0x10001d20
     4f0:	c1ffffff 	.word	0xc1ffffff

000004f4 <cmp_neq_multi_bits>:
     4f4:	4b12      	ldr	r3, [pc, #72]	; (540 <cmp_neq_multi_bits+0x4c>)
     4f6:	2200      	movs	r2, #0
     4f8:	605a      	str	r2, [r3, #4]
     4fa:	685a      	ldr	r2, [r3, #4]
     4fc:	2120      	movs	r1, #32
     4fe:	430a      	orrs	r2, r1
     500:	605a      	str	r2, [r3, #4]
     502:	685a      	ldr	r2, [r3, #4]
     504:	3120      	adds	r1, #32
     506:	430a      	orrs	r2, r1
     508:	605a      	str	r2, [r3, #4]
     50a:	685b      	ldr	r3, [r3, #4]
     50c:	069b      	lsls	r3, r3, #26
     50e:	d40e      	bmi.n	52e <cmp_neq_multi_bits+0x3a>
     510:	4b0b      	ldr	r3, [pc, #44]	; (540 <cmp_neq_multi_bits+0x4c>)
     512:	685b      	ldr	r3, [r3, #4]
     514:	065b      	lsls	r3, r3, #25
     516:	d40a      	bmi.n	52e <cmp_neq_multi_bits+0x3a>
     518:	4b0a      	ldr	r3, [pc, #40]	; (544 <cmp_neq_multi_bits+0x50>)
     51a:	2200      	movs	r2, #0
     51c:	605a      	str	r2, [r3, #4]
     51e:	685a      	ldr	r2, [r3, #4]
     520:	4909      	ldr	r1, [pc, #36]	; (548 <cmp_neq_multi_bits+0x54>)
     522:	4011      	ands	r1, r2
     524:	22e8      	movs	r2, #232	; 0xe8
     526:	0592      	lsls	r2, r2, #22
     528:	430a      	orrs	r2, r1
     52a:	605a      	str	r2, [r3, #4]
     52c:	e007      	b.n	53e <cmp_neq_multi_bits+0x4a>
     52e:	4b05      	ldr	r3, [pc, #20]	; (544 <cmp_neq_multi_bits+0x50>)
     530:	2200      	movs	r2, #0
     532:	605a      	str	r2, [r3, #4]
     534:	6859      	ldr	r1, [r3, #4]
     536:	22f8      	movs	r2, #248	; 0xf8
     538:	0592      	lsls	r2, r2, #22
     53a:	430a      	orrs	r2, r1
     53c:	605a      	str	r2, [r3, #4]
     53e:	4770      	bx	lr
     540:	10001dc0 	.word	0x10001dc0
     544:	10001d20 	.word	0x10001d20
     548:	c1ffffff 	.word	0xc1ffffff

0000054c <cmp_equ_mskd>:
     54c:	4b10      	ldr	r3, [pc, #64]	; (590 <cmp_equ_mskd+0x44>)
     54e:	2200      	movs	r2, #0
     550:	605a      	str	r2, [r3, #4]
     552:	685a      	ldr	r2, [r3, #4]
     554:	490f      	ldr	r1, [pc, #60]	; (594 <cmp_equ_mskd+0x48>)
     556:	4011      	ands	r1, r2
     558:	22e8      	movs	r2, #232	; 0xe8
     55a:	0252      	lsls	r2, r2, #9
     55c:	430a      	orrs	r2, r1
     55e:	605a      	str	r2, [r3, #4]
     560:	685b      	ldr	r3, [r3, #4]
     562:	03db      	lsls	r3, r3, #15
     564:	0edb      	lsrs	r3, r3, #27
     566:	2b11      	cmp	r3, #17
     568:	d008      	beq.n	57c <cmp_equ_mskd+0x30>
     56a:	490b      	ldr	r1, [pc, #44]	; (598 <cmp_equ_mskd+0x4c>)
     56c:	684b      	ldr	r3, [r1, #4]
     56e:	4a0b      	ldr	r2, [pc, #44]	; (59c <cmp_equ_mskd+0x50>)
     570:	401a      	ands	r2, r3
     572:	2388      	movs	r3, #136	; 0x88
     574:	059b      	lsls	r3, r3, #22
     576:	4313      	orrs	r3, r2
     578:	604b      	str	r3, [r1, #4]
     57a:	4770      	bx	lr
     57c:	4906      	ldr	r1, [pc, #24]	; (598 <cmp_equ_mskd+0x4c>)
     57e:	684b      	ldr	r3, [r1, #4]
     580:	4a06      	ldr	r2, [pc, #24]	; (59c <cmp_equ_mskd+0x50>)
     582:	401a      	ands	r2, r3
     584:	23e0      	movs	r3, #224	; 0xe0
     586:	051b      	lsls	r3, r3, #20
     588:	4313      	orrs	r3, r2
     58a:	604b      	str	r3, [r1, #4]
     58c:	e7f5      	b.n	57a <cmp_equ_mskd+0x2e>
     58e:	46c0      	nop			; (mov r8, r8)
     590:	10001dc0 	.word	0x10001dc0
     594:	fffe0fff 	.word	0xfffe0fff
     598:	10001d20 	.word	0x10001d20
     59c:	c1ffffff 	.word	0xc1ffffff

000005a0 <cmp_neq_mskd>:
     5a0:	4b0e      	ldr	r3, [pc, #56]	; (5dc <cmp_neq_mskd+0x3c>)
     5a2:	2200      	movs	r2, #0
     5a4:	605a      	str	r2, [r3, #4]
     5a6:	685a      	ldr	r2, [r3, #4]
     5a8:	490d      	ldr	r1, [pc, #52]	; (5e0 <cmp_neq_mskd+0x40>)
     5aa:	4011      	ands	r1, r2
     5ac:	22e8      	movs	r2, #232	; 0xe8
     5ae:	0252      	lsls	r2, r2, #9
     5b0:	430a      	orrs	r2, r1
     5b2:	605a      	str	r2, [r3, #4]
     5b4:	685b      	ldr	r3, [r3, #4]
     5b6:	03db      	lsls	r3, r3, #15
     5b8:	0edb      	lsrs	r3, r3, #27
     5ba:	2b11      	cmp	r3, #17
     5bc:	d007      	beq.n	5ce <cmp_neq_mskd+0x2e>
     5be:	4a07      	ldr	r2, [pc, #28]	; (5dc <cmp_neq_mskd+0x3c>)
     5c0:	6853      	ldr	r3, [r2, #4]
     5c2:	2106      	movs	r1, #6
     5c4:	438b      	bics	r3, r1
     5c6:	3902      	subs	r1, #2
     5c8:	430b      	orrs	r3, r1
     5ca:	6053      	str	r3, [r2, #4]
     5cc:	4770      	bx	lr
     5ce:	4a03      	ldr	r2, [pc, #12]	; (5dc <cmp_neq_mskd+0x3c>)
     5d0:	6853      	ldr	r3, [r2, #4]
     5d2:	2140      	movs	r1, #64	; 0x40
     5d4:	430b      	orrs	r3, r1
     5d6:	6053      	str	r3, [r2, #4]
     5d8:	e7f8      	b.n	5cc <cmp_neq_mskd+0x2c>
     5da:	46c0      	nop			; (mov r8, r8)
     5dc:	10001dc0 	.word	0x10001dc0
     5e0:	fffe0fff 	.word	0xfffe0fff

000005e4 <cmp_equ_reg>:
     5e4:	4b20      	ldr	r3, [pc, #128]	; (668 <cmp_equ_reg+0x84>)
     5e6:	2200      	movs	r2, #0
     5e8:	605a      	str	r2, [r3, #4]
     5ea:	685a      	ldr	r2, [r3, #4]
     5ec:	2120      	movs	r1, #32
     5ee:	430a      	orrs	r2, r1
     5f0:	605a      	str	r2, [r3, #4]
     5f2:	685a      	ldr	r2, [r3, #4]
     5f4:	391a      	subs	r1, #26
     5f6:	438a      	bics	r2, r1
     5f8:	3904      	subs	r1, #4
     5fa:	430a      	orrs	r2, r1
     5fc:	605a      	str	r2, [r3, #4]
     5fe:	685b      	ldr	r3, [r3, #4]
     600:	07db      	lsls	r3, r3, #31
     602:	d405      	bmi.n	610 <cmp_equ_reg+0x2c>
     604:	4b18      	ldr	r3, [pc, #96]	; (668 <cmp_equ_reg+0x84>)
     606:	685b      	ldr	r3, [r3, #4]
     608:	075b      	lsls	r3, r3, #29
     60a:	0f9b      	lsrs	r3, r3, #30
     60c:	2b01      	cmp	r3, #1
     60e:	d00a      	beq.n	626 <cmp_equ_reg+0x42>
     610:	4b16      	ldr	r3, [pc, #88]	; (66c <cmp_equ_reg+0x88>)
     612:	2200      	movs	r2, #0
     614:	605a      	str	r2, [r3, #4]
     616:	685a      	ldr	r2, [r3, #4]
     618:	4915      	ldr	r1, [pc, #84]	; (670 <cmp_equ_reg+0x8c>)
     61a:	4011      	ands	r1, r2
     61c:	22b8      	movs	r2, #184	; 0xb8
     61e:	0592      	lsls	r2, r2, #22
     620:	430a      	orrs	r2, r1
     622:	605a      	str	r2, [r3, #4]
     624:	4770      	bx	lr
     626:	4b10      	ldr	r3, [pc, #64]	; (668 <cmp_equ_reg+0x84>)
     628:	685b      	ldr	r3, [r3, #4]
     62a:	07db      	lsls	r3, r3, #31
     62c:	d4f0      	bmi.n	610 <cmp_equ_reg+0x2c>
     62e:	4b0e      	ldr	r3, [pc, #56]	; (668 <cmp_equ_reg+0x84>)
     630:	685b      	ldr	r3, [r3, #4]
     632:	069b      	lsls	r3, r3, #26
     634:	d5ec      	bpl.n	610 <cmp_equ_reg+0x2c>
     636:	4b0c      	ldr	r3, [pc, #48]	; (668 <cmp_equ_reg+0x84>)
     638:	685b      	ldr	r3, [r3, #4]
     63a:	065b      	lsls	r3, r3, #25
     63c:	d4e8      	bmi.n	610 <cmp_equ_reg+0x2c>
     63e:	4b0a      	ldr	r3, [pc, #40]	; (668 <cmp_equ_reg+0x84>)
     640:	685b      	ldr	r3, [r3, #4]
     642:	051b      	lsls	r3, r3, #20
     644:	0edb      	lsrs	r3, r3, #27
     646:	d1e3      	bne.n	610 <cmp_equ_reg+0x2c>
     648:	4b07      	ldr	r3, [pc, #28]	; (668 <cmp_equ_reg+0x84>)
     64a:	685b      	ldr	r3, [r3, #4]
     64c:	03db      	lsls	r3, r3, #15
     64e:	0edb      	lsrs	r3, r3, #27
     650:	d1de      	bne.n	610 <cmp_equ_reg+0x2c>
     652:	4b06      	ldr	r3, [pc, #24]	; (66c <cmp_equ_reg+0x88>)
     654:	2200      	movs	r2, #0
     656:	605a      	str	r2, [r3, #4]
     658:	685a      	ldr	r2, [r3, #4]
     65a:	4905      	ldr	r1, [pc, #20]	; (670 <cmp_equ_reg+0x8c>)
     65c:	4011      	ands	r1, r2
     65e:	22a8      	movs	r2, #168	; 0xa8
     660:	0592      	lsls	r2, r2, #22
     662:	430a      	orrs	r2, r1
     664:	605a      	str	r2, [r3, #4]
     666:	e7dd      	b.n	624 <cmp_equ_reg+0x40>
     668:	10001dc0 	.word	0x10001dc0
     66c:	10001d20 	.word	0x10001d20
     670:	c1ffffff 	.word	0xc1ffffff

00000674 <cmp_neq_reg>:
     674:	4b1e      	ldr	r3, [pc, #120]	; (6f0 <cmp_neq_reg+0x7c>)
     676:	2200      	movs	r2, #0
     678:	605a      	str	r2, [r3, #4]
     67a:	685a      	ldr	r2, [r3, #4]
     67c:	2120      	movs	r1, #32
     67e:	430a      	orrs	r2, r1
     680:	605a      	str	r2, [r3, #4]
     682:	685a      	ldr	r2, [r3, #4]
     684:	391a      	subs	r1, #26
     686:	438a      	bics	r2, r1
     688:	3904      	subs	r1, #4
     68a:	430a      	orrs	r2, r1
     68c:	605a      	str	r2, [r3, #4]
     68e:	685b      	ldr	r3, [r3, #4]
     690:	07db      	lsls	r3, r3, #31
     692:	d405      	bmi.n	6a0 <cmp_neq_reg+0x2c>
     694:	4b16      	ldr	r3, [pc, #88]	; (6f0 <cmp_neq_reg+0x7c>)
     696:	685b      	ldr	r3, [r3, #4]
     698:	075b      	lsls	r3, r3, #29
     69a:	0f9b      	lsrs	r3, r3, #30
     69c:	2b01      	cmp	r3, #1
     69e:	d009      	beq.n	6b4 <cmp_neq_reg+0x40>
     6a0:	4a13      	ldr	r2, [pc, #76]	; (6f0 <cmp_neq_reg+0x7c>)
     6a2:	2300      	movs	r3, #0
     6a4:	6053      	str	r3, [r2, #4]
     6a6:	6853      	ldr	r3, [r2, #4]
     6a8:	2106      	movs	r1, #6
     6aa:	438b      	bics	r3, r1
     6ac:	3904      	subs	r1, #4
     6ae:	430b      	orrs	r3, r1
     6b0:	6053      	str	r3, [r2, #4]
     6b2:	4770      	bx	lr
     6b4:	4b0e      	ldr	r3, [pc, #56]	; (6f0 <cmp_neq_reg+0x7c>)
     6b6:	685b      	ldr	r3, [r3, #4]
     6b8:	07db      	lsls	r3, r3, #31
     6ba:	d4f1      	bmi.n	6a0 <cmp_neq_reg+0x2c>
     6bc:	4b0c      	ldr	r3, [pc, #48]	; (6f0 <cmp_neq_reg+0x7c>)
     6be:	685b      	ldr	r3, [r3, #4]
     6c0:	069b      	lsls	r3, r3, #26
     6c2:	d5ed      	bpl.n	6a0 <cmp_neq_reg+0x2c>
     6c4:	4b0a      	ldr	r3, [pc, #40]	; (6f0 <cmp_neq_reg+0x7c>)
     6c6:	685b      	ldr	r3, [r3, #4]
     6c8:	065b      	lsls	r3, r3, #25
     6ca:	d4e9      	bmi.n	6a0 <cmp_neq_reg+0x2c>
     6cc:	4b08      	ldr	r3, [pc, #32]	; (6f0 <cmp_neq_reg+0x7c>)
     6ce:	685b      	ldr	r3, [r3, #4]
     6d0:	051b      	lsls	r3, r3, #20
     6d2:	0edb      	lsrs	r3, r3, #27
     6d4:	d1e4      	bne.n	6a0 <cmp_neq_reg+0x2c>
     6d6:	4b06      	ldr	r3, [pc, #24]	; (6f0 <cmp_neq_reg+0x7c>)
     6d8:	685b      	ldr	r3, [r3, #4]
     6da:	03db      	lsls	r3, r3, #15
     6dc:	0edb      	lsrs	r3, r3, #27
     6de:	d1df      	bne.n	6a0 <cmp_neq_reg+0x2c>
     6e0:	4b03      	ldr	r3, [pc, #12]	; (6f0 <cmp_neq_reg+0x7c>)
     6e2:	2200      	movs	r2, #0
     6e4:	605a      	str	r2, [r3, #4]
     6e6:	685a      	ldr	r2, [r3, #4]
     6e8:	2120      	movs	r1, #32
     6ea:	430a      	orrs	r2, r1
     6ec:	605a      	str	r2, [r3, #4]
     6ee:	e7e0      	b.n	6b2 <cmp_neq_reg+0x3e>
     6f0:	10001dc0 	.word	0x10001dc0

000006f4 <constexpr_bits_array>:
     6f4:	4b05      	ldr	r3, [pc, #20]	; (70c <constexpr_bits_array+0x18>)
     6f6:	2206      	movs	r2, #6
     6f8:	62da      	str	r2, [r3, #44]	; 0x2c
     6fa:	329a      	adds	r2, #154	; 0x9a
     6fc:	2100      	movs	r1, #0
     6fe:	5099      	str	r1, [r3, r2]
     700:	5898      	ldr	r0, [r3, r2]
     702:	2180      	movs	r1, #128	; 0x80
     704:	0189      	lsls	r1, r1, #6
     706:	4301      	orrs	r1, r0
     708:	5099      	str	r1, [r3, r2]
     70a:	4770      	bx	lr
     70c:	10001c00 	.word	0x10001c00

00000710 <runtime_bits_array>:
     710:	b081      	sub	sp, #4
     712:	2303      	movs	r3, #3
     714:	9300      	str	r3, [sp, #0]
     716:	9b00      	ldr	r3, [sp, #0]
     718:	3308      	adds	r3, #8
     71a:	009b      	lsls	r3, r3, #2
     71c:	4a02      	ldr	r2, [pc, #8]	; (728 <runtime_bits_array+0x18>)
     71e:	2121      	movs	r1, #33	; 0x21
     720:	5099      	str	r1, [r3, r2]
     722:	b001      	add	sp, #4
     724:	4770      	bx	lr
     726:	46c0      	nop			; (mov r8, r8)
     728:	10001c00 	.word	0x10001c00

0000072c <prescaler_low>:
     72c:	4a06      	ldr	r2, [pc, #24]	; (748 <prescaler_low+0x1c>)
     72e:	6853      	ldr	r3, [r2, #4]
     730:	217f      	movs	r1, #127	; 0x7f
     732:	438b      	bics	r3, r1
     734:	3908      	subs	r1, #8
     736:	430b      	orrs	r3, r1
     738:	6053      	str	r3, [r2, #4]
     73a:	6853      	ldr	r3, [r2, #4]
     73c:	065b      	lsls	r3, r3, #25
     73e:	0e5b      	lsrs	r3, r3, #25
     740:	4a02      	ldr	r2, [pc, #8]	; (74c <prescaler_low+0x20>)
     742:	62d3      	str	r3, [r2, #44]	; 0x2c
     744:	4770      	bx	lr
     746:	46c0      	nop			; (mov r8, r8)
     748:	10001d20 	.word	0x10001d20
     74c:	10001c00 	.word	0x10001c00

00000750 <prescaler_high>:
     750:	4b06      	ldr	r3, [pc, #24]	; (76c <prescaler_high+0x1c>)
     752:	685a      	ldr	r2, [r3, #4]
     754:	4906      	ldr	r1, [pc, #24]	; (770 <prescaler_high+0x20>)
     756:	4011      	ands	r1, r2
     758:	22e8      	movs	r2, #232	; 0xe8
     75a:	0592      	lsls	r2, r2, #22
     75c:	430a      	orrs	r2, r1
     75e:	605a      	str	r2, [r3, #4]
     760:	685b      	ldr	r3, [r3, #4]
     762:	009b      	lsls	r3, r3, #2
     764:	0edb      	lsrs	r3, r3, #27
     766:	4a03      	ldr	r2, [pc, #12]	; (774 <prescaler_high+0x24>)
     768:	62d3      	str	r3, [r2, #44]	; 0x2c
     76a:	4770      	bx	lr
     76c:	10001d20 	.word	0x10001d20
     770:	c1ffffff 	.word	0xc1ffffff
     774:	10001c00 	.word	0x10001c00

00000778 <reg_mskd_lss>:
     778:	4b0f      	ldr	r3, [pc, #60]	; (7b8 <reg_mskd_lss+0x40>)
     77a:	685a      	ldr	r2, [r3, #4]
     77c:	490f      	ldr	r1, [pc, #60]	; (7bc <reg_mskd_lss+0x44>)
     77e:	4011      	ands	r1, r2
     780:	22d8      	movs	r2, #216	; 0xd8
     782:	0592      	lsls	r2, r2, #22
     784:	430a      	orrs	r2, r1
     786:	605a      	str	r2, [r3, #4]
     788:	4a0d      	ldr	r2, [pc, #52]	; (7c0 <reg_mskd_lss+0x48>)
     78a:	2100      	movs	r1, #0
     78c:	6051      	str	r1, [r2, #4]
     78e:	685b      	ldr	r3, [r3, #4]
     790:	009b      	lsls	r3, r3, #2
     792:	0edb      	lsrs	r3, r3, #27
     794:	2b1b      	cmp	r3, #27
     796:	d806      	bhi.n	7a6 <reg_mskd_lss+0x2e>
     798:	6853      	ldr	r3, [r2, #4]
     79a:	3106      	adds	r1, #6
     79c:	438b      	bics	r3, r1
     79e:	3904      	subs	r1, #4
     7a0:	430b      	orrs	r3, r1
     7a2:	6053      	str	r3, [r2, #4]
     7a4:	4770      	bx	lr
     7a6:	4a06      	ldr	r2, [pc, #24]	; (7c0 <reg_mskd_lss+0x48>)
     7a8:	6853      	ldr	r3, [r2, #4]
     7aa:	2106      	movs	r1, #6
     7ac:	438b      	bics	r3, r1
     7ae:	3902      	subs	r1, #2
     7b0:	430b      	orrs	r3, r1
     7b2:	6053      	str	r3, [r2, #4]
     7b4:	e7f6      	b.n	7a4 <reg_mskd_lss+0x2c>
     7b6:	46c0      	nop			; (mov r8, r8)
     7b8:	10001d20 	.word	0x10001d20
     7bc:	c1ffffff 	.word	0xc1ffffff
     7c0:	10001dc0 	.word	0x10001dc0

000007c4 <reg_mskd_leq>:
     7c4:	4b12      	ldr	r3, [pc, #72]	; (810 <reg_mskd_leq+0x4c>)
     7c6:	685a      	ldr	r2, [r3, #4]
     7c8:	4912      	ldr	r1, [pc, #72]	; (814 <reg_mskd_leq+0x50>)
     7ca:	4011      	ands	r1, r2
     7cc:	22b8      	movs	r2, #184	; 0xb8
     7ce:	0592      	lsls	r2, r2, #22
     7d0:	430a      	orrs	r2, r1
     7d2:	605a      	str	r2, [r3, #4]
     7d4:	4a10      	ldr	r2, [pc, #64]	; (818 <reg_mskd_leq+0x54>)
     7d6:	2100      	movs	r1, #0
     7d8:	6051      	str	r1, [r2, #4]
     7da:	685b      	ldr	r3, [r3, #4]
     7dc:	009b      	lsls	r3, r3, #2
     7de:	0edb      	lsrs	r3, r3, #27
     7e0:	2b17      	cmp	r3, #23
     7e2:	d80c      	bhi.n	7fe <reg_mskd_leq+0x3a>
     7e4:	4b0a      	ldr	r3, [pc, #40]	; (810 <reg_mskd_leq+0x4c>)
     7e6:	685b      	ldr	r3, [r3, #4]
     7e8:	009b      	lsls	r3, r3, #2
     7ea:	0edb      	lsrs	r3, r3, #27
     7ec:	2b18      	cmp	r3, #24
     7ee:	d806      	bhi.n	7fe <reg_mskd_leq+0x3a>
     7f0:	6853      	ldr	r3, [r2, #4]
     7f2:	3106      	adds	r1, #6
     7f4:	438b      	bics	r3, r1
     7f6:	3904      	subs	r1, #4
     7f8:	430b      	orrs	r3, r1
     7fa:	6053      	str	r3, [r2, #4]
     7fc:	e006      	b.n	80c <reg_mskd_leq+0x48>
     7fe:	4a06      	ldr	r2, [pc, #24]	; (818 <reg_mskd_leq+0x54>)
     800:	6853      	ldr	r3, [r2, #4]
     802:	2106      	movs	r1, #6
     804:	438b      	bics	r3, r1
     806:	3902      	subs	r1, #2
     808:	430b      	orrs	r3, r1
     80a:	6053      	str	r3, [r2, #4]
     80c:	4770      	bx	lr
     80e:	46c0      	nop			; (mov r8, r8)
     810:	10001d20 	.word	0x10001d20
     814:	c1ffffff 	.word	0xc1ffffff
     818:	10001dc0 	.word	0x10001dc0

0000081c <reg_mskd_gtr>:
     81c:	4b0f      	ldr	r3, [pc, #60]	; (85c <reg_mskd_gtr+0x40>)
     81e:	685a      	ldr	r2, [r3, #4]
     820:	490f      	ldr	r1, [pc, #60]	; (860 <reg_mskd_gtr+0x44>)
     822:	4011      	ands	r1, r2
     824:	2298      	movs	r2, #152	; 0x98
     826:	0592      	lsls	r2, r2, #22
     828:	430a      	orrs	r2, r1
     82a:	605a      	str	r2, [r3, #4]
     82c:	4a0d      	ldr	r2, [pc, #52]	; (864 <reg_mskd_gtr+0x48>)
     82e:	2100      	movs	r1, #0
     830:	6051      	str	r1, [r2, #4]
     832:	685b      	ldr	r3, [r3, #4]
     834:	009b      	lsls	r3, r3, #2
     836:	0edb      	lsrs	r3, r3, #27
     838:	2b12      	cmp	r3, #18
     83a:	d906      	bls.n	84a <reg_mskd_gtr+0x2e>
     83c:	6853      	ldr	r3, [r2, #4]
     83e:	3106      	adds	r1, #6
     840:	438b      	bics	r3, r1
     842:	3904      	subs	r1, #4
     844:	430b      	orrs	r3, r1
     846:	6053      	str	r3, [r2, #4]
     848:	4770      	bx	lr
     84a:	4a06      	ldr	r2, [pc, #24]	; (864 <reg_mskd_gtr+0x48>)
     84c:	6853      	ldr	r3, [r2, #4]
     84e:	2106      	movs	r1, #6
     850:	438b      	bics	r3, r1
     852:	3902      	subs	r1, #2
     854:	430b      	orrs	r3, r1
     856:	6053      	str	r3, [r2, #4]
     858:	e7f6      	b.n	848 <reg_mskd_gtr+0x2c>
     85a:	46c0      	nop			; (mov r8, r8)
     85c:	10001d20 	.word	0x10001d20
     860:	c1ffffff 	.word	0xc1ffffff
     864:	10001dc0 	.word	0x10001dc0

00000868 <reg_mskd_geq>:
     868:	4b11      	ldr	r3, [pc, #68]	; (8b0 <reg_mskd_geq+0x48>)
     86a:	685a      	ldr	r2, [r3, #4]
     86c:	4911      	ldr	r1, [pc, #68]	; (8b4 <reg_mskd_geq+0x4c>)
     86e:	4011      	ands	r1, r2
     870:	2288      	movs	r2, #136	; 0x88
     872:	0592      	lsls	r2, r2, #22
     874:	430a      	orrs	r2, r1
     876:	605a      	str	r2, [r3, #4]
     878:	4a0f      	ldr	r2, [pc, #60]	; (8b8 <reg_mskd_geq+0x50>)
     87a:	2100      	movs	r1, #0
     87c:	6051      	str	r1, [r2, #4]
     87e:	685b      	ldr	r3, [r3, #4]
     880:	009b      	lsls	r3, r3, #2
     882:	d50c      	bpl.n	89e <reg_mskd_geq+0x36>
     884:	4b0a      	ldr	r3, [pc, #40]	; (8b0 <reg_mskd_geq+0x48>)
     886:	685b      	ldr	r3, [r3, #4]
     888:	009b      	lsls	r3, r3, #2
     88a:	0edb      	lsrs	r3, r3, #27
     88c:	2b10      	cmp	r3, #16
     88e:	d906      	bls.n	89e <reg_mskd_geq+0x36>
     890:	6853      	ldr	r3, [r2, #4]
     892:	3106      	adds	r1, #6
     894:	438b      	bics	r3, r1
     896:	3904      	subs	r1, #4
     898:	430b      	orrs	r3, r1
     89a:	6053      	str	r3, [r2, #4]
     89c:	e006      	b.n	8ac <reg_mskd_geq+0x44>
     89e:	4a06      	ldr	r2, [pc, #24]	; (8b8 <reg_mskd_geq+0x50>)
     8a0:	6853      	ldr	r3, [r2, #4]
     8a2:	2106      	movs	r1, #6
     8a4:	438b      	bics	r3, r1
     8a6:	3902      	subs	r1, #2
     8a8:	430b      	orrs	r3, r1
     8aa:	6053      	str	r3, [r2, #4]
     8ac:	4770      	bx	lr
     8ae:	46c0      	nop			; (mov r8, r8)
     8b0:	10001d20 	.word	0x10001d20
     8b4:	c1ffffff 	.word	0xc1ffffff
     8b8:	10001dc0 	.word	0x10001dc0

000008bc <pos_cmp_eq>:
     8bc:	4a04      	ldr	r2, [pc, #16]	; (8d0 <pos_cmp_eq+0x14>)
     8be:	2300      	movs	r3, #0
     8c0:	6053      	str	r3, [r2, #4]
     8c2:	6853      	ldr	r3, [r2, #4]
     8c4:	2106      	movs	r1, #6
     8c6:	438b      	bics	r3, r1
     8c8:	3904      	subs	r1, #4
     8ca:	430b      	orrs	r3, r1
     8cc:	6053      	str	r3, [r2, #4]
     8ce:	4770      	bx	lr
     8d0:	10001dc0 	.word	0x10001dc0

000008d4 <pos_cmp_ne>:
     8d4:	4a04      	ldr	r2, [pc, #16]	; (8e8 <pos_cmp_ne+0x14>)
     8d6:	2300      	movs	r3, #0
     8d8:	6053      	str	r3, [r2, #4]
     8da:	6853      	ldr	r3, [r2, #4]
     8dc:	2106      	movs	r1, #6
     8de:	438b      	bics	r3, r1
     8e0:	3904      	subs	r1, #4
     8e2:	430b      	orrs	r3, r1
     8e4:	6053      	str	r3, [r2, #4]
     8e6:	4770      	bx	lr
     8e8:	10001dc0 	.word	0x10001dc0

000008ec <bits_extract_eq>:
     8ec:	4b0c      	ldr	r3, [pc, #48]	; (920 <bits_extract_eq+0x34>)
     8ee:	685a      	ldr	r2, [r3, #4]
     8f0:	2140      	movs	r1, #64	; 0x40
     8f2:	430a      	orrs	r2, r1
     8f4:	605a      	str	r2, [r3, #4]
     8f6:	685a      	ldr	r2, [r3, #4]
     8f8:	2100      	movs	r1, #0
     8fa:	6059      	str	r1, [r3, #4]
     8fc:	0653      	lsls	r3, r2, #25
     8fe:	d507      	bpl.n	910 <bits_extract_eq+0x24>
     900:	4a07      	ldr	r2, [pc, #28]	; (920 <bits_extract_eq+0x34>)
     902:	6853      	ldr	r3, [r2, #4]
     904:	3106      	adds	r1, #6
     906:	438b      	bics	r3, r1
     908:	3904      	subs	r1, #4
     90a:	430b      	orrs	r3, r1
     90c:	6053      	str	r3, [r2, #4]
     90e:	4770      	bx	lr
     910:	4a03      	ldr	r2, [pc, #12]	; (920 <bits_extract_eq+0x34>)
     912:	6853      	ldr	r3, [r2, #4]
     914:	2106      	movs	r1, #6
     916:	438b      	bics	r3, r1
     918:	3902      	subs	r1, #2
     91a:	430b      	orrs	r3, r1
     91c:	6053      	str	r3, [r2, #4]
     91e:	e7f6      	b.n	90e <bits_extract_eq+0x22>
     920:	10001dc0 	.word	0x10001dc0

00000924 <mskd_extract_eq>:
     924:	4a0c      	ldr	r2, [pc, #48]	; (958 <mskd_extract_eq+0x34>)
     926:	6853      	ldr	r3, [r2, #4]
     928:	2106      	movs	r1, #6
     92a:	438b      	bics	r3, r1
     92c:	3904      	subs	r1, #4
     92e:	430b      	orrs	r3, r1
     930:	6053      	str	r3, [r2, #4]
     932:	6853      	ldr	r3, [r2, #4]
     934:	2100      	movs	r1, #0
     936:	6051      	str	r1, [r2, #4]
     938:	075b      	lsls	r3, r3, #29
     93a:	0f9b      	lsrs	r3, r3, #30
     93c:	2b01      	cmp	r3, #1
     93e:	d005      	beq.n	94c <mskd_extract_eq+0x28>
     940:	4a05      	ldr	r2, [pc, #20]	; (958 <mskd_extract_eq+0x34>)
     942:	6853      	ldr	r3, [r2, #4]
     944:	2140      	movs	r1, #64	; 0x40
     946:	430b      	orrs	r3, r1
     948:	6053      	str	r3, [r2, #4]
     94a:	4770      	bx	lr
     94c:	6853      	ldr	r3, [r2, #4]
     94e:	3120      	adds	r1, #32
     950:	430b      	orrs	r3, r1
     952:	6053      	str	r3, [r2, #4]
     954:	e7f9      	b.n	94a <mskd_extract_eq+0x26>
     956:	46c0      	nop			; (mov r8, r8)
     958:	10001dc0 	.word	0x10001dc0

0000095c <mskd_extract_ne>:
     95c:	4a0c      	ldr	r2, [pc, #48]	; (990 <mskd_extract_ne+0x34>)
     95e:	2100      	movs	r1, #0
     960:	6051      	str	r1, [r2, #4]
     962:	6853      	ldr	r3, [r2, #4]
     964:	2006      	movs	r0, #6
     966:	4383      	bics	r3, r0
     968:	3802      	subs	r0, #2
     96a:	4303      	orrs	r3, r0
     96c:	6053      	str	r3, [r2, #4]
     96e:	6853      	ldr	r3, [r2, #4]
     970:	6051      	str	r1, [r2, #4]
     972:	075b      	lsls	r3, r3, #29
     974:	0f9b      	lsrs	r3, r3, #30
     976:	2b02      	cmp	r3, #2
     978:	d004      	beq.n	984 <mskd_extract_ne+0x28>
     97a:	6853      	ldr	r3, [r2, #4]
     97c:	3120      	adds	r1, #32
     97e:	430b      	orrs	r3, r1
     980:	6053      	str	r3, [r2, #4]
     982:	4770      	bx	lr
     984:	4a02      	ldr	r2, [pc, #8]	; (990 <mskd_extract_ne+0x34>)
     986:	6853      	ldr	r3, [r2, #4]
     988:	2140      	movs	r1, #64	; 0x40
     98a:	430b      	orrs	r3, r1
     98c:	6053      	str	r3, [r2, #4]
     98e:	e7f8      	b.n	982 <mskd_extract_ne+0x26>
     990:	10001dc0 	.word	0x10001dc0

00000994 <mskd_extract_lss>:
     994:	4b0d      	ldr	r3, [pc, #52]	; (9cc <mskd_extract_lss+0x38>)
     996:	2000      	movs	r0, #0
     998:	6058      	str	r0, [r3, #4]
     99a:	685a      	ldr	r2, [r3, #4]
     99c:	490c      	ldr	r1, [pc, #48]	; (9d0 <mskd_extract_lss+0x3c>)
     99e:	4011      	ands	r1, r2
     9a0:	22b0      	movs	r2, #176	; 0xb0
     9a2:	0552      	lsls	r2, r2, #21
     9a4:	430a      	orrs	r2, r1
     9a6:	605a      	str	r2, [r3, #4]
     9a8:	685b      	ldr	r3, [r3, #4]
     9aa:	4a0a      	ldr	r2, [pc, #40]	; (9d4 <mskd_extract_lss+0x40>)
     9ac:	6050      	str	r0, [r2, #4]
     9ae:	009b      	lsls	r3, r3, #2
     9b0:	0edb      	lsrs	r3, r3, #27
     9b2:	2b0b      	cmp	r3, #11
     9b4:	d804      	bhi.n	9c0 <mskd_extract_lss+0x2c>
     9b6:	6853      	ldr	r3, [r2, #4]
     9b8:	2120      	movs	r1, #32
     9ba:	430b      	orrs	r3, r1
     9bc:	6053      	str	r3, [r2, #4]
     9be:	4770      	bx	lr
     9c0:	4a04      	ldr	r2, [pc, #16]	; (9d4 <mskd_extract_lss+0x40>)
     9c2:	6853      	ldr	r3, [r2, #4]
     9c4:	2140      	movs	r1, #64	; 0x40
     9c6:	430b      	orrs	r3, r1
     9c8:	6053      	str	r3, [r2, #4]
     9ca:	e7f8      	b.n	9be <mskd_extract_lss+0x2a>
     9cc:	10001d20 	.word	0x10001d20
     9d0:	c1ffffff 	.word	0xc1ffffff
     9d4:	10001dc0 	.word	0x10001dc0

000009d8 <mskd_extract_leq>:
     9d8:	4b0f      	ldr	r3, [pc, #60]	; (a18 <mskd_extract_leq+0x40>)
     9da:	2000      	movs	r0, #0
     9dc:	6058      	str	r0, [r3, #4]
     9de:	685a      	ldr	r2, [r3, #4]
     9e0:	490e      	ldr	r1, [pc, #56]	; (a1c <mskd_extract_leq+0x44>)
     9e2:	4011      	ands	r1, r2
     9e4:	22b8      	movs	r2, #184	; 0xb8
     9e6:	0592      	lsls	r2, r2, #22
     9e8:	430a      	orrs	r2, r1
     9ea:	605a      	str	r2, [r3, #4]
     9ec:	685b      	ldr	r3, [r3, #4]
     9ee:	4a0c      	ldr	r2, [pc, #48]	; (a20 <mskd_extract_leq+0x48>)
     9f0:	6050      	str	r0, [r2, #4]
     9f2:	009a      	lsls	r2, r3, #2
     9f4:	0ed2      	lsrs	r2, r2, #27
     9f6:	2a17      	cmp	r2, #23
     9f8:	d807      	bhi.n	a0a <mskd_extract_leq+0x32>
     9fa:	2a18      	cmp	r2, #24
     9fc:	d805      	bhi.n	a0a <mskd_extract_leq+0x32>
     9fe:	4a08      	ldr	r2, [pc, #32]	; (a20 <mskd_extract_leq+0x48>)
     a00:	6853      	ldr	r3, [r2, #4]
     a02:	2120      	movs	r1, #32
     a04:	430b      	orrs	r3, r1
     a06:	6053      	str	r3, [r2, #4]
     a08:	e004      	b.n	a14 <mskd_extract_leq+0x3c>
     a0a:	4a05      	ldr	r2, [pc, #20]	; (a20 <mskd_extract_leq+0x48>)
     a0c:	6853      	ldr	r3, [r2, #4]
     a0e:	2140      	movs	r1, #64	; 0x40
     a10:	430b      	orrs	r3, r1
     a12:	6053      	str	r3, [r2, #4]
     a14:	4770      	bx	lr
     a16:	46c0      	nop			; (mov r8, r8)
     a18:	10001d20 	.word	0x10001d20
     a1c:	c1ffffff 	.word	0xc1ffffff
     a20:	10001dc0 	.word	0x10001dc0

00000a24 <mskd_extract_gtr>:
     a24:	4b0d      	ldr	r3, [pc, #52]	; (a5c <mskd_extract_gtr+0x38>)
     a26:	2000      	movs	r0, #0
     a28:	6058      	str	r0, [r3, #4]
     a2a:	685a      	ldr	r2, [r3, #4]
     a2c:	490c      	ldr	r1, [pc, #48]	; (a60 <mskd_extract_gtr+0x3c>)
     a2e:	4011      	ands	r1, r2
     a30:	2298      	movs	r2, #152	; 0x98
     a32:	0592      	lsls	r2, r2, #22
     a34:	430a      	orrs	r2, r1
     a36:	605a      	str	r2, [r3, #4]
     a38:	685b      	ldr	r3, [r3, #4]
     a3a:	4a0a      	ldr	r2, [pc, #40]	; (a64 <mskd_extract_gtr+0x40>)
     a3c:	6050      	str	r0, [r2, #4]
     a3e:	009b      	lsls	r3, r3, #2
     a40:	0edb      	lsrs	r3, r3, #27
     a42:	2b12      	cmp	r3, #18
     a44:	d904      	bls.n	a50 <mskd_extract_gtr+0x2c>
     a46:	6853      	ldr	r3, [r2, #4]
     a48:	2120      	movs	r1, #32
     a4a:	430b      	orrs	r3, r1
     a4c:	6053      	str	r3, [r2, #4]
     a4e:	4770      	bx	lr
     a50:	4a04      	ldr	r2, [pc, #16]	; (a64 <mskd_extract_gtr+0x40>)
     a52:	6853      	ldr	r3, [r2, #4]
     a54:	2140      	movs	r1, #64	; 0x40
     a56:	430b      	orrs	r3, r1
     a58:	6053      	str	r3, [r2, #4]
     a5a:	e7f8      	b.n	a4e <mskd_extract_gtr+0x2a>
     a5c:	10001d20 	.word	0x10001d20
     a60:	c1ffffff 	.word	0xc1ffffff
     a64:	10001dc0 	.word	0x10001dc0

00000a68 <set_bits_global>:
     a68:	4a02      	ldr	r2, [pc, #8]	; (a74 <set_bits_global+0xc>)
     a6a:	6853      	ldr	r3, [r2, #4]
     a6c:	2140      	movs	r1, #64	; 0x40
     a6e:	430b      	orrs	r3, r1
     a70:	6053      	str	r3, [r2, #4]
     a72:	4770      	bx	lr
     a74:	10001dc0 	.word	0x10001dc0

00000a78 <ins_mskd_global>:
     a78:	4a03      	ldr	r2, [pc, #12]	; (a88 <ins_mskd_global+0x10>)
     a7a:	6853      	ldr	r3, [r2, #4]
     a7c:	2106      	movs	r1, #6
     a7e:	438b      	bics	r3, r1
     a80:	3904      	subs	r1, #4
     a82:	430b      	orrs	r3, r1
     a84:	6053      	str	r3, [r2, #4]
     a86:	4770      	bx	lr
     a88:	10001dc0 	.word	0x10001dc0

00000a8c <assign_array_global>:
     a8c:	4b01      	ldr	r3, [pc, #4]	; (a94 <assign_array_global+0x8>)
     a8e:	22bd      	movs	r2, #189	; 0xbd
     a90:	601a      	str	r2, [r3, #0]
     a92:	4770      	bx	lr
     a94:	10001c2c 	.word	0x10001c2c

00000a98 <shifted_global>:
     a98:	4b06      	ldr	r3, [pc, #24]	; (ab4 <shifted_global+0x1c>)
     a9a:	685a      	ldr	r2, [r3, #4]
     a9c:	4906      	ldr	r1, [pc, #24]	; (ab8 <shifted_global+0x20>)
     a9e:	4011      	ands	r1, r2
     aa0:	22b8      	movs	r2, #184	; 0xb8
     aa2:	0592      	lsls	r2, r2, #22
     aa4:	430a      	orrs	r2, r1
     aa6:	605a      	str	r2, [r3, #4]
     aa8:	685b      	ldr	r3, [r3, #4]
     aaa:	009b      	lsls	r3, r3, #2
     aac:	0edb      	lsrs	r3, r3, #27
     aae:	4a03      	ldr	r2, [pc, #12]	; (abc <shifted_global+0x24>)
     ab0:	62d3      	str	r3, [r2, #44]	; 0x2c
     ab2:	4770      	bx	lr
     ab4:	10001d20 	.word	0x10001d20
     ab8:	c1ffffff 	.word	0xc1ffffff
     abc:	10001c00 	.word	0x10001c00

00000ac0 <assign_register_global>:
     ac0:	4a04      	ldr	r2, [pc, #16]	; (ad4 <assign_register_global+0x14>)
     ac2:	2300      	movs	r3, #0
     ac4:	6053      	str	r3, [r2, #4]
     ac6:	6853      	ldr	r3, [r2, #4]
     ac8:	2106      	movs	r1, #6
     aca:	438b      	bics	r3, r1
     acc:	3902      	subs	r1, #2
     ace:	430b      	orrs	r3, r1
     ad0:	6053      	str	r3, [r2, #4]
     ad2:	4770      	bx	lr
     ad4:	10001dc0 	.word	0x10001dc0

00000ad8 <copy_bits_equ>:
     ad8:	4b0d      	ldr	r3, [pc, #52]	; (b10 <copy_bits_equ+0x38>)
     ada:	2100      	movs	r1, #0
     adc:	6059      	str	r1, [r3, #4]
     ade:	685a      	ldr	r2, [r3, #4]
     ae0:	2040      	movs	r0, #64	; 0x40
     ae2:	4302      	orrs	r2, r0
     ae4:	605a      	str	r2, [r3, #4]
     ae6:	685a      	ldr	r2, [r3, #4]
     ae8:	6059      	str	r1, [r3, #4]
     aea:	0653      	lsls	r3, r2, #25
     aec:	d407      	bmi.n	afe <copy_bits_equ+0x26>
     aee:	4a08      	ldr	r2, [pc, #32]	; (b10 <copy_bits_equ+0x38>)
     af0:	6853      	ldr	r3, [r2, #4]
     af2:	2106      	movs	r1, #6
     af4:	438b      	bics	r3, r1
     af6:	3902      	subs	r1, #2
     af8:	430b      	orrs	r3, r1
     afa:	6053      	str	r3, [r2, #4]
     afc:	4770      	bx	lr
     afe:	4a04      	ldr	r2, [pc, #16]	; (b10 <copy_bits_equ+0x38>)
     b00:	6853      	ldr	r3, [r2, #4]
     b02:	3106      	adds	r1, #6
     b04:	438b      	bics	r3, r1
     b06:	3904      	subs	r1, #4
     b08:	430b      	orrs	r3, r1
     b0a:	6053      	str	r3, [r2, #4]
     b0c:	e7f6      	b.n	afc <copy_bits_equ+0x24>
     b0e:	46c0      	nop			; (mov r8, r8)
     b10:	10001dc0 	.word	0x10001dc0

00000b14 <copy_bits_neq>:
     b14:	4b0d      	ldr	r3, [pc, #52]	; (b4c <copy_bits_neq+0x38>)
     b16:	2100      	movs	r1, #0
     b18:	6059      	str	r1, [r3, #4]
     b1a:	685a      	ldr	r2, [r3, #4]
     b1c:	2040      	movs	r0, #64	; 0x40
     b1e:	4302      	orrs	r2, r0
     b20:	605a      	str	r2, [r3, #4]
     b22:	685a      	ldr	r2, [r3, #4]
     b24:	6059      	str	r1, [r3, #4]
     b26:	0653      	lsls	r3, r2, #25
     b28:	d407      	bmi.n	b3a <copy_bits_neq+0x26>
     b2a:	4a08      	ldr	r2, [pc, #32]	; (b4c <copy_bits_neq+0x38>)
     b2c:	6853      	ldr	r3, [r2, #4]
     b2e:	3106      	adds	r1, #6
     b30:	438b      	bics	r3, r1
     b32:	3904      	subs	r1, #4
     b34:	430b      	orrs	r3, r1
     b36:	6053      	str	r3, [r2, #4]
     b38:	4770      	bx	lr
     b3a:	4a04      	ldr	r2, [pc, #16]	; (b4c <copy_bits_neq+0x38>)
     b3c:	6853      	ldr	r3, [r2, #4]
     b3e:	2106      	movs	r1, #6
     b40:	438b      	bics	r3, r1
     b42:	3902      	subs	r1, #2
     b44:	430b      	orrs	r3, r1
     b46:	6053      	str	r3, [r2, #4]
     b48:	e7f6      	b.n	b38 <copy_bits_neq+0x24>
     b4a:	46c0      	nop			; (mov r8, r8)
     b4c:	10001dc0 	.word	0x10001dc0

00000b50 <copy_mskd_equ>:
     b50:	4b0f      	ldr	r3, [pc, #60]	; (b90 <copy_mskd_equ+0x40>)
     b52:	2000      	movs	r0, #0
     b54:	6058      	str	r0, [r3, #4]
     b56:	685a      	ldr	r2, [r3, #4]
     b58:	490e      	ldr	r1, [pc, #56]	; (b94 <copy_mskd_equ+0x44>)
     b5a:	4011      	ands	r1, r2
     b5c:	22b0      	movs	r2, #176	; 0xb0
     b5e:	0552      	lsls	r2, r2, #21
     b60:	430a      	orrs	r2, r1
     b62:	605a      	str	r2, [r3, #4]
     b64:	685b      	ldr	r3, [r3, #4]
     b66:	009b      	lsls	r3, r3, #2
     b68:	0edb      	lsrs	r3, r3, #27
     b6a:	4a0b      	ldr	r2, [pc, #44]	; (b98 <copy_mskd_equ+0x48>)
     b6c:	6050      	str	r0, [r2, #4]
     b6e:	2b0b      	cmp	r3, #11
     b70:	d007      	beq.n	b82 <copy_mskd_equ+0x32>
     b72:	4a09      	ldr	r2, [pc, #36]	; (b98 <copy_mskd_equ+0x48>)
     b74:	6853      	ldr	r3, [r2, #4]
     b76:	2106      	movs	r1, #6
     b78:	438b      	bics	r3, r1
     b7a:	3902      	subs	r1, #2
     b7c:	430b      	orrs	r3, r1
     b7e:	6053      	str	r3, [r2, #4]
     b80:	4770      	bx	lr
     b82:	6853      	ldr	r3, [r2, #4]
     b84:	2106      	movs	r1, #6
     b86:	438b      	bics	r3, r1
     b88:	3904      	subs	r1, #4
     b8a:	430b      	orrs	r3, r1
     b8c:	6053      	str	r3, [r2, #4]
     b8e:	e7f7      	b.n	b80 <copy_mskd_equ+0x30>
     b90:	10001d20 	.word	0x10001d20
     b94:	c1ffffff 	.word	0xc1ffffff
     b98:	10001dc0 	.word	0x10001dc0

00000b9c <copy_mskd_neq>:
     b9c:	4b0f      	ldr	r3, [pc, #60]	; (bdc <copy_mskd_neq+0x40>)
     b9e:	2000      	movs	r0, #0
     ba0:	6058      	str	r0, [r3, #4]
     ba2:	685a      	ldr	r2, [r3, #4]
     ba4:	490e      	ldr	r1, [pc, #56]	; (be0 <copy_mskd_neq+0x44>)
     ba6:	4011      	ands	r1, r2
     ba8:	22d0      	movs	r2, #208	; 0xd0
     baa:	0552      	lsls	r2, r2, #21
     bac:	430a      	orrs	r2, r1
     bae:	605a      	str	r2, [r3, #4]
     bb0:	685b      	ldr	r3, [r3, #4]
     bb2:	009b      	lsls	r3, r3, #2
     bb4:	0edb      	lsrs	r3, r3, #27
     bb6:	4a0b      	ldr	r2, [pc, #44]	; (be4 <copy_mskd_neq+0x48>)
     bb8:	6050      	str	r0, [r2, #4]
     bba:	2b0d      	cmp	r3, #13
     bbc:	d006      	beq.n	bcc <copy_mskd_neq+0x30>
     bbe:	6853      	ldr	r3, [r2, #4]
     bc0:	2106      	movs	r1, #6
     bc2:	438b      	bics	r3, r1
     bc4:	3904      	subs	r1, #4
     bc6:	430b      	orrs	r3, r1
     bc8:	6053      	str	r3, [r2, #4]
     bca:	4770      	bx	lr
     bcc:	4a05      	ldr	r2, [pc, #20]	; (be4 <copy_mskd_neq+0x48>)
     bce:	6853      	ldr	r3, [r2, #4]
     bd0:	2106      	movs	r1, #6
     bd2:	438b      	bics	r3, r1
     bd4:	3902      	subs	r1, #2
     bd6:	430b      	orrs	r3, r1
     bd8:	6053      	str	r3, [r2, #4]
     bda:	e7f6      	b.n	bca <copy_mskd_neq+0x2e>
     bdc:	10001d20 	.word	0x10001d20
     be0:	c1ffffff 	.word	0xc1ffffff
     be4:	10001dc0 	.word	0x10001dc0

00000be8 <copy_mskd_lss>:
     be8:	4b0f      	ldr	r3, [pc, #60]	; (c28 <copy_mskd_lss+0x40>)
     bea:	2000      	movs	r0, #0
     bec:	6058      	str	r0, [r3, #4]
     bee:	685a      	ldr	r2, [r3, #4]
     bf0:	490e      	ldr	r1, [pc, #56]	; (c2c <copy_mskd_lss+0x44>)
     bf2:	4011      	ands	r1, r2
     bf4:	22d8      	movs	r2, #216	; 0xd8
     bf6:	0592      	lsls	r2, r2, #22
     bf8:	430a      	orrs	r2, r1
     bfa:	605a      	str	r2, [r3, #4]
     bfc:	685b      	ldr	r3, [r3, #4]
     bfe:	009b      	lsls	r3, r3, #2
     c00:	0edb      	lsrs	r3, r3, #27
     c02:	4a0b      	ldr	r2, [pc, #44]	; (c30 <copy_mskd_lss+0x48>)
     c04:	6050      	str	r0, [r2, #4]
     c06:	2b1b      	cmp	r3, #27
     c08:	d806      	bhi.n	c18 <copy_mskd_lss+0x30>
     c0a:	6853      	ldr	r3, [r2, #4]
     c0c:	2106      	movs	r1, #6
     c0e:	438b      	bics	r3, r1
     c10:	3904      	subs	r1, #4
     c12:	430b      	orrs	r3, r1
     c14:	6053      	str	r3, [r2, #4]
     c16:	4770      	bx	lr
     c18:	4a05      	ldr	r2, [pc, #20]	; (c30 <copy_mskd_lss+0x48>)
     c1a:	6853      	ldr	r3, [r2, #4]
     c1c:	2106      	movs	r1, #6
     c1e:	438b      	bics	r3, r1
     c20:	3902      	subs	r1, #2
     c22:	430b      	orrs	r3, r1
     c24:	6053      	str	r3, [r2, #4]
     c26:	e7f6      	b.n	c16 <copy_mskd_lss+0x2e>
     c28:	10001d20 	.word	0x10001d20
     c2c:	c1ffffff 	.word	0xc1ffffff
     c30:	10001dc0 	.word	0x10001dc0

00000c34 <copy_mskd_leq>:
     c34:	4b0f      	ldr	r3, [pc, #60]	; (c74 <copy_mskd_leq+0x40>)
     c36:	2000      	movs	r0, #0
     c38:	6058      	str	r0, [r3, #4]
     c3a:	685a      	ldr	r2, [r3, #4]
     c3c:	490e      	ldr	r1, [pc, #56]	; (c78 <copy_mskd_leq+0x44>)
     c3e:	4011      	ands	r1, r2
     c40:	22b8      	movs	r2, #184	; 0xb8
     c42:	0592      	lsls	r2, r2, #22
     c44:	430a      	orrs	r2, r1
     c46:	605a      	str	r2, [r3, #4]
     c48:	685b      	ldr	r3, [r3, #4]
     c4a:	009b      	lsls	r3, r3, #2
     c4c:	0edb      	lsrs	r3, r3, #27
     c4e:	4a0b      	ldr	r2, [pc, #44]	; (c7c <copy_mskd_leq+0x48>)
     c50:	6050      	str	r0, [r2, #4]
     c52:	2b17      	cmp	r3, #23
     c54:	d806      	bhi.n	c64 <copy_mskd_leq+0x30>
     c56:	6853      	ldr	r3, [r2, #4]
     c58:	2106      	movs	r1, #6
     c5a:	438b      	bics	r3, r1
     c5c:	3904      	subs	r1, #4
     c5e:	430b      	orrs	r3, r1
     c60:	6053      	str	r3, [r2, #4]
     c62:	4770      	bx	lr
     c64:	4a05      	ldr	r2, [pc, #20]	; (c7c <copy_mskd_leq+0x48>)
     c66:	6853      	ldr	r3, [r2, #4]
     c68:	2106      	movs	r1, #6
     c6a:	438b      	bics	r3, r1
     c6c:	3902      	subs	r1, #2
     c6e:	430b      	orrs	r3, r1
     c70:	6053      	str	r3, [r2, #4]
     c72:	e7f6      	b.n	c62 <copy_mskd_leq+0x2e>
     c74:	10001d20 	.word	0x10001d20
     c78:	c1ffffff 	.word	0xc1ffffff
     c7c:	10001dc0 	.word	0x10001dc0

00000c80 <copy_mskd_gtr>:
     c80:	4b0f      	ldr	r3, [pc, #60]	; (cc0 <copy_mskd_gtr+0x40>)
     c82:	2000      	movs	r0, #0
     c84:	6058      	str	r0, [r3, #4]
     c86:	685a      	ldr	r2, [r3, #4]
     c88:	490e      	ldr	r1, [pc, #56]	; (cc4 <copy_mskd_gtr+0x44>)
     c8a:	4011      	ands	r1, r2
     c8c:	2298      	movs	r2, #152	; 0x98
     c8e:	0592      	lsls	r2, r2, #22
     c90:	430a      	orrs	r2, r1
     c92:	605a      	str	r2, [r3, #4]
     c94:	685b      	ldr	r3, [r3, #4]
     c96:	009b      	lsls	r3, r3, #2
     c98:	0edb      	lsrs	r3, r3, #27
     c9a:	4a0b      	ldr	r2, [pc, #44]	; (cc8 <copy_mskd_gtr+0x48>)
     c9c:	6050      	str	r0, [r2, #4]
     c9e:	2b12      	cmp	r3, #18
     ca0:	d906      	bls.n	cb0 <copy_mskd_gtr+0x30>
     ca2:	6853      	ldr	r3, [r2, #4]
     ca4:	2106      	movs	r1, #6
     ca6:	438b      	bics	r3, r1
     ca8:	3904      	subs	r1, #4
     caa:	430b      	orrs	r3, r1
     cac:	6053      	str	r3, [r2, #4]
     cae:	4770      	bx	lr
     cb0:	4a05      	ldr	r2, [pc, #20]	; (cc8 <copy_mskd_gtr+0x48>)
     cb2:	6853      	ldr	r3, [r2, #4]
     cb4:	2106      	movs	r1, #6
     cb6:	438b      	bics	r3, r1
     cb8:	3902      	subs	r1, #2
     cba:	430b      	orrs	r3, r1
     cbc:	6053      	str	r3, [r2, #4]
     cbe:	e7f6      	b.n	cae <copy_mskd_gtr+0x2e>
     cc0:	10001d20 	.word	0x10001d20
     cc4:	c1ffffff 	.word	0xc1ffffff
     cc8:	10001dc0 	.word	0x10001dc0

00000ccc <copy_mskd_geq>:
     ccc:	4b0f      	ldr	r3, [pc, #60]	; (d0c <copy_mskd_geq+0x40>)
     cce:	2000      	movs	r0, #0
     cd0:	6058      	str	r0, [r3, #4]
     cd2:	685a      	ldr	r2, [r3, #4]
     cd4:	490e      	ldr	r1, [pc, #56]	; (d10 <copy_mskd_geq+0x44>)
     cd6:	4011      	ands	r1, r2
     cd8:	2288      	movs	r2, #136	; 0x88
     cda:	0592      	lsls	r2, r2, #22
     cdc:	430a      	orrs	r2, r1
     cde:	605a      	str	r2, [r3, #4]
     ce0:	685b      	ldr	r3, [r3, #4]
     ce2:	009b      	lsls	r3, r3, #2
     ce4:	0edb      	lsrs	r3, r3, #27
     ce6:	4a0b      	ldr	r2, [pc, #44]	; (d14 <copy_mskd_geq+0x48>)
     ce8:	6050      	str	r0, [r2, #4]
     cea:	2b10      	cmp	r3, #16
     cec:	d906      	bls.n	cfc <copy_mskd_geq+0x30>
     cee:	6853      	ldr	r3, [r2, #4]
     cf0:	2106      	movs	r1, #6
     cf2:	438b      	bics	r3, r1
     cf4:	3904      	subs	r1, #4
     cf6:	430b      	orrs	r3, r1
     cf8:	6053      	str	r3, [r2, #4]
     cfa:	4770      	bx	lr
     cfc:	4a05      	ldr	r2, [pc, #20]	; (d14 <copy_mskd_geq+0x48>)
     cfe:	6853      	ldr	r3, [r2, #4]
     d00:	2106      	movs	r1, #6
     d02:	438b      	bics	r3, r1
     d04:	3902      	subs	r1, #2
     d06:	430b      	orrs	r3, r1
     d08:	6053      	str	r3, [r2, #4]
     d0a:	e7f6      	b.n	cfa <copy_mskd_geq+0x2e>
     d0c:	10001d20 	.word	0x10001d20
     d10:	c1ffffff 	.word	0xc1ffffff
     d14:	10001dc0 	.word	0x10001dc0

00000d18 <copy_shifted>:
     d18:	4b0f      	ldr	r3, [pc, #60]	; (d58 <copy_shifted+0x40>)
     d1a:	2000      	movs	r0, #0
     d1c:	6058      	str	r0, [r3, #4]
     d1e:	685a      	ldr	r2, [r3, #4]
     d20:	490e      	ldr	r1, [pc, #56]	; (d5c <copy_shifted+0x44>)
     d22:	4011      	ands	r1, r2
     d24:	22b0      	movs	r2, #176	; 0xb0
     d26:	0552      	lsls	r2, r2, #21
     d28:	430a      	orrs	r2, r1
     d2a:	605a      	str	r2, [r3, #4]
     d2c:	685b      	ldr	r3, [r3, #4]
     d2e:	009b      	lsls	r3, r3, #2
     d30:	0edb      	lsrs	r3, r3, #27
     d32:	4a0b      	ldr	r2, [pc, #44]	; (d60 <copy_shifted+0x48>)
     d34:	6050      	str	r0, [r2, #4]
     d36:	2b0b      	cmp	r3, #11
     d38:	d007      	beq.n	d4a <copy_shifted+0x32>
     d3a:	4a09      	ldr	r2, [pc, #36]	; (d60 <copy_shifted+0x48>)
     d3c:	6853      	ldr	r3, [r2, #4]
     d3e:	2106      	movs	r1, #6
     d40:	438b      	bics	r3, r1
     d42:	3902      	subs	r1, #2
     d44:	430b      	orrs	r3, r1
     d46:	6053      	str	r3, [r2, #4]
     d48:	4770      	bx	lr
     d4a:	6853      	ldr	r3, [r2, #4]
     d4c:	2106      	movs	r1, #6
     d4e:	438b      	bics	r3, r1
     d50:	3904      	subs	r1, #4
     d52:	430b      	orrs	r3, r1
     d54:	6053      	str	r3, [r2, #4]
     d56:	e7f7      	b.n	d48 <copy_shifted+0x30>
     d58:	10001d20 	.word	0x10001d20
     d5c:	c1ffffff 	.word	0xc1ffffff
     d60:	10001dc0 	.word	0x10001dc0

00000d64 <bits_val>:
     d64:	4b18      	ldr	r3, [pc, #96]	; (dc8 <bits_val+0x64>)
     d66:	2200      	movs	r2, #0
     d68:	605a      	str	r2, [r3, #4]
     d6a:	2803      	cmp	r0, #3
     d6c:	d01e      	beq.n	dac <bits_val+0x48>
     d6e:	2804      	cmp	r0, #4
     d70:	d00e      	beq.n	d90 <bits_val+0x2c>
     d72:	2800      	cmp	r0, #0
     d74:	d000      	beq.n	d78 <bits_val+0x14>
     d76:	4770      	bx	lr
     d78:	3001      	adds	r0, #1
     d7a:	001a      	movs	r2, r3
     d7c:	4001      	ands	r1, r0
     d7e:	685b      	ldr	r3, [r3, #4]
     d80:	4383      	bics	r3, r0
     d82:	430b      	orrs	r3, r1
     d84:	6053      	str	r3, [r2, #4]
     d86:	6853      	ldr	r3, [r2, #4]
     d88:	4383      	bics	r3, r0
     d8a:	4319      	orrs	r1, r3
     d8c:	6051      	str	r1, [r2, #4]
     d8e:	e7f2      	b.n	d76 <bits_val+0x12>
     d90:	4a0d      	ldr	r2, [pc, #52]	; (dc8 <bits_val+0x64>)
     d92:	2301      	movs	r3, #1
     d94:	4019      	ands	r1, r3
     d96:	0189      	lsls	r1, r1, #6
     d98:	6853      	ldr	r3, [r2, #4]
     d9a:	2040      	movs	r0, #64	; 0x40
     d9c:	4383      	bics	r3, r0
     d9e:	430b      	orrs	r3, r1
     da0:	6053      	str	r3, [r2, #4]
     da2:	6853      	ldr	r3, [r2, #4]
     da4:	4383      	bics	r3, r0
     da6:	4319      	orrs	r1, r3
     da8:	6051      	str	r1, [r2, #4]
     daa:	e7e4      	b.n	d76 <bits_val+0x12>
     dac:	4a06      	ldr	r2, [pc, #24]	; (dc8 <bits_val+0x64>)
     dae:	2301      	movs	r3, #1
     db0:	4019      	ands	r1, r3
     db2:	0149      	lsls	r1, r1, #5
     db4:	6853      	ldr	r3, [r2, #4]
     db6:	2020      	movs	r0, #32
     db8:	4383      	bics	r3, r0
     dba:	430b      	orrs	r3, r1
     dbc:	6053      	str	r3, [r2, #4]
     dbe:	6853      	ldr	r3, [r2, #4]
     dc0:	4383      	bics	r3, r0
     dc2:	4319      	orrs	r1, r3
     dc4:	6051      	str	r1, [r2, #4]
     dc6:	e7d6      	b.n	d76 <bits_val+0x12>
     dc8:	10001dc0 	.word	0x10001dc0

00000dcc <call_bits_val_const>:
     dcc:	b500      	push	{lr}
     dce:	2101      	movs	r1, #1
     dd0:	2004      	movs	r0, #4
     dd2:	f7ff fffe 	bl	d64 <bits_val>
     dd6:	bd00      	pop	{pc}

00000dd8 <call_bits_val_var>:
     dd8:	b500      	push	{lr}
     dda:	2101      	movs	r1, #1
     ddc:	2004      	movs	r0, #4
     dde:	f7ff fffe 	bl	d64 <bits_val>
     de2:	bd00      	pop	{pc}

00000de4 <call_bits_val_zero>:
     de4:	b500      	push	{lr}
     de6:	2100      	movs	r1, #0
     de8:	2004      	movs	r0, #4
     dea:	f7ff fffe 	bl	d64 <bits_val>
     dee:	bd00      	pop	{pc}

00000df0 <call_bits_val_global>:
     df0:	b500      	push	{lr}
     df2:	2101      	movs	r1, #1
     df4:	2004      	movs	r0, #4
     df6:	f7ff fffe 	bl	d64 <bits_val>
     dfa:	bd00      	pop	{pc}

00000dfc <bits_ref>:
     dfc:	b570      	push	{r4, r5, r6, lr}
     dfe:	4b1f      	ldr	r3, [pc, #124]	; (e7c <bits_ref+0x80>)
     e00:	2200      	movs	r2, #0
     e02:	605a      	str	r2, [r3, #4]
     e04:	6803      	ldr	r3, [r0, #0]
     e06:	2b03      	cmp	r3, #3
     e08:	d025      	beq.n	e56 <bits_ref+0x5a>
     e0a:	2b04      	cmp	r3, #4
     e0c:	d011      	beq.n	e32 <bits_ref+0x36>
     e0e:	2b00      	cmp	r3, #0
     e10:	d000      	beq.n	e14 <bits_ref+0x18>
     e12:	bd70      	pop	{r4, r5, r6, pc}
     e14:	2001      	movs	r0, #1
     e16:	4a19      	ldr	r2, [pc, #100]	; (e7c <bits_ref+0x80>)
     e18:	680c      	ldr	r4, [r1, #0]
     e1a:	4004      	ands	r4, r0
     e1c:	6853      	ldr	r3, [r2, #4]
     e1e:	4383      	bics	r3, r0
     e20:	4323      	orrs	r3, r4
     e22:	6053      	str	r3, [r2, #4]
     e24:	6809      	ldr	r1, [r1, #0]
     e26:	4001      	ands	r1, r0
     e28:	6853      	ldr	r3, [r2, #4]
     e2a:	4383      	bics	r3, r0
     e2c:	430b      	orrs	r3, r1
     e2e:	6053      	str	r3, [r2, #4]
     e30:	e7ef      	b.n	e12 <bits_ref+0x16>
     e32:	2201      	movs	r2, #1
     e34:	4d11      	ldr	r5, [pc, #68]	; (e7c <bits_ref+0x80>)
     e36:	680c      	ldr	r4, [r1, #0]
     e38:	4014      	ands	r4, r2
     e3a:	01a4      	lsls	r4, r4, #6
     e3c:	6868      	ldr	r0, [r5, #4]
     e3e:	2640      	movs	r6, #64	; 0x40
     e40:	43b0      	bics	r0, r6
     e42:	4320      	orrs	r0, r4
     e44:	6068      	str	r0, [r5, #4]
     e46:	680b      	ldr	r3, [r1, #0]
     e48:	401a      	ands	r2, r3
     e4a:	0192      	lsls	r2, r2, #6
     e4c:	686b      	ldr	r3, [r5, #4]
     e4e:	43b3      	bics	r3, r6
     e50:	4313      	orrs	r3, r2
     e52:	606b      	str	r3, [r5, #4]
     e54:	e7dd      	b.n	e12 <bits_ref+0x16>
     e56:	2201      	movs	r2, #1
     e58:	4d08      	ldr	r5, [pc, #32]	; (e7c <bits_ref+0x80>)
     e5a:	680c      	ldr	r4, [r1, #0]
     e5c:	4014      	ands	r4, r2
     e5e:	0164      	lsls	r4, r4, #5
     e60:	6868      	ldr	r0, [r5, #4]
     e62:	2620      	movs	r6, #32
     e64:	43b0      	bics	r0, r6
     e66:	4320      	orrs	r0, r4
     e68:	6068      	str	r0, [r5, #4]
     e6a:	680b      	ldr	r3, [r1, #0]
     e6c:	401a      	ands	r2, r3
     e6e:	0152      	lsls	r2, r2, #5
     e70:	686b      	ldr	r3, [r5, #4]
     e72:	43b3      	bics	r3, r6
     e74:	4313      	orrs	r3, r2
     e76:	606b      	str	r3, [r5, #4]
     e78:	e7cb      	b.n	e12 <bits_ref+0x16>
     e7a:	46c0      	nop			; (mov r8, r8)
     e7c:	10001dc0 	.word	0x10001dc0

00000e80 <call_bits_ref_const>:
     e80:	b500      	push	{lr}
     e82:	b082      	sub	sp, #8
     e84:	2300      	movs	r3, #0
     e86:	9301      	str	r3, [sp, #4]
     e88:	3301      	adds	r3, #1
     e8a:	9300      	str	r3, [sp, #0]
     e8c:	4669      	mov	r1, sp
     e8e:	a801      	add	r0, sp, #4
     e90:	f7ff fffe 	bl	dfc <bits_ref>
     e94:	b002      	add	sp, #8
     e96:	bd00      	pop	{pc}

00000e98 <call_bits_ref_var>:
     e98:	b500      	push	{lr}
     e9a:	b082      	sub	sp, #8
     e9c:	2300      	movs	r3, #0
     e9e:	9301      	str	r3, [sp, #4]
     ea0:	3301      	adds	r3, #1
     ea2:	9300      	str	r3, [sp, #0]
     ea4:	4669      	mov	r1, sp
     ea6:	a801      	add	r0, sp, #4
     ea8:	f7ff fffe 	bl	dfc <bits_ref>
     eac:	b002      	add	sp, #8
     eae:	bd00      	pop	{pc}

00000eb0 <call_bits_ref_zero>:
     eb0:	b500      	push	{lr}
     eb2:	b082      	sub	sp, #8
     eb4:	2300      	movs	r3, #0
     eb6:	9301      	str	r3, [sp, #4]
     eb8:	9300      	str	r3, [sp, #0]
     eba:	4669      	mov	r1, sp
     ebc:	a801      	add	r0, sp, #4
     ebe:	f7ff fffe 	bl	dfc <bits_ref>
     ec2:	b002      	add	sp, #8
     ec4:	bd00      	pop	{pc}

00000ec6 <call_bits_ref_global>:
     ec6:	b500      	push	{lr}
     ec8:	b082      	sub	sp, #8
     eca:	2304      	movs	r3, #4
     ecc:	9301      	str	r3, [sp, #4]
     ece:	3b03      	subs	r3, #3
     ed0:	9300      	str	r3, [sp, #0]
     ed2:	4669      	mov	r1, sp
     ed4:	a801      	add	r0, sp, #4
     ed6:	f7ff fffe 	bl	dfc <bits_ref>
     eda:	b002      	add	sp, #8
     edc:	bd00      	pop	{pc}

00000ede <mskd_val>:
     ede:	b510      	push	{r4, lr}
     ee0:	2806      	cmp	r0, #6
     ee2:	d80f      	bhi.n	f04 <mskd_val+0x26>
     ee4:	0080      	lsls	r0, r0, #2
     ee6:	4b32      	ldr	r3, [pc, #200]	; (fb0 <mskd_val+0xd2>)
     ee8:	581b      	ldr	r3, [r3, r0]
     eea:	469f      	mov	pc, r3
     eec:	2001      	movs	r0, #1
     eee:	4a31      	ldr	r2, [pc, #196]	; (fb4 <mskd_val+0xd6>)
     ef0:	4001      	ands	r1, r0
     ef2:	000c      	movs	r4, r1
     ef4:	6853      	ldr	r3, [r2, #4]
     ef6:	4383      	bics	r3, r0
     ef8:	430b      	orrs	r3, r1
     efa:	6053      	str	r3, [r2, #4]
     efc:	6851      	ldr	r1, [r2, #4]
     efe:	4381      	bics	r1, r0
     f00:	4321      	orrs	r1, r4
     f02:	6051      	str	r1, [r2, #4]
     f04:	bd10      	pop	{r4, pc}
     f06:	4a2b      	ldr	r2, [pc, #172]	; (fb4 <mskd_val+0xd6>)
     f08:	2303      	movs	r3, #3
     f0a:	4019      	ands	r1, r3
     f0c:	0049      	lsls	r1, r1, #1
     f0e:	6853      	ldr	r3, [r2, #4]
     f10:	2006      	movs	r0, #6
     f12:	4383      	bics	r3, r0
     f14:	430b      	orrs	r3, r1
     f16:	6053      	str	r3, [r2, #4]
     f18:	6853      	ldr	r3, [r2, #4]
     f1a:	4383      	bics	r3, r0
     f1c:	4319      	orrs	r1, r3
     f1e:	6051      	str	r1, [r2, #4]
     f20:	e7f0      	b.n	f04 <mskd_val+0x26>
     f22:	4a24      	ldr	r2, [pc, #144]	; (fb4 <mskd_val+0xd6>)
     f24:	2303      	movs	r3, #3
     f26:	4019      	ands	r1, r3
     f28:	00c9      	lsls	r1, r1, #3
     f2a:	6853      	ldr	r3, [r2, #4]
     f2c:	2018      	movs	r0, #24
     f2e:	4383      	bics	r3, r0
     f30:	430b      	orrs	r3, r1
     f32:	6053      	str	r3, [r2, #4]
     f34:	6853      	ldr	r3, [r2, #4]
     f36:	4383      	bics	r3, r0
     f38:	4319      	orrs	r1, r3
     f3a:	6051      	str	r1, [r2, #4]
     f3c:	e7e2      	b.n	f04 <mskd_val+0x26>
     f3e:	4a1d      	ldr	r2, [pc, #116]	; (fb4 <mskd_val+0xd6>)
     f40:	2301      	movs	r3, #1
     f42:	4019      	ands	r1, r3
     f44:	0149      	lsls	r1, r1, #5
     f46:	6853      	ldr	r3, [r2, #4]
     f48:	2020      	movs	r0, #32
     f4a:	4383      	bics	r3, r0
     f4c:	430b      	orrs	r3, r1
     f4e:	6053      	str	r3, [r2, #4]
     f50:	6853      	ldr	r3, [r2, #4]
     f52:	4383      	bics	r3, r0
     f54:	4319      	orrs	r1, r3
     f56:	6051      	str	r1, [r2, #4]
     f58:	e7d4      	b.n	f04 <mskd_val+0x26>
     f5a:	4a16      	ldr	r2, [pc, #88]	; (fb4 <mskd_val+0xd6>)
     f5c:	2303      	movs	r3, #3
     f5e:	4019      	ands	r1, r3
     f60:	00c9      	lsls	r1, r1, #3
     f62:	6853      	ldr	r3, [r2, #4]
     f64:	2018      	movs	r0, #24
     f66:	4383      	bics	r3, r0
     f68:	430b      	orrs	r3, r1
     f6a:	6053      	str	r3, [r2, #4]
     f6c:	6853      	ldr	r3, [r2, #4]
     f6e:	4383      	bics	r3, r0
     f70:	4319      	orrs	r1, r3
     f72:	6051      	str	r1, [r2, #4]
     f74:	e7c6      	b.n	f04 <mskd_val+0x26>
     f76:	480f      	ldr	r0, [pc, #60]	; (fb4 <mskd_val+0xd6>)
     f78:	231f      	movs	r3, #31
     f7a:	4019      	ands	r1, r3
     f7c:	01c9      	lsls	r1, r1, #7
     f7e:	6842      	ldr	r2, [r0, #4]
     f80:	4c0d      	ldr	r4, [pc, #52]	; (fb8 <mskd_val+0xda>)
     f82:	4022      	ands	r2, r4
     f84:	430a      	orrs	r2, r1
     f86:	6042      	str	r2, [r0, #4]
     f88:	6843      	ldr	r3, [r0, #4]
     f8a:	4023      	ands	r3, r4
     f8c:	4319      	orrs	r1, r3
     f8e:	6041      	str	r1, [r0, #4]
     f90:	e7b8      	b.n	f04 <mskd_val+0x26>
     f92:	4808      	ldr	r0, [pc, #32]	; (fb4 <mskd_val+0xd6>)
     f94:	231f      	movs	r3, #31
     f96:	4019      	ands	r1, r3
     f98:	0309      	lsls	r1, r1, #12
     f9a:	6842      	ldr	r2, [r0, #4]
     f9c:	4c07      	ldr	r4, [pc, #28]	; (fbc <mskd_val+0xde>)
     f9e:	4022      	ands	r2, r4
     fa0:	430a      	orrs	r2, r1
     fa2:	6042      	str	r2, [r0, #4]
     fa4:	6843      	ldr	r3, [r0, #4]
     fa6:	4023      	ands	r3, r4
     fa8:	4319      	orrs	r1, r3
     faa:	6041      	str	r1, [r0, #4]
     fac:	e7aa      	b.n	f04 <mskd_val+0x26>
     fae:	46c0      	nop			; (mov r8, r8)
     fb0:	00000000 	.word	0x00000000
     fb4:	10001dc0 	.word	0x10001dc0
     fb8:	fffff07f 	.word	0xfffff07f
     fbc:	fffe0fff 	.word	0xfffe0fff

00000fc0 <call_mskd_val_const>:
     fc0:	b500      	push	{lr}
     fc2:	2101      	movs	r1, #1
     fc4:	2001      	movs	r0, #1
     fc6:	f7ff fffe 	bl	ede <mskd_val>
     fca:	2101      	movs	r1, #1
     fcc:	2001      	movs	r0, #1
     fce:	f7ff fffe 	bl	ede <mskd_val>
     fd2:	bd00      	pop	{pc}

00000fd4 <call_mskd_val_var>:
     fd4:	b500      	push	{lr}
     fd6:	2101      	movs	r1, #1
     fd8:	2001      	movs	r0, #1
     fda:	f7ff fffe 	bl	ede <mskd_val>
     fde:	2101      	movs	r1, #1
     fe0:	2001      	movs	r0, #1
     fe2:	f7ff fffe 	bl	ede <mskd_val>
     fe6:	bd00      	pop	{pc}

00000fe8 <call_mskd_val_global>:
     fe8:	b500      	push	{lr}
     fea:	2101      	movs	r1, #1
     fec:	2001      	movs	r0, #1
     fee:	f7ff fffe 	bl	ede <mskd_val>
     ff2:	bd00      	pop	{pc}

00000ff4 <mskd_ref>:
     ff4:	b570      	push	{r4, r5, r6, lr}
     ff6:	6803      	ldr	r3, [r0, #0]
     ff8:	2b06      	cmp	r3, #6
     ffa:	d811      	bhi.n	1020 <mskd_ref+0x2c>
     ffc:	009b      	lsls	r3, r3, #2
     ffe:	4a3f      	ldr	r2, [pc, #252]	; (10fc <mskd_ref+0x108>)
    1000:	58d3      	ldr	r3, [r2, r3]
    1002:	469f      	mov	pc, r3
    1004:	2001      	movs	r0, #1
    1006:	4a3e      	ldr	r2, [pc, #248]	; (1100 <mskd_ref+0x10c>)
    1008:	680c      	ldr	r4, [r1, #0]
    100a:	4004      	ands	r4, r0
    100c:	6853      	ldr	r3, [r2, #4]
    100e:	4383      	bics	r3, r0
    1010:	4323      	orrs	r3, r4
    1012:	6053      	str	r3, [r2, #4]
    1014:	6809      	ldr	r1, [r1, #0]
    1016:	4001      	ands	r1, r0
    1018:	6853      	ldr	r3, [r2, #4]
    101a:	4383      	bics	r3, r0
    101c:	430b      	orrs	r3, r1
    101e:	6053      	str	r3, [r2, #4]
    1020:	bd70      	pop	{r4, r5, r6, pc}
    1022:	2203      	movs	r2, #3
    1024:	4d36      	ldr	r5, [pc, #216]	; (1100 <mskd_ref+0x10c>)
    1026:	680c      	ldr	r4, [r1, #0]
    1028:	4014      	ands	r4, r2
    102a:	0064      	lsls	r4, r4, #1
    102c:	6868      	ldr	r0, [r5, #4]
    102e:	2606      	movs	r6, #6
    1030:	43b0      	bics	r0, r6
    1032:	4320      	orrs	r0, r4
    1034:	6068      	str	r0, [r5, #4]
    1036:	680b      	ldr	r3, [r1, #0]
    1038:	401a      	ands	r2, r3
    103a:	0052      	lsls	r2, r2, #1
    103c:	686b      	ldr	r3, [r5, #4]
    103e:	43b3      	bics	r3, r6
    1040:	4313      	orrs	r3, r2
    1042:	606b      	str	r3, [r5, #4]
    1044:	e7ec      	b.n	1020 <mskd_ref+0x2c>
    1046:	2203      	movs	r2, #3
    1048:	4d2d      	ldr	r5, [pc, #180]	; (1100 <mskd_ref+0x10c>)
    104a:	680c      	ldr	r4, [r1, #0]
    104c:	4014      	ands	r4, r2
    104e:	00e4      	lsls	r4, r4, #3
    1050:	6868      	ldr	r0, [r5, #4]
    1052:	2618      	movs	r6, #24
    1054:	43b0      	bics	r0, r6
    1056:	4320      	orrs	r0, r4
    1058:	6068      	str	r0, [r5, #4]
    105a:	680b      	ldr	r3, [r1, #0]
    105c:	401a      	ands	r2, r3
    105e:	00d2      	lsls	r2, r2, #3
    1060:	686b      	ldr	r3, [r5, #4]
    1062:	43b3      	bics	r3, r6
    1064:	4313      	orrs	r3, r2
    1066:	606b      	str	r3, [r5, #4]
    1068:	e7da      	b.n	1020 <mskd_ref+0x2c>
    106a:	2201      	movs	r2, #1
    106c:	4d24      	ldr	r5, [pc, #144]	; (1100 <mskd_ref+0x10c>)
    106e:	680c      	ldr	r4, [r1, #0]
    1070:	4014      	ands	r4, r2
    1072:	0164      	lsls	r4, r4, #5
    1074:	6868      	ldr	r0, [r5, #4]
    1076:	2620      	movs	r6, #32
    1078:	43b0      	bics	r0, r6
    107a:	4320      	orrs	r0, r4
    107c:	6068      	str	r0, [r5, #4]
    107e:	680b      	ldr	r3, [r1, #0]
    1080:	401a      	ands	r2, r3
    1082:	0152      	lsls	r2, r2, #5
    1084:	686b      	ldr	r3, [r5, #4]
    1086:	43b3      	bics	r3, r6
    1088:	4313      	orrs	r3, r2
    108a:	606b      	str	r3, [r5, #4]
    108c:	e7c8      	b.n	1020 <mskd_ref+0x2c>
    108e:	2203      	movs	r2, #3
    1090:	4d1b      	ldr	r5, [pc, #108]	; (1100 <mskd_ref+0x10c>)
    1092:	680c      	ldr	r4, [r1, #0]
    1094:	4014      	ands	r4, r2
    1096:	00e4      	lsls	r4, r4, #3
    1098:	6868      	ldr	r0, [r5, #4]
    109a:	2618      	movs	r6, #24
    109c:	43b0      	bics	r0, r6
    109e:	4320      	orrs	r0, r4
    10a0:	6068      	str	r0, [r5, #4]
    10a2:	680b      	ldr	r3, [r1, #0]
    10a4:	401a      	ands	r2, r3
    10a6:	00d2      	lsls	r2, r2, #3
    10a8:	686b      	ldr	r3, [r5, #4]
    10aa:	43b3      	bics	r3, r6
    10ac:	4313      	orrs	r3, r2
    10ae:	606b      	str	r3, [r5, #4]
    10b0:	e7b6      	b.n	1020 <mskd_ref+0x2c>
    10b2:	231f      	movs	r3, #31
    10b4:	4d12      	ldr	r5, [pc, #72]	; (1100 <mskd_ref+0x10c>)
    10b6:	680c      	ldr	r4, [r1, #0]
    10b8:	401c      	ands	r4, r3
    10ba:	01e4      	lsls	r4, r4, #7
    10bc:	6868      	ldr	r0, [r5, #4]
    10be:	4e11      	ldr	r6, [pc, #68]	; (1104 <mskd_ref+0x110>)
    10c0:	4030      	ands	r0, r6
    10c2:	4320      	orrs	r0, r4
    10c4:	6068      	str	r0, [r5, #4]
    10c6:	680a      	ldr	r2, [r1, #0]
    10c8:	401a      	ands	r2, r3
    10ca:	01d2      	lsls	r2, r2, #7
    10cc:	686b      	ldr	r3, [r5, #4]
    10ce:	4033      	ands	r3, r6
    10d0:	4313      	orrs	r3, r2
    10d2:	606b      	str	r3, [r5, #4]
    10d4:	e7a4      	b.n	1020 <mskd_ref+0x2c>
    10d6:	231f      	movs	r3, #31
    10d8:	4d09      	ldr	r5, [pc, #36]	; (1100 <mskd_ref+0x10c>)
    10da:	680c      	ldr	r4, [r1, #0]
    10dc:	401c      	ands	r4, r3
    10de:	0324      	lsls	r4, r4, #12
    10e0:	6868      	ldr	r0, [r5, #4]
    10e2:	4e09      	ldr	r6, [pc, #36]	; (1108 <mskd_ref+0x114>)
    10e4:	4030      	ands	r0, r6
    10e6:	4320      	orrs	r0, r4
    10e8:	6068      	str	r0, [r5, #4]
    10ea:	680a      	ldr	r2, [r1, #0]
    10ec:	401a      	ands	r2, r3
    10ee:	0312      	lsls	r2, r2, #12
    10f0:	686b      	ldr	r3, [r5, #4]
    10f2:	4033      	ands	r3, r6
    10f4:	4313      	orrs	r3, r2
    10f6:	606b      	str	r3, [r5, #4]
    10f8:	e792      	b.n	1020 <mskd_ref+0x2c>
    10fa:	46c0      	nop			; (mov r8, r8)
    10fc:	0000001c 	.word	0x0000001c
    1100:	10001dc0 	.word	0x10001dc0
    1104:	fffff07f 	.word	0xfffff07f
    1108:	fffe0fff 	.word	0xfffe0fff

0000110c <call_mskd_ref_const>:
    110c:	b500      	push	{lr}
    110e:	b082      	sub	sp, #8
    1110:	2301      	movs	r3, #1
    1112:	9301      	str	r3, [sp, #4]
    1114:	3301      	adds	r3, #1
    1116:	9300      	str	r3, [sp, #0]
    1118:	4669      	mov	r1, sp
    111a:	a801      	add	r0, sp, #4
    111c:	f7ff fffe 	bl	ff4 <mskd_ref>
    1120:	b002      	add	sp, #8
    1122:	bd00      	pop	{pc}

00001124 <call_mskd_ref_var>:
    1124:	b500      	push	{lr}
    1126:	b082      	sub	sp, #8
    1128:	2301      	movs	r3, #1
    112a:	9301      	str	r3, [sp, #4]
    112c:	9300      	str	r3, [sp, #0]
    112e:	4669      	mov	r1, sp
    1130:	a801      	add	r0, sp, #4
    1132:	f7ff fffe 	bl	ff4 <mskd_ref>
    1136:	b002      	add	sp, #8
    1138:	bd00      	pop	{pc}

0000113a <call_mskd_ref_global>:
    113a:	b500      	push	{lr}
    113c:	b082      	sub	sp, #8
    113e:	2301      	movs	r3, #1
    1140:	9301      	str	r3, [sp, #4]
    1142:	9300      	str	r3, [sp, #0]
    1144:	4669      	mov	r1, sp
    1146:	a801      	add	r0, sp, #4
    1148:	f7ff fffe 	bl	ff4 <mskd_ref>
    114c:	b002      	add	sp, #8
    114e:	bd00      	pop	{pc}

00001150 <periph_bits>:
    1150:	6843      	ldr	r3, [r0, #4]
    1152:	2240      	movs	r2, #64	; 0x40
    1154:	4313      	orrs	r3, r2
    1156:	6043      	str	r3, [r0, #4]
    1158:	4770      	bx	lr

0000115a <call_periph_bits>:
    115a:	b500      	push	{lr}
    115c:	4801      	ldr	r0, [pc, #4]	; (1164 <call_periph_bits+0xa>)
    115e:	f7ff fffe 	bl	1150 <periph_bits>
    1162:	bd00      	pop	{pc}
    1164:	10001dc0 	.word	0x10001dc0

00001168 <periph_bits_val>:
    1168:	2904      	cmp	r1, #4
    116a:	d000      	beq.n	116e <periph_bits_val+0x6>
    116c:	4770      	bx	lr
    116e:	6843      	ldr	r3, [r0, #4]
    1170:	2240      	movs	r2, #64	; 0x40
    1172:	4313      	orrs	r3, r2
    1174:	6043      	str	r3, [r0, #4]
    1176:	e7f9      	b.n	116c <periph_bits_val+0x4>

00001178 <call_periph_bits_val>:
    1178:	b500      	push	{lr}
    117a:	2104      	movs	r1, #4
    117c:	4801      	ldr	r0, [pc, #4]	; (1184 <call_periph_bits_val+0xc>)
    117e:	f7ff fffe 	bl	1168 <periph_bits_val>
    1182:	bd00      	pop	{pc}
    1184:	10001dc0 	.word	0x10001dc0

00001188 <reg_bits_val>:
    1188:	2904      	cmp	r1, #4
    118a:	d000      	beq.n	118e <reg_bits_val+0x6>
    118c:	4770      	bx	lr
    118e:	6803      	ldr	r3, [r0, #0]
    1190:	2240      	movs	r2, #64	; 0x40
    1192:	4313      	orrs	r3, r2
    1194:	6003      	str	r3, [r0, #0]
    1196:	e7f9      	b.n	118c <reg_bits_val+0x4>

00001198 <call_reg_bits_val>:
    1198:	b500      	push	{lr}
    119a:	2104      	movs	r1, #4
    119c:	4801      	ldr	r0, [pc, #4]	; (11a4 <call_reg_bits_val+0xc>)
    119e:	f7ff fffe 	bl	1188 <reg_bits_val>
    11a2:	bd00      	pop	{pc}
    11a4:	10001dc4 	.word	0x10001dc4

000011a8 <periph_bits_ref>:
    11a8:	680b      	ldr	r3, [r1, #0]
    11aa:	2b04      	cmp	r3, #4
    11ac:	d000      	beq.n	11b0 <periph_bits_ref+0x8>
    11ae:	4770      	bx	lr
    11b0:	6843      	ldr	r3, [r0, #4]
    11b2:	2240      	movs	r2, #64	; 0x40
    11b4:	4313      	orrs	r3, r2
    11b6:	6043      	str	r3, [r0, #4]
    11b8:	e7f9      	b.n	11ae <periph_bits_ref+0x6>

000011ba <call_periph_bits_ref>:
    11ba:	b500      	push	{lr}
    11bc:	b081      	sub	sp, #4
    11be:	2304      	movs	r3, #4
    11c0:	9300      	str	r3, [sp, #0]
    11c2:	4669      	mov	r1, sp
    11c4:	4802      	ldr	r0, [pc, #8]	; (11d0 <call_periph_bits_ref+0x16>)
    11c6:	f7ff fffe 	bl	11a8 <periph_bits_ref>
    11ca:	b001      	add	sp, #4
    11cc:	bd00      	pop	{pc}
    11ce:	46c0      	nop			; (mov r8, r8)
    11d0:	10001dc0 	.word	0x10001dc0

000011d4 <reg_bits_ref>:
    11d4:	680b      	ldr	r3, [r1, #0]
    11d6:	2b04      	cmp	r3, #4
    11d8:	d000      	beq.n	11dc <reg_bits_ref+0x8>
    11da:	4770      	bx	lr
    11dc:	6803      	ldr	r3, [r0, #0]
    11de:	2240      	movs	r2, #64	; 0x40
    11e0:	4313      	orrs	r3, r2
    11e2:	6003      	str	r3, [r0, #0]
    11e4:	e7f9      	b.n	11da <reg_bits_ref+0x6>

000011e6 <call_reg_bits_ref>:
    11e6:	b500      	push	{lr}
    11e8:	b081      	sub	sp, #4
    11ea:	2304      	movs	r3, #4
    11ec:	9300      	str	r3, [sp, #0]
    11ee:	4669      	mov	r1, sp
    11f0:	4802      	ldr	r0, [pc, #8]	; (11fc <call_reg_bits_ref+0x16>)
    11f2:	f7ff fffe 	bl	11d4 <reg_bits_ref>
    11f6:	b001      	add	sp, #4
    11f8:	bd00      	pop	{pc}
    11fa:	46c0      	nop			; (mov r8, r8)
    11fc:	10001dc4 	.word	0x10001dc4

00001200 <periph_mskd>:
    1200:	6843      	ldr	r3, [r0, #4]
    1202:	2206      	movs	r2, #6
    1204:	4393      	bics	r3, r2
    1206:	3a04      	subs	r2, #4
    1208:	4313      	orrs	r3, r2
    120a:	6043      	str	r3, [r0, #4]
    120c:	4770      	bx	lr

0000120e <call_periph_mskd>:
    120e:	b500      	push	{lr}
    1210:	4801      	ldr	r0, [pc, #4]	; (1218 <call_periph_mskd+0xa>)
    1212:	f7ff fffe 	bl	1200 <periph_mskd>
    1216:	bd00      	pop	{pc}
    1218:	10001dc0 	.word	0x10001dc0

0000121c <periph_mskd_val>:
    121c:	2901      	cmp	r1, #1
    121e:	d000      	beq.n	1222 <periph_mskd_val+0x6>
    1220:	4770      	bx	lr
    1222:	6843      	ldr	r3, [r0, #4]
    1224:	2206      	movs	r2, #6
    1226:	4393      	bics	r3, r2
    1228:	3a04      	subs	r2, #4
    122a:	4313      	orrs	r3, r2
    122c:	6043      	str	r3, [r0, #4]
    122e:	e7f7      	b.n	1220 <periph_mskd_val+0x4>

00001230 <call_periph_mskd_val>:
    1230:	b500      	push	{lr}
    1232:	2101      	movs	r1, #1
    1234:	4801      	ldr	r0, [pc, #4]	; (123c <call_periph_mskd_val+0xc>)
    1236:	f7ff fffe 	bl	121c <periph_mskd_val>
    123a:	bd00      	pop	{pc}
    123c:	10001dc0 	.word	0x10001dc0

00001240 <reg_mskd_val>:
    1240:	2901      	cmp	r1, #1
    1242:	d000      	beq.n	1246 <reg_mskd_val+0x6>
    1244:	4770      	bx	lr
    1246:	6803      	ldr	r3, [r0, #0]
    1248:	2206      	movs	r2, #6
    124a:	4393      	bics	r3, r2
    124c:	3a04      	subs	r2, #4
    124e:	4313      	orrs	r3, r2
    1250:	6003      	str	r3, [r0, #0]
    1252:	e7f7      	b.n	1244 <reg_mskd_val+0x4>

00001254 <call_reg_mskd_val>:
    1254:	b500      	push	{lr}
    1256:	2101      	movs	r1, #1
    1258:	4801      	ldr	r0, [pc, #4]	; (1260 <call_reg_mskd_val+0xc>)
    125a:	f7ff fffe 	bl	1240 <reg_mskd_val>
    125e:	bd00      	pop	{pc}
    1260:	10001dc4 	.word	0x10001dc4

00001264 <periph_mskd_ref>:
    1264:	680b      	ldr	r3, [r1, #0]
    1266:	2b01      	cmp	r3, #1
    1268:	d000      	beq.n	126c <periph_mskd_ref+0x8>
    126a:	4770      	bx	lr
    126c:	6843      	ldr	r3, [r0, #4]
    126e:	2206      	movs	r2, #6
    1270:	4393      	bics	r3, r2
    1272:	3a04      	subs	r2, #4
    1274:	4313      	orrs	r3, r2
    1276:	6043      	str	r3, [r0, #4]
    1278:	e7f7      	b.n	126a <periph_mskd_ref+0x6>

0000127a <call_periph_mskd_ref>:
    127a:	b500      	push	{lr}
    127c:	b081      	sub	sp, #4
    127e:	2301      	movs	r3, #1
    1280:	9300      	str	r3, [sp, #0]
    1282:	4669      	mov	r1, sp
    1284:	4802      	ldr	r0, [pc, #8]	; (1290 <call_periph_mskd_ref+0x16>)
    1286:	f7ff fffe 	bl	1264 <periph_mskd_ref>
    128a:	b001      	add	sp, #4
    128c:	bd00      	pop	{pc}
    128e:	46c0      	nop			; (mov r8, r8)
    1290:	10001dc0 	.word	0x10001dc0

00001294 <reg_mskd_ref>:
    1294:	680b      	ldr	r3, [r1, #0]
    1296:	2b01      	cmp	r3, #1
    1298:	d000      	beq.n	129c <reg_mskd_ref+0x8>
    129a:	4770      	bx	lr
    129c:	6803      	ldr	r3, [r0, #0]
    129e:	2206      	movs	r2, #6
    12a0:	4393      	bics	r3, r2
    12a2:	3a04      	subs	r2, #4
    12a4:	4313      	orrs	r3, r2
    12a6:	6003      	str	r3, [r0, #0]
    12a8:	e7f7      	b.n	129a <reg_mskd_ref+0x6>

000012aa <call_reg_mskd_ref>:
    12aa:	b500      	push	{lr}
    12ac:	b081      	sub	sp, #4
    12ae:	2301      	movs	r3, #1
    12b0:	9300      	str	r3, [sp, #0]
    12b2:	4669      	mov	r1, sp
    12b4:	4802      	ldr	r0, [pc, #8]	; (12c0 <call_reg_mskd_ref+0x16>)
    12b6:	f7ff fffe 	bl	1294 <reg_mskd_ref>
    12ba:	b001      	add	sp, #4
    12bc:	bd00      	pop	{pc}
    12be:	46c0      	nop			; (mov r8, r8)
    12c0:	10001dc4 	.word	0x10001dc4

000012c4 <return_bits>:
    12c4:	2001      	movs	r0, #1
    12c6:	4770      	bx	lr

000012c8 <call_return_bits>:
    12c8:	b500      	push	{lr}
    12ca:	f7ff fffe 	bl	12c4 <return_bits>
    12ce:	4b0a      	ldr	r3, [pc, #40]	; (12f8 <call_return_bits+0x30>)
    12d0:	2200      	movs	r2, #0
    12d2:	605a      	str	r2, [r3, #4]
    12d4:	2801      	cmp	r0, #1
    12d6:	d006      	beq.n	12e6 <call_return_bits+0x1e>
    12d8:	4a07      	ldr	r2, [pc, #28]	; (12f8 <call_return_bits+0x30>)
    12da:	6851      	ldr	r1, [r2, #4]
    12dc:	23f8      	movs	r3, #248	; 0xf8
    12de:	059b      	lsls	r3, r3, #22
    12e0:	430b      	orrs	r3, r1
    12e2:	6053      	str	r3, [r2, #4]
    12e4:	bd00      	pop	{pc}
    12e6:	0019      	movs	r1, r3
    12e8:	685b      	ldr	r3, [r3, #4]
    12ea:	4a04      	ldr	r2, [pc, #16]	; (12fc <call_return_bits+0x34>)
    12ec:	401a      	ands	r2, r3
    12ee:	23a8      	movs	r3, #168	; 0xa8
    12f0:	059b      	lsls	r3, r3, #22
    12f2:	4313      	orrs	r3, r2
    12f4:	604b      	str	r3, [r1, #4]
    12f6:	e7f5      	b.n	12e4 <call_return_bits+0x1c>
    12f8:	10001d20 	.word	0x10001d20
    12fc:	c1ffffff 	.word	0xc1ffffff

00001300 <return_mskd>:
    1300:	2302      	movs	r3, #2
    1302:	6003      	str	r3, [r0, #0]
    1304:	3b01      	subs	r3, #1
    1306:	600b      	str	r3, [r1, #0]
    1308:	4770      	bx	lr

0000130a <call_return_mskd>:
    130a:	b500      	push	{lr}
    130c:	b082      	sub	sp, #8
    130e:	4669      	mov	r1, sp
    1310:	a801      	add	r0, sp, #4
    1312:	f7ff fffe 	bl	1300 <return_mskd>
    1316:	4b0e      	ldr	r3, [pc, #56]	; (1350 <call_return_mskd+0x46>)
    1318:	2200      	movs	r2, #0
    131a:	605a      	str	r2, [r3, #4]
    131c:	9b01      	ldr	r3, [sp, #4]
    131e:	2b02      	cmp	r3, #2
    1320:	d009      	beq.n	1336 <call_return_mskd+0x2c>
    1322:	490b      	ldr	r1, [pc, #44]	; (1350 <call_return_mskd+0x46>)
    1324:	684b      	ldr	r3, [r1, #4]
    1326:	4a0b      	ldr	r2, [pc, #44]	; (1354 <call_return_mskd+0x4a>)
    1328:	401a      	ands	r2, r3
    132a:	2398      	movs	r3, #152	; 0x98
    132c:	059b      	lsls	r3, r3, #22
    132e:	4313      	orrs	r3, r2
    1330:	604b      	str	r3, [r1, #4]
    1332:	b002      	add	sp, #8
    1334:	bd00      	pop	{pc}
    1336:	9b00      	ldr	r3, [sp, #0]
    1338:	2b01      	cmp	r3, #1
    133a:	d1f2      	bne.n	1322 <call_return_mskd+0x18>
    133c:	4904      	ldr	r1, [pc, #16]	; (1350 <call_return_mskd+0x46>)
    133e:	684b      	ldr	r3, [r1, #4]
    1340:	4a04      	ldr	r2, [pc, #16]	; (1354 <call_return_mskd+0x4a>)
    1342:	401a      	ands	r2, r3
    1344:	2388      	movs	r3, #136	; 0x88
    1346:	059b      	lsls	r3, r3, #22
    1348:	4313      	orrs	r3, r2
    134a:	604b      	str	r3, [r1, #4]
    134c:	e7f1      	b.n	1332 <call_return_mskd+0x28>
    134e:	46c0      	nop			; (mov r8, r8)
    1350:	10001d20 	.word	0x10001d20
    1354:	c1ffffff 	.word	0xc1ffffff

00001358 <return_reg>:
    1358:	4b04      	ldr	r3, [pc, #16]	; (136c <return_reg+0x14>)
    135a:	2200      	movs	r2, #0
    135c:	605a      	str	r2, [r3, #4]
    135e:	685a      	ldr	r2, [r3, #4]
    1360:	2140      	movs	r1, #64	; 0x40
    1362:	430a      	orrs	r2, r1
    1364:	605a      	str	r2, [r3, #4]
    1366:	4802      	ldr	r0, [pc, #8]	; (1370 <return_reg+0x18>)
    1368:	4770      	bx	lr
    136a:	46c0      	nop			; (mov r8, r8)
    136c:	10001dc0 	.word	0x10001dc0
    1370:	10001dc4 	.word	0x10001dc4

00001374 <call_return_reg>:
    1374:	b500      	push	{lr}
    1376:	f7ff fffe 	bl	1358 <return_reg>
    137a:	4b0c      	ldr	r3, [pc, #48]	; (13ac <call_return_reg+0x38>)
    137c:	2200      	movs	r2, #0
    137e:	605a      	str	r2, [r3, #4]
    1380:	6803      	ldr	r3, [r0, #0]
    1382:	065b      	lsls	r3, r3, #25
    1384:	d508      	bpl.n	1398 <call_return_reg+0x24>
    1386:	4909      	ldr	r1, [pc, #36]	; (13ac <call_return_reg+0x38>)
    1388:	684b      	ldr	r3, [r1, #4]
    138a:	4a09      	ldr	r2, [pc, #36]	; (13b0 <call_return_reg+0x3c>)
    138c:	401a      	ands	r2, r3
    138e:	23f0      	movs	r3, #240	; 0xf0
    1390:	055b      	lsls	r3, r3, #21
    1392:	4313      	orrs	r3, r2
    1394:	604b      	str	r3, [r1, #4]
    1396:	bd00      	pop	{pc}
    1398:	4904      	ldr	r1, [pc, #16]	; (13ac <call_return_reg+0x38>)
    139a:	684b      	ldr	r3, [r1, #4]
    139c:	4a04      	ldr	r2, [pc, #16]	; (13b0 <call_return_reg+0x3c>)
    139e:	401a      	ands	r2, r3
    13a0:	23b8      	movs	r3, #184	; 0xb8
    13a2:	059b      	lsls	r3, r3, #22
    13a4:	4313      	orrs	r3, r2
    13a6:	604b      	str	r3, [r1, #4]
    13a8:	e7f5      	b.n	1396 <call_return_reg+0x22>
    13aa:	46c0      	nop			; (mov r8, r8)
    13ac:	10001d20 	.word	0x10001d20
    13b0:	c1ffffff 	.word	0xc1ffffff

000013b4 <return_periph>:
    13b4:	4803      	ldr	r0, [pc, #12]	; (13c4 <return_periph+0x10>)
    13b6:	2300      	movs	r3, #0
    13b8:	6043      	str	r3, [r0, #4]
    13ba:	6843      	ldr	r3, [r0, #4]
    13bc:	2240      	movs	r2, #64	; 0x40
    13be:	4313      	orrs	r3, r2
    13c0:	6043      	str	r3, [r0, #4]
    13c2:	4770      	bx	lr
    13c4:	10001dc0 	.word	0x10001dc0

000013c8 <call_return_periph>:
    13c8:	b500      	push	{lr}
    13ca:	f7ff fffe 	bl	13b4 <return_periph>
    13ce:	6843      	ldr	r3, [r0, #4]
    13d0:	065b      	lsls	r3, r3, #25
    13d2:	d508      	bpl.n	13e6 <call_return_periph+0x1e>
    13d4:	4908      	ldr	r1, [pc, #32]	; (13f8 <call_return_periph+0x30>)
    13d6:	684b      	ldr	r3, [r1, #4]
    13d8:	4a08      	ldr	r2, [pc, #32]	; (13fc <call_return_periph+0x34>)
    13da:	401a      	ands	r2, r3
    13dc:	2398      	movs	r3, #152	; 0x98
    13de:	059b      	lsls	r3, r3, #22
    13e0:	4313      	orrs	r3, r2
    13e2:	604b      	str	r3, [r1, #4]
    13e4:	bd00      	pop	{pc}
    13e6:	4904      	ldr	r1, [pc, #16]	; (13f8 <call_return_periph+0x30>)
    13e8:	684b      	ldr	r3, [r1, #4]
    13ea:	4a04      	ldr	r2, [pc, #16]	; (13fc <call_return_periph+0x34>)
    13ec:	401a      	ands	r2, r3
    13ee:	23a8      	movs	r3, #168	; 0xa8
    13f0:	059b      	lsls	r3, r3, #22
    13f2:	4313      	orrs	r3, r2
    13f4:	604b      	str	r3, [r1, #4]
    13f6:	e7f5      	b.n	13e4 <call_return_periph+0x1c>
    13f8:	10001d20 	.word	0x10001d20
    13fc:	c1ffffff 	.word	0xc1ffffff

00001400 <pos_val>:
    1400:	2803      	cmp	r0, #3
    1402:	d005      	beq.n	1410 <pos_val+0x10>
    1404:	2804      	cmp	r0, #4
    1406:	d007      	beq.n	1418 <pos_val+0x18>
    1408:	4b05      	ldr	r3, [pc, #20]	; (1420 <pos_val+0x20>)
    140a:	2255      	movs	r2, #85	; 0x55
    140c:	62da      	str	r2, [r3, #44]	; 0x2c
    140e:	4770      	bx	lr
    1410:	4b03      	ldr	r3, [pc, #12]	; (1420 <pos_val+0x20>)
    1412:	2233      	movs	r2, #51	; 0x33
    1414:	62da      	str	r2, [r3, #44]	; 0x2c
    1416:	e7fa      	b.n	140e <pos_val+0xe>
    1418:	4b01      	ldr	r3, [pc, #4]	; (1420 <pos_val+0x20>)
    141a:	2244      	movs	r2, #68	; 0x44
    141c:	62da      	str	r2, [r3, #44]	; 0x2c
    141e:	e7f6      	b.n	140e <pos_val+0xe>
    1420:	10001c00 	.word	0x10001c00

00001424 <call_pos_val>:
    1424:	b500      	push	{lr}
    1426:	2003      	movs	r0, #3
    1428:	f7ff fffe 	bl	1400 <pos_val>
    142c:	2004      	movs	r0, #4
    142e:	f7ff fffe 	bl	1400 <pos_val>
    1432:	bd00      	pop	{pc}

00001434 <call_pos_val_global>:
    1434:	b500      	push	{lr}
    1436:	2004      	movs	r0, #4
    1438:	f7ff fffe 	bl	1400 <pos_val>
    143c:	bd00      	pop	{pc}

0000143e <pos_ref>:
    143e:	6803      	ldr	r3, [r0, #0]
    1440:	2b03      	cmp	r3, #3
    1442:	d005      	beq.n	1450 <pos_ref+0x12>
    1444:	2b04      	cmp	r3, #4
    1446:	d007      	beq.n	1458 <pos_ref+0x1a>
    1448:	4b05      	ldr	r3, [pc, #20]	; (1460 <pos_ref+0x22>)
    144a:	2288      	movs	r2, #136	; 0x88
    144c:	62da      	str	r2, [r3, #44]	; 0x2c
    144e:	4770      	bx	lr
    1450:	4b03      	ldr	r3, [pc, #12]	; (1460 <pos_ref+0x22>)
    1452:	2266      	movs	r2, #102	; 0x66
    1454:	62da      	str	r2, [r3, #44]	; 0x2c
    1456:	e7fa      	b.n	144e <pos_ref+0x10>
    1458:	4b01      	ldr	r3, [pc, #4]	; (1460 <pos_ref+0x22>)
    145a:	2277      	movs	r2, #119	; 0x77
    145c:	62da      	str	r2, [r3, #44]	; 0x2c
    145e:	e7f6      	b.n	144e <pos_ref+0x10>
    1460:	10001c00 	.word	0x10001c00

00001464 <call_pos_ref>:
    1464:	b500      	push	{lr}
    1466:	b081      	sub	sp, #4
    1468:	2303      	movs	r3, #3
    146a:	9300      	str	r3, [sp, #0]
    146c:	4668      	mov	r0, sp
    146e:	f7ff fffe 	bl	143e <pos_ref>
    1472:	4668      	mov	r0, sp
    1474:	f7ff fffe 	bl	143e <pos_ref>
    1478:	b001      	add	sp, #4
    147a:	bd00      	pop	{pc}

0000147c <call_pos_ref_global>:
    147c:	b500      	push	{lr}
    147e:	b081      	sub	sp, #4
    1480:	2304      	movs	r3, #4
    1482:	9300      	str	r3, [sp, #0]
    1484:	4668      	mov	r0, sp
    1486:	f7ff fffe 	bl	143e <pos_ref>
    148a:	b001      	add	sp, #4
    148c:	bd00      	pop	{pc}

0000148e <runtime_range_val>:
    148e:	4a05      	ldr	r2, [pc, #20]	; (14a4 <runtime_range_val+0x16>)
    1490:	231f      	movs	r3, #31
    1492:	4003      	ands	r3, r0
    1494:	031b      	lsls	r3, r3, #12
    1496:	6850      	ldr	r0, [r2, #4]
    1498:	4903      	ldr	r1, [pc, #12]	; (14a8 <runtime_range_val+0x1a>)
    149a:	4008      	ands	r0, r1
    149c:	4318      	orrs	r0, r3
    149e:	6050      	str	r0, [r2, #4]
    14a0:	4770      	bx	lr
    14a2:	46c0      	nop			; (mov r8, r8)
    14a4:	10001dc0 	.word	0x10001dc0
    14a8:	fffe0fff 	.word	0xfffe0fff

000014ac <call_range_val>:
    14ac:	b500      	push	{lr}
    14ae:	23ff      	movs	r3, #255	; 0xff
    14b0:	4018      	ands	r0, r3
    14b2:	f7ff fffe 	bl	148e <runtime_range_val>
    14b6:	bd00      	pop	{pc}

000014b8 <call_range_val_port>:
    14b8:	b500      	push	{lr}
    14ba:	201f      	movs	r0, #31
    14bc:	f7ff fffe 	bl	14ac <call_range_val>
    14c0:	bd00      	pop	{pc}

000014c2 <runtime_range_ref>:
    14c2:	6802      	ldr	r2, [r0, #0]
    14c4:	4904      	ldr	r1, [pc, #16]	; (14d8 <runtime_range_ref+0x16>)
    14c6:	231f      	movs	r3, #31
    14c8:	401a      	ands	r2, r3
    14ca:	0312      	lsls	r2, r2, #12
    14cc:	684b      	ldr	r3, [r1, #4]
    14ce:	4803      	ldr	r0, [pc, #12]	; (14dc <runtime_range_ref+0x1a>)
    14d0:	4003      	ands	r3, r0
    14d2:	4313      	orrs	r3, r2
    14d4:	604b      	str	r3, [r1, #4]
    14d6:	4770      	bx	lr
    14d8:	10001dc0 	.word	0x10001dc0
    14dc:	fffe0fff 	.word	0xfffe0fff

000014e0 <call_range_ref>:
    14e0:	b500      	push	{lr}
    14e2:	b081      	sub	sp, #4
    14e4:	9000      	str	r0, [sp, #0]
    14e6:	4668      	mov	r0, sp
    14e8:	f7ff fffe 	bl	14c2 <runtime_range_ref>
    14ec:	b001      	add	sp, #4
    14ee:	bd00      	pop	{pc}

000014f0 <call_range_ref_port>:
    14f0:	b500      	push	{lr}
    14f2:	200c      	movs	r0, #12
    14f4:	f7ff fffe 	bl	14e0 <call_range_ref>
    14f8:	bd00      	pop	{pc}

000014fa <check_array_range_pass>:
    14fa:	2816      	cmp	r0, #22
    14fc:	d803      	bhi.n	1506 <check_array_range_pass+0xc>
    14fe:	4b04      	ldr	r3, [pc, #16]	; (1510 <check_array_range_pass+0x16>)
    1500:	227f      	movs	r2, #127	; 0x7f
    1502:	62da      	str	r2, [r3, #44]	; 0x2c
    1504:	4770      	bx	lr
    1506:	4b02      	ldr	r3, [pc, #8]	; (1510 <check_array_range_pass+0x16>)
    1508:	2283      	movs	r2, #131	; 0x83
    150a:	62da      	str	r2, [r3, #44]	; 0x2c
    150c:	e7fa      	b.n	1504 <check_array_range_pass+0xa>
    150e:	46c0      	nop			; (mov r8, r8)
    1510:	10001c00 	.word	0x10001c00

00001514 <check_array_range_fail>:
    1514:	2816      	cmp	r0, #22
    1516:	d803      	bhi.n	1520 <check_array_range_fail+0xc>
    1518:	4b03      	ldr	r3, [pc, #12]	; (1528 <check_array_range_fail+0x14>)
    151a:	2295      	movs	r2, #149	; 0x95
    151c:	62da      	str	r2, [r3, #44]	; 0x2c
    151e:	4770      	bx	lr
    1520:	4b01      	ldr	r3, [pc, #4]	; (1528 <check_array_range_fail+0x14>)
    1522:	2297      	movs	r2, #151	; 0x97
    1524:	62da      	str	r2, [r3, #44]	; 0x2c
    1526:	e7fa      	b.n	151e <check_array_range_fail+0xa>
    1528:	10001c00 	.word	0x10001c00

0000152c <check_bits_range_pass>:
    152c:	280f      	cmp	r0, #15
    152e:	d803      	bhi.n	1538 <check_bits_range_pass+0xc>
    1530:	4b03      	ldr	r3, [pc, #12]	; (1540 <check_bits_range_pass+0x14>)
    1532:	229d      	movs	r2, #157	; 0x9d
    1534:	62da      	str	r2, [r3, #44]	; 0x2c
    1536:	4770      	bx	lr
    1538:	4b01      	ldr	r3, [pc, #4]	; (1540 <check_bits_range_pass+0x14>)
    153a:	22a3      	movs	r2, #163	; 0xa3
    153c:	62da      	str	r2, [r3, #44]	; 0x2c
    153e:	e7fa      	b.n	1536 <check_bits_range_pass+0xa>
    1540:	10001c00 	.word	0x10001c00

00001544 <check_bits_range_fail>:
    1544:	280f      	cmp	r0, #15
    1546:	d803      	bhi.n	1550 <check_bits_range_fail+0xc>
    1548:	4b03      	ldr	r3, [pc, #12]	; (1558 <check_bits_range_fail+0x14>)
    154a:	22a7      	movs	r2, #167	; 0xa7
    154c:	62da      	str	r2, [r3, #44]	; 0x2c
    154e:	4770      	bx	lr
    1550:	4b01      	ldr	r3, [pc, #4]	; (1558 <check_bits_range_fail+0x14>)
    1552:	22ad      	movs	r2, #173	; 0xad
    1554:	62da      	str	r2, [r3, #44]	; 0x2c
    1556:	e7fa      	b.n	154e <check_bits_range_fail+0xa>
    1558:	10001c00 	.word	0x10001c00

0000155c <check_mskd_range_pass>:
    155c:	281f      	cmp	r0, #31
    155e:	d803      	bhi.n	1568 <check_mskd_range_pass+0xc>
    1560:	4b03      	ldr	r3, [pc, #12]	; (1570 <check_mskd_range_pass+0x14>)
    1562:	22b3      	movs	r2, #179	; 0xb3
    1564:	62da      	str	r2, [r3, #44]	; 0x2c
    1566:	4770      	bx	lr
    1568:	4b01      	ldr	r3, [pc, #4]	; (1570 <check_mskd_range_pass+0x14>)
    156a:	22b5      	movs	r2, #181	; 0xb5
    156c:	62da      	str	r2, [r3, #44]	; 0x2c
    156e:	e7fa      	b.n	1566 <check_mskd_range_pass+0xa>
    1570:	10001c00 	.word	0x10001c00

00001574 <check_mskd_range_fail>:
    1574:	281f      	cmp	r0, #31
    1576:	d803      	bhi.n	1580 <check_mskd_range_fail+0xc>
    1578:	4b03      	ldr	r3, [pc, #12]	; (1588 <check_mskd_range_fail+0x14>)
    157a:	22bf      	movs	r2, #191	; 0xbf
    157c:	62da      	str	r2, [r3, #44]	; 0x2c
    157e:	4770      	bx	lr
    1580:	4b01      	ldr	r3, [pc, #4]	; (1588 <check_mskd_range_fail+0x14>)
    1582:	22c1      	movs	r2, #193	; 0xc1
    1584:	62da      	str	r2, [r3, #44]	; 0x2c
    1586:	e7fa      	b.n	157e <check_mskd_range_fail+0xa>
    1588:	10001c00 	.word	0x10001c00

0000158c <bits_extract_ne>:
    158c:	4b0c      	ldr	r3, [pc, #48]	; (15c0 <bits_extract_ne+0x34>)
    158e:	685a      	ldr	r2, [r3, #4]
    1590:	2120      	movs	r1, #32
    1592:	430a      	orrs	r2, r1
    1594:	605a      	str	r2, [r3, #4]
    1596:	685a      	ldr	r2, [r3, #4]
    1598:	2100      	movs	r1, #0
    159a:	6059      	str	r1, [r3, #4]
    159c:	0693      	lsls	r3, r2, #26
    159e:	d407      	bmi.n	15b0 <bits_extract_ne+0x24>
    15a0:	4a07      	ldr	r2, [pc, #28]	; (15c0 <bits_extract_ne+0x34>)
    15a2:	6853      	ldr	r3, [r2, #4]
    15a4:	3106      	adds	r1, #6
    15a6:	438b      	bics	r3, r1
    15a8:	3904      	subs	r1, #4
    15aa:	430b      	orrs	r3, r1
    15ac:	6053      	str	r3, [r2, #4]
    15ae:	4770      	bx	lr
    15b0:	4a03      	ldr	r2, [pc, #12]	; (15c0 <bits_extract_ne+0x34>)
    15b2:	6853      	ldr	r3, [r2, #4]
    15b4:	2106      	movs	r1, #6
    15b6:	438b      	bics	r3, r1
    15b8:	3902      	subs	r1, #2
    15ba:	430b      	orrs	r3, r1
    15bc:	6053      	str	r3, [r2, #4]
    15be:	e7f6      	b.n	15ae <bits_extract_ne+0x22>
    15c0:	10001dc0 	.word	0x10001dc0

000015c4 <mskd_extract_geq>:
    15c4:	4b0f      	ldr	r3, [pc, #60]	; (1604 <mskd_extract_geq+0x40>)
    15c6:	2000      	movs	r0, #0
    15c8:	6058      	str	r0, [r3, #4]
    15ca:	685a      	ldr	r2, [r3, #4]
    15cc:	490e      	ldr	r1, [pc, #56]	; (1608 <mskd_extract_geq+0x44>)
    15ce:	4011      	ands	r1, r2
    15d0:	22b0      	movs	r2, #176	; 0xb0
    15d2:	0552      	lsls	r2, r2, #21
    15d4:	430a      	orrs	r2, r1
    15d6:	605a      	str	r2, [r3, #4]
    15d8:	685b      	ldr	r3, [r3, #4]
    15da:	4a0c      	ldr	r2, [pc, #48]	; (160c <mskd_extract_geq+0x48>)
    15dc:	6050      	str	r0, [r2, #4]
    15de:	009a      	lsls	r2, r3, #2
    15e0:	0ed2      	lsrs	r2, r2, #27
    15e2:	2a09      	cmp	r2, #9
    15e4:	d907      	bls.n	15f6 <mskd_extract_geq+0x32>
    15e6:	2a0a      	cmp	r2, #10
    15e8:	d905      	bls.n	15f6 <mskd_extract_geq+0x32>
    15ea:	4a08      	ldr	r2, [pc, #32]	; (160c <mskd_extract_geq+0x48>)
    15ec:	6853      	ldr	r3, [r2, #4]
    15ee:	2120      	movs	r1, #32
    15f0:	430b      	orrs	r3, r1
    15f2:	6053      	str	r3, [r2, #4]
    15f4:	e004      	b.n	1600 <mskd_extract_geq+0x3c>
    15f6:	4a05      	ldr	r2, [pc, #20]	; (160c <mskd_extract_geq+0x48>)
    15f8:	6853      	ldr	r3, [r2, #4]
    15fa:	2140      	movs	r1, #64	; 0x40
    15fc:	430b      	orrs	r3, r1
    15fe:	6053      	str	r3, [r2, #4]
    1600:	4770      	bx	lr
    1602:	46c0      	nop			; (mov r8, r8)
    1604:	10001d20 	.word	0x10001d20
    1608:	c1ffffff 	.word	0xc1ffffff
    160c:	10001dc0 	.word	0x10001dc0

00001610 <shifted_val>:
    1610:	4b09      	ldr	r3, [pc, #36]	; (1638 <shifted_val+0x28>)
    1612:	2200      	movs	r2, #0
    1614:	605a      	str	r2, [r3, #4]
    1616:	685a      	ldr	r2, [r3, #4]
    1618:	4908      	ldr	r1, [pc, #32]	; (163c <shifted_val+0x2c>)
    161a:	4011      	ands	r1, r2
    161c:	22b8      	movs	r2, #184	; 0xb8
    161e:	0592      	lsls	r2, r2, #22
    1620:	430a      	orrs	r2, r1
    1622:	605a      	str	r2, [r3, #4]
    1624:	2801      	cmp	r0, #1
    1626:	d000      	beq.n	162a <shifted_val+0x1a>
    1628:	4770      	bx	lr
    162a:	685b      	ldr	r3, [r3, #4]
    162c:	009b      	lsls	r3, r3, #2
    162e:	0edb      	lsrs	r3, r3, #27
    1630:	4a03      	ldr	r2, [pc, #12]	; (1640 <shifted_val+0x30>)
    1632:	62d3      	str	r3, [r2, #44]	; 0x2c
    1634:	e7f8      	b.n	1628 <shifted_val+0x18>
    1636:	46c0      	nop			; (mov r8, r8)
    1638:	10001d20 	.word	0x10001d20
    163c:	c1ffffff 	.word	0xc1ffffff
    1640:	10001c00 	.word	0x10001c00

00001644 <call_shifted_const_val>:
    1644:	b500      	push	{lr}
    1646:	2001      	movs	r0, #1
    1648:	f7ff fffe 	bl	1610 <shifted_val>
    164c:	bd00      	pop	{pc}

0000164e <call_shifted_var_val>:
    164e:	b500      	push	{lr}
    1650:	2001      	movs	r0, #1
    1652:	f7ff fffe 	bl	1610 <shifted_val>
    1656:	bd00      	pop	{pc}

00001658 <call_shifted_global_val>:
    1658:	b500      	push	{lr}
    165a:	2001      	movs	r0, #1
    165c:	f7ff fffe 	bl	1610 <shifted_val>
    1660:	bd00      	pop	{pc}

00001662 <shifted_ref>:
    1662:	4b0a      	ldr	r3, [pc, #40]	; (168c <shifted_ref+0x2a>)
    1664:	2200      	movs	r2, #0
    1666:	605a      	str	r2, [r3, #4]
    1668:	685a      	ldr	r2, [r3, #4]
    166a:	4909      	ldr	r1, [pc, #36]	; (1690 <shifted_ref+0x2e>)
    166c:	4011      	ands	r1, r2
    166e:	22b8      	movs	r2, #184	; 0xb8
    1670:	0592      	lsls	r2, r2, #22
    1672:	430a      	orrs	r2, r1
    1674:	605a      	str	r2, [r3, #4]
    1676:	6803      	ldr	r3, [r0, #0]
    1678:	2b01      	cmp	r3, #1
    167a:	d000      	beq.n	167e <shifted_ref+0x1c>
    167c:	4770      	bx	lr
    167e:	4b03      	ldr	r3, [pc, #12]	; (168c <shifted_ref+0x2a>)
    1680:	685b      	ldr	r3, [r3, #4]
    1682:	009b      	lsls	r3, r3, #2
    1684:	0edb      	lsrs	r3, r3, #27
    1686:	4a03      	ldr	r2, [pc, #12]	; (1694 <shifted_ref+0x32>)
    1688:	62d3      	str	r3, [r2, #44]	; 0x2c
    168a:	e7f7      	b.n	167c <shifted_ref+0x1a>
    168c:	10001d20 	.word	0x10001d20
    1690:	c1ffffff 	.word	0xc1ffffff
    1694:	10001c00 	.word	0x10001c00

00001698 <call_shifted_const_ref>:
    1698:	b500      	push	{lr}
    169a:	b081      	sub	sp, #4
    169c:	2301      	movs	r3, #1
    169e:	9300      	str	r3, [sp, #0]
    16a0:	4668      	mov	r0, sp
    16a2:	f7ff fffe 	bl	1662 <shifted_ref>
    16a6:	b001      	add	sp, #4
    16a8:	bd00      	pop	{pc}

000016aa <call_shifted_var_ref>:
    16aa:	b500      	push	{lr}
    16ac:	b081      	sub	sp, #4
    16ae:	2301      	movs	r3, #1
    16b0:	9300      	str	r3, [sp, #0]
    16b2:	4668      	mov	r0, sp
    16b4:	f7ff fffe 	bl	1662 <shifted_ref>
    16b8:	b001      	add	sp, #4
    16ba:	bd00      	pop	{pc}

000016bc <call_shifted_global_ref>:
    16bc:	b500      	push	{lr}
    16be:	b081      	sub	sp, #4
    16c0:	2301      	movs	r3, #1
    16c2:	9300      	str	r3, [sp, #0]
    16c4:	4668      	mov	r0, sp
    16c6:	f7ff fffe 	bl	1662 <shifted_ref>
    16ca:	b001      	add	sp, #4
    16cc:	bd00      	pop	{pc}

000016ce <copy_bits_val>:
    16ce:	4b0a      	ldr	r3, [pc, #40]	; (16f8 <copy_bits_val+0x2a>)
    16d0:	2200      	movs	r2, #0
    16d2:	605a      	str	r2, [r3, #4]
    16d4:	2801      	cmp	r0, #1
    16d6:	d007      	beq.n	16e8 <copy_bits_val+0x1a>
    16d8:	4a07      	ldr	r2, [pc, #28]	; (16f8 <copy_bits_val+0x2a>)
    16da:	6853      	ldr	r3, [r2, #4]
    16dc:	2106      	movs	r1, #6
    16de:	438b      	bics	r3, r1
    16e0:	3902      	subs	r1, #2
    16e2:	430b      	orrs	r3, r1
    16e4:	6053      	str	r3, [r2, #4]
    16e6:	4770      	bx	lr
    16e8:	001a      	movs	r2, r3
    16ea:	685b      	ldr	r3, [r3, #4]
    16ec:	2106      	movs	r1, #6
    16ee:	438b      	bics	r3, r1
    16f0:	3904      	subs	r1, #4
    16f2:	430b      	orrs	r3, r1
    16f4:	6053      	str	r3, [r2, #4]
    16f6:	e7f6      	b.n	16e6 <copy_bits_val+0x18>
    16f8:	10001dc0 	.word	0x10001dc0

000016fc <call_copy_bits_val>:
    16fc:	b500      	push	{lr}
    16fe:	4b06      	ldr	r3, [pc, #24]	; (1718 <call_copy_bits_val+0x1c>)
    1700:	2200      	movs	r2, #0
    1702:	605a      	str	r2, [r3, #4]
    1704:	685a      	ldr	r2, [r3, #4]
    1706:	2140      	movs	r1, #64	; 0x40
    1708:	430a      	orrs	r2, r1
    170a:	605a      	str	r2, [r3, #4]
    170c:	6858      	ldr	r0, [r3, #4]
    170e:	0640      	lsls	r0, r0, #25
    1710:	0fc0      	lsrs	r0, r0, #31
    1712:	f7ff fffe 	bl	16ce <copy_bits_val>
    1716:	bd00      	pop	{pc}
    1718:	10001dc0 	.word	0x10001dc0

0000171c <copy_bits_ref>:
    171c:	4b0a      	ldr	r3, [pc, #40]	; (1748 <copy_bits_ref+0x2c>)
    171e:	2200      	movs	r2, #0
    1720:	605a      	str	r2, [r3, #4]
    1722:	6803      	ldr	r3, [r0, #0]
    1724:	2b01      	cmp	r3, #1
    1726:	d007      	beq.n	1738 <copy_bits_ref+0x1c>
    1728:	4a07      	ldr	r2, [pc, #28]	; (1748 <copy_bits_ref+0x2c>)
    172a:	6853      	ldr	r3, [r2, #4]
    172c:	2106      	movs	r1, #6
    172e:	438b      	bics	r3, r1
    1730:	3902      	subs	r1, #2
    1732:	430b      	orrs	r3, r1
    1734:	6053      	str	r3, [r2, #4]
    1736:	4770      	bx	lr
    1738:	4a03      	ldr	r2, [pc, #12]	; (1748 <copy_bits_ref+0x2c>)
    173a:	6853      	ldr	r3, [r2, #4]
    173c:	2106      	movs	r1, #6
    173e:	438b      	bics	r3, r1
    1740:	3904      	subs	r1, #4
    1742:	430b      	orrs	r3, r1
    1744:	6053      	str	r3, [r2, #4]
    1746:	e7f6      	b.n	1736 <copy_bits_ref+0x1a>
    1748:	10001dc0 	.word	0x10001dc0

0000174c <call_copy_bits_ref>:
    174c:	b500      	push	{lr}
    174e:	b081      	sub	sp, #4
    1750:	4b07      	ldr	r3, [pc, #28]	; (1770 <call_copy_bits_ref+0x24>)
    1752:	2200      	movs	r2, #0
    1754:	605a      	str	r2, [r3, #4]
    1756:	685a      	ldr	r2, [r3, #4]
    1758:	2140      	movs	r1, #64	; 0x40
    175a:	430a      	orrs	r2, r1
    175c:	605a      	str	r2, [r3, #4]
    175e:	685b      	ldr	r3, [r3, #4]
    1760:	065b      	lsls	r3, r3, #25
    1762:	0fdb      	lsrs	r3, r3, #31
    1764:	9300      	str	r3, [sp, #0]
    1766:	4668      	mov	r0, sp
    1768:	f7ff fffe 	bl	171c <copy_bits_ref>
    176c:	b001      	add	sp, #4
    176e:	bd00      	pop	{pc}
    1770:	10001dc0 	.word	0x10001dc0

00001774 <run>:
    1774:	b570      	push	{r4, r5, r6, lr}
    1776:	4cfe      	ldr	r4, [pc, #1016]	; (1b70 <run+0x3fc>)
    1778:	2200      	movs	r2, #0
    177a:	0021      	movs	r1, r4
    177c:	48fd      	ldr	r0, [pc, #1012]	; (1b74 <run+0x400>)
    177e:	f7ff fffe 	bl	0 <do_test>
    1782:	2201      	movs	r2, #1
    1784:	0021      	movs	r1, r4
    1786:	48fc      	ldr	r0, [pc, #1008]	; (1b78 <run+0x404>)
    1788:	f7ff fffe 	bl	0 <do_test>
    178c:	2202      	movs	r2, #2
    178e:	0021      	movs	r1, r4
    1790:	48fa      	ldr	r0, [pc, #1000]	; (1b7c <run+0x408>)
    1792:	f7ff fffe 	bl	0 <do_test>
    1796:	2203      	movs	r2, #3
    1798:	0021      	movs	r1, r4
    179a:	48f9      	ldr	r0, [pc, #996]	; (1b80 <run+0x40c>)
    179c:	f7ff fffe 	bl	0 <do_test>
    17a0:	2204      	movs	r2, #4
    17a2:	0021      	movs	r1, r4
    17a4:	48f7      	ldr	r0, [pc, #988]	; (1b84 <run+0x410>)
    17a6:	f7ff fffe 	bl	0 <do_test>
    17aa:	2205      	movs	r2, #5
    17ac:	0021      	movs	r1, r4
    17ae:	48f6      	ldr	r0, [pc, #984]	; (1b88 <run+0x414>)
    17b0:	f7ff fffe 	bl	0 <do_test>
    17b4:	2206      	movs	r2, #6
    17b6:	0021      	movs	r1, r4
    17b8:	48f4      	ldr	r0, [pc, #976]	; (1b8c <run+0x418>)
    17ba:	f7ff fffe 	bl	0 <do_test>
    17be:	2207      	movs	r2, #7
    17c0:	0021      	movs	r1, r4
    17c2:	48f3      	ldr	r0, [pc, #972]	; (1b90 <run+0x41c>)
    17c4:	f7ff fffe 	bl	0 <do_test>
    17c8:	2208      	movs	r2, #8
    17ca:	0021      	movs	r1, r4
    17cc:	48f1      	ldr	r0, [pc, #964]	; (1b94 <run+0x420>)
    17ce:	f7ff fffe 	bl	0 <do_test>
    17d2:	2209      	movs	r2, #9
    17d4:	0021      	movs	r1, r4
    17d6:	48f0      	ldr	r0, [pc, #960]	; (1b98 <run+0x424>)
    17d8:	f7ff fffe 	bl	0 <do_test>
    17dc:	220a      	movs	r2, #10
    17de:	0021      	movs	r1, r4
    17e0:	48ee      	ldr	r0, [pc, #952]	; (1b9c <run+0x428>)
    17e2:	f7ff fffe 	bl	0 <do_test>
    17e6:	220b      	movs	r2, #11
    17e8:	0021      	movs	r1, r4
    17ea:	48ed      	ldr	r0, [pc, #948]	; (1ba0 <run+0x42c>)
    17ec:	f7ff fffe 	bl	0 <do_test>
    17f0:	220c      	movs	r2, #12
    17f2:	0021      	movs	r1, r4
    17f4:	48eb      	ldr	r0, [pc, #940]	; (1ba4 <run+0x430>)
    17f6:	f7ff fffe 	bl	0 <do_test>
    17fa:	220d      	movs	r2, #13
    17fc:	0021      	movs	r1, r4
    17fe:	48ea      	ldr	r0, [pc, #936]	; (1ba8 <run+0x434>)
    1800:	f7ff fffe 	bl	0 <do_test>
    1804:	220e      	movs	r2, #14
    1806:	0021      	movs	r1, r4
    1808:	48e8      	ldr	r0, [pc, #928]	; (1bac <run+0x438>)
    180a:	f7ff fffe 	bl	0 <do_test>
    180e:	220f      	movs	r2, #15
    1810:	0021      	movs	r1, r4
    1812:	48e7      	ldr	r0, [pc, #924]	; (1bb0 <run+0x43c>)
    1814:	f7ff fffe 	bl	0 <do_test>
    1818:	2210      	movs	r2, #16
    181a:	0021      	movs	r1, r4
    181c:	48e5      	ldr	r0, [pc, #916]	; (1bb4 <run+0x440>)
    181e:	f7ff fffe 	bl	0 <do_test>
    1822:	2211      	movs	r2, #17
    1824:	0021      	movs	r1, r4
    1826:	48e4      	ldr	r0, [pc, #912]	; (1bb8 <run+0x444>)
    1828:	f7ff fffe 	bl	0 <do_test>
    182c:	2212      	movs	r2, #18
    182e:	0021      	movs	r1, r4
    1830:	48e2      	ldr	r0, [pc, #904]	; (1bbc <run+0x448>)
    1832:	f7ff fffe 	bl	0 <do_test>
    1836:	2213      	movs	r2, #19
    1838:	0021      	movs	r1, r4
    183a:	48e1      	ldr	r0, [pc, #900]	; (1bc0 <run+0x44c>)
    183c:	f7ff fffe 	bl	0 <do_test>
    1840:	2214      	movs	r2, #20
    1842:	0021      	movs	r1, r4
    1844:	48df      	ldr	r0, [pc, #892]	; (1bc4 <run+0x450>)
    1846:	f7ff fffe 	bl	0 <do_test>
    184a:	2215      	movs	r2, #21
    184c:	0021      	movs	r1, r4
    184e:	48de      	ldr	r0, [pc, #888]	; (1bc8 <run+0x454>)
    1850:	f7ff fffe 	bl	0 <do_test>
    1854:	2216      	movs	r2, #22
    1856:	0021      	movs	r1, r4
    1858:	48dc      	ldr	r0, [pc, #880]	; (1bcc <run+0x458>)
    185a:	f7ff fffe 	bl	0 <do_test>
    185e:	2217      	movs	r2, #23
    1860:	0021      	movs	r1, r4
    1862:	48db      	ldr	r0, [pc, #876]	; (1bd0 <run+0x45c>)
    1864:	f7ff fffe 	bl	0 <do_test>
    1868:	2218      	movs	r2, #24
    186a:	0021      	movs	r1, r4
    186c:	48d9      	ldr	r0, [pc, #868]	; (1bd4 <run+0x460>)
    186e:	f7ff fffe 	bl	0 <do_test>
    1872:	2219      	movs	r2, #25
    1874:	0021      	movs	r1, r4
    1876:	48d8      	ldr	r0, [pc, #864]	; (1bd8 <run+0x464>)
    1878:	f7ff fffe 	bl	0 <do_test>
    187c:	221a      	movs	r2, #26
    187e:	0021      	movs	r1, r4
    1880:	48d6      	ldr	r0, [pc, #856]	; (1bdc <run+0x468>)
    1882:	f7ff fffe 	bl	0 <do_test>
    1886:	221b      	movs	r2, #27
    1888:	0021      	movs	r1, r4
    188a:	48d5      	ldr	r0, [pc, #852]	; (1be0 <run+0x46c>)
    188c:	f7ff fffe 	bl	0 <do_test>
    1890:	221c      	movs	r2, #28
    1892:	0021      	movs	r1, r4
    1894:	48d3      	ldr	r0, [pc, #844]	; (1be4 <run+0x470>)
    1896:	f7ff fffe 	bl	0 <do_test>
    189a:	221d      	movs	r2, #29
    189c:	0021      	movs	r1, r4
    189e:	48d2      	ldr	r0, [pc, #840]	; (1be8 <run+0x474>)
    18a0:	f7ff fffe 	bl	0 <do_test>
    18a4:	221e      	movs	r2, #30
    18a6:	0021      	movs	r1, r4
    18a8:	48d0      	ldr	r0, [pc, #832]	; (1bec <run+0x478>)
    18aa:	f7ff fffe 	bl	0 <do_test>
    18ae:	221f      	movs	r2, #31
    18b0:	0021      	movs	r1, r4
    18b2:	48cf      	ldr	r0, [pc, #828]	; (1bf0 <run+0x47c>)
    18b4:	f7ff fffe 	bl	0 <do_test>
    18b8:	2220      	movs	r2, #32
    18ba:	0021      	movs	r1, r4
    18bc:	48cd      	ldr	r0, [pc, #820]	; (1bf4 <run+0x480>)
    18be:	f7ff fffe 	bl	0 <do_test>
    18c2:	2221      	movs	r2, #33	; 0x21
    18c4:	0021      	movs	r1, r4
    18c6:	48cc      	ldr	r0, [pc, #816]	; (1bf8 <run+0x484>)
    18c8:	f7ff fffe 	bl	0 <do_test>
    18cc:	2222      	movs	r2, #34	; 0x22
    18ce:	0021      	movs	r1, r4
    18d0:	48ca      	ldr	r0, [pc, #808]	; (1bfc <run+0x488>)
    18d2:	f7ff fffe 	bl	0 <do_test>
    18d6:	2223      	movs	r2, #35	; 0x23
    18d8:	0021      	movs	r1, r4
    18da:	48c9      	ldr	r0, [pc, #804]	; (1c00 <run+0x48c>)
    18dc:	f7ff fffe 	bl	0 <do_test>
    18e0:	2224      	movs	r2, #36	; 0x24
    18e2:	0021      	movs	r1, r4
    18e4:	48c7      	ldr	r0, [pc, #796]	; (1c04 <run+0x490>)
    18e6:	f7ff fffe 	bl	0 <do_test>
    18ea:	4ec7      	ldr	r6, [pc, #796]	; (1c08 <run+0x494>)
    18ec:	2225      	movs	r2, #37	; 0x25
    18ee:	0031      	movs	r1, r6
    18f0:	48c6      	ldr	r0, [pc, #792]	; (1c0c <run+0x498>)
    18f2:	f7ff fffe 	bl	0 <do_test>
    18f6:	2226      	movs	r2, #38	; 0x26
    18f8:	0031      	movs	r1, r6
    18fa:	48c5      	ldr	r0, [pc, #788]	; (1c10 <run+0x49c>)
    18fc:	f7ff fffe 	bl	0 <do_test>
    1900:	2227      	movs	r2, #39	; 0x27
    1902:	0031      	movs	r1, r6
    1904:	48c3      	ldr	r0, [pc, #780]	; (1c14 <run+0x4a0>)
    1906:	f7ff fffe 	bl	0 <do_test>
    190a:	2228      	movs	r2, #40	; 0x28
    190c:	0021      	movs	r1, r4
    190e:	48c2      	ldr	r0, [pc, #776]	; (1c18 <run+0x4a4>)
    1910:	f7ff fffe 	bl	0 <do_test>
    1914:	2229      	movs	r2, #41	; 0x29
    1916:	0021      	movs	r1, r4
    1918:	48c0      	ldr	r0, [pc, #768]	; (1c1c <run+0x4a8>)
    191a:	f7ff fffe 	bl	0 <do_test>
    191e:	222a      	movs	r2, #42	; 0x2a
    1920:	0021      	movs	r1, r4
    1922:	48bf      	ldr	r0, [pc, #764]	; (1c20 <run+0x4ac>)
    1924:	f7ff fffe 	bl	0 <do_test>
    1928:	222b      	movs	r2, #43	; 0x2b
    192a:	0021      	movs	r1, r4
    192c:	48bd      	ldr	r0, [pc, #756]	; (1c24 <run+0x4b0>)
    192e:	f7ff fffe 	bl	0 <do_test>
    1932:	222c      	movs	r2, #44	; 0x2c
    1934:	0021      	movs	r1, r4
    1936:	48bc      	ldr	r0, [pc, #752]	; (1c28 <run+0x4b4>)
    1938:	f7ff fffe 	bl	0 <do_test>
    193c:	4dbb      	ldr	r5, [pc, #748]	; (1c2c <run+0x4b8>)
    193e:	222d      	movs	r2, #45	; 0x2d
    1940:	0029      	movs	r1, r5
    1942:	48bb      	ldr	r0, [pc, #748]	; (1c30 <run+0x4bc>)
    1944:	f7ff fffe 	bl	0 <do_test>
    1948:	222e      	movs	r2, #46	; 0x2e
    194a:	0021      	movs	r1, r4
    194c:	48b9      	ldr	r0, [pc, #740]	; (1c34 <run+0x4c0>)
    194e:	f7ff fffe 	bl	0 <do_test>
    1952:	222f      	movs	r2, #47	; 0x2f
    1954:	0021      	movs	r1, r4
    1956:	48b8      	ldr	r0, [pc, #736]	; (1c38 <run+0x4c4>)
    1958:	f7ff fffe 	bl	0 <do_test>
    195c:	2230      	movs	r2, #48	; 0x30
    195e:	0021      	movs	r1, r4
    1960:	48b6      	ldr	r0, [pc, #728]	; (1c3c <run+0x4c8>)
    1962:	f7ff fffe 	bl	0 <do_test>
    1966:	2231      	movs	r2, #49	; 0x31
    1968:	0021      	movs	r1, r4
    196a:	48b5      	ldr	r0, [pc, #724]	; (1c40 <run+0x4cc>)
    196c:	f7ff fffe 	bl	0 <do_test>
    1970:	2232      	movs	r2, #50	; 0x32
    1972:	0021      	movs	r1, r4
    1974:	48b3      	ldr	r0, [pc, #716]	; (1c44 <run+0x4d0>)
    1976:	f7ff fffe 	bl	0 <do_test>
    197a:	2233      	movs	r2, #51	; 0x33
    197c:	0021      	movs	r1, r4
    197e:	48b2      	ldr	r0, [pc, #712]	; (1c48 <run+0x4d4>)
    1980:	f7ff fffe 	bl	0 <do_test>
    1984:	2234      	movs	r2, #52	; 0x34
    1986:	0021      	movs	r1, r4
    1988:	48b0      	ldr	r0, [pc, #704]	; (1c4c <run+0x4d8>)
    198a:	f7ff fffe 	bl	0 <do_test>
    198e:	2235      	movs	r2, #53	; 0x35
    1990:	0021      	movs	r1, r4
    1992:	48af      	ldr	r0, [pc, #700]	; (1c50 <run+0x4dc>)
    1994:	f7ff fffe 	bl	0 <do_test>
    1998:	2236      	movs	r2, #54	; 0x36
    199a:	0021      	movs	r1, r4
    199c:	48ad      	ldr	r0, [pc, #692]	; (1c54 <run+0x4e0>)
    199e:	f7ff fffe 	bl	0 <do_test>
    19a2:	2237      	movs	r2, #55	; 0x37
    19a4:	0021      	movs	r1, r4
    19a6:	48ac      	ldr	r0, [pc, #688]	; (1c58 <run+0x4e4>)
    19a8:	f7ff fffe 	bl	0 <do_test>
    19ac:	2238      	movs	r2, #56	; 0x38
    19ae:	0021      	movs	r1, r4
    19b0:	48aa      	ldr	r0, [pc, #680]	; (1c5c <run+0x4e8>)
    19b2:	f7ff fffe 	bl	0 <do_test>
    19b6:	2239      	movs	r2, #57	; 0x39
    19b8:	0021      	movs	r1, r4
    19ba:	48a9      	ldr	r0, [pc, #676]	; (1c60 <run+0x4ec>)
    19bc:	f7ff fffe 	bl	0 <do_test>
    19c0:	223a      	movs	r2, #58	; 0x3a
    19c2:	0021      	movs	r1, r4
    19c4:	48a7      	ldr	r0, [pc, #668]	; (1c64 <run+0x4f0>)
    19c6:	f7ff fffe 	bl	0 <do_test>
    19ca:	223b      	movs	r2, #59	; 0x3b
    19cc:	0021      	movs	r1, r4
    19ce:	48a6      	ldr	r0, [pc, #664]	; (1c68 <run+0x4f4>)
    19d0:	f7ff fffe 	bl	0 <do_test>
    19d4:	223c      	movs	r2, #60	; 0x3c
    19d6:	0021      	movs	r1, r4
    19d8:	48a4      	ldr	r0, [pc, #656]	; (1c6c <run+0x4f8>)
    19da:	f7ff fffe 	bl	0 <do_test>
    19de:	223d      	movs	r2, #61	; 0x3d
    19e0:	0021      	movs	r1, r4
    19e2:	48a3      	ldr	r0, [pc, #652]	; (1c70 <run+0x4fc>)
    19e4:	f7ff fffe 	bl	0 <do_test>
    19e8:	223e      	movs	r2, #62	; 0x3e
    19ea:	0021      	movs	r1, r4
    19ec:	48a1      	ldr	r0, [pc, #644]	; (1c74 <run+0x500>)
    19ee:	f7ff fffe 	bl	0 <do_test>
    19f2:	223f      	movs	r2, #63	; 0x3f
    19f4:	0021      	movs	r1, r4
    19f6:	48a0      	ldr	r0, [pc, #640]	; (1c78 <run+0x504>)
    19f8:	f7ff fffe 	bl	0 <do_test>
    19fc:	2240      	movs	r2, #64	; 0x40
    19fe:	0021      	movs	r1, r4
    1a00:	489e      	ldr	r0, [pc, #632]	; (1c7c <run+0x508>)
    1a02:	f7ff fffe 	bl	0 <do_test>
    1a06:	2241      	movs	r2, #65	; 0x41
    1a08:	0021      	movs	r1, r4
    1a0a:	489d      	ldr	r0, [pc, #628]	; (1c80 <run+0x50c>)
    1a0c:	f7ff fffe 	bl	0 <do_test>
    1a10:	2242      	movs	r2, #66	; 0x42
    1a12:	0031      	movs	r1, r6
    1a14:	489b      	ldr	r0, [pc, #620]	; (1c84 <run+0x510>)
    1a16:	f7ff fffe 	bl	0 <do_test>
    1a1a:	2243      	movs	r2, #67	; 0x43
    1a1c:	0031      	movs	r1, r6
    1a1e:	489a      	ldr	r0, [pc, #616]	; (1c88 <run+0x514>)
    1a20:	f7ff fffe 	bl	0 <do_test>
    1a24:	2244      	movs	r2, #68	; 0x44
    1a26:	0031      	movs	r1, r6
    1a28:	4898      	ldr	r0, [pc, #608]	; (1c8c <run+0x518>)
    1a2a:	f7ff fffe 	bl	0 <do_test>
    1a2e:	2245      	movs	r2, #69	; 0x45
    1a30:	0021      	movs	r1, r4
    1a32:	4897      	ldr	r0, [pc, #604]	; (1c90 <run+0x51c>)
    1a34:	f7ff fffe 	bl	0 <do_test>
    1a38:	2246      	movs	r2, #70	; 0x46
    1a3a:	0029      	movs	r1, r5
    1a3c:	4895      	ldr	r0, [pc, #596]	; (1c94 <run+0x520>)
    1a3e:	f7ff fffe 	bl	0 <do_test>
    1a42:	2247      	movs	r2, #71	; 0x47
    1a44:	0029      	movs	r1, r5
    1a46:	4894      	ldr	r0, [pc, #592]	; (1c98 <run+0x524>)
    1a48:	f7ff fffe 	bl	0 <do_test>
    1a4c:	2248      	movs	r2, #72	; 0x48
    1a4e:	0021      	movs	r1, r4
    1a50:	4892      	ldr	r0, [pc, #584]	; (1c9c <run+0x528>)
    1a52:	f7ff fffe 	bl	0 <do_test>
    1a56:	2249      	movs	r2, #73	; 0x49
    1a58:	0021      	movs	r1, r4
    1a5a:	4891      	ldr	r0, [pc, #580]	; (1ca0 <run+0x52c>)
    1a5c:	f7ff fffe 	bl	0 <do_test>
    1a60:	224a      	movs	r2, #74	; 0x4a
    1a62:	0029      	movs	r1, r5
    1a64:	488f      	ldr	r0, [pc, #572]	; (1ca4 <run+0x530>)
    1a66:	f7ff fffe 	bl	0 <do_test>
    1a6a:	224b      	movs	r2, #75	; 0x4b
    1a6c:	0029      	movs	r1, r5
    1a6e:	488e      	ldr	r0, [pc, #568]	; (1ca8 <run+0x534>)
    1a70:	f7ff fffe 	bl	0 <do_test>
    1a74:	224c      	movs	r2, #76	; 0x4c
    1a76:	0021      	movs	r1, r4
    1a78:	488c      	ldr	r0, [pc, #560]	; (1cac <run+0x538>)
    1a7a:	f7ff fffe 	bl	0 <do_test>
    1a7e:	224d      	movs	r2, #77	; 0x4d
    1a80:	0021      	movs	r1, r4
    1a82:	488b      	ldr	r0, [pc, #556]	; (1cb0 <run+0x53c>)
    1a84:	f7ff fffe 	bl	0 <do_test>
    1a88:	224e      	movs	r2, #78	; 0x4e
    1a8a:	0021      	movs	r1, r4
    1a8c:	4889      	ldr	r0, [pc, #548]	; (1cb4 <run+0x540>)
    1a8e:	f7ff fffe 	bl	0 <do_test>
    1a92:	224f      	movs	r2, #79	; 0x4f
    1a94:	0021      	movs	r1, r4
    1a96:	4888      	ldr	r0, [pc, #544]	; (1cb8 <run+0x544>)
    1a98:	f7ff fffe 	bl	0 <do_test>
    1a9c:	2250      	movs	r2, #80	; 0x50
    1a9e:	0021      	movs	r1, r4
    1aa0:	4886      	ldr	r0, [pc, #536]	; (1cbc <run+0x548>)
    1aa2:	f7ff fffe 	bl	0 <do_test>
    1aa6:	2251      	movs	r2, #81	; 0x51
    1aa8:	0021      	movs	r1, r4
    1aaa:	4885      	ldr	r0, [pc, #532]	; (1cc0 <run+0x54c>)
    1aac:	f7ff fffe 	bl	0 <do_test>
    1ab0:	4e84      	ldr	r6, [pc, #528]	; (1cc4 <run+0x550>)
    1ab2:	2252      	movs	r2, #82	; 0x52
    1ab4:	0021      	movs	r1, r4
    1ab6:	0030      	movs	r0, r6
    1ab8:	f7ff fffe 	bl	0 <do_test>
    1abc:	2253      	movs	r2, #83	; 0x53
    1abe:	0021      	movs	r1, r4
    1ac0:	0030      	movs	r0, r6
    1ac2:	f7ff fffe 	bl	0 <do_test>
    1ac6:	2254      	movs	r2, #84	; 0x54
    1ac8:	0021      	movs	r1, r4
    1aca:	487f      	ldr	r0, [pc, #508]	; (1cc8 <run+0x554>)
    1acc:	f7ff fffe 	bl	0 <do_test>
    1ad0:	2255      	movs	r2, #85	; 0x55
    1ad2:	0021      	movs	r1, r4
    1ad4:	487d      	ldr	r0, [pc, #500]	; (1ccc <run+0x558>)
    1ad6:	f7ff fffe 	bl	0 <do_test>
    1ada:	2256      	movs	r2, #86	; 0x56
    1adc:	0021      	movs	r1, r4
    1ade:	487c      	ldr	r0, [pc, #496]	; (1cd0 <run+0x55c>)
    1ae0:	f7ff fffe 	bl	0 <do_test>
    1ae4:	4e7b      	ldr	r6, [pc, #492]	; (1cd4 <run+0x560>)
    1ae6:	2257      	movs	r2, #87	; 0x57
    1ae8:	0021      	movs	r1, r4
    1aea:	0030      	movs	r0, r6
    1aec:	f7ff fffe 	bl	0 <do_test>
    1af0:	2258      	movs	r2, #88	; 0x58
    1af2:	0021      	movs	r1, r4
    1af4:	4878      	ldr	r0, [pc, #480]	; (1cd8 <run+0x564>)
    1af6:	f7ff fffe 	bl	0 <do_test>
    1afa:	2259      	movs	r2, #89	; 0x59
    1afc:	0021      	movs	r1, r4
    1afe:	0030      	movs	r0, r6
    1b00:	f7ff fffe 	bl	0 <do_test>
    1b04:	225a      	movs	r2, #90	; 0x5a
    1b06:	0021      	movs	r1, r4
    1b08:	4874      	ldr	r0, [pc, #464]	; (1cdc <run+0x568>)
    1b0a:	f7ff fffe 	bl	0 <do_test>
    1b0e:	225b      	movs	r2, #91	; 0x5b
    1b10:	0021      	movs	r1, r4
    1b12:	4873      	ldr	r0, [pc, #460]	; (1ce0 <run+0x56c>)
    1b14:	f7ff fffe 	bl	0 <do_test>
    1b18:	225c      	movs	r2, #92	; 0x5c
    1b1a:	0029      	movs	r1, r5
    1b1c:	4871      	ldr	r0, [pc, #452]	; (1ce4 <run+0x570>)
    1b1e:	f7ff fffe 	bl	0 <do_test>
    1b22:	225d      	movs	r2, #93	; 0x5d
    1b24:	0029      	movs	r1, r5
    1b26:	4870      	ldr	r0, [pc, #448]	; (1ce8 <run+0x574>)
    1b28:	f7ff fffe 	bl	0 <do_test>
    1b2c:	225e      	movs	r2, #94	; 0x5e
    1b2e:	0021      	movs	r1, r4
    1b30:	486e      	ldr	r0, [pc, #440]	; (1cec <run+0x578>)
    1b32:	f7ff fffe 	bl	0 <do_test>
    1b36:	225f      	movs	r2, #95	; 0x5f
    1b38:	0029      	movs	r1, r5
    1b3a:	486d      	ldr	r0, [pc, #436]	; (1cf0 <run+0x57c>)
    1b3c:	f7ff fffe 	bl	0 <do_test>
    1b40:	2260      	movs	r2, #96	; 0x60
    1b42:	0029      	movs	r1, r5
    1b44:	486b      	ldr	r0, [pc, #428]	; (1cf4 <run+0x580>)
    1b46:	f7ff fffe 	bl	0 <do_test>
    1b4a:	2261      	movs	r2, #97	; 0x61
    1b4c:	0021      	movs	r1, r4
    1b4e:	486a      	ldr	r0, [pc, #424]	; (1cf8 <run+0x584>)
    1b50:	f7ff fffe 	bl	0 <do_test>
    1b54:	2262      	movs	r2, #98	; 0x62
    1b56:	0021      	movs	r1, r4
    1b58:	4868      	ldr	r0, [pc, #416]	; (1cfc <run+0x588>)
    1b5a:	f7ff fffe 	bl	0 <do_test>
    1b5e:	2263      	movs	r2, #99	; 0x63
    1b60:	0021      	movs	r1, r4
    1b62:	4867      	ldr	r0, [pc, #412]	; (1d00 <run+0x58c>)
    1b64:	f7ff fffe 	bl	0 <do_test>
    1b68:	2264      	movs	r2, #100	; 0x64
    1b6a:	0021      	movs	r1, r4
    1b6c:	e0ca      	b.n	1d04 <run+0x590>
    1b6e:	46c0      	nop			; (mov r8, r8)
    1b70:	10001dc4 	.word	0x10001dc4
	...
    1c08:	10001d24 	.word	0x10001d24
	...
    1c2c:	10001c2c 	.word	0x10001c2c
	...
    1d04:	482c      	ldr	r0, [pc, #176]	; (b4 <do_test+0xb4>)
    1d06:	f7ff fffe 	bl	0 <do_test>
    1d0a:	2265      	movs	r2, #101	; 0x65
    1d0c:	0029      	movs	r1, r5
    1d0e:	482b      	ldr	r0, [pc, #172]	; (1dbc <run+0x648>)
    1d10:	f7ff fffe 	bl	0 <do_test>
    1d14:	2266      	movs	r2, #102	; 0x66
    1d16:	0029      	movs	r1, r5
    1d18:	4829      	ldr	r0, [pc, #164]	; (1dc0 <run+0x64c>)
    1d1a:	f7ff fffe 	bl	0 <do_test>
    1d1e:	2267      	movs	r2, #103	; 0x67
    1d20:	0029      	movs	r1, r5
    1d22:	4828      	ldr	r0, [pc, #160]	; (1dc4 <run+0x650>)
    1d24:	f7ff fffe 	bl	0 <do_test>
    1d28:	2268      	movs	r2, #104	; 0x68
    1d2a:	0029      	movs	r1, r5
    1d2c:	4826      	ldr	r0, [pc, #152]	; (1dc8 <run+0x654>)
    1d2e:	f7ff fffe 	bl	0 <do_test>
    1d32:	2269      	movs	r2, #105	; 0x69
    1d34:	0029      	movs	r1, r5
    1d36:	4825      	ldr	r0, [pc, #148]	; (1dcc <run+0x658>)
    1d38:	f7ff fffe 	bl	0 <do_test>
    1d3c:	226a      	movs	r2, #106	; 0x6a
    1d3e:	0029      	movs	r1, r5
    1d40:	4823      	ldr	r0, [pc, #140]	; (1dd0 <run+0x65c>)
    1d42:	f7ff fffe 	bl	0 <do_test>
    1d46:	226b      	movs	r2, #107	; 0x6b
    1d48:	0021      	movs	r1, r4
    1d4a:	4822      	ldr	r0, [pc, #136]	; (1dd4 <run+0x660>)
    1d4c:	f7ff fffe 	bl	0 <do_test>
    1d50:	226c      	movs	r2, #108	; 0x6c
    1d52:	0021      	movs	r1, r4
    1d54:	4820      	ldr	r0, [pc, #128]	; (1dd8 <run+0x664>)
    1d56:	f7ff fffe 	bl	0 <do_test>
    1d5a:	226d      	movs	r2, #109	; 0x6d
    1d5c:	0021      	movs	r1, r4
    1d5e:	481f      	ldr	r0, [pc, #124]	; (1ddc <run+0x668>)
    1d60:	f7ff fffe 	bl	0 <do_test>
    1d64:	226e      	movs	r2, #110	; 0x6e
    1d66:	0021      	movs	r1, r4
    1d68:	481d      	ldr	r0, [pc, #116]	; (1de0 <run+0x66c>)
    1d6a:	f7ff fffe 	bl	0 <do_test>
    1d6e:	226f      	movs	r2, #111	; 0x6f
    1d70:	0021      	movs	r1, r4
    1d72:	481c      	ldr	r0, [pc, #112]	; (1de4 <run+0x670>)
    1d74:	f7ff fffe 	bl	0 <do_test>
    1d78:	2270      	movs	r2, #112	; 0x70
    1d7a:	0021      	movs	r1, r4
    1d7c:	481a      	ldr	r0, [pc, #104]	; (1de8 <run+0x674>)
    1d7e:	f7ff fffe 	bl	0 <do_test>
    1d82:	2271      	movs	r2, #113	; 0x71
    1d84:	0021      	movs	r1, r4
    1d86:	4819      	ldr	r0, [pc, #100]	; (1dec <run+0x678>)
    1d88:	f7ff fffe 	bl	0 <do_test>
    1d8c:	2272      	movs	r2, #114	; 0x72
    1d8e:	0021      	movs	r1, r4
    1d90:	4817      	ldr	r0, [pc, #92]	; (1df0 <run+0x67c>)
    1d92:	f7ff fffe 	bl	0 <do_test>
    1d96:	2273      	movs	r2, #115	; 0x73
    1d98:	0021      	movs	r1, r4
    1d9a:	4816      	ldr	r0, [pc, #88]	; (1df4 <run+0x680>)
    1d9c:	f7ff fffe 	bl	0 <do_test>
    1da0:	2274      	movs	r2, #116	; 0x74
    1da2:	0021      	movs	r1, r4
    1da4:	4814      	ldr	r0, [pc, #80]	; (1df8 <run+0x684>)
    1da6:	f7ff fffe 	bl	0 <do_test>
    1daa:	2275      	movs	r2, #117	; 0x75
    1dac:	0021      	movs	r1, r4
    1dae:	4813      	ldr	r0, [pc, #76]	; (1dfc <run+0x688>)
    1db0:	f7ff fffe 	bl	0 <do_test>
    1db4:	bd70      	pop	{r4, r5, r6, pc}
    1db6:	46c0      	nop			; (mov r8, r8)
	...
