
bitfield.o:     file format elf32-littlearm


Disassembly of section .text:

00000000 <zero_reg>:
       0:	4b01      	ldr	r3, [pc, #4]	; (8 <zero_reg+0x8>)
       2:	2200      	movs	r2, #0
       4:	605a      	str	r2, [r3, #4]
       6:	4770      	bx	lr
       8:	10001dc0 	.word	0x10001dc0

0000000c <zero_array>:
       c:	4b01      	ldr	r3, [pc, #4]	; (14 <zero_array+0x8>)
       e:	2200      	movs	r2, #0
      10:	62da      	str	r2, [r3, #44]	; 0x2c
      12:	4770      	bx	lr
      14:	10001c00 	.word	0x10001c00

00000018 <set_singl_bits_operator>:
      18:	4a02      	ldr	r2, [pc, #8]	; (24 <set_singl_bits_operator+0xc>)
      1a:	6853      	ldr	r3, [r2, #4]
      1c:	2140      	movs	r1, #64	; 0x40
      1e:	430b      	orrs	r3, r1
      20:	6053      	str	r3, [r2, #4]
      22:	4770      	bx	lr
      24:	10001dc0 	.word	0x10001dc0

00000028 <set_singl_bits_method>:
      28:	4a02      	ldr	r2, [pc, #8]	; (34 <set_singl_bits_method+0xc>)
      2a:	6853      	ldr	r3, [r2, #4]
      2c:	2140      	movs	r1, #64	; 0x40
      2e:	430b      	orrs	r3, r1
      30:	6053      	str	r3, [r2, #4]
      32:	4770      	bx	lr
      34:	10001dc0 	.word	0x10001dc0

00000038 <clr_singl_bits_operator>:
      38:	4a02      	ldr	r2, [pc, #8]	; (44 <clr_singl_bits_operator+0xc>)
      3a:	6853      	ldr	r3, [r2, #4]
      3c:	2140      	movs	r1, #64	; 0x40
      3e:	438b      	bics	r3, r1
      40:	6053      	str	r3, [r2, #4]
      42:	4770      	bx	lr
      44:	10001dc0 	.word	0x10001dc0

00000048 <clr_singl_bits_method>:
      48:	4a02      	ldr	r2, [pc, #8]	; (54 <clr_singl_bits_method+0xc>)
      4a:	6853      	ldr	r3, [r2, #4]
      4c:	2140      	movs	r1, #64	; 0x40
      4e:	438b      	bics	r3, r1
      50:	6053      	str	r3, [r2, #4]
      52:	4770      	bx	lr
      54:	10001dc0 	.word	0x10001dc0

00000058 <set_singl_mskd_operator>:
      58:	4906      	ldr	r1, [pc, #24]	; (74 <set_singl_mskd_operator+0x1c>)
      5a:	684b      	ldr	r3, [r1, #4]
      5c:	075b      	lsls	r3, r3, #29
      5e:	0f9b      	lsrs	r3, r3, #30
      60:	2201      	movs	r2, #1
      62:	4313      	orrs	r3, r2
      64:	005b      	lsls	r3, r3, #1
      66:	684a      	ldr	r2, [r1, #4]
      68:	2006      	movs	r0, #6
      6a:	4382      	bics	r2, r0
      6c:	4313      	orrs	r3, r2
      6e:	604b      	str	r3, [r1, #4]
      70:	4770      	bx	lr
      72:	46c0      	nop			; (mov r8, r8)
      74:	10001dc0 	.word	0x10001dc0

00000078 <set_singl_mskd_method>:
      78:	4906      	ldr	r1, [pc, #24]	; (94 <set_singl_mskd_method+0x1c>)
      7a:	684b      	ldr	r3, [r1, #4]
      7c:	075b      	lsls	r3, r3, #29
      7e:	0f9b      	lsrs	r3, r3, #30
      80:	2201      	movs	r2, #1
      82:	4313      	orrs	r3, r2
      84:	005b      	lsls	r3, r3, #1
      86:	684a      	ldr	r2, [r1, #4]
      88:	2006      	movs	r0, #6
      8a:	4382      	bics	r2, r0
      8c:	4313      	orrs	r3, r2
      8e:	604b      	str	r3, [r1, #4]
      90:	4770      	bx	lr
      92:	46c0      	nop			; (mov r8, r8)
      94:	10001dc0 	.word	0x10001dc0

00000098 <clr_singl_mskd_operator>:
      98:	4905      	ldr	r1, [pc, #20]	; (b0 <clr_singl_mskd_operator+0x18>)
      9a:	684b      	ldr	r3, [r1, #4]
      9c:	085b      	lsrs	r3, r3, #1
      9e:	2202      	movs	r2, #2
      a0:	4013      	ands	r3, r2
      a2:	005b      	lsls	r3, r3, #1
      a4:	684a      	ldr	r2, [r1, #4]
      a6:	2006      	movs	r0, #6
      a8:	4382      	bics	r2, r0
      aa:	4313      	orrs	r3, r2
      ac:	604b      	str	r3, [r1, #4]
      ae:	4770      	bx	lr
      b0:	10001dc0 	.word	0x10001dc0

000000b4 <clr_singl_mskd_method>:
      b4:	4905      	ldr	r1, [pc, #20]	; (cc <clr_singl_mskd_method+0x18>)
      b6:	684b      	ldr	r3, [r1, #4]
      b8:	085b      	lsrs	r3, r3, #1
      ba:	2202      	movs	r2, #2
      bc:	4013      	ands	r3, r2
      be:	005b      	lsls	r3, r3, #1
      c0:	684a      	ldr	r2, [r1, #4]
      c2:	2006      	movs	r0, #6
      c4:	4382      	bics	r2, r0
      c6:	4313      	orrs	r3, r2
      c8:	604b      	str	r3, [r1, #4]
      ca:	4770      	bx	lr
      cc:	10001dc0 	.word	0x10001dc0

000000d0 <equ_singl_bits_operator>:
      d0:	4b03      	ldr	r3, [pc, #12]	; (e0 <equ_singl_bits_operator+0x10>)
      d2:	2200      	movs	r2, #0
      d4:	605a      	str	r2, [r3, #4]
      d6:	685a      	ldr	r2, [r3, #4]
      d8:	2140      	movs	r1, #64	; 0x40
      da:	430a      	orrs	r2, r1
      dc:	605a      	str	r2, [r3, #4]
      de:	4770      	bx	lr
      e0:	10001dc0 	.word	0x10001dc0

000000e4 <equ_singl_bits_method>:
      e4:	4b03      	ldr	r3, [pc, #12]	; (f4 <equ_singl_bits_method+0x10>)
      e6:	2200      	movs	r2, #0
      e8:	605a      	str	r2, [r3, #4]
      ea:	685a      	ldr	r2, [r3, #4]
      ec:	2140      	movs	r1, #64	; 0x40
      ee:	430a      	orrs	r2, r1
      f0:	605a      	str	r2, [r3, #4]
      f2:	4770      	bx	lr
      f4:	10001dc0 	.word	0x10001dc0

000000f8 <equ_singl_mskd_operator>:
      f8:	4a04      	ldr	r2, [pc, #16]	; (10c <equ_singl_mskd_operator+0x14>)
      fa:	2300      	movs	r3, #0
      fc:	6053      	str	r3, [r2, #4]
      fe:	6853      	ldr	r3, [r2, #4]
     100:	2106      	movs	r1, #6
     102:	438b      	bics	r3, r1
     104:	3904      	subs	r1, #4
     106:	430b      	orrs	r3, r1
     108:	6053      	str	r3, [r2, #4]
     10a:	4770      	bx	lr
     10c:	10001dc0 	.word	0x10001dc0

00000110 <equ_singl_mskd_method>:
     110:	4a04      	ldr	r2, [pc, #16]	; (124 <equ_singl_mskd_method+0x14>)
     112:	2300      	movs	r3, #0
     114:	6053      	str	r3, [r2, #4]
     116:	6853      	ldr	r3, [r2, #4]
     118:	2106      	movs	r1, #6
     11a:	438b      	bics	r3, r1
     11c:	3904      	subs	r1, #4
     11e:	430b      	orrs	r3, r1
     120:	6053      	str	r3, [r2, #4]
     122:	4770      	bx	lr
     124:	10001dc0 	.word	0x10001dc0

00000128 <flp_singl_bits_operator>:
     128:	4906      	ldr	r1, [pc, #24]	; (144 <flp_singl_bits_operator+0x1c>)
     12a:	684b      	ldr	r3, [r1, #4]
     12c:	065b      	lsls	r3, r3, #25
     12e:	0fdb      	lsrs	r3, r3, #31
     130:	2201      	movs	r2, #1
     132:	4053      	eors	r3, r2
     134:	019b      	lsls	r3, r3, #6
     136:	684a      	ldr	r2, [r1, #4]
     138:	2040      	movs	r0, #64	; 0x40
     13a:	4382      	bics	r2, r0
     13c:	4313      	orrs	r3, r2
     13e:	604b      	str	r3, [r1, #4]
     140:	4770      	bx	lr
     142:	46c0      	nop			; (mov r8, r8)
     144:	10001dc0 	.word	0x10001dc0

00000148 <flp_singl_bits_method>:
     148:	4906      	ldr	r1, [pc, #24]	; (164 <flp_singl_bits_method+0x1c>)
     14a:	684b      	ldr	r3, [r1, #4]
     14c:	065b      	lsls	r3, r3, #25
     14e:	0fdb      	lsrs	r3, r3, #31
     150:	2201      	movs	r2, #1
     152:	4053      	eors	r3, r2
     154:	019b      	lsls	r3, r3, #6
     156:	684a      	ldr	r2, [r1, #4]
     158:	2040      	movs	r0, #64	; 0x40
     15a:	4382      	bics	r2, r0
     15c:	4313      	orrs	r3, r2
     15e:	604b      	str	r3, [r1, #4]
     160:	4770      	bx	lr
     162:	46c0      	nop			; (mov r8, r8)
     164:	10001dc0 	.word	0x10001dc0

00000168 <flp_singl_mskd_operator>:
     168:	4906      	ldr	r1, [pc, #24]	; (184 <flp_singl_mskd_operator+0x1c>)
     16a:	684b      	ldr	r3, [r1, #4]
     16c:	075b      	lsls	r3, r3, #29
     16e:	0f9b      	lsrs	r3, r3, #30
     170:	2201      	movs	r2, #1
     172:	4053      	eors	r3, r2
     174:	005b      	lsls	r3, r3, #1
     176:	684a      	ldr	r2, [r1, #4]
     178:	2006      	movs	r0, #6
     17a:	4382      	bics	r2, r0
     17c:	4313      	orrs	r3, r2
     17e:	604b      	str	r3, [r1, #4]
     180:	4770      	bx	lr
     182:	46c0      	nop			; (mov r8, r8)
     184:	10001dc0 	.word	0x10001dc0

00000188 <flp_singl_mskd_method>:
     188:	4906      	ldr	r1, [pc, #24]	; (1a4 <flp_singl_mskd_method+0x1c>)
     18a:	684b      	ldr	r3, [r1, #4]
     18c:	075b      	lsls	r3, r3, #29
     18e:	0f9b      	lsrs	r3, r3, #30
     190:	2201      	movs	r2, #1
     192:	4053      	eors	r3, r2
     194:	005b      	lsls	r3, r3, #1
     196:	684a      	ldr	r2, [r1, #4]
     198:	2006      	movs	r0, #6
     19a:	4382      	bics	r2, r0
     19c:	4313      	orrs	r3, r2
     19e:	604b      	str	r3, [r1, #4]
     1a0:	4770      	bx	lr
     1a2:	46c0      	nop			; (mov r8, r8)
     1a4:	10001dc0 	.word	0x10001dc0

000001a8 <ins_singl_mskd_operator>:
     1a8:	4a03      	ldr	r2, [pc, #12]	; (1b8 <ins_singl_mskd_operator+0x10>)
     1aa:	6853      	ldr	r3, [r2, #4]
     1ac:	2106      	movs	r1, #6
     1ae:	438b      	bics	r3, r1
     1b0:	3902      	subs	r1, #2
     1b2:	430b      	orrs	r3, r1
     1b4:	6053      	str	r3, [r2, #4]
     1b6:	4770      	bx	lr
     1b8:	10001dc0 	.word	0x10001dc0

000001bc <ins_singl_mskd_method>:
     1bc:	4a03      	ldr	r2, [pc, #12]	; (1cc <ins_singl_mskd_method+0x10>)
     1be:	6853      	ldr	r3, [r2, #4]
     1c0:	2106      	movs	r1, #6
     1c2:	438b      	bics	r3, r1
     1c4:	3902      	subs	r1, #2
     1c6:	430b      	orrs	r3, r1
     1c8:	6053      	str	r3, [r2, #4]
     1ca:	4770      	bx	lr
     1cc:	10001dc0 	.word	0x10001dc0

000001d0 <set_multi_bits_operator>:
     1d0:	4b04      	ldr	r3, [pc, #16]	; (1e4 <set_multi_bits_operator+0x14>)
     1d2:	685a      	ldr	r2, [r3, #4]
     1d4:	2101      	movs	r1, #1
     1d6:	430a      	orrs	r2, r1
     1d8:	605a      	str	r2, [r3, #4]
     1da:	685a      	ldr	r2, [r3, #4]
     1dc:	311f      	adds	r1, #31
     1de:	430a      	orrs	r2, r1
     1e0:	605a      	str	r2, [r3, #4]
     1e2:	4770      	bx	lr
     1e4:	10001dc0 	.word	0x10001dc0

000001e8 <set_multi_bits_method>:
     1e8:	4b04      	ldr	r3, [pc, #16]	; (1fc <set_multi_bits_method+0x14>)
     1ea:	685a      	ldr	r2, [r3, #4]
     1ec:	2101      	movs	r1, #1
     1ee:	430a      	orrs	r2, r1
     1f0:	605a      	str	r2, [r3, #4]
     1f2:	685a      	ldr	r2, [r3, #4]
     1f4:	311f      	adds	r1, #31
     1f6:	430a      	orrs	r2, r1
     1f8:	605a      	str	r2, [r3, #4]
     1fa:	4770      	bx	lr
     1fc:	10001dc0 	.word	0x10001dc0

00000200 <ins_multi_mskd_operator>:
     200:	4a07      	ldr	r2, [pc, #28]	; (220 <ins_multi_mskd_operator+0x20>)
     202:	6853      	ldr	r3, [r2, #4]
     204:	4907      	ldr	r1, [pc, #28]	; (224 <ins_multi_mskd_operator+0x24>)
     206:	4019      	ands	r1, r3
     208:	23c0      	movs	r3, #192	; 0xc0
     20a:	005b      	lsls	r3, r3, #1
     20c:	430b      	orrs	r3, r1
     20e:	6053      	str	r3, [r2, #4]
     210:	6853      	ldr	r3, [r2, #4]
     212:	2106      	movs	r1, #6
     214:	438b      	bics	r3, r1
     216:	3904      	subs	r1, #4
     218:	430b      	orrs	r3, r1
     21a:	6053      	str	r3, [r2, #4]
     21c:	4770      	bx	lr
     21e:	46c0      	nop			; (mov r8, r8)
     220:	10001dc0 	.word	0x10001dc0
     224:	fffff07f 	.word	0xfffff07f

00000228 <ins_multi_mskd_method>:
     228:	4a07      	ldr	r2, [pc, #28]	; (248 <ins_multi_mskd_method+0x20>)
     22a:	6853      	ldr	r3, [r2, #4]
     22c:	4907      	ldr	r1, [pc, #28]	; (24c <ins_multi_mskd_method+0x24>)
     22e:	4019      	ands	r1, r3
     230:	23c0      	movs	r3, #192	; 0xc0
     232:	005b      	lsls	r3, r3, #1
     234:	430b      	orrs	r3, r1
     236:	6053      	str	r3, [r2, #4]
     238:	6853      	ldr	r3, [r2, #4]
     23a:	2106      	movs	r1, #6
     23c:	438b      	bics	r3, r1
     23e:	3904      	subs	r1, #4
     240:	430b      	orrs	r3, r1
     242:	6053      	str	r3, [r2, #4]
     244:	4770      	bx	lr
     246:	46c0      	nop			; (mov r8, r8)
     248:	10001dc0 	.word	0x10001dc0
     24c:	fffff07f 	.word	0xfffff07f

00000250 <equ_multi_bits_operator>:
     250:	4b05      	ldr	r3, [pc, #20]	; (268 <equ_multi_bits_operator+0x18>)
     252:	2200      	movs	r2, #0
     254:	605a      	str	r2, [r3, #4]
     256:	685a      	ldr	r2, [r3, #4]
     258:	2120      	movs	r1, #32
     25a:	430a      	orrs	r2, r1
     25c:	605a      	str	r2, [r3, #4]
     25e:	685a      	ldr	r2, [r3, #4]
     260:	3120      	adds	r1, #32
     262:	430a      	orrs	r2, r1
     264:	605a      	str	r2, [r3, #4]
     266:	4770      	bx	lr
     268:	10001dc0 	.word	0x10001dc0

0000026c <equ_multi_bits_method>:
     26c:	4b05      	ldr	r3, [pc, #20]	; (284 <equ_multi_bits_method+0x18>)
     26e:	2200      	movs	r2, #0
     270:	605a      	str	r2, [r3, #4]
     272:	685a      	ldr	r2, [r3, #4]
     274:	2120      	movs	r1, #32
     276:	430a      	orrs	r2, r1
     278:	605a      	str	r2, [r3, #4]
     27a:	685a      	ldr	r2, [r3, #4]
     27c:	3120      	adds	r1, #32
     27e:	430a      	orrs	r2, r1
     280:	605a      	str	r2, [r3, #4]
     282:	4770      	bx	lr
     284:	10001dc0 	.word	0x10001dc0

00000288 <equ_multi_mskd_operator>:
     288:	4b08      	ldr	r3, [pc, #32]	; (2ac <equ_multi_mskd_operator+0x24>)
     28a:	2200      	movs	r2, #0
     28c:	605a      	str	r2, [r3, #4]
     28e:	685a      	ldr	r2, [r3, #4]
     290:	2118      	movs	r1, #24
     292:	438a      	bics	r2, r1
     294:	3910      	subs	r1, #16
     296:	430a      	orrs	r2, r1
     298:	605a      	str	r2, [r3, #4]
     29a:	685a      	ldr	r2, [r3, #4]
     29c:	4904      	ldr	r1, [pc, #16]	; (2b0 <equ_multi_mskd_operator+0x28>)
     29e:	4011      	ands	r1, r2
     2a0:	22c0      	movs	r2, #192	; 0xc0
     2a2:	0092      	lsls	r2, r2, #2
     2a4:	430a      	orrs	r2, r1
     2a6:	605a      	str	r2, [r3, #4]
     2a8:	4770      	bx	lr
     2aa:	46c0      	nop			; (mov r8, r8)
     2ac:	10001dc0 	.word	0x10001dc0
     2b0:	fffff07f 	.word	0xfffff07f

000002b4 <equ_multi_mskd_method>:
     2b4:	4b08      	ldr	r3, [pc, #32]	; (2d8 <equ_multi_mskd_method+0x24>)
     2b6:	2200      	movs	r2, #0
     2b8:	605a      	str	r2, [r3, #4]
     2ba:	685a      	ldr	r2, [r3, #4]
     2bc:	2118      	movs	r1, #24
     2be:	438a      	bics	r2, r1
     2c0:	3910      	subs	r1, #16
     2c2:	430a      	orrs	r2, r1
     2c4:	605a      	str	r2, [r3, #4]
     2c6:	685a      	ldr	r2, [r3, #4]
     2c8:	4904      	ldr	r1, [pc, #16]	; (2dc <equ_multi_mskd_method+0x28>)
     2ca:	4011      	ands	r1, r2
     2cc:	22c0      	movs	r2, #192	; 0xc0
     2ce:	0092      	lsls	r2, r2, #2
     2d0:	430a      	orrs	r2, r1
     2d2:	605a      	str	r2, [r3, #4]
     2d4:	4770      	bx	lr
     2d6:	46c0      	nop			; (mov r8, r8)
     2d8:	10001dc0 	.word	0x10001dc0
     2dc:	fffff07f 	.word	0xfffff07f

000002e0 <equ_bits_mskd_operator>:
     2e0:	4b06      	ldr	r3, [pc, #24]	; (2fc <equ_bits_mskd_operator+0x1c>)
     2e2:	2200      	movs	r2, #0
     2e4:	605a      	str	r2, [r3, #4]
     2e6:	685a      	ldr	r2, [r3, #4]
     2e8:	2120      	movs	r1, #32
     2ea:	430a      	orrs	r2, r1
     2ec:	605a      	str	r2, [r3, #4]
     2ee:	685a      	ldr	r2, [r3, #4]
     2f0:	391a      	subs	r1, #26
     2f2:	438a      	bics	r2, r1
     2f4:	3904      	subs	r1, #4
     2f6:	430a      	orrs	r2, r1
     2f8:	605a      	str	r2, [r3, #4]
     2fa:	4770      	bx	lr
     2fc:	10001dc0 	.word	0x10001dc0

00000300 <equ_bits_mskd_method>:
     300:	4b06      	ldr	r3, [pc, #24]	; (31c <equ_bits_mskd_method+0x1c>)
     302:	2200      	movs	r2, #0
     304:	605a      	str	r2, [r3, #4]
     306:	685a      	ldr	r2, [r3, #4]
     308:	2120      	movs	r1, #32
     30a:	430a      	orrs	r2, r1
     30c:	605a      	str	r2, [r3, #4]
     30e:	685a      	ldr	r2, [r3, #4]
     310:	391a      	subs	r1, #26
     312:	438a      	bics	r2, r1
     314:	3904      	subs	r1, #4
     316:	430a      	orrs	r2, r1
     318:	605a      	str	r2, [r3, #4]
     31a:	4770      	bx	lr
     31c:	10001dc0 	.word	0x10001dc0

00000320 <equ_mskd_bits_operator>:
     320:	4b06      	ldr	r3, [pc, #24]	; (33c <equ_mskd_bits_operator+0x1c>)
     322:	2200      	movs	r2, #0
     324:	605a      	str	r2, [r3, #4]
     326:	685a      	ldr	r2, [r3, #4]
     328:	2106      	movs	r1, #6
     32a:	438a      	bics	r2, r1
     32c:	3902      	subs	r1, #2
     32e:	430a      	orrs	r2, r1
     330:	605a      	str	r2, [r3, #4]
     332:	685a      	ldr	r2, [r3, #4]
     334:	313c      	adds	r1, #60	; 0x3c
     336:	430a      	orrs	r2, r1
     338:	605a      	str	r2, [r3, #4]
     33a:	4770      	bx	lr
     33c:	10001dc0 	.word	0x10001dc0

00000340 <equ_mskd_bits_method>:
     340:	4b06      	ldr	r3, [pc, #24]	; (35c <equ_mskd_bits_method+0x1c>)
     342:	2200      	movs	r2, #0
     344:	605a      	str	r2, [r3, #4]
     346:	685a      	ldr	r2, [r3, #4]
     348:	2106      	movs	r1, #6
     34a:	438a      	bics	r2, r1
     34c:	3902      	subs	r1, #2
     34e:	430a      	orrs	r2, r1
     350:	605a      	str	r2, [r3, #4]
     352:	685a      	ldr	r2, [r3, #4]
     354:	313c      	adds	r1, #60	; 0x3c
     356:	430a      	orrs	r2, r1
     358:	605a      	str	r2, [r3, #4]
     35a:	4770      	bx	lr
     35c:	10001dc0 	.word	0x10001dc0

00000360 <equ_bits_var>:
     360:	4b06      	ldr	r3, [pc, #24]	; (37c <equ_bits_var+0x1c>)
     362:	2100      	movs	r1, #0
     364:	6059      	str	r1, [r3, #4]
     366:	685a      	ldr	r2, [r3, #4]
     368:	2040      	movs	r0, #64	; 0x40
     36a:	4302      	orrs	r2, r0
     36c:	605a      	str	r2, [r3, #4]
     36e:	6059      	str	r1, [r3, #4]
     370:	685a      	ldr	r2, [r3, #4]
     372:	3101      	adds	r1, #1
     374:	430a      	orrs	r2, r1
     376:	605a      	str	r2, [r3, #4]
     378:	4770      	bx	lr
     37a:	46c0      	nop			; (mov r8, r8)
     37c:	10001dc0 	.word	0x10001dc0

00000380 <equ_mskd_var>:
     380:	4b08      	ldr	r3, [pc, #32]	; (3a4 <equ_mskd_var+0x24>)
     382:	2100      	movs	r1, #0
     384:	6059      	str	r1, [r3, #4]
     386:	685a      	ldr	r2, [r3, #4]
     388:	2006      	movs	r0, #6
     38a:	4382      	bics	r2, r0
     38c:	3804      	subs	r0, #4
     38e:	4302      	orrs	r2, r0
     390:	605a      	str	r2, [r3, #4]
     392:	6059      	str	r1, [r3, #4]
     394:	685a      	ldr	r2, [r3, #4]
     396:	4904      	ldr	r1, [pc, #16]	; (3a8 <equ_mskd_var+0x28>)
     398:	4011      	ands	r1, r2
     39a:	22c0      	movs	r2, #192	; 0xc0
     39c:	0052      	lsls	r2, r2, #1
     39e:	430a      	orrs	r2, r1
     3a0:	605a      	str	r2, [r3, #4]
     3a2:	4770      	bx	lr
     3a4:	10001dc0 	.word	0x10001dc0
     3a8:	fffff07f 	.word	0xfffff07f

000003ac <cmp_equ_zero>:
     3ac:	4b0c      	ldr	r3, [pc, #48]	; (3e0 <cmp_equ_zero+0x34>)
     3ae:	2200      	movs	r2, #0
     3b0:	605a      	str	r2, [r3, #4]
     3b2:	490c      	ldr	r1, [pc, #48]	; (3e4 <cmp_equ_zero+0x38>)
     3b4:	604a      	str	r2, [r1, #4]
     3b6:	685b      	ldr	r3, [r3, #4]
     3b8:	2b00      	cmp	r3, #0
     3ba:	d107      	bne.n	3cc <cmp_equ_zero+0x20>
     3bc:	684b      	ldr	r3, [r1, #4]
     3be:	4a0a      	ldr	r2, [pc, #40]	; (3e8 <cmp_equ_zero+0x3c>)
     3c0:	401a      	ands	r2, r3
     3c2:	23e8      	movs	r3, #232	; 0xe8
     3c4:	059b      	lsls	r3, r3, #22
     3c6:	4313      	orrs	r3, r2
     3c8:	604b      	str	r3, [r1, #4]
     3ca:	4770      	bx	lr
     3cc:	4905      	ldr	r1, [pc, #20]	; (3e4 <cmp_equ_zero+0x38>)
     3ce:	684b      	ldr	r3, [r1, #4]
     3d0:	4a05      	ldr	r2, [pc, #20]	; (3e8 <cmp_equ_zero+0x3c>)
     3d2:	401a      	ands	r2, r3
     3d4:	2388      	movs	r3, #136	; 0x88
     3d6:	059b      	lsls	r3, r3, #22
     3d8:	4313      	orrs	r3, r2
     3da:	604b      	str	r3, [r1, #4]
     3dc:	e7f5      	b.n	3ca <cmp_equ_zero+0x1e>
     3de:	46c0      	nop			; (mov r8, r8)
     3e0:	10001dc0 	.word	0x10001dc0
     3e4:	10001d20 	.word	0x10001d20
     3e8:	c1ffffff 	.word	0xc1ffffff

000003ec <cmp_neq_zero>:
     3ec:	4b09      	ldr	r3, [pc, #36]	; (414 <cmp_neq_zero+0x28>)
     3ee:	2200      	movs	r2, #0
     3f0:	605a      	str	r2, [r3, #4]
     3f2:	685b      	ldr	r3, [r3, #4]
     3f4:	2b00      	cmp	r3, #0
     3f6:	d007      	beq.n	408 <cmp_neq_zero+0x1c>
     3f8:	4a06      	ldr	r2, [pc, #24]	; (414 <cmp_neq_zero+0x28>)
     3fa:	6853      	ldr	r3, [r2, #4]
     3fc:	2106      	movs	r1, #6
     3fe:	438b      	bics	r3, r1
     400:	3902      	subs	r1, #2
     402:	430b      	orrs	r3, r1
     404:	6053      	str	r3, [r2, #4]
     406:	4770      	bx	lr
     408:	4a02      	ldr	r2, [pc, #8]	; (414 <cmp_neq_zero+0x28>)
     40a:	6853      	ldr	r3, [r2, #4]
     40c:	2120      	movs	r1, #32
     40e:	430b      	orrs	r3, r1
     410:	6053      	str	r3, [r2, #4]
     412:	e7f8      	b.n	406 <cmp_neq_zero+0x1a>
     414:	10001dc0 	.word	0x10001dc0

00000418 <cmp_equ_bits>:
     418:	4b0d      	ldr	r3, [pc, #52]	; (450 <cmp_equ_bits+0x38>)
     41a:	2200      	movs	r2, #0
     41c:	605a      	str	r2, [r3, #4]
     41e:	685a      	ldr	r2, [r3, #4]
     420:	2140      	movs	r1, #64	; 0x40
     422:	430a      	orrs	r2, r1
     424:	605a      	str	r2, [r3, #4]
     426:	685b      	ldr	r3, [r3, #4]
     428:	065b      	lsls	r3, r3, #25
     42a:	d508      	bpl.n	43e <cmp_equ_bits+0x26>
     42c:	4909      	ldr	r1, [pc, #36]	; (454 <cmp_equ_bits+0x3c>)
     42e:	684b      	ldr	r3, [r1, #4]
     430:	4a09      	ldr	r2, [pc, #36]	; (458 <cmp_equ_bits+0x40>)
     432:	401a      	ands	r2, r3
     434:	23b0      	movs	r3, #176	; 0xb0
     436:	055b      	lsls	r3, r3, #21
     438:	4313      	orrs	r3, r2
     43a:	604b      	str	r3, [r1, #4]
     43c:	4770      	bx	lr
     43e:	4905      	ldr	r1, [pc, #20]	; (454 <cmp_equ_bits+0x3c>)
     440:	684b      	ldr	r3, [r1, #4]
     442:	4a05      	ldr	r2, [pc, #20]	; (458 <cmp_equ_bits+0x40>)
     444:	401a      	ands	r2, r3
     446:	23d0      	movs	r3, #208	; 0xd0
     448:	055b      	lsls	r3, r3, #21
     44a:	4313      	orrs	r3, r2
     44c:	604b      	str	r3, [r1, #4]
     44e:	e7f5      	b.n	43c <cmp_equ_bits+0x24>
     450:	10001dc0 	.word	0x10001dc0
     454:	10001d20 	.word	0x10001d20
     458:	c1ffffff 	.word	0xc1ffffff

0000045c <cmp_neq_bits>:
     45c:	4b0d      	ldr	r3, [pc, #52]	; (494 <cmp_neq_bits+0x38>)
     45e:	2200      	movs	r2, #0
     460:	605a      	str	r2, [r3, #4]
     462:	685a      	ldr	r2, [r3, #4]
     464:	2140      	movs	r1, #64	; 0x40
     466:	430a      	orrs	r2, r1
     468:	605a      	str	r2, [r3, #4]
     46a:	685b      	ldr	r3, [r3, #4]
     46c:	065b      	lsls	r3, r3, #25
     46e:	d409      	bmi.n	484 <cmp_neq_bits+0x28>
     470:	4a08      	ldr	r2, [pc, #32]	; (494 <cmp_neq_bits+0x38>)
     472:	2300      	movs	r3, #0
     474:	6053      	str	r3, [r2, #4]
     476:	6853      	ldr	r3, [r2, #4]
     478:	393a      	subs	r1, #58	; 0x3a
     47a:	438b      	bics	r3, r1
     47c:	3904      	subs	r1, #4
     47e:	430b      	orrs	r3, r1
     480:	6053      	str	r3, [r2, #4]
     482:	4770      	bx	lr
     484:	4b03      	ldr	r3, [pc, #12]	; (494 <cmp_neq_bits+0x38>)
     486:	2200      	movs	r2, #0
     488:	605a      	str	r2, [r3, #4]
     48a:	685a      	ldr	r2, [r3, #4]
     48c:	2120      	movs	r1, #32
     48e:	430a      	orrs	r2, r1
     490:	605a      	str	r2, [r3, #4]
     492:	e7f6      	b.n	482 <cmp_neq_bits+0x26>
     494:	10001dc0 	.word	0x10001dc0

00000498 <cmp_equ_multi_bits>:
     498:	4b13      	ldr	r3, [pc, #76]	; (4e8 <cmp_equ_multi_bits+0x50>)
     49a:	2200      	movs	r2, #0
     49c:	605a      	str	r2, [r3, #4]
     49e:	685a      	ldr	r2, [r3, #4]
     4a0:	2120      	movs	r1, #32
     4a2:	430a      	orrs	r2, r1
     4a4:	605a      	str	r2, [r3, #4]
     4a6:	685a      	ldr	r2, [r3, #4]
     4a8:	3120      	adds	r1, #32
     4aa:	430a      	orrs	r2, r1
     4ac:	605a      	str	r2, [r3, #4]
     4ae:	685b      	ldr	r3, [r3, #4]
     4b0:	069b      	lsls	r3, r3, #26
     4b2:	d50e      	bpl.n	4d2 <cmp_equ_multi_bits+0x3a>
     4b4:	4b0c      	ldr	r3, [pc, #48]	; (4e8 <cmp_equ_multi_bits+0x50>)
     4b6:	685b      	ldr	r3, [r3, #4]
     4b8:	065b      	lsls	r3, r3, #25
     4ba:	d50a      	bpl.n	4d2 <cmp_equ_multi_bits+0x3a>
     4bc:	4b0b      	ldr	r3, [pc, #44]	; (4ec <cmp_equ_multi_bits+0x54>)
     4be:	2200      	movs	r2, #0
     4c0:	605a      	str	r2, [r3, #4]
     4c2:	685a      	ldr	r2, [r3, #4]
     4c4:	490a      	ldr	r1, [pc, #40]	; (4f0 <cmp_equ_multi_bits+0x58>)
     4c6:	4011      	ands	r1, r2
     4c8:	2288      	movs	r2, #136	; 0x88
     4ca:	0592      	lsls	r2, r2, #22
     4cc:	430a      	orrs	r2, r1
     4ce:	605a      	str	r2, [r3, #4]
     4d0:	e009      	b.n	4e6 <cmp_equ_multi_bits+0x4e>
     4d2:	4b06      	ldr	r3, [pc, #24]	; (4ec <cmp_equ_multi_bits+0x54>)
     4d4:	2200      	movs	r2, #0
     4d6:	605a      	str	r2, [r3, #4]
     4d8:	685a      	ldr	r2, [r3, #4]
     4da:	4905      	ldr	r1, [pc, #20]	; (4f0 <cmp_equ_multi_bits+0x58>)
     4dc:	4011      	ands	r1, r2
     4de:	22b8      	movs	r2, #184	; 0xb8
     4e0:	0592      	lsls	r2, r2, #22
     4e2:	430a      	orrs	r2, r1
     4e4:	605a      	str	r2, [r3, #4]
     4e6:	4770      	bx	lr
     4e8:	10001dc0 	.word	0x10001dc0
     4ec:	10001d20 	.word	0x10001d20
     4f0:	c1ffffff 	.word	0xc1ffffff

000004f4 <cmp_neq_multi_bits>:
     4f4:	4b12      	ldr	r3, [pc, #72]	; (540 <cmp_neq_multi_bits+0x4c>)
     4f6:	2200      	movs	r2, #0
     4f8:	605a      	str	r2, [r3, #4]
     4fa:	685a      	ldr	r2, [r3, #4]
     4fc:	2120      	movs	r1, #32
     4fe:	430a      	orrs	r2, r1
     500:	605a      	str	r2, [r3, #4]
     502:	685a      	ldr	r2, [r3, #4]
     504:	3120      	adds	r1, #32
     506:	430a      	orrs	r2, r1
     508:	605a      	str	r2, [r3, #4]
     50a:	685b      	ldr	r3, [r3, #4]
     50c:	069b      	lsls	r3, r3, #26
     50e:	d40e      	bmi.n	52e <cmp_neq_multi_bits+0x3a>
     510:	4b0b      	ldr	r3, [pc, #44]	; (540 <cmp_neq_multi_bits+0x4c>)
     512:	685b      	ldr	r3, [r3, #4]
     514:	065b      	lsls	r3, r3, #25
     516:	d40a      	bmi.n	52e <cmp_neq_multi_bits+0x3a>
     518:	4b0a      	ldr	r3, [pc, #40]	; (544 <cmp_neq_multi_bits+0x50>)
     51a:	2200      	movs	r2, #0
     51c:	605a      	str	r2, [r3, #4]
     51e:	685a      	ldr	r2, [r3, #4]
     520:	4909      	ldr	r1, [pc, #36]	; (548 <cmp_neq_multi_bits+0x54>)
     522:	4011      	ands	r1, r2
     524:	22e8      	movs	r2, #232	; 0xe8
     526:	0592      	lsls	r2, r2, #22
     528:	430a      	orrs	r2, r1
     52a:	605a      	str	r2, [r3, #4]
     52c:	e007      	b.n	53e <cmp_neq_multi_bits+0x4a>
     52e:	4b05      	ldr	r3, [pc, #20]	; (544 <cmp_neq_multi_bits+0x50>)
     530:	2200      	movs	r2, #0
     532:	605a      	str	r2, [r3, #4]
     534:	6859      	ldr	r1, [r3, #4]
     536:	22f8      	movs	r2, #248	; 0xf8
     538:	0592      	lsls	r2, r2, #22
     53a:	430a      	orrs	r2, r1
     53c:	605a      	str	r2, [r3, #4]
     53e:	4770      	bx	lr
     540:	10001dc0 	.word	0x10001dc0
     544:	10001d20 	.word	0x10001d20
     548:	c1ffffff 	.word	0xc1ffffff

0000054c <cmp_equ_mskd>:
     54c:	4b10      	ldr	r3, [pc, #64]	; (590 <cmp_equ_mskd+0x44>)
     54e:	2200      	movs	r2, #0
     550:	605a      	str	r2, [r3, #4]
     552:	685a      	ldr	r2, [r3, #4]
     554:	490f      	ldr	r1, [pc, #60]	; (594 <cmp_equ_mskd+0x48>)
     556:	4011      	ands	r1, r2
     558:	22e8      	movs	r2, #232	; 0xe8
     55a:	0252      	lsls	r2, r2, #9
     55c:	430a      	orrs	r2, r1
     55e:	605a      	str	r2, [r3, #4]
     560:	685b      	ldr	r3, [r3, #4]
     562:	03db      	lsls	r3, r3, #15
     564:	0edb      	lsrs	r3, r3, #27
     566:	2b11      	cmp	r3, #17
     568:	d008      	beq.n	57c <cmp_equ_mskd+0x30>
     56a:	490b      	ldr	r1, [pc, #44]	; (598 <cmp_equ_mskd+0x4c>)
     56c:	684b      	ldr	r3, [r1, #4]
     56e:	4a0b      	ldr	r2, [pc, #44]	; (59c <cmp_equ_mskd+0x50>)
     570:	401a      	ands	r2, r3
     572:	2388      	movs	r3, #136	; 0x88
     574:	059b      	lsls	r3, r3, #22
     576:	4313      	orrs	r3, r2
     578:	604b      	str	r3, [r1, #4]
     57a:	4770      	bx	lr
     57c:	4906      	ldr	r1, [pc, #24]	; (598 <cmp_equ_mskd+0x4c>)
     57e:	684b      	ldr	r3, [r1, #4]
     580:	4a06      	ldr	r2, [pc, #24]	; (59c <cmp_equ_mskd+0x50>)
     582:	401a      	ands	r2, r3
     584:	23e0      	movs	r3, #224	; 0xe0
     586:	051b      	lsls	r3, r3, #20
     588:	4313      	orrs	r3, r2
     58a:	604b      	str	r3, [r1, #4]
     58c:	e7f5      	b.n	57a <cmp_equ_mskd+0x2e>
     58e:	46c0      	nop			; (mov r8, r8)
     590:	10001dc0 	.word	0x10001dc0
     594:	fffe0fff 	.word	0xfffe0fff
     598:	10001d20 	.word	0x10001d20
     59c:	c1ffffff 	.word	0xc1ffffff

000005a0 <cmp_neq_mskd>:
     5a0:	4b0e      	ldr	r3, [pc, #56]	; (5dc <cmp_neq_mskd+0x3c>)
     5a2:	2200      	movs	r2, #0
     5a4:	605a      	str	r2, [r3, #4]
     5a6:	685a      	ldr	r2, [r3, #4]
     5a8:	490d      	ldr	r1, [pc, #52]	; (5e0 <cmp_neq_mskd+0x40>)
     5aa:	4011      	ands	r1, r2
     5ac:	22e8      	movs	r2, #232	; 0xe8
     5ae:	0252      	lsls	r2, r2, #9
     5b0:	430a      	orrs	r2, r1
     5b2:	605a      	str	r2, [r3, #4]
     5b4:	685b      	ldr	r3, [r3, #4]
     5b6:	03db      	lsls	r3, r3, #15
     5b8:	0edb      	lsrs	r3, r3, #27
     5ba:	2b11      	cmp	r3, #17
     5bc:	d007      	beq.n	5ce <cmp_neq_mskd+0x2e>
     5be:	4a07      	ldr	r2, [pc, #28]	; (5dc <cmp_neq_mskd+0x3c>)
     5c0:	6853      	ldr	r3, [r2, #4]
     5c2:	2106      	movs	r1, #6
     5c4:	438b      	bics	r3, r1
     5c6:	3902      	subs	r1, #2
     5c8:	430b      	orrs	r3, r1
     5ca:	6053      	str	r3, [r2, #4]
     5cc:	4770      	bx	lr
     5ce:	4a03      	ldr	r2, [pc, #12]	; (5dc <cmp_neq_mskd+0x3c>)
     5d0:	6853      	ldr	r3, [r2, #4]
     5d2:	2140      	movs	r1, #64	; 0x40
     5d4:	430b      	orrs	r3, r1
     5d6:	6053      	str	r3, [r2, #4]
     5d8:	e7f8      	b.n	5cc <cmp_neq_mskd+0x2c>
     5da:	46c0      	nop			; (mov r8, r8)
     5dc:	10001dc0 	.word	0x10001dc0
     5e0:	fffe0fff 	.word	0xfffe0fff

000005e4 <cmp_equ_reg>:
     5e4:	4b20      	ldr	r3, [pc, #128]	; (668 <cmp_equ_reg+0x84>)
     5e6:	2200      	movs	r2, #0
     5e8:	605a      	str	r2, [r3, #4]
     5ea:	685a      	ldr	r2, [r3, #4]
     5ec:	2120      	movs	r1, #32
     5ee:	430a      	orrs	r2, r1
     5f0:	605a      	str	r2, [r3, #4]
     5f2:	685a      	ldr	r2, [r3, #4]
     5f4:	391a      	subs	r1, #26
     5f6:	438a      	bics	r2, r1
     5f8:	3904      	subs	r1, #4
     5fa:	430a      	orrs	r2, r1
     5fc:	605a      	str	r2, [r3, #4]
     5fe:	685b      	ldr	r3, [r3, #4]
     600:	07db      	lsls	r3, r3, #31
     602:	d405      	bmi.n	610 <cmp_equ_reg+0x2c>
     604:	4b18      	ldr	r3, [pc, #96]	; (668 <cmp_equ_reg+0x84>)
     606:	685b      	ldr	r3, [r3, #4]
     608:	075b      	lsls	r3, r3, #29
     60a:	0f9b      	lsrs	r3, r3, #30
     60c:	2b01      	cmp	r3, #1
     60e:	d00a      	beq.n	626 <cmp_equ_reg+0x42>
     610:	4b16      	ldr	r3, [pc, #88]	; (66c <cmp_equ_reg+0x88>)
     612:	2200      	movs	r2, #0
     614:	605a      	str	r2, [r3, #4]
     616:	685a      	ldr	r2, [r3, #4]
     618:	4915      	ldr	r1, [pc, #84]	; (670 <cmp_equ_reg+0x8c>)
     61a:	4011      	ands	r1, r2
     61c:	22b8      	movs	r2, #184	; 0xb8
     61e:	0592      	lsls	r2, r2, #22
     620:	430a      	orrs	r2, r1
     622:	605a      	str	r2, [r3, #4]
     624:	4770      	bx	lr
     626:	4b10      	ldr	r3, [pc, #64]	; (668 <cmp_equ_reg+0x84>)
     628:	685b      	ldr	r3, [r3, #4]
     62a:	07db      	lsls	r3, r3, #31
     62c:	d4f0      	bmi.n	610 <cmp_equ_reg+0x2c>
     62e:	4b0e      	ldr	r3, [pc, #56]	; (668 <cmp_equ_reg+0x84>)
     630:	685b      	ldr	r3, [r3, #4]
     632:	069b      	lsls	r3, r3, #26
     634:	d5ec      	bpl.n	610 <cmp_equ_reg+0x2c>
     636:	4b0c      	ldr	r3, [pc, #48]	; (668 <cmp_equ_reg+0x84>)
     638:	685b      	ldr	r3, [r3, #4]
     63a:	065b      	lsls	r3, r3, #25
     63c:	d4e8      	bmi.n	610 <cmp_equ_reg+0x2c>
     63e:	4b0a      	ldr	r3, [pc, #40]	; (668 <cmp_equ_reg+0x84>)
     640:	685b      	ldr	r3, [r3, #4]
     642:	051b      	lsls	r3, r3, #20
     644:	0edb      	lsrs	r3, r3, #27
     646:	d1e3      	bne.n	610 <cmp_equ_reg+0x2c>
     648:	4b07      	ldr	r3, [pc, #28]	; (668 <cmp_equ_reg+0x84>)
     64a:	685b      	ldr	r3, [r3, #4]
     64c:	03db      	lsls	r3, r3, #15
     64e:	0edb      	lsrs	r3, r3, #27
     650:	d1de      	bne.n	610 <cmp_equ_reg+0x2c>
     652:	4b06      	ldr	r3, [pc, #24]	; (66c <cmp_equ_reg+0x88>)
     654:	2200      	movs	r2, #0
     656:	605a      	str	r2, [r3, #4]
     658:	685a      	ldr	r2, [r3, #4]
     65a:	4905      	ldr	r1, [pc, #20]	; (670 <cmp_equ_reg+0x8c>)
     65c:	4011      	ands	r1, r2
     65e:	22a8      	movs	r2, #168	; 0xa8
     660:	0592      	lsls	r2, r2, #22
     662:	430a      	orrs	r2, r1
     664:	605a      	str	r2, [r3, #4]
     666:	e7dd      	b.n	624 <cmp_equ_reg+0x40>
     668:	10001dc0 	.word	0x10001dc0
     66c:	10001d20 	.word	0x10001d20
     670:	c1ffffff 	.word	0xc1ffffff

00000674 <cmp_neq_reg>:
     674:	4b1e      	ldr	r3, [pc, #120]	; (6f0 <cmp_neq_reg+0x7c>)
     676:	2200      	movs	r2, #0
     678:	605a      	str	r2, [r3, #4]
     67a:	685a      	ldr	r2, [r3, #4]
     67c:	2120      	movs	r1, #32
     67e:	430a      	orrs	r2, r1
     680:	605a      	str	r2, [r3, #4]
     682:	685a      	ldr	r2, [r3, #4]
     684:	391a      	subs	r1, #26
     686:	438a      	bics	r2, r1
     688:	3904      	subs	r1, #4
     68a:	430a      	orrs	r2, r1
     68c:	605a      	str	r2, [r3, #4]
     68e:	685b      	ldr	r3, [r3, #4]
     690:	07db      	lsls	r3, r3, #31
     692:	d405      	bmi.n	6a0 <cmp_neq_reg+0x2c>
     694:	4b16      	ldr	r3, [pc, #88]	; (6f0 <cmp_neq_reg+0x7c>)
     696:	685b      	ldr	r3, [r3, #4]
     698:	075b      	lsls	r3, r3, #29
     69a:	0f9b      	lsrs	r3, r3, #30
     69c:	2b01      	cmp	r3, #1
     69e:	d009      	beq.n	6b4 <cmp_neq_reg+0x40>
     6a0:	4a13      	ldr	r2, [pc, #76]	; (6f0 <cmp_neq_reg+0x7c>)
     6a2:	2300      	movs	r3, #0
     6a4:	6053      	str	r3, [r2, #4]
     6a6:	6853      	ldr	r3, [r2, #4]
     6a8:	2106      	movs	r1, #6
     6aa:	438b      	bics	r3, r1
     6ac:	3904      	subs	r1, #4
     6ae:	430b      	orrs	r3, r1
     6b0:	6053      	str	r3, [r2, #4]
     6b2:	4770      	bx	lr
     6b4:	4b0e      	ldr	r3, [pc, #56]	; (6f0 <cmp_neq_reg+0x7c>)
     6b6:	685b      	ldr	r3, [r3, #4]
     6b8:	07db      	lsls	r3, r3, #31
     6ba:	d4f1      	bmi.n	6a0 <cmp_neq_reg+0x2c>
     6bc:	4b0c      	ldr	r3, [pc, #48]	; (6f0 <cmp_neq_reg+0x7c>)
     6be:	685b      	ldr	r3, [r3, #4]
     6c0:	069b      	lsls	r3, r3, #26
     6c2:	d5ed      	bpl.n	6a0 <cmp_neq_reg+0x2c>
     6c4:	4b0a      	ldr	r3, [pc, #40]	; (6f0 <cmp_neq_reg+0x7c>)
     6c6:	685b      	ldr	r3, [r3, #4]
     6c8:	065b      	lsls	r3, r3, #25
     6ca:	d4e9      	bmi.n	6a0 <cmp_neq_reg+0x2c>
     6cc:	4b08      	ldr	r3, [pc, #32]	; (6f0 <cmp_neq_reg+0x7c>)
     6ce:	685b      	ldr	r3, [r3, #4]
     6d0:	051b      	lsls	r3, r3, #20
     6d2:	0edb      	lsrs	r3, r3, #27
     6d4:	d1e4      	bne.n	6a0 <cmp_neq_reg+0x2c>
     6d6:	4b06      	ldr	r3, [pc, #24]	; (6f0 <cmp_neq_reg+0x7c>)
     6d8:	685b      	ldr	r3, [r3, #4]
     6da:	03db      	lsls	r3, r3, #15
     6dc:	0edb      	lsrs	r3, r3, #27
     6de:	d1df      	bne.n	6a0 <cmp_neq_reg+0x2c>
     6e0:	4b03      	ldr	r3, [pc, #12]	; (6f0 <cmp_neq_reg+0x7c>)
     6e2:	2200      	movs	r2, #0
     6e4:	605a      	str	r2, [r3, #4]
     6e6:	685a      	ldr	r2, [r3, #4]
     6e8:	2120      	movs	r1, #32
     6ea:	430a      	orrs	r2, r1
     6ec:	605a      	str	r2, [r3, #4]
     6ee:	e7e0      	b.n	6b2 <cmp_neq_reg+0x3e>
     6f0:	10001dc0 	.word	0x10001dc0

000006f4 <constexpr_bits_array>:
     6f4:	4b05      	ldr	r3, [pc, #20]	; (70c <constexpr_bits_array+0x18>)
     6f6:	2206      	movs	r2, #6
     6f8:	62da      	str	r2, [r3, #44]	; 0x2c
     6fa:	329a      	adds	r2, #154	; 0x9a
     6fc:	2100      	movs	r1, #0
     6fe:	5099      	str	r1, [r3, r2]
     700:	5898      	ldr	r0, [r3, r2]
     702:	2180      	movs	r1, #128	; 0x80
     704:	0189      	lsls	r1, r1, #6
     706:	4301      	orrs	r1, r0
     708:	5099      	str	r1, [r3, r2]
     70a:	4770      	bx	lr
     70c:	10001c00 	.word	0x10001c00

00000710 <runtime_bits_array>:
     710:	b081      	sub	sp, #4
     712:	2303      	movs	r3, #3
     714:	9300      	str	r3, [sp, #0]
     716:	9b00      	ldr	r3, [sp, #0]
     718:	3308      	adds	r3, #8
     71a:	009b      	lsls	r3, r3, #2
     71c:	4a02      	ldr	r2, [pc, #8]	; (728 <runtime_bits_array+0x18>)
     71e:	2121      	movs	r1, #33	; 0x21
     720:	5099      	str	r1, [r3, r2]
     722:	b001      	add	sp, #4
     724:	4770      	bx	lr
     726:	46c0      	nop			; (mov r8, r8)
     728:	10001c00 	.word	0x10001c00

0000072c <prescaler_low>:
     72c:	4a06      	ldr	r2, [pc, #24]	; (748 <prescaler_low+0x1c>)
     72e:	6853      	ldr	r3, [r2, #4]
     730:	217f      	movs	r1, #127	; 0x7f
     732:	438b      	bics	r3, r1
     734:	3908      	subs	r1, #8
     736:	430b      	orrs	r3, r1
     738:	6053      	str	r3, [r2, #4]
     73a:	6853      	ldr	r3, [r2, #4]
     73c:	065b      	lsls	r3, r3, #25
     73e:	0e5b      	lsrs	r3, r3, #25
     740:	4a02      	ldr	r2, [pc, #8]	; (74c <prescaler_low+0x20>)
     742:	62d3      	str	r3, [r2, #44]	; 0x2c
     744:	4770      	bx	lr
     746:	46c0      	nop			; (mov r8, r8)
     748:	10001d20 	.word	0x10001d20
     74c:	10001c00 	.word	0x10001c00

00000750 <prescaler_high>:
     750:	4b06      	ldr	r3, [pc, #24]	; (76c <prescaler_high+0x1c>)
     752:	685a      	ldr	r2, [r3, #4]
     754:	4906      	ldr	r1, [pc, #24]	; (770 <prescaler_high+0x20>)
     756:	4011      	ands	r1, r2
     758:	22e8      	movs	r2, #232	; 0xe8
     75a:	0592      	lsls	r2, r2, #22
     75c:	430a      	orrs	r2, r1
     75e:	605a      	str	r2, [r3, #4]
     760:	685b      	ldr	r3, [r3, #4]
     762:	009b      	lsls	r3, r3, #2
     764:	0edb      	lsrs	r3, r3, #27
     766:	4a03      	ldr	r2, [pc, #12]	; (774 <prescaler_high+0x24>)
     768:	62d3      	str	r3, [r2, #44]	; 0x2c
     76a:	4770      	bx	lr
     76c:	10001d20 	.word	0x10001d20
     770:	c1ffffff 	.word	0xc1ffffff
     774:	10001c00 	.word	0x10001c00

00000778 <reg_mskd_lss>:
     778:	4b0f      	ldr	r3, [pc, #60]	; (7b8 <reg_mskd_lss+0x40>)
     77a:	685a      	ldr	r2, [r3, #4]
     77c:	490f      	ldr	r1, [pc, #60]	; (7bc <reg_mskd_lss+0x44>)
     77e:	4011      	ands	r1, r2
     780:	22d8      	movs	r2, #216	; 0xd8
     782:	0592      	lsls	r2, r2, #22
     784:	430a      	orrs	r2, r1
     786:	605a      	str	r2, [r3, #4]
     788:	4a0d      	ldr	r2, [pc, #52]	; (7c0 <reg_mskd_lss+0x48>)
     78a:	2100      	movs	r1, #0
     78c:	6051      	str	r1, [r2, #4]
     78e:	685b      	ldr	r3, [r3, #4]
     790:	009b      	lsls	r3, r3, #2
     792:	0edb      	lsrs	r3, r3, #27
     794:	2b1b      	cmp	r3, #27
     796:	d806      	bhi.n	7a6 <reg_mskd_lss+0x2e>
     798:	6853      	ldr	r3, [r2, #4]
     79a:	3106      	adds	r1, #6
     79c:	438b      	bics	r3, r1
     79e:	3904      	subs	r1, #4
     7a0:	430b      	orrs	r3, r1
     7a2:	6053      	str	r3, [r2, #4]
     7a4:	4770      	bx	lr
     7a6:	4a06      	ldr	r2, [pc, #24]	; (7c0 <reg_mskd_lss+0x48>)
     7a8:	6853      	ldr	r3, [r2, #4]
     7aa:	2106      	movs	r1, #6
     7ac:	438b      	bics	r3, r1
     7ae:	3902      	subs	r1, #2
     7b0:	430b      	orrs	r3, r1
     7b2:	6053      	str	r3, [r2, #4]
     7b4:	e7f6      	b.n	7a4 <reg_mskd_lss+0x2c>
     7b6:	46c0      	nop			; (mov r8, r8)
     7b8:	10001d20 	.word	0x10001d20
     7bc:	c1ffffff 	.word	0xc1ffffff
     7c0:	10001dc0 	.word	0x10001dc0

000007c4 <reg_mskd_leq>:
     7c4:	4b12      	ldr	r3, [pc, #72]	; (810 <reg_mskd_leq+0x4c>)
     7c6:	685a      	ldr	r2, [r3, #4]
     7c8:	4912      	ldr	r1, [pc, #72]	; (814 <reg_mskd_leq+0x50>)
     7ca:	4011      	ands	r1, r2
     7cc:	22b8      	movs	r2, #184	; 0xb8
     7ce:	0592      	lsls	r2, r2, #22
     7d0:	430a      	orrs	r2, r1
     7d2:	605a      	str	r2, [r3, #4]
     7d4:	4a10      	ldr	r2, [pc, #64]	; (818 <reg_mskd_leq+0x54>)
     7d6:	2100      	movs	r1, #0
     7d8:	6051      	str	r1, [r2, #4]
     7da:	685b      	ldr	r3, [r3, #4]
     7dc:	009b      	lsls	r3, r3, #2
     7de:	0edb      	lsrs	r3, r3, #27
     7e0:	2b17      	cmp	r3, #23
     7e2:	d80c      	bhi.n	7fe <reg_mskd_leq+0x3a>
     7e4:	4b0a      	ldr	r3, [pc, #40]	; (810 <reg_mskd_leq+0x4c>)
     7e6:	685b      	ldr	r3, [r3, #4]
     7e8:	009b      	lsls	r3, r3, #2
     7ea:	0edb      	lsrs	r3, r3, #27
     7ec:	2b18      	cmp	r3, #24
     7ee:	d806      	bhi.n	7fe <reg_mskd_leq+0x3a>
     7f0:	6853      	ldr	r3, [r2, #4]
     7f2:	3106      	adds	r1, #6
     7f4:	438b      	bics	r3, r1
     7f6:	3904      	subs	r1, #4
     7f8:	430b      	orrs	r3, r1
     7fa:	6053      	str	r3, [r2, #4]
     7fc:	e006      	b.n	80c <reg_mskd_leq+0x48>
     7fe:	4a06      	ldr	r2, [pc, #24]	; (818 <reg_mskd_leq+0x54>)
     800:	6853      	ldr	r3, [r2, #4]
     802:	2106      	movs	r1, #6
     804:	438b      	bics	r3, r1
     806:	3902      	subs	r1, #2
     808:	430b      	orrs	r3, r1
     80a:	6053      	str	r3, [r2, #4]
     80c:	4770      	bx	lr
     80e:	46c0      	nop			; (mov r8, r8)
     810:	10001d20 	.word	0x10001d20
     814:	c1ffffff 	.word	0xc1ffffff
     818:	10001dc0 	.word	0x10001dc0

0000081c <reg_mskd_gtr>:
     81c:	4b0f      	ldr	r3, [pc, #60]	; (85c <reg_mskd_gtr+0x40>)
     81e:	685a      	ldr	r2, [r3, #4]
     820:	490f      	ldr	r1, [pc, #60]	; (860 <reg_mskd_gtr+0x44>)
     822:	4011      	ands	r1, r2
     824:	2298      	movs	r2, #152	; 0x98
     826:	0592      	lsls	r2, r2, #22
     828:	430a      	orrs	r2, r1
     82a:	605a      	str	r2, [r3, #4]
     82c:	4a0d      	ldr	r2, [pc, #52]	; (864 <reg_mskd_gtr+0x48>)
     82e:	2100      	movs	r1, #0
     830:	6051      	str	r1, [r2, #4]
     832:	685b      	ldr	r3, [r3, #4]
     834:	009b      	lsls	r3, r3, #2
     836:	0edb      	lsrs	r3, r3, #27
     838:	2b12      	cmp	r3, #18
     83a:	d906      	bls.n	84a <reg_mskd_gtr+0x2e>
     83c:	6853      	ldr	r3, [r2, #4]
     83e:	3106      	adds	r1, #6
     840:	438b      	bics	r3, r1
     842:	3904      	subs	r1, #4
     844:	430b      	orrs	r3, r1
     846:	6053      	str	r3, [r2, #4]
     848:	4770      	bx	lr
     84a:	4a06      	ldr	r2, [pc, #24]	; (864 <reg_mskd_gtr+0x48>)
     84c:	6853      	ldr	r3, [r2, #4]
     84e:	2106      	movs	r1, #6
     850:	438b      	bics	r3, r1
     852:	3902      	subs	r1, #2
     854:	430b      	orrs	r3, r1
     856:	6053      	str	r3, [r2, #4]
     858:	e7f6      	b.n	848 <reg_mskd_gtr+0x2c>
     85a:	46c0      	nop			; (mov r8, r8)
     85c:	10001d20 	.word	0x10001d20
     860:	c1ffffff 	.word	0xc1ffffff
     864:	10001dc0 	.word	0x10001dc0

00000868 <reg_mskd_geq>:
     868:	4b11      	ldr	r3, [pc, #68]	; (8b0 <reg_mskd_geq+0x48>)
     86a:	685a      	ldr	r2, [r3, #4]
     86c:	4911      	ldr	r1, [pc, #68]	; (8b4 <reg_mskd_geq+0x4c>)
     86e:	4011      	ands	r1, r2
     870:	2288      	movs	r2, #136	; 0x88
     872:	0592      	lsls	r2, r2, #22
     874:	430a      	orrs	r2, r1
     876:	605a      	str	r2, [r3, #4]
     878:	4a0f      	ldr	r2, [pc, #60]	; (8b8 <reg_mskd_geq+0x50>)
     87a:	2100      	movs	r1, #0
     87c:	6051      	str	r1, [r2, #4]
     87e:	685b      	ldr	r3, [r3, #4]
     880:	009b      	lsls	r3, r3, #2
     882:	d50c      	bpl.n	89e <reg_mskd_geq+0x36>
     884:	4b0a      	ldr	r3, [pc, #40]	; (8b0 <reg_mskd_geq+0x48>)
     886:	685b      	ldr	r3, [r3, #4]
     888:	009b      	lsls	r3, r3, #2
     88a:	0edb      	lsrs	r3, r3, #27
     88c:	2b10      	cmp	r3, #16
     88e:	d906      	bls.n	89e <reg_mskd_geq+0x36>
     890:	6853      	ldr	r3, [r2, #4]
     892:	3106      	adds	r1, #6
     894:	438b      	bics	r3, r1
     896:	3904      	subs	r1, #4
     898:	430b      	orrs	r3, r1
     89a:	6053      	str	r3, [r2, #4]
     89c:	e006      	b.n	8ac <reg_mskd_geq+0x44>
     89e:	4a06      	ldr	r2, [pc, #24]	; (8b8 <reg_mskd_geq+0x50>)
     8a0:	6853      	ldr	r3, [r2, #4]
     8a2:	2106      	movs	r1, #6
     8a4:	438b      	bics	r3, r1
     8a6:	3902      	subs	r1, #2
     8a8:	430b      	orrs	r3, r1
     8aa:	6053      	str	r3, [r2, #4]
     8ac:	4770      	bx	lr
     8ae:	46c0      	nop			; (mov r8, r8)
     8b0:	10001d20 	.word	0x10001d20
     8b4:	c1ffffff 	.word	0xc1ffffff
     8b8:	10001dc0 	.word	0x10001dc0

000008bc <pos_cmp_eq>:
     8bc:	4a04      	ldr	r2, [pc, #16]	; (8d0 <pos_cmp_eq+0x14>)
     8be:	2300      	movs	r3, #0
     8c0:	6053      	str	r3, [r2, #4]
     8c2:	6853      	ldr	r3, [r2, #4]
     8c4:	2106      	movs	r1, #6
     8c6:	438b      	bics	r3, r1
     8c8:	3904      	subs	r1, #4
     8ca:	430b      	orrs	r3, r1
     8cc:	6053      	str	r3, [r2, #4]
     8ce:	4770      	bx	lr
     8d0:	10001dc0 	.word	0x10001dc0

000008d4 <pos_cmp_ne>:
     8d4:	4a04      	ldr	r2, [pc, #16]	; (8e8 <pos_cmp_ne+0x14>)
     8d6:	2300      	movs	r3, #0
     8d8:	6053      	str	r3, [r2, #4]
     8da:	6853      	ldr	r3, [r2, #4]
     8dc:	2106      	movs	r1, #6
     8de:	438b      	bics	r3, r1
     8e0:	3904      	subs	r1, #4
     8e2:	430b      	orrs	r3, r1
     8e4:	6053      	str	r3, [r2, #4]
     8e6:	4770      	bx	lr
     8e8:	10001dc0 	.word	0x10001dc0

000008ec <bits_extract_eq>:
     8ec:	4b0c      	ldr	r3, [pc, #48]	; (920 <bits_extract_eq+0x34>)
     8ee:	685a      	ldr	r2, [r3, #4]
     8f0:	2140      	movs	r1, #64	; 0x40
     8f2:	430a      	orrs	r2, r1
     8f4:	605a      	str	r2, [r3, #4]
     8f6:	685a      	ldr	r2, [r3, #4]
     8f8:	2100      	movs	r1, #0
     8fa:	6059      	str	r1, [r3, #4]
     8fc:	0653      	lsls	r3, r2, #25
     8fe:	d507      	bpl.n	910 <bits_extract_eq+0x24>
     900:	4a07      	ldr	r2, [pc, #28]	; (920 <bits_extract_eq+0x34>)
     902:	6853      	ldr	r3, [r2, #4]
     904:	3106      	adds	r1, #6
     906:	438b      	bics	r3, r1
     908:	3904      	subs	r1, #4
     90a:	430b      	orrs	r3, r1
     90c:	6053      	str	r3, [r2, #4]
     90e:	4770      	bx	lr
     910:	4a03      	ldr	r2, [pc, #12]	; (920 <bits_extract_eq+0x34>)
     912:	6853      	ldr	r3, [r2, #4]
     914:	2106      	movs	r1, #6
     916:	438b      	bics	r3, r1
     918:	3902      	subs	r1, #2
     91a:	430b      	orrs	r3, r1
     91c:	6053      	str	r3, [r2, #4]
     91e:	e7f6      	b.n	90e <bits_extract_eq+0x22>
     920:	10001dc0 	.word	0x10001dc0

00000924 <mskd_extract_eq>:
     924:	4a0c      	ldr	r2, [pc, #48]	; (958 <mskd_extract_eq+0x34>)
     926:	6853      	ldr	r3, [r2, #4]
     928:	2106      	movs	r1, #6
     92a:	438b      	bics	r3, r1
     92c:	3904      	subs	r1, #4
     92e:	430b      	orrs	r3, r1
     930:	6053      	str	r3, [r2, #4]
     932:	6853      	ldr	r3, [r2, #4]
     934:	2100      	movs	r1, #0
     936:	6051      	str	r1, [r2, #4]
     938:	075b      	lsls	r3, r3, #29
     93a:	0f9b      	lsrs	r3, r3, #30
     93c:	2b01      	cmp	r3, #1
     93e:	d005      	beq.n	94c <mskd_extract_eq+0x28>
     940:	4a05      	ldr	r2, [pc, #20]	; (958 <mskd_extract_eq+0x34>)
     942:	6853      	ldr	r3, [r2, #4]
     944:	2140      	movs	r1, #64	; 0x40
     946:	430b      	orrs	r3, r1
     948:	6053      	str	r3, [r2, #4]
     94a:	4770      	bx	lr
     94c:	6853      	ldr	r3, [r2, #4]
     94e:	3120      	adds	r1, #32
     950:	430b      	orrs	r3, r1
     952:	6053      	str	r3, [r2, #4]
     954:	e7f9      	b.n	94a <mskd_extract_eq+0x26>
     956:	46c0      	nop			; (mov r8, r8)
     958:	10001dc0 	.word	0x10001dc0

0000095c <mskd_extract_ne>:
     95c:	4a0c      	ldr	r2, [pc, #48]	; (990 <mskd_extract_ne+0x34>)
     95e:	2100      	movs	r1, #0
     960:	6051      	str	r1, [r2, #4]
     962:	6853      	ldr	r3, [r2, #4]
     964:	2006      	movs	r0, #6
     966:	4383      	bics	r3, r0
     968:	3802      	subs	r0, #2
     96a:	4303      	orrs	r3, r0
     96c:	6053      	str	r3, [r2, #4]
     96e:	6853      	ldr	r3, [r2, #4]
     970:	6051      	str	r1, [r2, #4]
     972:	075b      	lsls	r3, r3, #29
     974:	0f9b      	lsrs	r3, r3, #30
     976:	2b02      	cmp	r3, #2
     978:	d004      	beq.n	984 <mskd_extract_ne+0x28>
     97a:	6853      	ldr	r3, [r2, #4]
     97c:	3120      	adds	r1, #32
     97e:	430b      	orrs	r3, r1
     980:	6053      	str	r3, [r2, #4]
     982:	4770      	bx	lr
     984:	4a02      	ldr	r2, [pc, #8]	; (990 <mskd_extract_ne+0x34>)
     986:	6853      	ldr	r3, [r2, #4]
     988:	2140      	movs	r1, #64	; 0x40
     98a:	430b      	orrs	r3, r1
     98c:	6053      	str	r3, [r2, #4]
     98e:	e7f8      	b.n	982 <mskd_extract_ne+0x26>
     990:	10001dc0 	.word	0x10001dc0

00000994 <mskd_extract_lss>:
     994:	4b0d      	ldr	r3, [pc, #52]	; (9cc <mskd_extract_lss+0x38>)
     996:	2000      	movs	r0, #0
     998:	6058      	str	r0, [r3, #4]
     99a:	685a      	ldr	r2, [r3, #4]
     99c:	490c      	ldr	r1, [pc, #48]	; (9d0 <mskd_extract_lss+0x3c>)
     99e:	4011      	ands	r1, r2
     9a0:	22b0      	movs	r2, #176	; 0xb0
     9a2:	0552      	lsls	r2, r2, #21
     9a4:	430a      	orrs	r2, r1
     9a6:	605a      	str	r2, [r3, #4]
     9a8:	685b      	ldr	r3, [r3, #4]
     9aa:	4a0a      	ldr	r2, [pc, #40]	; (9d4 <mskd_extract_lss+0x40>)
     9ac:	6050      	str	r0, [r2, #4]
     9ae:	009b      	lsls	r3, r3, #2
     9b0:	0edb      	lsrs	r3, r3, #27
     9b2:	2b0b      	cmp	r3, #11
     9b4:	d804      	bhi.n	9c0 <mskd_extract_lss+0x2c>
     9b6:	6853      	ldr	r3, [r2, #4]
     9b8:	2120      	movs	r1, #32
     9ba:	430b      	orrs	r3, r1
     9bc:	6053      	str	r3, [r2, #4]
     9be:	4770      	bx	lr
     9c0:	4a04      	ldr	r2, [pc, #16]	; (9d4 <mskd_extract_lss+0x40>)
     9c2:	6853      	ldr	r3, [r2, #4]
     9c4:	2140      	movs	r1, #64	; 0x40
     9c6:	430b      	orrs	r3, r1
     9c8:	6053      	str	r3, [r2, #4]
     9ca:	e7f8      	b.n	9be <mskd_extract_lss+0x2a>
     9cc:	10001d20 	.word	0x10001d20
     9d0:	c1ffffff 	.word	0xc1ffffff
     9d4:	10001dc0 	.word	0x10001dc0

000009d8 <mskd_extract_leq>:
     9d8:	4b0f      	ldr	r3, [pc, #60]	; (a18 <mskd_extract_leq+0x40>)
     9da:	2000      	movs	r0, #0
     9dc:	6058      	str	r0, [r3, #4]
     9de:	685a      	ldr	r2, [r3, #4]
     9e0:	490e      	ldr	r1, [pc, #56]	; (a1c <mskd_extract_leq+0x44>)
     9e2:	4011      	ands	r1, r2
     9e4:	22b8      	movs	r2, #184	; 0xb8
     9e6:	0592      	lsls	r2, r2, #22
     9e8:	430a      	orrs	r2, r1
     9ea:	605a      	str	r2, [r3, #4]
     9ec:	685b      	ldr	r3, [r3, #4]
     9ee:	4a0c      	ldr	r2, [pc, #48]	; (a20 <mskd_extract_leq+0x48>)
     9f0:	6050      	str	r0, [r2, #4]
     9f2:	009a      	lsls	r2, r3, #2
     9f4:	0ed2      	lsrs	r2, r2, #27
     9f6:	2a17      	cmp	r2, #23
     9f8:	d807      	bhi.n	a0a <mskd_extract_leq+0x32>
     9fa:	2a18      	cmp	r2, #24
     9fc:	d805      	bhi.n	a0a <mskd_extract_leq+0x32>
     9fe:	4a08      	ldr	r2, [pc, #32]	; (a20 <mskd_extract_leq+0x48>)
     a00:	6853      	ldr	r3, [r2, #4]
     a02:	2120      	movs	r1, #32
     a04:	430b      	orrs	r3, r1
     a06:	6053      	str	r3, [r2, #4]
     a08:	e004      	b.n	a14 <mskd_extract_leq+0x3c>
     a0a:	4a05      	ldr	r2, [pc, #20]	; (a20 <mskd_extract_leq+0x48>)
     a0c:	6853      	ldr	r3, [r2, #4]
     a0e:	2140      	movs	r1, #64	; 0x40
     a10:	430b      	orrs	r3, r1
     a12:	6053      	str	r3, [r2, #4]
     a14:	4770      	bx	lr
     a16:	46c0      	nop			; (mov r8, r8)
     a18:	10001d20 	.word	0x10001d20
     a1c:	c1ffffff 	.word	0xc1ffffff
     a20:	10001dc0 	.word	0x10001dc0

00000a24 <mskd_extract_gtr>:
     a24:	4b0d      	ldr	r3, [pc, #52]	; (a5c <mskd_extract_gtr+0x38>)
     a26:	2000      	movs	r0, #0
     a28:	6058      	str	r0, [r3, #4]
     a2a:	685a      	ldr	r2, [r3, #4]
     a2c:	490c      	ldr	r1, [pc, #48]	; (a60 <mskd_extract_gtr+0x3c>)
     a2e:	4011      	ands	r1, r2
     a30:	2298      	movs	r2, #152	; 0x98
     a32:	0592      	lsls	r2, r2, #22
     a34:	430a      	orrs	r2, r1
     a36:	605a      	str	r2, [r3, #4]
     a38:	685b      	ldr	r3, [r3, #4]
     a3a:	4a0a      	ldr	r2, [pc, #40]	; (a64 <mskd_extract_gtr+0x40>)
     a3c:	6050      	str	r0, [r2, #4]
     a3e:	009b      	lsls	r3, r3, #2
     a40:	0edb      	lsrs	r3, r3, #27
     a42:	2b12      	cmp	r3, #18
     a44:	d904      	bls.n	a50 <mskd_extract_gtr+0x2c>
     a46:	6853      	ldr	r3, [r2, #4]
     a48:	2120      	movs	r1, #32
     a4a:	430b      	orrs	r3, r1
     a4c:	6053      	str	r3, [r2, #4]
     a4e:	4770      	bx	lr
     a50:	4a04      	ldr	r2, [pc, #16]	; (a64 <mskd_extract_gtr+0x40>)
     a52:	6853      	ldr	r3, [r2, #4]
     a54:	2140      	movs	r1, #64	; 0x40
     a56:	430b      	orrs	r3, r1
     a58:	6053      	str	r3, [r2, #4]
     a5a:	e7f8      	b.n	a4e <mskd_extract_gtr+0x2a>
     a5c:	10001d20 	.word	0x10001d20
     a60:	c1ffffff 	.word	0xc1ffffff
     a64:	10001dc0 	.word	0x10001dc0

00000a68 <set_bits_global>:
     a68:	4a02      	ldr	r2, [pc, #8]	; (a74 <set_bits_global+0xc>)
     a6a:	6853      	ldr	r3, [r2, #4]
     a6c:	2140      	movs	r1, #64	; 0x40
     a6e:	430b      	orrs	r3, r1
     a70:	6053      	str	r3, [r2, #4]
     a72:	4770      	bx	lr
     a74:	10001dc0 	.word	0x10001dc0

00000a78 <ins_mskd_global>:
     a78:	4a03      	ldr	r2, [pc, #12]	; (a88 <ins_mskd_global+0x10>)
     a7a:	6853      	ldr	r3, [r2, #4]
     a7c:	2106      	movs	r1, #6
     a7e:	438b      	bics	r3, r1
     a80:	3904      	subs	r1, #4
     a82:	430b      	orrs	r3, r1
     a84:	6053      	str	r3, [r2, #4]
     a86:	4770      	bx	lr
     a88:	10001dc0 	.word	0x10001dc0

00000a8c <assign_array_global>:
     a8c:	4b01      	ldr	r3, [pc, #4]	; (a94 <assign_array_global+0x8>)
     a8e:	22bd      	movs	r2, #189	; 0xbd
     a90:	601a      	str	r2, [r3, #0]
     a92:	4770      	bx	lr
     a94:	10001c2c 	.word	0x10001c2c

00000a98 <shifted_global>:
     a98:	4b06      	ldr	r3, [pc, #24]	; (ab4 <shifted_global+0x1c>)
     a9a:	685a      	ldr	r2, [r3, #4]
     a9c:	4906      	ldr	r1, [pc, #24]	; (ab8 <shifted_global+0x20>)
     a9e:	4011      	ands	r1, r2
     aa0:	22b8      	movs	r2, #184	; 0xb8
     aa2:	0592      	lsls	r2, r2, #22
     aa4:	430a      	orrs	r2, r1
     aa6:	605a      	str	r2, [r3, #4]
     aa8:	685b      	ldr	r3, [r3, #4]
     aaa:	009b      	lsls	r3, r3, #2
     aac:	0edb      	lsrs	r3, r3, #27
     aae:	4a03      	ldr	r2, [pc, #12]	; (abc <shifted_global+0x24>)
     ab0:	62d3      	str	r3, [r2, #44]	; 0x2c
     ab2:	4770      	bx	lr
     ab4:	10001d20 	.word	0x10001d20
     ab8:	c1ffffff 	.word	0xc1ffffff
     abc:	10001c00 	.word	0x10001c00

00000ac0 <assign_register_global>:
     ac0:	4a04      	ldr	r2, [pc, #16]	; (ad4 <assign_register_global+0x14>)
     ac2:	2300      	movs	r3, #0
     ac4:	6053      	str	r3, [r2, #4]
     ac6:	6853      	ldr	r3, [r2, #4]
     ac8:	2106      	movs	r1, #6
     aca:	438b      	bics	r3, r1
     acc:	3902      	subs	r1, #2
     ace:	430b      	orrs	r3, r1
     ad0:	6053      	str	r3, [r2, #4]
     ad2:	4770      	bx	lr
     ad4:	10001dc0 	.word	0x10001dc0

00000ad8 <copy_bits_equ>:
     ad8:	4b0d      	ldr	r3, [pc, #52]	; (b10 <copy_bits_equ+0x38>)
     ada:	2100      	movs	r1, #0
     adc:	6059      	str	r1, [r3, #4]
     ade:	685a      	ldr	r2, [r3, #4]
     ae0:	2040      	movs	r0, #64	; 0x40
     ae2:	4302      	orrs	r2, r0
     ae4:	605a      	str	r2, [r3, #4]
     ae6:	685a      	ldr	r2, [r3, #4]
     ae8:	6059      	str	r1, [r3, #4]
     aea:	0653      	lsls	r3, r2, #25
     aec:	d407      	bmi.n	afe <copy_bits_equ+0x26>
     aee:	4a08      	ldr	r2, [pc, #32]	; (b10 <copy_bits_equ+0x38>)
     af0:	6853      	ldr	r3, [r2, #4]
     af2:	2106      	movs	r1, #6
     af4:	438b      	bics	r3, r1
     af6:	3902      	subs	r1, #2
     af8:	430b      	orrs	r3, r1
     afa:	6053      	str	r3, [r2, #4]
     afc:	4770      	bx	lr
     afe:	4a04      	ldr	r2, [pc, #16]	; (b10 <copy_bits_equ+0x38>)
     b00:	6853      	ldr	r3, [r2, #4]
     b02:	3106      	adds	r1, #6
     b04:	438b      	bics	r3, r1
     b06:	3904      	subs	r1, #4
     b08:	430b      	orrs	r3, r1
     b0a:	6053      	str	r3, [r2, #4]
     b0c:	e7f6      	b.n	afc <copy_bits_equ+0x24>
     b0e:	46c0      	nop			; (mov r8, r8)
     b10:	10001dc0 	.word	0x10001dc0

00000b14 <copy_bits_neq>:
     b14:	4b0d      	ldr	r3, [pc, #52]	; (b4c <copy_bits_neq+0x38>)
     b16:	2100      	movs	r1, #0
     b18:	6059      	str	r1, [r3, #4]
     b1a:	685a      	ldr	r2, [r3, #4]
     b1c:	2040      	movs	r0, #64	; 0x40
     b1e:	4302      	orrs	r2, r0
     b20:	605a      	str	r2, [r3, #4]
     b22:	685a      	ldr	r2, [r3, #4]
     b24:	6059      	str	r1, [r3, #4]
     b26:	0653      	lsls	r3, r2, #25
     b28:	d407      	bmi.n	b3a <copy_bits_neq+0x26>
     b2a:	4a08      	ldr	r2, [pc, #32]	; (b4c <copy_bits_neq+0x38>)
     b2c:	6853      	ldr	r3, [r2, #4]
     b2e:	3106      	adds	r1, #6
     b30:	438b      	bics	r3, r1
     b32:	3904      	subs	r1, #4
     b34:	430b      	orrs	r3, r1
     b36:	6053      	str	r3, [r2, #4]
     b38:	4770      	bx	lr
     b3a:	4a04      	ldr	r2, [pc, #16]	; (b4c <copy_bits_neq+0x38>)
     b3c:	6853      	ldr	r3, [r2, #4]
     b3e:	2106      	movs	r1, #6
     b40:	438b      	bics	r3, r1
     b42:	3902      	subs	r1, #2
     b44:	430b      	orrs	r3, r1
     b46:	6053      	str	r3, [r2, #4]
     b48:	e7f6      	b.n	b38 <copy_bits_neq+0x24>
     b4a:	46c0      	nop			; (mov r8, r8)
     b4c:	10001dc0 	.word	0x10001dc0

00000b50 <copy_mskd_equ>:
     b50:	4b0f      	ldr	r3, [pc, #60]	; (b90 <copy_mskd_equ+0x40>)
     b52:	2000      	movs	r0, #0
     b54:	6058      	str	r0, [r3, #4]
     b56:	685a      	ldr	r2, [r3, #4]
     b58:	490e      	ldr	r1, [pc, #56]	; (b94 <copy_mskd_equ+0x44>)
     b5a:	4011      	ands	r1, r2
     b5c:	22b0      	movs	r2, #176	; 0xb0
     b5e:	0552      	lsls	r2, r2, #21
     b60:	430a      	orrs	r2, r1
     b62:	605a      	str	r2, [r3, #4]
     b64:	685b      	ldr	r3, [r3, #4]
     b66:	009b      	lsls	r3, r3, #2
     b68:	0edb      	lsrs	r3, r3, #27
     b6a:	4a0b      	ldr	r2, [pc, #44]	; (b98 <copy_mskd_equ+0x48>)
     b6c:	6050      	str	r0, [r2, #4]
     b6e:	2b0b      	cmp	r3, #11
     b70:	d007      	beq.n	b82 <copy_mskd_equ+0x32>
     b72:	4a09      	ldr	r2, [pc, #36]	; (b98 <copy_mskd_equ+0x48>)
     b74:	6853      	ldr	r3, [r2, #4]
     b76:	2106      	movs	r1, #6
     b78:	438b      	bics	r3, r1
     b7a:	3902      	subs	r1, #2
     b7c:	430b      	orrs	r3, r1
     b7e:	6053      	str	r3, [r2, #4]
     b80:	4770      	bx	lr
     b82:	6853      	ldr	r3, [r2, #4]
     b84:	2106      	movs	r1, #6
     b86:	438b      	bics	r3, r1
     b88:	3904      	subs	r1, #4
     b8a:	430b      	orrs	r3, r1
     b8c:	6053      	str	r3, [r2, #4]
     b8e:	e7f7      	b.n	b80 <copy_mskd_equ+0x30>
     b90:	10001d20 	.word	0x10001d20
     b94:	c1ffffff 	.word	0xc1ffffff
     b98:	10001dc0 	.word	0x10001dc0

00000b9c <copy_mskd_neq>:
     b9c:	4b0f      	ldr	r3, [pc, #60]	; (bdc <copy_mskd_neq+0x40>)
     b9e:	2000      	movs	r0, #0
     ba0:	6058      	str	r0, [r3, #4]
     ba2:	685a      	ldr	r2, [r3, #4]
     ba4:	490e      	ldr	r1, [pc, #56]	; (be0 <copy_mskd_neq+0x44>)
     ba6:	4011      	ands	r1, r2
     ba8:	22d0      	movs	r2, #208	; 0xd0
     baa:	0552      	lsls	r2, r2, #21
     bac:	430a      	orrs	r2, r1
     bae:	605a      	str	r2, [r3, #4]
     bb0:	685b      	ldr	r3, [r3, #4]
     bb2:	009b      	lsls	r3, r3, #2
     bb4:	0edb      	lsrs	r3, r3, #27
     bb6:	4a0b      	ldr	r2, [pc, #44]	; (be4 <copy_mskd_neq+0x48>)
     bb8:	6050      	str	r0, [r2, #4]
     bba:	2b0d      	cmp	r3, #13
     bbc:	d006      	beq.n	bcc <copy_mskd_neq+0x30>
     bbe:	6853      	ldr	r3, [r2, #4]
     bc0:	2106      	movs	r1, #6
     bc2:	438b      	bics	r3, r1
     bc4:	3904      	subs	r1, #4
     bc6:	430b      	orrs	r3, r1
     bc8:	6053      	str	r3, [r2, #4]
     bca:	4770      	bx	lr
     bcc:	4a05      	ldr	r2, [pc, #20]	; (be4 <copy_mskd_neq+0x48>)
     bce:	6853      	ldr	r3, [r2, #4]
     bd0:	2106      	movs	r1, #6
     bd2:	438b      	bics	r3, r1
     bd4:	3902      	subs	r1, #2
     bd6:	430b      	orrs	r3, r1
     bd8:	6053      	str	r3, [r2, #4]
     bda:	e7f6      	b.n	bca <copy_mskd_neq+0x2e>
     bdc:	10001d20 	.word	0x10001d20
     be0:	c1ffffff 	.word	0xc1ffffff
     be4:	10001dc0 	.word	0x10001dc0

00000be8 <copy_mskd_lss>:
     be8:	4b0f      	ldr	r3, [pc, #60]	; (c28 <copy_mskd_lss+0x40>)
     bea:	2000      	movs	r0, #0
     bec:	6058      	str	r0, [r3, #4]
     bee:	685a      	ldr	r2, [r3, #4]
     bf0:	490e      	ldr	r1, [pc, #56]	; (c2c <copy_mskd_lss+0x44>)
     bf2:	4011      	ands	r1, r2
     bf4:	22d8      	movs	r2, #216	; 0xd8
     bf6:	0592      	lsls	r2, r2, #22
     bf8:	430a      	orrs	r2, r1
     bfa:	605a      	str	r2, [r3, #4]
     bfc:	685b      	ldr	r3, [r3, #4]
     bfe:	009b      	lsls	r3, r3, #2
     c00:	0edb      	lsrs	r3, r3, #27
     c02:	4a0b      	ldr	r2, [pc, #44]	; (c30 <copy_mskd_lss+0x48>)
     c04:	6050      	str	r0, [r2, #4]
     c06:	2b1b      	cmp	r3, #27
     c08:	d806      	bhi.n	c18 <copy_mskd_lss+0x30>
     c0a:	6853      	ldr	r3, [r2, #4]
     c0c:	2106      	movs	r1, #6
     c0e:	438b      	bics	r3, r1
     c10:	3904      	subs	r1, #4
     c12:	430b      	orrs	r3, r1
     c14:	6053      	str	r3, [r2, #4]
     c16:	4770      	bx	lr
     c18:	4a05      	ldr	r2, [pc, #20]	; (c30 <copy_mskd_lss+0x48>)
     c1a:	6853      	ldr	r3, [r2, #4]
     c1c:	2106      	movs	r1, #6
     c1e:	438b      	bics	r3, r1
     c20:	3902      	subs	r1, #2
     c22:	430b      	orrs	r3, r1
     c24:	6053      	str	r3, [r2, #4]
     c26:	e7f6      	b.n	c16 <copy_mskd_lss+0x2e>
     c28:	10001d20 	.word	0x10001d20
     c2c:	c1ffffff 	.word	0xc1ffffff
     c30:	10001dc0 	.word	0x10001dc0

00000c34 <copy_mskd_leq>:
     c34:	4b0f      	ldr	r3, [pc, #60]	; (c74 <copy_mskd_leq+0x40>)
     c36:	2000      	movs	r0, #0
     c38:	6058      	str	r0, [r3, #4]
     c3a:	685a      	ldr	r2, [r3, #4]
     c3c:	490e      	ldr	r1, [pc, #56]	; (c78 <copy_mskd_leq+0x44>)
     c3e:	4011      	ands	r1, r2
     c40:	22b8      	movs	r2, #184	; 0xb8
     c42:	0592      	lsls	r2, r2, #22
     c44:	430a      	orrs	r2, r1
     c46:	605a      	str	r2, [r3, #4]
     c48:	685b      	ldr	r3, [r3, #4]
     c4a:	009b      	lsls	r3, r3, #2
     c4c:	0edb      	lsrs	r3, r3, #27
     c4e:	4a0b      	ldr	r2, [pc, #44]	; (c7c <copy_mskd_leq+0x48>)
     c50:	6050      	str	r0, [r2, #4]
     c52:	2b17      	cmp	r3, #23
     c54:	d806      	bhi.n	c64 <copy_mskd_leq+0x30>
     c56:	6853      	ldr	r3, [r2, #4]
     c58:	2106      	movs	r1, #6
     c5a:	438b      	bics	r3, r1
     c5c:	3904      	subs	r1, #4
     c5e:	430b      	orrs	r3, r1
     c60:	6053      	str	r3, [r2, #4]
     c62:	4770      	bx	lr
     c64:	4a05      	ldr	r2, [pc, #20]	; (c7c <copy_mskd_leq+0x48>)
     c66:	6853      	ldr	r3, [r2, #4]
     c68:	2106      	movs	r1, #6
     c6a:	438b      	bics	r3, r1
     c6c:	3902      	subs	r1, #2
     c6e:	430b      	orrs	r3, r1
     c70:	6053      	str	r3, [r2, #4]
     c72:	e7f6      	b.n	c62 <copy_mskd_leq+0x2e>
     c74:	10001d20 	.word	0x10001d20
     c78:	c1ffffff 	.word	0xc1ffffff
     c7c:	10001dc0 	.word	0x10001dc0

00000c80 <copy_mskd_gtr>:
     c80:	4b0f      	ldr	r3, [pc, #60]	; (cc0 <copy_mskd_gtr+0x40>)
     c82:	2000      	movs	r0, #0
     c84:	6058      	str	r0, [r3, #4]
     c86:	685a      	ldr	r2, [r3, #4]
     c88:	490e      	ldr	r1, [pc, #56]	; (cc4 <copy_mskd_gtr+0x44>)
     c8a:	4011      	ands	r1, r2
     c8c:	2298      	movs	r2, #152	; 0x98
     c8e:	0592      	lsls	r2, r2, #22
     c90:	430a      	orrs	r2, r1
     c92:	605a      	str	r2, [r3, #4]
     c94:	685b      	ldr	r3, [r3, #4]
     c96:	009b      	lsls	r3, r3, #2
     c98:	0edb      	lsrs	r3, r3, #27
     c9a:	4a0b      	ldr	r2, [pc, #44]	; (cc8 <copy_mskd_gtr+0x48>)
     c9c:	6050      	str	r0, [r2, #4]
     c9e:	2b12      	cmp	r3, #18
     ca0:	d906      	bls.n	cb0 <copy_mskd_gtr+0x30>
     ca2:	6853      	ldr	r3, [r2, #4]
     ca4:	2106      	movs	r1, #6
     ca6:	438b      	bics	r3, r1
     ca8:	3904      	subs	r1, #4
     caa:	430b      	orrs	r3, r1
     cac:	6053      	str	r3, [r2, #4]
     cae:	4770      	bx	lr
     cb0:	4a05      	ldr	r2, [pc, #20]	; (cc8 <copy_mskd_gtr+0x48>)
     cb2:	6853      	ldr	r3, [r2, #4]
     cb4:	2106      	movs	r1, #6
     cb6:	438b      	bics	r3, r1
     cb8:	3902      	subs	r1, #2
     cba:	430b      	orrs	r3, r1
     cbc:	6053      	str	r3, [r2, #4]
     cbe:	e7f6      	b.n	cae <copy_mskd_gtr+0x2e>
     cc0:	10001d20 	.word	0x10001d20
     cc4:	c1ffffff 	.word	0xc1ffffff
     cc8:	10001dc0 	.word	0x10001dc0

00000ccc <copy_mskd_geq>:
     ccc:	4b0f      	ldr	r3, [pc, #60]	; (d0c <copy_mskd_geq+0x40>)
     cce:	2000      	movs	r0, #0
     cd0:	6058      	str	r0, [r3, #4]
     cd2:	685a      	ldr	r2, [r3, #4]
     cd4:	490e      	ldr	r1, [pc, #56]	; (d10 <copy_mskd_geq+0x44>)
     cd6:	4011      	ands	r1, r2
     cd8:	2288      	movs	r2, #136	; 0x88
     cda:	0592      	lsls	r2, r2, #22
     cdc:	430a      	orrs	r2, r1
     cde:	605a      	str	r2, [r3, #4]
     ce0:	685b      	ldr	r3, [r3, #4]
     ce2:	009b      	lsls	r3, r3, #2
     ce4:	0edb      	lsrs	r3, r3, #27
     ce6:	4a0b      	ldr	r2, [pc, #44]	; (d14 <copy_mskd_geq+0x48>)
     ce8:	6050      	str	r0, [r2, #4]
     cea:	2b10      	cmp	r3, #16
     cec:	d906      	bls.n	cfc <copy_mskd_geq+0x30>
     cee:	6853      	ldr	r3, [r2, #4]
     cf0:	2106      	movs	r1, #6
     cf2:	438b      	bics	r3, r1
     cf4:	3904      	subs	r1, #4
     cf6:	430b      	orrs	r3, r1
     cf8:	6053      	str	r3, [r2, #4]
     cfa:	4770      	bx	lr
     cfc:	4a05      	ldr	r2, [pc, #20]	; (d14 <copy_mskd_geq+0x48>)
     cfe:	6853      	ldr	r3, [r2, #4]
     d00:	2106      	movs	r1, #6
     d02:	438b      	bics	r3, r1
     d04:	3902      	subs	r1, #2
     d06:	430b      	orrs	r3, r1
     d08:	6053      	str	r3, [r2, #4]
     d0a:	e7f6      	b.n	cfa <copy_mskd_geq+0x2e>
     d0c:	10001d20 	.word	0x10001d20
     d10:	c1ffffff 	.word	0xc1ffffff
     d14:	10001dc0 	.word	0x10001dc0

00000d18 <copy_shifted>:
     d18:	4b0f      	ldr	r3, [pc, #60]	; (d58 <copy_shifted+0x40>)
     d1a:	2000      	movs	r0, #0
     d1c:	6058      	str	r0, [r3, #4]
     d1e:	685a      	ldr	r2, [r3, #4]
     d20:	490e      	ldr	r1, [pc, #56]	; (d5c <copy_shifted+0x44>)
     d22:	4011      	ands	r1, r2
     d24:	22b0      	movs	r2, #176	; 0xb0
     d26:	0552      	lsls	r2, r2, #21
     d28:	430a      	orrs	r2, r1
     d2a:	605a      	str	r2, [r3, #4]
     d2c:	685b      	ldr	r3, [r3, #4]
     d2e:	009b      	lsls	r3, r3, #2
     d30:	0edb      	lsrs	r3, r3, #27
     d32:	4a0b      	ldr	r2, [pc, #44]	; (d60 <copy_shifted+0x48>)
     d34:	6050      	str	r0, [r2, #4]
     d36:	2b0b      	cmp	r3, #11
     d38:	d007      	beq.n	d4a <copy_shifted+0x32>
     d3a:	4a09      	ldr	r2, [pc, #36]	; (d60 <copy_shifted+0x48>)
     d3c:	6853      	ldr	r3, [r2, #4]
     d3e:	2106      	movs	r1, #6
     d40:	438b      	bics	r3, r1
     d42:	3902      	subs	r1, #2
     d44:	430b      	orrs	r3, r1
     d46:	6053      	str	r3, [r2, #4]
     d48:	4770      	bx	lr
     d4a:	6853      	ldr	r3, [r2, #4]
     d4c:	2106      	movs	r1, #6
     d4e:	438b      	bics	r3, r1
     d50:	3904      	subs	r1, #4
     d52:	430b      	orrs	r3, r1
     d54:	6053      	str	r3, [r2, #4]
     d56:	e7f7      	b.n	d48 <copy_shifted+0x30>
     d58:	10001d20 	.word	0x10001d20
     d5c:	c1ffffff 	.word	0xc1ffffff
     d60:	10001dc0 	.word	0x10001dc0

00000d64 <bits_val>:
     d64:	2803      	cmp	r0, #3
     d66:	d01e      	beq.n	da6 <bits_val+0x42>
     d68:	2804      	cmp	r0, #4
     d6a:	d00e      	beq.n	d8a <bits_val+0x26>
     d6c:	2800      	cmp	r0, #0
     d6e:	d000      	beq.n	d72 <bits_val+0xe>
     d70:	4770      	bx	lr
     d72:	3001      	adds	r0, #1
     d74:	4a13      	ldr	r2, [pc, #76]	; (dc4 <bits_val+0x60>)
     d76:	4001      	ands	r1, r0
     d78:	6853      	ldr	r3, [r2, #4]
     d7a:	4383      	bics	r3, r0
     d7c:	430b      	orrs	r3, r1
     d7e:	6053      	str	r3, [r2, #4]
     d80:	6853      	ldr	r3, [r2, #4]
     d82:	4383      	bics	r3, r0
     d84:	4319      	orrs	r1, r3
     d86:	6051      	str	r1, [r2, #4]
     d88:	e7f2      	b.n	d70 <bits_val+0xc>
     d8a:	4a0e      	ldr	r2, [pc, #56]	; (dc4 <bits_val+0x60>)
     d8c:	2301      	movs	r3, #1
     d8e:	4019      	ands	r1, r3
     d90:	0189      	lsls	r1, r1, #6
     d92:	6853      	ldr	r3, [r2, #4]
     d94:	2040      	movs	r0, #64	; 0x40
     d96:	4383      	bics	r3, r0
     d98:	430b      	orrs	r3, r1
     d9a:	6053      	str	r3, [r2, #4]
     d9c:	6853      	ldr	r3, [r2, #4]
     d9e:	4383      	bics	r3, r0
     da0:	4319      	orrs	r1, r3
     da2:	6051      	str	r1, [r2, #4]
     da4:	e7e4      	b.n	d70 <bits_val+0xc>
     da6:	4a07      	ldr	r2, [pc, #28]	; (dc4 <bits_val+0x60>)
     da8:	2301      	movs	r3, #1
     daa:	4019      	ands	r1, r3
     dac:	0149      	lsls	r1, r1, #5
     dae:	6853      	ldr	r3, [r2, #4]
     db0:	2020      	movs	r0, #32
     db2:	4383      	bics	r3, r0
     db4:	430b      	orrs	r3, r1
     db6:	6053      	str	r3, [r2, #4]
     db8:	6853      	ldr	r3, [r2, #4]
     dba:	4383      	bics	r3, r0
     dbc:	4319      	orrs	r1, r3
     dbe:	6051      	str	r1, [r2, #4]
     dc0:	e7d6      	b.n	d70 <bits_val+0xc>
     dc2:	46c0      	nop			; (mov r8, r8)
     dc4:	10001dc0 	.word	0x10001dc0

00000dc8 <call_bits_val_const>:
     dc8:	b500      	push	{lr}
     dca:	2101      	movs	r1, #1
     dcc:	2004      	movs	r0, #4
     dce:	f7ff fffe 	bl	d64 <bits_val>
     dd2:	bd00      	pop	{pc}

00000dd4 <call_bits_val_var>:
     dd4:	b500      	push	{lr}
     dd6:	2101      	movs	r1, #1
     dd8:	2004      	movs	r0, #4
     dda:	f7ff fffe 	bl	d64 <bits_val>
     dde:	bd00      	pop	{pc}

00000de0 <call_bits_val_global>:
     de0:	b500      	push	{lr}
     de2:	2101      	movs	r1, #1
     de4:	2004      	movs	r0, #4
     de6:	f7ff fffe 	bl	d64 <bits_val>
     dea:	bd00      	pop	{pc}

00000dec <bits_ref>:
     dec:	b570      	push	{r4, r5, r6, lr}
     dee:	6803      	ldr	r3, [r0, #0]
     df0:	2b03      	cmp	r3, #3
     df2:	d025      	beq.n	e40 <bits_ref+0x54>
     df4:	2b04      	cmp	r3, #4
     df6:	d011      	beq.n	e1c <bits_ref+0x30>
     df8:	2b00      	cmp	r3, #0
     dfa:	d000      	beq.n	dfe <bits_ref+0x12>
     dfc:	bd70      	pop	{r4, r5, r6, pc}
     dfe:	2001      	movs	r0, #1
     e00:	4a18      	ldr	r2, [pc, #96]	; (e64 <bits_ref+0x78>)
     e02:	680c      	ldr	r4, [r1, #0]
     e04:	4004      	ands	r4, r0
     e06:	6853      	ldr	r3, [r2, #4]
     e08:	4383      	bics	r3, r0
     e0a:	4323      	orrs	r3, r4
     e0c:	6053      	str	r3, [r2, #4]
     e0e:	6809      	ldr	r1, [r1, #0]
     e10:	4001      	ands	r1, r0
     e12:	6853      	ldr	r3, [r2, #4]
     e14:	4383      	bics	r3, r0
     e16:	430b      	orrs	r3, r1
     e18:	6053      	str	r3, [r2, #4]
     e1a:	e7ef      	b.n	dfc <bits_ref+0x10>
     e1c:	2201      	movs	r2, #1
     e1e:	4d11      	ldr	r5, [pc, #68]	; (e64 <bits_ref+0x78>)
     e20:	680c      	ldr	r4, [r1, #0]
     e22:	4014      	ands	r4, r2
     e24:	01a4      	lsls	r4, r4, #6
     e26:	6868      	ldr	r0, [r5, #4]
     e28:	2640      	movs	r6, #64	; 0x40
     e2a:	43b0      	bics	r0, r6
     e2c:	4320      	orrs	r0, r4
     e2e:	6068      	str	r0, [r5, #4]
     e30:	680b      	ldr	r3, [r1, #0]
     e32:	401a      	ands	r2, r3
     e34:	0192      	lsls	r2, r2, #6
     e36:	686b      	ldr	r3, [r5, #4]
     e38:	43b3      	bics	r3, r6
     e3a:	4313      	orrs	r3, r2
     e3c:	606b      	str	r3, [r5, #4]
     e3e:	e7dd      	b.n	dfc <bits_ref+0x10>
     e40:	2201      	movs	r2, #1
     e42:	4d08      	ldr	r5, [pc, #32]	; (e64 <bits_ref+0x78>)
     e44:	680c      	ldr	r4, [r1, #0]
     e46:	4014      	ands	r4, r2
     e48:	0164      	lsls	r4, r4, #5
     e4a:	6868      	ldr	r0, [r5, #4]
     e4c:	2620      	movs	r6, #32
     e4e:	43b0      	bics	r0, r6
     e50:	4320      	orrs	r0, r4
     e52:	6068      	str	r0, [r5, #4]
     e54:	680b      	ldr	r3, [r1, #0]
     e56:	401a      	ands	r2, r3
     e58:	0152      	lsls	r2, r2, #5
     e5a:	686b      	ldr	r3, [r5, #4]
     e5c:	43b3      	bics	r3, r6
     e5e:	4313      	orrs	r3, r2
     e60:	606b      	str	r3, [r5, #4]
     e62:	e7cb      	b.n	dfc <bits_ref+0x10>
     e64:	10001dc0 	.word	0x10001dc0

00000e68 <call_bits_ref_const>:
     e68:	b500      	push	{lr}
     e6a:	b082      	sub	sp, #8
     e6c:	2300      	movs	r3, #0
     e6e:	9301      	str	r3, [sp, #4]
     e70:	3301      	adds	r3, #1
     e72:	9300      	str	r3, [sp, #0]
     e74:	4669      	mov	r1, sp
     e76:	a801      	add	r0, sp, #4
     e78:	f7ff fffe 	bl	dec <bits_ref>
     e7c:	b002      	add	sp, #8
     e7e:	bd00      	pop	{pc}

00000e80 <call_bits_ref_var>:
     e80:	b500      	push	{lr}
     e82:	b082      	sub	sp, #8
     e84:	2300      	movs	r3, #0
     e86:	9301      	str	r3, [sp, #4]
     e88:	3301      	adds	r3, #1
     e8a:	9300      	str	r3, [sp, #0]
     e8c:	4669      	mov	r1, sp
     e8e:	a801      	add	r0, sp, #4
     e90:	f7ff fffe 	bl	dec <bits_ref>
     e94:	b002      	add	sp, #8
     e96:	bd00      	pop	{pc}

00000e98 <call_bits_ref_global>:
     e98:	b500      	push	{lr}
     e9a:	b082      	sub	sp, #8
     e9c:	2304      	movs	r3, #4
     e9e:	9301      	str	r3, [sp, #4]
     ea0:	3b03      	subs	r3, #3
     ea2:	9300      	str	r3, [sp, #0]
     ea4:	4669      	mov	r1, sp
     ea6:	a801      	add	r0, sp, #4
     ea8:	f7ff fffe 	bl	dec <bits_ref>
     eac:	b002      	add	sp, #8
     eae:	bd00      	pop	{pc}

00000eb0 <mskd_val>:
     eb0:	b510      	push	{r4, lr}
     eb2:	2806      	cmp	r0, #6
     eb4:	d80f      	bhi.n	ed6 <mskd_val+0x26>
     eb6:	0080      	lsls	r0, r0, #2
     eb8:	4b31      	ldr	r3, [pc, #196]	; (f80 <mskd_val+0xd0>)
     eba:	581b      	ldr	r3, [r3, r0]
     ebc:	469f      	mov	pc, r3
     ebe:	2001      	movs	r0, #1
     ec0:	4a30      	ldr	r2, [pc, #192]	; (f84 <mskd_val+0xd4>)
     ec2:	4001      	ands	r1, r0
     ec4:	000c      	movs	r4, r1
     ec6:	6853      	ldr	r3, [r2, #4]
     ec8:	4383      	bics	r3, r0
     eca:	430b      	orrs	r3, r1
     ecc:	6053      	str	r3, [r2, #4]
     ece:	6851      	ldr	r1, [r2, #4]
     ed0:	4381      	bics	r1, r0
     ed2:	4321      	orrs	r1, r4
     ed4:	6051      	str	r1, [r2, #4]
     ed6:	bd10      	pop	{r4, pc}
     ed8:	4a2a      	ldr	r2, [pc, #168]	; (f84 <mskd_val+0xd4>)
     eda:	2303      	movs	r3, #3
     edc:	4019      	ands	r1, r3
     ede:	0049      	lsls	r1, r1, #1
     ee0:	6853      	ldr	r3, [r2, #4]
     ee2:	2006      	movs	r0, #6
     ee4:	4383      	bics	r3, r0
     ee6:	430b      	orrs	r3, r1
     ee8:	6053      	str	r3, [r2, #4]
     eea:	6853      	ldr	r3, [r2, #4]
     eec:	4383      	bics	r3, r0
     eee:	4319      	orrs	r1, r3
     ef0:	6051      	str	r1, [r2, #4]
     ef2:	e7f0      	b.n	ed6 <mskd_val+0x26>
     ef4:	4a23      	ldr	r2, [pc, #140]	; (f84 <mskd_val+0xd4>)
     ef6:	2303      	movs	r3, #3
     ef8:	4019      	ands	r1, r3
     efa:	00c9      	lsls	r1, r1, #3
     efc:	6853      	ldr	r3, [r2, #4]
     efe:	2018      	movs	r0, #24
     f00:	4383      	bics	r3, r0
     f02:	430b      	orrs	r3, r1
     f04:	6053      	str	r3, [r2, #4]
     f06:	6853      	ldr	r3, [r2, #4]
     f08:	4383      	bics	r3, r0
     f0a:	4319      	orrs	r1, r3
     f0c:	6051      	str	r1, [r2, #4]
     f0e:	e7e2      	b.n	ed6 <mskd_val+0x26>
     f10:	4a1c      	ldr	r2, [pc, #112]	; (f84 <mskd_val+0xd4>)
     f12:	2301      	movs	r3, #1
     f14:	4019      	ands	r1, r3
     f16:	0149      	lsls	r1, r1, #5
     f18:	6853      	ldr	r3, [r2, #4]
     f1a:	2020      	movs	r0, #32
     f1c:	4383      	bics	r3, r0
     f1e:	430b      	orrs	r3, r1
     f20:	6053      	str	r3, [r2, #4]
     f22:	6853      	ldr	r3, [r2, #4]
     f24:	4383      	bics	r3, r0
     f26:	4319      	orrs	r1, r3
     f28:	6051      	str	r1, [r2, #4]
     f2a:	e7d4      	b.n	ed6 <mskd_val+0x26>
     f2c:	4a15      	ldr	r2, [pc, #84]	; (f84 <mskd_val+0xd4>)
     f2e:	2303      	movs	r3, #3
     f30:	4019      	ands	r1, r3
     f32:	00c9      	lsls	r1, r1, #3
     f34:	6853      	ldr	r3, [r2, #4]
     f36:	2018      	movs	r0, #24
     f38:	4383      	bics	r3, r0
     f3a:	430b      	orrs	r3, r1
     f3c:	6053      	str	r3, [r2, #4]
     f3e:	6853      	ldr	r3, [r2, #4]
     f40:	4383      	bics	r3, r0
     f42:	4319      	orrs	r1, r3
     f44:	6051      	str	r1, [r2, #4]
     f46:	e7c6      	b.n	ed6 <mskd_val+0x26>
     f48:	480e      	ldr	r0, [pc, #56]	; (f84 <mskd_val+0xd4>)
     f4a:	231f      	movs	r3, #31
     f4c:	4019      	ands	r1, r3
     f4e:	01c9      	lsls	r1, r1, #7
     f50:	6842      	ldr	r2, [r0, #4]
     f52:	4c0d      	ldr	r4, [pc, #52]	; (f88 <mskd_val+0xd8>)
     f54:	4022      	ands	r2, r4
     f56:	430a      	orrs	r2, r1
     f58:	6042      	str	r2, [r0, #4]
     f5a:	6843      	ldr	r3, [r0, #4]
     f5c:	4023      	ands	r3, r4
     f5e:	4319      	orrs	r1, r3
     f60:	6041      	str	r1, [r0, #4]
     f62:	e7b8      	b.n	ed6 <mskd_val+0x26>
     f64:	4807      	ldr	r0, [pc, #28]	; (f84 <mskd_val+0xd4>)
     f66:	231f      	movs	r3, #31
     f68:	4019      	ands	r1, r3
     f6a:	0309      	lsls	r1, r1, #12
     f6c:	6842      	ldr	r2, [r0, #4]
     f6e:	4c07      	ldr	r4, [pc, #28]	; (f8c <mskd_val+0xdc>)
     f70:	4022      	ands	r2, r4
     f72:	430a      	orrs	r2, r1
     f74:	6042      	str	r2, [r0, #4]
     f76:	6843      	ldr	r3, [r0, #4]
     f78:	4023      	ands	r3, r4
     f7a:	4319      	orrs	r1, r3
     f7c:	6041      	str	r1, [r0, #4]
     f7e:	e7aa      	b.n	ed6 <mskd_val+0x26>
     f80:	00000000 	.word	0x00000000
     f84:	10001dc0 	.word	0x10001dc0
     f88:	fffff07f 	.word	0xfffff07f
     f8c:	fffe0fff 	.word	0xfffe0fff

00000f90 <call_mskd_val_const>:
     f90:	b500      	push	{lr}
     f92:	2101      	movs	r1, #1
     f94:	2001      	movs	r0, #1
     f96:	f7ff fffe 	bl	eb0 <mskd_val>
     f9a:	2101      	movs	r1, #1
     f9c:	2001      	movs	r0, #1
     f9e:	f7ff fffe 	bl	eb0 <mskd_val>
     fa2:	bd00      	pop	{pc}

00000fa4 <call_mskd_val_var>:
     fa4:	b500      	push	{lr}
     fa6:	2101      	movs	r1, #1
     fa8:	2001      	movs	r0, #1
     faa:	f7ff fffe 	bl	eb0 <mskd_val>
     fae:	2101      	movs	r1, #1
     fb0:	2001      	movs	r0, #1
     fb2:	f7ff fffe 	bl	eb0 <mskd_val>
     fb6:	bd00      	pop	{pc}

00000fb8 <call_mskd_val_global>:
     fb8:	b500      	push	{lr}
     fba:	2101      	movs	r1, #1
     fbc:	2001      	movs	r0, #1
     fbe:	f7ff fffe 	bl	eb0 <mskd_val>
     fc2:	bd00      	pop	{pc}

00000fc4 <mskd_ref>:
     fc4:	b570      	push	{r4, r5, r6, lr}
     fc6:	6803      	ldr	r3, [r0, #0]
     fc8:	2b06      	cmp	r3, #6
     fca:	d811      	bhi.n	ff0 <mskd_ref+0x2c>
     fcc:	009b      	lsls	r3, r3, #2
     fce:	4a3f      	ldr	r2, [pc, #252]	; (10cc <mskd_ref+0x108>)
     fd0:	58d3      	ldr	r3, [r2, r3]
     fd2:	469f      	mov	pc, r3
     fd4:	2001      	movs	r0, #1
     fd6:	4a3e      	ldr	r2, [pc, #248]	; (10d0 <mskd_ref+0x10c>)
     fd8:	680c      	ldr	r4, [r1, #0]
     fda:	4004      	ands	r4, r0
     fdc:	6853      	ldr	r3, [r2, #4]
     fde:	4383      	bics	r3, r0
     fe0:	4323      	orrs	r3, r4
     fe2:	6053      	str	r3, [r2, #4]
     fe4:	6809      	ldr	r1, [r1, #0]
     fe6:	4001      	ands	r1, r0
     fe8:	6853      	ldr	r3, [r2, #4]
     fea:	4383      	bics	r3, r0
     fec:	430b      	orrs	r3, r1
     fee:	6053      	str	r3, [r2, #4]
     ff0:	bd70      	pop	{r4, r5, r6, pc}
     ff2:	2203      	movs	r2, #3
     ff4:	4d36      	ldr	r5, [pc, #216]	; (10d0 <mskd_ref+0x10c>)
     ff6:	680c      	ldr	r4, [r1, #0]
     ff8:	4014      	ands	r4, r2
     ffa:	0064      	lsls	r4, r4, #1
     ffc:	6868      	ldr	r0, [r5, #4]
     ffe:	2606      	movs	r6, #6
    1000:	43b0      	bics	r0, r6
    1002:	4320      	orrs	r0, r4
    1004:	6068      	str	r0, [r5, #4]
    1006:	680b      	ldr	r3, [r1, #0]
    1008:	401a      	ands	r2, r3
    100a:	0052      	lsls	r2, r2, #1
    100c:	686b      	ldr	r3, [r5, #4]
    100e:	43b3      	bics	r3, r6
    1010:	4313      	orrs	r3, r2
    1012:	606b      	str	r3, [r5, #4]
    1014:	e7ec      	b.n	ff0 <mskd_ref+0x2c>
    1016:	2203      	movs	r2, #3
    1018:	4d2d      	ldr	r5, [pc, #180]	; (10d0 <mskd_ref+0x10c>)
    101a:	680c      	ldr	r4, [r1, #0]
    101c:	4014      	ands	r4, r2
    101e:	00e4      	lsls	r4, r4, #3
    1020:	6868      	ldr	r0, [r5, #4]
    1022:	2618      	movs	r6, #24
    1024:	43b0      	bics	r0, r6
    1026:	4320      	orrs	r0, r4
    1028:	6068      	str	r0, [r5, #4]
    102a:	680b      	ldr	r3, [r1, #0]
    102c:	401a      	ands	r2, r3
    102e:	00d2      	lsls	r2, r2, #3
    1030:	686b      	ldr	r3, [r5, #4]
    1032:	43b3      	bics	r3, r6
    1034:	4313      	orrs	r3, r2
    1036:	606b      	str	r3, [r5, #4]
    1038:	e7da      	b.n	ff0 <mskd_ref+0x2c>
    103a:	2201      	movs	r2, #1
    103c:	4d24      	ldr	r5, [pc, #144]	; (10d0 <mskd_ref+0x10c>)
    103e:	680c      	ldr	r4, [r1, #0]
    1040:	4014      	ands	r4, r2
    1042:	0164      	lsls	r4, r4, #5
    1044:	6868      	ldr	r0, [r5, #4]
    1046:	2620      	movs	r6, #32
    1048:	43b0      	bics	r0, r6
    104a:	4320      	orrs	r0, r4
    104c:	6068      	str	r0, [r5, #4]
    104e:	680b      	ldr	r3, [r1, #0]
    1050:	401a      	ands	r2, r3
    1052:	0152      	lsls	r2, r2, #5
    1054:	686b      	ldr	r3, [r5, #4]
    1056:	43b3      	bics	r3, r6
    1058:	4313      	orrs	r3, r2
    105a:	606b      	str	r3, [r5, #4]
    105c:	e7c8      	b.n	ff0 <mskd_ref+0x2c>
    105e:	2203      	movs	r2, #3
    1060:	4d1b      	ldr	r5, [pc, #108]	; (10d0 <mskd_ref+0x10c>)
    1062:	680c      	ldr	r4, [r1, #0]
    1064:	4014      	ands	r4, r2
    1066:	00e4      	lsls	r4, r4, #3
    1068:	6868      	ldr	r0, [r5, #4]
    106a:	2618      	movs	r6, #24
    106c:	43b0      	bics	r0, r6
    106e:	4320      	orrs	r0, r4
    1070:	6068      	str	r0, [r5, #4]
    1072:	680b      	ldr	r3, [r1, #0]
    1074:	401a      	ands	r2, r3
    1076:	00d2      	lsls	r2, r2, #3
    1078:	686b      	ldr	r3, [r5, #4]
    107a:	43b3      	bics	r3, r6
    107c:	4313      	orrs	r3, r2
    107e:	606b      	str	r3, [r5, #4]
    1080:	e7b6      	b.n	ff0 <mskd_ref+0x2c>
    1082:	231f      	movs	r3, #31
    1084:	4d12      	ldr	r5, [pc, #72]	; (10d0 <mskd_ref+0x10c>)
    1086:	680c      	ldr	r4, [r1, #0]
    1088:	401c      	ands	r4, r3
    108a:	01e4      	lsls	r4, r4, #7
    108c:	6868      	ldr	r0, [r5, #4]
    108e:	4e11      	ldr	r6, [pc, #68]	; (10d4 <mskd_ref+0x110>)
    1090:	4030      	ands	r0, r6
    1092:	4320      	orrs	r0, r4
    1094:	6068      	str	r0, [r5, #4]
    1096:	680a      	ldr	r2, [r1, #0]
    1098:	401a      	ands	r2, r3
    109a:	01d2      	lsls	r2, r2, #7
    109c:	686b      	ldr	r3, [r5, #4]
    109e:	4033      	ands	r3, r6
    10a0:	4313      	orrs	r3, r2
    10a2:	606b      	str	r3, [r5, #4]
    10a4:	e7a4      	b.n	ff0 <mskd_ref+0x2c>
    10a6:	231f      	movs	r3, #31
    10a8:	4d09      	ldr	r5, [pc, #36]	; (10d0 <mskd_ref+0x10c>)
    10aa:	680c      	ldr	r4, [r1, #0]
    10ac:	401c      	ands	r4, r3
    10ae:	0324      	lsls	r4, r4, #12
    10b0:	6868      	ldr	r0, [r5, #4]
    10b2:	4e09      	ldr	r6, [pc, #36]	; (10d8 <mskd_ref+0x114>)
    10b4:	4030      	ands	r0, r6
    10b6:	4320      	orrs	r0, r4
    10b8:	6068      	str	r0, [r5, #4]
    10ba:	680a      	ldr	r2, [r1, #0]
    10bc:	401a      	ands	r2, r3
    10be:	0312      	lsls	r2, r2, #12
    10c0:	686b      	ldr	r3, [r5, #4]
    10c2:	4033      	ands	r3, r6
    10c4:	4313      	orrs	r3, r2
    10c6:	606b      	str	r3, [r5, #4]
    10c8:	e792      	b.n	ff0 <mskd_ref+0x2c>
    10ca:	46c0      	nop			; (mov r8, r8)
    10cc:	0000001c 	.word	0x0000001c
    10d0:	10001dc0 	.word	0x10001dc0
    10d4:	fffff07f 	.word	0xfffff07f
    10d8:	fffe0fff 	.word	0xfffe0fff

000010dc <call_mskd_ref_const>:
    10dc:	b500      	push	{lr}
    10de:	b082      	sub	sp, #8
    10e0:	2301      	movs	r3, #1
    10e2:	9301      	str	r3, [sp, #4]
    10e4:	3301      	adds	r3, #1
    10e6:	9300      	str	r3, [sp, #0]
    10e8:	4669      	mov	r1, sp
    10ea:	a801      	add	r0, sp, #4
    10ec:	f7ff fffe 	bl	fc4 <mskd_ref>
    10f0:	b002      	add	sp, #8
    10f2:	bd00      	pop	{pc}

000010f4 <call_mskd_ref_var>:
    10f4:	b500      	push	{lr}
    10f6:	b082      	sub	sp, #8
    10f8:	2301      	movs	r3, #1
    10fa:	9301      	str	r3, [sp, #4]
    10fc:	9300      	str	r3, [sp, #0]
    10fe:	4669      	mov	r1, sp
    1100:	a801      	add	r0, sp, #4
    1102:	f7ff fffe 	bl	fc4 <mskd_ref>
    1106:	b002      	add	sp, #8
    1108:	bd00      	pop	{pc}

0000110a <call_mskd_ref_global>:
    110a:	b500      	push	{lr}
    110c:	b082      	sub	sp, #8
    110e:	2301      	movs	r3, #1
    1110:	9301      	str	r3, [sp, #4]
    1112:	9300      	str	r3, [sp, #0]
    1114:	4669      	mov	r1, sp
    1116:	a801      	add	r0, sp, #4
    1118:	f7ff fffe 	bl	fc4 <mskd_ref>
    111c:	b002      	add	sp, #8
    111e:	bd00      	pop	{pc}

00001120 <periph_bits>:
    1120:	6843      	ldr	r3, [r0, #4]
    1122:	2240      	movs	r2, #64	; 0x40
    1124:	4313      	orrs	r3, r2
    1126:	6043      	str	r3, [r0, #4]
    1128:	4770      	bx	lr

0000112a <call_periph_bits>:
    112a:	b500      	push	{lr}
    112c:	4801      	ldr	r0, [pc, #4]	; (1134 <call_periph_bits+0xa>)
    112e:	f7ff fffe 	bl	1120 <periph_bits>
    1132:	bd00      	pop	{pc}
    1134:	10001dc0 	.word	0x10001dc0

00001138 <periph_bits_val>:
    1138:	2904      	cmp	r1, #4
    113a:	d000      	beq.n	113e <periph_bits_val+0x6>
    113c:	4770      	bx	lr
    113e:	6843      	ldr	r3, [r0, #4]
    1140:	2240      	movs	r2, #64	; 0x40
    1142:	4313      	orrs	r3, r2
    1144:	6043      	str	r3, [r0, #4]
    1146:	e7f9      	b.n	113c <periph_bits_val+0x4>

00001148 <call_periph_bits_val>:
    1148:	b500      	push	{lr}
    114a:	2104      	movs	r1, #4
    114c:	4801      	ldr	r0, [pc, #4]	; (1154 <call_periph_bits_val+0xc>)
    114e:	f7ff fffe 	bl	1138 <periph_bits_val>
    1152:	bd00      	pop	{pc}
    1154:	10001dc0 	.word	0x10001dc0

00001158 <reg_bits_val>:
    1158:	2904      	cmp	r1, #4
    115a:	d000      	beq.n	115e <reg_bits_val+0x6>
    115c:	4770      	bx	lr
    115e:	6803      	ldr	r3, [r0, #0]
    1160:	2240      	movs	r2, #64	; 0x40
    1162:	4313      	orrs	r3, r2
    1164:	6003      	str	r3, [r0, #0]
    1166:	e7f9      	b.n	115c <reg_bits_val+0x4>

00001168 <call_reg_bits_val>:
    1168:	b500      	push	{lr}
    116a:	2104      	movs	r1, #4
    116c:	4801      	ldr	r0, [pc, #4]	; (1174 <call_reg_bits_val+0xc>)
    116e:	f7ff fffe 	bl	1158 <reg_bits_val>
    1172:	bd00      	pop	{pc}
    1174:	10001dc4 	.word	0x10001dc4

00001178 <periph_bits_ref>:
    1178:	680b      	ldr	r3, [r1, #0]
    117a:	2b04      	cmp	r3, #4
    117c:	d000      	beq.n	1180 <periph_bits_ref+0x8>
    117e:	4770      	bx	lr
    1180:	6843      	ldr	r3, [r0, #4]
    1182:	2240      	movs	r2, #64	; 0x40
    1184:	4313      	orrs	r3, r2
    1186:	6043      	str	r3, [r0, #4]
    1188:	e7f9      	b.n	117e <periph_bits_ref+0x6>

0000118a <call_periph_bits_ref>:
    118a:	b500      	push	{lr}
    118c:	b081      	sub	sp, #4
    118e:	2304      	movs	r3, #4
    1190:	9300      	str	r3, [sp, #0]
    1192:	4669      	mov	r1, sp
    1194:	4802      	ldr	r0, [pc, #8]	; (11a0 <call_periph_bits_ref+0x16>)
    1196:	f7ff fffe 	bl	1178 <periph_bits_ref>
    119a:	b001      	add	sp, #4
    119c:	bd00      	pop	{pc}
    119e:	46c0      	nop			; (mov r8, r8)
    11a0:	10001dc0 	.word	0x10001dc0

000011a4 <reg_bits_ref>:
    11a4:	680b      	ldr	r3, [r1, #0]
    11a6:	2b04      	cmp	r3, #4
    11a8:	d000      	beq.n	11ac <reg_bits_ref+0x8>
    11aa:	4770      	bx	lr
    11ac:	6803      	ldr	r3, [r0, #0]
    11ae:	2240      	movs	r2, #64	; 0x40
    11b0:	4313      	orrs	r3, r2
    11b2:	6003      	str	r3, [r0, #0]
    11b4:	e7f9      	b.n	11aa <reg_bits_ref+0x6>

000011b6 <call_reg_bits_ref>:
    11b6:	b500      	push	{lr}
    11b8:	b081      	sub	sp, #4
    11ba:	2304      	movs	r3, #4
    11bc:	9300      	str	r3, [sp, #0]
    11be:	4669      	mov	r1, sp
    11c0:	4802      	ldr	r0, [pc, #8]	; (11cc <call_reg_bits_ref+0x16>)
    11c2:	f7ff fffe 	bl	11a4 <reg_bits_ref>
    11c6:	b001      	add	sp, #4
    11c8:	bd00      	pop	{pc}
    11ca:	46c0      	nop			; (mov r8, r8)
    11cc:	10001dc4 	.word	0x10001dc4

000011d0 <periph_mskd>:
    11d0:	6843      	ldr	r3, [r0, #4]
    11d2:	2206      	movs	r2, #6
    11d4:	4393      	bics	r3, r2
    11d6:	3a04      	subs	r2, #4
    11d8:	4313      	orrs	r3, r2
    11da:	6043      	str	r3, [r0, #4]
    11dc:	4770      	bx	lr

000011de <call_periph_mskd>:
    11de:	b500      	push	{lr}
    11e0:	4801      	ldr	r0, [pc, #4]	; (11e8 <call_periph_mskd+0xa>)
    11e2:	f7ff fffe 	bl	11d0 <periph_mskd>
    11e6:	bd00      	pop	{pc}
    11e8:	10001dc0 	.word	0x10001dc0

000011ec <periph_mskd_val>:
    11ec:	2901      	cmp	r1, #1
    11ee:	d000      	beq.n	11f2 <periph_mskd_val+0x6>
    11f0:	4770      	bx	lr
    11f2:	6843      	ldr	r3, [r0, #4]
    11f4:	2206      	movs	r2, #6
    11f6:	4393      	bics	r3, r2
    11f8:	3a04      	subs	r2, #4
    11fa:	4313      	orrs	r3, r2
    11fc:	6043      	str	r3, [r0, #4]
    11fe:	e7f7      	b.n	11f0 <periph_mskd_val+0x4>

00001200 <call_periph_mskd_val>:
    1200:	b500      	push	{lr}
    1202:	2101      	movs	r1, #1
    1204:	4801      	ldr	r0, [pc, #4]	; (120c <call_periph_mskd_val+0xc>)
    1206:	f7ff fffe 	bl	11ec <periph_mskd_val>
    120a:	bd00      	pop	{pc}
    120c:	10001dc0 	.word	0x10001dc0

00001210 <reg_mskd_val>:
    1210:	2901      	cmp	r1, #1
    1212:	d000      	beq.n	1216 <reg_mskd_val+0x6>
    1214:	4770      	bx	lr
    1216:	6803      	ldr	r3, [r0, #0]
    1218:	2206      	movs	r2, #6
    121a:	4393      	bics	r3, r2
    121c:	3a04      	subs	r2, #4
    121e:	4313      	orrs	r3, r2
    1220:	6003      	str	r3, [r0, #0]
    1222:	e7f7      	b.n	1214 <reg_mskd_val+0x4>

00001224 <call_reg_mskd_val>:
    1224:	b500      	push	{lr}
    1226:	2101      	movs	r1, #1
    1228:	4801      	ldr	r0, [pc, #4]	; (1230 <call_reg_mskd_val+0xc>)
    122a:	f7ff fffe 	bl	1210 <reg_mskd_val>
    122e:	bd00      	pop	{pc}
    1230:	10001dc4 	.word	0x10001dc4

00001234 <periph_mskd_ref>:
    1234:	680b      	ldr	r3, [r1, #0]
    1236:	2b01      	cmp	r3, #1
    1238:	d000      	beq.n	123c <periph_mskd_ref+0x8>
    123a:	4770      	bx	lr
    123c:	6843      	ldr	r3, [r0, #4]
    123e:	2206      	movs	r2, #6
    1240:	4393      	bics	r3, r2
    1242:	3a04      	subs	r2, #4
    1244:	4313      	orrs	r3, r2
    1246:	6043      	str	r3, [r0, #4]
    1248:	e7f7      	b.n	123a <periph_mskd_ref+0x6>

0000124a <call_periph_mskd_ref>:
    124a:	b500      	push	{lr}
    124c:	b081      	sub	sp, #4
    124e:	2301      	movs	r3, #1
    1250:	9300      	str	r3, [sp, #0]
    1252:	4669      	mov	r1, sp
    1254:	4802      	ldr	r0, [pc, #8]	; (1260 <call_periph_mskd_ref+0x16>)
    1256:	f7ff fffe 	bl	1234 <periph_mskd_ref>
    125a:	b001      	add	sp, #4
    125c:	bd00      	pop	{pc}
    125e:	46c0      	nop			; (mov r8, r8)
    1260:	10001dc0 	.word	0x10001dc0

00001264 <reg_mskd_ref>:
    1264:	680b      	ldr	r3, [r1, #0]
    1266:	2b01      	cmp	r3, #1
    1268:	d000      	beq.n	126c <reg_mskd_ref+0x8>
    126a:	4770      	bx	lr
    126c:	6803      	ldr	r3, [r0, #0]
    126e:	2206      	movs	r2, #6
    1270:	4393      	bics	r3, r2
    1272:	3a04      	subs	r2, #4
    1274:	4313      	orrs	r3, r2
    1276:	6003      	str	r3, [r0, #0]
    1278:	e7f7      	b.n	126a <reg_mskd_ref+0x6>

0000127a <call_reg_mskd_ref>:
    127a:	b500      	push	{lr}
    127c:	b081      	sub	sp, #4
    127e:	2301      	movs	r3, #1
    1280:	9300      	str	r3, [sp, #0]
    1282:	4669      	mov	r1, sp
    1284:	4802      	ldr	r0, [pc, #8]	; (1290 <call_reg_mskd_ref+0x16>)
    1286:	f7ff fffe 	bl	1264 <reg_mskd_ref>
    128a:	b001      	add	sp, #4
    128c:	bd00      	pop	{pc}
    128e:	46c0      	nop			; (mov r8, r8)
    1290:	10001dc4 	.word	0x10001dc4

00001294 <return_bits>:
    1294:	2001      	movs	r0, #1
    1296:	4770      	bx	lr

00001298 <call_return_bits>:
    1298:	b500      	push	{lr}
    129a:	f7ff fffe 	bl	1294 <return_bits>
    129e:	4b0a      	ldr	r3, [pc, #40]	; (12c8 <call_return_bits+0x30>)
    12a0:	2200      	movs	r2, #0
    12a2:	605a      	str	r2, [r3, #4]
    12a4:	2801      	cmp	r0, #1
    12a6:	d006      	beq.n	12b6 <call_return_bits+0x1e>
    12a8:	4a07      	ldr	r2, [pc, #28]	; (12c8 <call_return_bits+0x30>)
    12aa:	6851      	ldr	r1, [r2, #4]
    12ac:	23f8      	movs	r3, #248	; 0xf8
    12ae:	059b      	lsls	r3, r3, #22
    12b0:	430b      	orrs	r3, r1
    12b2:	6053      	str	r3, [r2, #4]
    12b4:	bd00      	pop	{pc}
    12b6:	0019      	movs	r1, r3
    12b8:	685b      	ldr	r3, [r3, #4]
    12ba:	4a04      	ldr	r2, [pc, #16]	; (12cc <call_return_bits+0x34>)
    12bc:	401a      	ands	r2, r3
    12be:	23a8      	movs	r3, #168	; 0xa8
    12c0:	059b      	lsls	r3, r3, #22
    12c2:	4313      	orrs	r3, r2
    12c4:	604b      	str	r3, [r1, #4]
    12c6:	e7f5      	b.n	12b4 <call_return_bits+0x1c>
    12c8:	10001d20 	.word	0x10001d20
    12cc:	c1ffffff 	.word	0xc1ffffff

000012d0 <return_mskd>:
    12d0:	2302      	movs	r3, #2
    12d2:	6003      	str	r3, [r0, #0]
    12d4:	3b01      	subs	r3, #1
    12d6:	600b      	str	r3, [r1, #0]
    12d8:	4770      	bx	lr

000012da <call_return_mskd>:
    12da:	b500      	push	{lr}
    12dc:	b082      	sub	sp, #8
    12de:	4669      	mov	r1, sp
    12e0:	a801      	add	r0, sp, #4
    12e2:	f7ff fffe 	bl	12d0 <return_mskd>
    12e6:	4b0e      	ldr	r3, [pc, #56]	; (1320 <call_return_mskd+0x46>)
    12e8:	2200      	movs	r2, #0
    12ea:	605a      	str	r2, [r3, #4]
    12ec:	9b01      	ldr	r3, [sp, #4]
    12ee:	2b02      	cmp	r3, #2
    12f0:	d009      	beq.n	1306 <call_return_mskd+0x2c>
    12f2:	490b      	ldr	r1, [pc, #44]	; (1320 <call_return_mskd+0x46>)
    12f4:	684b      	ldr	r3, [r1, #4]
    12f6:	4a0b      	ldr	r2, [pc, #44]	; (1324 <call_return_mskd+0x4a>)
    12f8:	401a      	ands	r2, r3
    12fa:	2398      	movs	r3, #152	; 0x98
    12fc:	059b      	lsls	r3, r3, #22
    12fe:	4313      	orrs	r3, r2
    1300:	604b      	str	r3, [r1, #4]
    1302:	b002      	add	sp, #8
    1304:	bd00      	pop	{pc}
    1306:	9b00      	ldr	r3, [sp, #0]
    1308:	2b01      	cmp	r3, #1
    130a:	d1f2      	bne.n	12f2 <call_return_mskd+0x18>
    130c:	4904      	ldr	r1, [pc, #16]	; (1320 <call_return_mskd+0x46>)
    130e:	684b      	ldr	r3, [r1, #4]
    1310:	4a04      	ldr	r2, [pc, #16]	; (1324 <call_return_mskd+0x4a>)
    1312:	401a      	ands	r2, r3
    1314:	2388      	movs	r3, #136	; 0x88
    1316:	059b      	lsls	r3, r3, #22
    1318:	4313      	orrs	r3, r2
    131a:	604b      	str	r3, [r1, #4]
    131c:	e7f1      	b.n	1302 <call_return_mskd+0x28>
    131e:	46c0      	nop			; (mov r8, r8)
    1320:	10001d20 	.word	0x10001d20
    1324:	c1ffffff 	.word	0xc1ffffff

00001328 <return_reg>:
    1328:	4b04      	ldr	r3, [pc, #16]	; (133c <return_reg+0x14>)
    132a:	2200      	movs	r2, #0
    132c:	605a      	str	r2, [r3, #4]
    132e:	685a      	ldr	r2, [r3, #4]
    1330:	2140      	movs	r1, #64	; 0x40
    1332:	430a      	orrs	r2, r1
    1334:	605a      	str	r2, [r3, #4]
    1336:	4802      	ldr	r0, [pc, #8]	; (1340 <return_reg+0x18>)
    1338:	4770      	bx	lr
    133a:	46c0      	nop			; (mov r8, r8)
    133c:	10001dc0 	.word	0x10001dc0
    1340:	10001dc4 	.word	0x10001dc4

00001344 <call_return_reg>:
    1344:	b500      	push	{lr}
    1346:	f7ff fffe 	bl	1328 <return_reg>
    134a:	4b0c      	ldr	r3, [pc, #48]	; (137c <call_return_reg+0x38>)
    134c:	2200      	movs	r2, #0
    134e:	605a      	str	r2, [r3, #4]
    1350:	6803      	ldr	r3, [r0, #0]
    1352:	065b      	lsls	r3, r3, #25
    1354:	d508      	bpl.n	1368 <call_return_reg+0x24>
    1356:	4909      	ldr	r1, [pc, #36]	; (137c <call_return_reg+0x38>)
    1358:	684b      	ldr	r3, [r1, #4]
    135a:	4a09      	ldr	r2, [pc, #36]	; (1380 <call_return_reg+0x3c>)
    135c:	401a      	ands	r2, r3
    135e:	23f0      	movs	r3, #240	; 0xf0
    1360:	055b      	lsls	r3, r3, #21
    1362:	4313      	orrs	r3, r2
    1364:	604b      	str	r3, [r1, #4]
    1366:	bd00      	pop	{pc}
    1368:	4904      	ldr	r1, [pc, #16]	; (137c <call_return_reg+0x38>)
    136a:	684b      	ldr	r3, [r1, #4]
    136c:	4a04      	ldr	r2, [pc, #16]	; (1380 <call_return_reg+0x3c>)
    136e:	401a      	ands	r2, r3
    1370:	23b8      	movs	r3, #184	; 0xb8
    1372:	059b      	lsls	r3, r3, #22
    1374:	4313      	orrs	r3, r2
    1376:	604b      	str	r3, [r1, #4]
    1378:	e7f5      	b.n	1366 <call_return_reg+0x22>
    137a:	46c0      	nop			; (mov r8, r8)
    137c:	10001d20 	.word	0x10001d20
    1380:	c1ffffff 	.word	0xc1ffffff

00001384 <return_periph>:
    1384:	4803      	ldr	r0, [pc, #12]	; (1394 <return_periph+0x10>)
    1386:	2300      	movs	r3, #0
    1388:	6043      	str	r3, [r0, #4]
    138a:	6843      	ldr	r3, [r0, #4]
    138c:	2240      	movs	r2, #64	; 0x40
    138e:	4313      	orrs	r3, r2
    1390:	6043      	str	r3, [r0, #4]
    1392:	4770      	bx	lr
    1394:	10001dc0 	.word	0x10001dc0

00001398 <call_return_periph>:
    1398:	b500      	push	{lr}
    139a:	f7ff fffe 	bl	1384 <return_periph>
    139e:	6843      	ldr	r3, [r0, #4]
    13a0:	065b      	lsls	r3, r3, #25
    13a2:	d508      	bpl.n	13b6 <call_return_periph+0x1e>
    13a4:	4908      	ldr	r1, [pc, #32]	; (13c8 <call_return_periph+0x30>)
    13a6:	684b      	ldr	r3, [r1, #4]
    13a8:	4a08      	ldr	r2, [pc, #32]	; (13cc <call_return_periph+0x34>)
    13aa:	401a      	ands	r2, r3
    13ac:	2398      	movs	r3, #152	; 0x98
    13ae:	059b      	lsls	r3, r3, #22
    13b0:	4313      	orrs	r3, r2
    13b2:	604b      	str	r3, [r1, #4]
    13b4:	bd00      	pop	{pc}
    13b6:	4904      	ldr	r1, [pc, #16]	; (13c8 <call_return_periph+0x30>)
    13b8:	684b      	ldr	r3, [r1, #4]
    13ba:	4a04      	ldr	r2, [pc, #16]	; (13cc <call_return_periph+0x34>)
    13bc:	401a      	ands	r2, r3
    13be:	23a8      	movs	r3, #168	; 0xa8
    13c0:	059b      	lsls	r3, r3, #22
    13c2:	4313      	orrs	r3, r2
    13c4:	604b      	str	r3, [r1, #4]
    13c6:	e7f5      	b.n	13b4 <call_return_periph+0x1c>
    13c8:	10001d20 	.word	0x10001d20
    13cc:	c1ffffff 	.word	0xc1ffffff

000013d0 <pos_val>:
    13d0:	2803      	cmp	r0, #3
    13d2:	d005      	beq.n	13e0 <pos_val+0x10>
    13d4:	2804      	cmp	r0, #4
    13d6:	d007      	beq.n	13e8 <pos_val+0x18>
    13d8:	4b05      	ldr	r3, [pc, #20]	; (13f0 <pos_val+0x20>)
    13da:	2255      	movs	r2, #85	; 0x55
    13dc:	62da      	str	r2, [r3, #44]	; 0x2c
    13de:	4770      	bx	lr
    13e0:	4b03      	ldr	r3, [pc, #12]	; (13f0 <pos_val+0x20>)
    13e2:	2233      	movs	r2, #51	; 0x33
    13e4:	62da      	str	r2, [r3, #44]	; 0x2c
    13e6:	e7fa      	b.n	13de <pos_val+0xe>
    13e8:	4b01      	ldr	r3, [pc, #4]	; (13f0 <pos_val+0x20>)
    13ea:	2244      	movs	r2, #68	; 0x44
    13ec:	62da      	str	r2, [r3, #44]	; 0x2c
    13ee:	e7f6      	b.n	13de <pos_val+0xe>
    13f0:	10001c00 	.word	0x10001c00

000013f4 <call_pos_val>:
    13f4:	b500      	push	{lr}
    13f6:	2003      	movs	r0, #3
    13f8:	f7ff fffe 	bl	13d0 <pos_val>
    13fc:	2004      	movs	r0, #4
    13fe:	f7ff fffe 	bl	13d0 <pos_val>
    1402:	bd00      	pop	{pc}

00001404 <call_pos_val_global>:
    1404:	b500      	push	{lr}
    1406:	2004      	movs	r0, #4
    1408:	f7ff fffe 	bl	13d0 <pos_val>
    140c:	bd00      	pop	{pc}

0000140e <pos_ref>:
    140e:	6803      	ldr	r3, [r0, #0]
    1410:	2b03      	cmp	r3, #3
    1412:	d005      	beq.n	1420 <pos_ref+0x12>
    1414:	2b04      	cmp	r3, #4
    1416:	d007      	beq.n	1428 <pos_ref+0x1a>
    1418:	4b05      	ldr	r3, [pc, #20]	; (1430 <pos_ref+0x22>)
    141a:	2288      	movs	r2, #136	; 0x88
    141c:	62da      	str	r2, [r3, #44]	; 0x2c
    141e:	4770      	bx	lr
    1420:	4b03      	ldr	r3, [pc, #12]	; (1430 <pos_ref+0x22>)
    1422:	2266      	movs	r2, #102	; 0x66
    1424:	62da      	str	r2, [r3, #44]	; 0x2c
    1426:	e7fa      	b.n	141e <pos_ref+0x10>
    1428:	4b01      	ldr	r3, [pc, #4]	; (1430 <pos_ref+0x22>)
    142a:	2277      	movs	r2, #119	; 0x77
    142c:	62da      	str	r2, [r3, #44]	; 0x2c
    142e:	e7f6      	b.n	141e <pos_ref+0x10>
    1430:	10001c00 	.word	0x10001c00

00001434 <call_pos_ref>:
    1434:	b500      	push	{lr}
    1436:	b081      	sub	sp, #4
    1438:	2303      	movs	r3, #3
    143a:	9300      	str	r3, [sp, #0]
    143c:	4668      	mov	r0, sp
    143e:	f7ff fffe 	bl	140e <pos_ref>
    1442:	4668      	mov	r0, sp
    1444:	f7ff fffe 	bl	140e <pos_ref>
    1448:	b001      	add	sp, #4
    144a:	bd00      	pop	{pc}

0000144c <call_pos_ref_global>:
    144c:	b500      	push	{lr}
    144e:	b081      	sub	sp, #4
    1450:	2304      	movs	r3, #4
    1452:	9300      	str	r3, [sp, #0]
    1454:	4668      	mov	r0, sp
    1456:	f7ff fffe 	bl	140e <pos_ref>
    145a:	b001      	add	sp, #4
    145c:	bd00      	pop	{pc}

0000145e <runtime_range_val>:
    145e:	4a05      	ldr	r2, [pc, #20]	; (1474 <runtime_range_val+0x16>)
    1460:	231f      	movs	r3, #31
    1462:	4003      	ands	r3, r0
    1464:	031b      	lsls	r3, r3, #12
    1466:	6850      	ldr	r0, [r2, #4]
    1468:	4903      	ldr	r1, [pc, #12]	; (1478 <runtime_range_val+0x1a>)
    146a:	4008      	ands	r0, r1
    146c:	4318      	orrs	r0, r3
    146e:	6050      	str	r0, [r2, #4]
    1470:	4770      	bx	lr
    1472:	46c0      	nop			; (mov r8, r8)
    1474:	10001dc0 	.word	0x10001dc0
    1478:	fffe0fff 	.word	0xfffe0fff

0000147c <call_range_val>:
    147c:	b500      	push	{lr}
    147e:	23ff      	movs	r3, #255	; 0xff
    1480:	4018      	ands	r0, r3
    1482:	f7ff fffe 	bl	145e <runtime_range_val>
    1486:	bd00      	pop	{pc}

00001488 <call_range_val_port>:
    1488:	b500      	push	{lr}
    148a:	201f      	movs	r0, #31
    148c:	f7ff fffe 	bl	147c <call_range_val>
    1490:	bd00      	pop	{pc}

00001492 <runtime_range_ref>:
    1492:	6802      	ldr	r2, [r0, #0]
    1494:	4904      	ldr	r1, [pc, #16]	; (14a8 <runtime_range_ref+0x16>)
    1496:	231f      	movs	r3, #31
    1498:	401a      	ands	r2, r3
    149a:	0312      	lsls	r2, r2, #12
    149c:	684b      	ldr	r3, [r1, #4]
    149e:	4803      	ldr	r0, [pc, #12]	; (14ac <runtime_range_ref+0x1a>)
    14a0:	4003      	ands	r3, r0
    14a2:	4313      	orrs	r3, r2
    14a4:	604b      	str	r3, [r1, #4]
    14a6:	4770      	bx	lr
    14a8:	10001dc0 	.word	0x10001dc0
    14ac:	fffe0fff 	.word	0xfffe0fff

000014b0 <call_range_ref>:
    14b0:	b500      	push	{lr}
    14b2:	b081      	sub	sp, #4
    14b4:	9000      	str	r0, [sp, #0]
    14b6:	4668      	mov	r0, sp
    14b8:	f7ff fffe 	bl	1492 <runtime_range_ref>
    14bc:	b001      	add	sp, #4
    14be:	bd00      	pop	{pc}

000014c0 <call_range_ref_port>:
    14c0:	b500      	push	{lr}
    14c2:	200c      	movs	r0, #12
    14c4:	f7ff fffe 	bl	14b0 <call_range_ref>
    14c8:	bd00      	pop	{pc}

000014ca <check_array_range_pass>:
    14ca:	2816      	cmp	r0, #22
    14cc:	d803      	bhi.n	14d6 <check_array_range_pass+0xc>
    14ce:	4b04      	ldr	r3, [pc, #16]	; (14e0 <check_array_range_pass+0x16>)
    14d0:	227f      	movs	r2, #127	; 0x7f
    14d2:	62da      	str	r2, [r3, #44]	; 0x2c
    14d4:	4770      	bx	lr
    14d6:	4b02      	ldr	r3, [pc, #8]	; (14e0 <check_array_range_pass+0x16>)
    14d8:	2283      	movs	r2, #131	; 0x83
    14da:	62da      	str	r2, [r3, #44]	; 0x2c
    14dc:	e7fa      	b.n	14d4 <check_array_range_pass+0xa>
    14de:	46c0      	nop			; (mov r8, r8)
    14e0:	10001c00 	.word	0x10001c00

000014e4 <check_array_range_fail>:
    14e4:	2816      	cmp	r0, #22
    14e6:	d803      	bhi.n	14f0 <check_array_range_fail+0xc>
    14e8:	4b03      	ldr	r3, [pc, #12]	; (14f8 <check_array_range_fail+0x14>)
    14ea:	2295      	movs	r2, #149	; 0x95
    14ec:	62da      	str	r2, [r3, #44]	; 0x2c
    14ee:	4770      	bx	lr
    14f0:	4b01      	ldr	r3, [pc, #4]	; (14f8 <check_array_range_fail+0x14>)
    14f2:	2297      	movs	r2, #151	; 0x97
    14f4:	62da      	str	r2, [r3, #44]	; 0x2c
    14f6:	e7fa      	b.n	14ee <check_array_range_fail+0xa>
    14f8:	10001c00 	.word	0x10001c00

000014fc <check_bits_range_pass>:
    14fc:	280f      	cmp	r0, #15
    14fe:	d803      	bhi.n	1508 <check_bits_range_pass+0xc>
    1500:	4b03      	ldr	r3, [pc, #12]	; (1510 <check_bits_range_pass+0x14>)
    1502:	229d      	movs	r2, #157	; 0x9d
    1504:	62da      	str	r2, [r3, #44]	; 0x2c
    1506:	4770      	bx	lr
    1508:	4b01      	ldr	r3, [pc, #4]	; (1510 <check_bits_range_pass+0x14>)
    150a:	22a3      	movs	r2, #163	; 0xa3
    150c:	62da      	str	r2, [r3, #44]	; 0x2c
    150e:	e7fa      	b.n	1506 <check_bits_range_pass+0xa>
    1510:	10001c00 	.word	0x10001c00

00001514 <check_bits_range_fail>:
    1514:	280f      	cmp	r0, #15
    1516:	d803      	bhi.n	1520 <check_bits_range_fail+0xc>
    1518:	4b03      	ldr	r3, [pc, #12]	; (1528 <check_bits_range_fail+0x14>)
    151a:	22a7      	movs	r2, #167	; 0xa7
    151c:	62da      	str	r2, [r3, #44]	; 0x2c
    151e:	4770      	bx	lr
    1520:	4b01      	ldr	r3, [pc, #4]	; (1528 <check_bits_range_fail+0x14>)
    1522:	22ad      	movs	r2, #173	; 0xad
    1524:	62da      	str	r2, [r3, #44]	; 0x2c
    1526:	e7fa      	b.n	151e <check_bits_range_fail+0xa>
    1528:	10001c00 	.word	0x10001c00

0000152c <check_mskd_range_pass>:
    152c:	281f      	cmp	r0, #31
    152e:	d803      	bhi.n	1538 <check_mskd_range_pass+0xc>
    1530:	4b03      	ldr	r3, [pc, #12]	; (1540 <check_mskd_range_pass+0x14>)
    1532:	22b3      	movs	r2, #179	; 0xb3
    1534:	62da      	str	r2, [r3, #44]	; 0x2c
    1536:	4770      	bx	lr
    1538:	4b01      	ldr	r3, [pc, #4]	; (1540 <check_mskd_range_pass+0x14>)
    153a:	22b5      	movs	r2, #181	; 0xb5
    153c:	62da      	str	r2, [r3, #44]	; 0x2c
    153e:	e7fa      	b.n	1536 <check_mskd_range_pass+0xa>
    1540:	10001c00 	.word	0x10001c00

00001544 <check_mskd_range_fail>:
    1544:	281f      	cmp	r0, #31
    1546:	d803      	bhi.n	1550 <check_mskd_range_fail+0xc>
    1548:	4b03      	ldr	r3, [pc, #12]	; (1558 <check_mskd_range_fail+0x14>)
    154a:	22bf      	movs	r2, #191	; 0xbf
    154c:	62da      	str	r2, [r3, #44]	; 0x2c
    154e:	4770      	bx	lr
    1550:	4b01      	ldr	r3, [pc, #4]	; (1558 <check_mskd_range_fail+0x14>)
    1552:	22c1      	movs	r2, #193	; 0xc1
    1554:	62da      	str	r2, [r3, #44]	; 0x2c
    1556:	e7fa      	b.n	154e <check_mskd_range_fail+0xa>
    1558:	10001c00 	.word	0x10001c00

0000155c <bits_extract_ne>:
    155c:	4b0c      	ldr	r3, [pc, #48]	; (1590 <bits_extract_ne+0x34>)
    155e:	685a      	ldr	r2, [r3, #4]
    1560:	2120      	movs	r1, #32
    1562:	430a      	orrs	r2, r1
    1564:	605a      	str	r2, [r3, #4]
    1566:	685a      	ldr	r2, [r3, #4]
    1568:	2100      	movs	r1, #0
    156a:	6059      	str	r1, [r3, #4]
    156c:	0693      	lsls	r3, r2, #26
    156e:	d407      	bmi.n	1580 <bits_extract_ne+0x24>
    1570:	4a07      	ldr	r2, [pc, #28]	; (1590 <bits_extract_ne+0x34>)
    1572:	6853      	ldr	r3, [r2, #4]
    1574:	3106      	adds	r1, #6
    1576:	438b      	bics	r3, r1
    1578:	3904      	subs	r1, #4
    157a:	430b      	orrs	r3, r1
    157c:	6053      	str	r3, [r2, #4]
    157e:	4770      	bx	lr
    1580:	4a03      	ldr	r2, [pc, #12]	; (1590 <bits_extract_ne+0x34>)
    1582:	6853      	ldr	r3, [r2, #4]
    1584:	2106      	movs	r1, #6
    1586:	438b      	bics	r3, r1
    1588:	3902      	subs	r1, #2
    158a:	430b      	orrs	r3, r1
    158c:	6053      	str	r3, [r2, #4]
    158e:	e7f6      	b.n	157e <bits_extract_ne+0x22>
    1590:	10001dc0 	.word	0x10001dc0

00001594 <mskd_extract_geq>:
    1594:	4b0f      	ldr	r3, [pc, #60]	; (15d4 <mskd_extract_geq+0x40>)
    1596:	2000      	movs	r0, #0
    1598:	6058      	str	r0, [r3, #4]
    159a:	685a      	ldr	r2, [r3, #4]
    159c:	490e      	ldr	r1, [pc, #56]	; (15d8 <mskd_extract_geq+0x44>)
    159e:	4011      	ands	r1, r2
    15a0:	22b0      	movs	r2, #176	; 0xb0
    15a2:	0552      	lsls	r2, r2, #21
    15a4:	430a      	orrs	r2, r1
    15a6:	605a      	str	r2, [r3, #4]
    15a8:	685b      	ldr	r3, [r3, #4]
    15aa:	4a0c      	ldr	r2, [pc, #48]	; (15dc <mskd_extract_geq+0x48>)
    15ac:	6050      	str	r0, [r2, #4]
    15ae:	009a      	lsls	r2, r3, #2
    15b0:	0ed2      	lsrs	r2, r2, #27
    15b2:	2a09      	cmp	r2, #9
    15b4:	d907      	bls.n	15c6 <mskd_extract_geq+0x32>
    15b6:	2a0a      	cmp	r2, #10
    15b8:	d905      	bls.n	15c6 <mskd_extract_geq+0x32>
    15ba:	4a08      	ldr	r2, [pc, #32]	; (15dc <mskd_extract_geq+0x48>)
    15bc:	6853      	ldr	r3, [r2, #4]
    15be:	2120      	movs	r1, #32
    15c0:	430b      	orrs	r3, r1
    15c2:	6053      	str	r3, [r2, #4]
    15c4:	e004      	b.n	15d0 <mskd_extract_geq+0x3c>
    15c6:	4a05      	ldr	r2, [pc, #20]	; (15dc <mskd_extract_geq+0x48>)
    15c8:	6853      	ldr	r3, [r2, #4]
    15ca:	2140      	movs	r1, #64	; 0x40
    15cc:	430b      	orrs	r3, r1
    15ce:	6053      	str	r3, [r2, #4]
    15d0:	4770      	bx	lr
    15d2:	46c0      	nop			; (mov r8, r8)
    15d4:	10001d20 	.word	0x10001d20
    15d8:	c1ffffff 	.word	0xc1ffffff
    15dc:	10001dc0 	.word	0x10001dc0

000015e0 <shifted_val>:
    15e0:	4b09      	ldr	r3, [pc, #36]	; (1608 <shifted_val+0x28>)
    15e2:	2200      	movs	r2, #0
    15e4:	605a      	str	r2, [r3, #4]
    15e6:	685a      	ldr	r2, [r3, #4]
    15e8:	4908      	ldr	r1, [pc, #32]	; (160c <shifted_val+0x2c>)
    15ea:	4011      	ands	r1, r2
    15ec:	22b8      	movs	r2, #184	; 0xb8
    15ee:	0592      	lsls	r2, r2, #22
    15f0:	430a      	orrs	r2, r1
    15f2:	605a      	str	r2, [r3, #4]
    15f4:	2801      	cmp	r0, #1
    15f6:	d000      	beq.n	15fa <shifted_val+0x1a>
    15f8:	4770      	bx	lr
    15fa:	685b      	ldr	r3, [r3, #4]
    15fc:	009b      	lsls	r3, r3, #2
    15fe:	0edb      	lsrs	r3, r3, #27
    1600:	4a03      	ldr	r2, [pc, #12]	; (1610 <shifted_val+0x30>)
    1602:	62d3      	str	r3, [r2, #44]	; 0x2c
    1604:	e7f8      	b.n	15f8 <shifted_val+0x18>
    1606:	46c0      	nop			; (mov r8, r8)
    1608:	10001d20 	.word	0x10001d20
    160c:	c1ffffff 	.word	0xc1ffffff
    1610:	10001c00 	.word	0x10001c00

00001614 <call_shifted_const_val>:
    1614:	b500      	push	{lr}
    1616:	2001      	movs	r0, #1
    1618:	f7ff fffe 	bl	15e0 <shifted_val>
    161c:	bd00      	pop	{pc}

0000161e <call_shifted_var_val>:
    161e:	b500      	push	{lr}
    1620:	2001      	movs	r0, #1
    1622:	f7ff fffe 	bl	15e0 <shifted_val>
    1626:	bd00      	pop	{pc}

00001628 <call_shifted_global_val>:
    1628:	b500      	push	{lr}
    162a:	2001      	movs	r0, #1
    162c:	f7ff fffe 	bl	15e0 <shifted_val>
    1630:	bd00      	pop	{pc}

00001632 <shifted_ref>:
    1632:	4b0a      	ldr	r3, [pc, #40]	; (165c <shifted_ref+0x2a>)
    1634:	2200      	movs	r2, #0
    1636:	605a      	str	r2, [r3, #4]
    1638:	685a      	ldr	r2, [r3, #4]
    163a:	4909      	ldr	r1, [pc, #36]	; (1660 <shifted_ref+0x2e>)
    163c:	4011      	ands	r1, r2
    163e:	22b8      	movs	r2, #184	; 0xb8
    1640:	0592      	lsls	r2, r2, #22
    1642:	430a      	orrs	r2, r1
    1644:	605a      	str	r2, [r3, #4]
    1646:	6803      	ldr	r3, [r0, #0]
    1648:	2b01      	cmp	r3, #1
    164a:	d000      	beq.n	164e <shifted_ref+0x1c>
    164c:	4770      	bx	lr
    164e:	4b03      	ldr	r3, [pc, #12]	; (165c <shifted_ref+0x2a>)
    1650:	685b      	ldr	r3, [r3, #4]
    1652:	009b      	lsls	r3, r3, #2
    1654:	0edb      	lsrs	r3, r3, #27
    1656:	4a03      	ldr	r2, [pc, #12]	; (1664 <shifted_ref+0x32>)
    1658:	62d3      	str	r3, [r2, #44]	; 0x2c
    165a:	e7f7      	b.n	164c <shifted_ref+0x1a>
    165c:	10001d20 	.word	0x10001d20
    1660:	c1ffffff 	.word	0xc1ffffff
    1664:	10001c00 	.word	0x10001c00

00001668 <call_shifted_const_ref>:
    1668:	b500      	push	{lr}
    166a:	b081      	sub	sp, #4
    166c:	2301      	movs	r3, #1
    166e:	9300      	str	r3, [sp, #0]
    1670:	4668      	mov	r0, sp
    1672:	f7ff fffe 	bl	1632 <shifted_ref>
    1676:	b001      	add	sp, #4
    1678:	bd00      	pop	{pc}

0000167a <call_shifted_var_ref>:
    167a:	b500      	push	{lr}
    167c:	b081      	sub	sp, #4
    167e:	2301      	movs	r3, #1
    1680:	9300      	str	r3, [sp, #0]
    1682:	4668      	mov	r0, sp
    1684:	f7ff fffe 	bl	1632 <shifted_ref>
    1688:	b001      	add	sp, #4
    168a:	bd00      	pop	{pc}

0000168c <call_shifted_global_ref>:
    168c:	b500      	push	{lr}
    168e:	b081      	sub	sp, #4
    1690:	2301      	movs	r3, #1
    1692:	9300      	str	r3, [sp, #0]
    1694:	4668      	mov	r0, sp
    1696:	f7ff fffe 	bl	1632 <shifted_ref>
    169a:	b001      	add	sp, #4
    169c:	bd00      	pop	{pc}

0000169e <copy_bits_val>:
    169e:	4b0a      	ldr	r3, [pc, #40]	; (16c8 <copy_bits_val+0x2a>)
    16a0:	2200      	movs	r2, #0
    16a2:	605a      	str	r2, [r3, #4]
    16a4:	2801      	cmp	r0, #1
    16a6:	d007      	beq.n	16b8 <copy_bits_val+0x1a>
    16a8:	4a07      	ldr	r2, [pc, #28]	; (16c8 <copy_bits_val+0x2a>)
    16aa:	6853      	ldr	r3, [r2, #4]
    16ac:	2106      	movs	r1, #6
    16ae:	438b      	bics	r3, r1
    16b0:	3902      	subs	r1, #2
    16b2:	430b      	orrs	r3, r1
    16b4:	6053      	str	r3, [r2, #4]
    16b6:	4770      	bx	lr
    16b8:	001a      	movs	r2, r3
    16ba:	685b      	ldr	r3, [r3, #4]
    16bc:	2106      	movs	r1, #6
    16be:	438b      	bics	r3, r1
    16c0:	3904      	subs	r1, #4
    16c2:	430b      	orrs	r3, r1
    16c4:	6053      	str	r3, [r2, #4]
    16c6:	e7f6      	b.n	16b6 <copy_bits_val+0x18>
    16c8:	10001dc0 	.word	0x10001dc0

000016cc <call_copy_bits_val>:
    16cc:	b500      	push	{lr}
    16ce:	4b06      	ldr	r3, [pc, #24]	; (16e8 <call_copy_bits_val+0x1c>)
    16d0:	2200      	movs	r2, #0
    16d2:	605a      	str	r2, [r3, #4]
    16d4:	685a      	ldr	r2, [r3, #4]
    16d6:	2140      	movs	r1, #64	; 0x40
    16d8:	430a      	orrs	r2, r1
    16da:	605a      	str	r2, [r3, #4]
    16dc:	6858      	ldr	r0, [r3, #4]
    16de:	0640      	lsls	r0, r0, #25
    16e0:	0fc0      	lsrs	r0, r0, #31
    16e2:	f7ff fffe 	bl	169e <copy_bits_val>
    16e6:	bd00      	pop	{pc}
    16e8:	10001dc0 	.word	0x10001dc0

000016ec <copy_bits_ref>:
    16ec:	4b0a      	ldr	r3, [pc, #40]	; (1718 <copy_bits_ref+0x2c>)
    16ee:	2200      	movs	r2, #0
    16f0:	605a      	str	r2, [r3, #4]
    16f2:	6803      	ldr	r3, [r0, #0]
    16f4:	2b01      	cmp	r3, #1
    16f6:	d007      	beq.n	1708 <copy_bits_ref+0x1c>
    16f8:	4a07      	ldr	r2, [pc, #28]	; (1718 <copy_bits_ref+0x2c>)
    16fa:	6853      	ldr	r3, [r2, #4]
    16fc:	2106      	movs	r1, #6
    16fe:	438b      	bics	r3, r1
    1700:	3902      	subs	r1, #2
    1702:	430b      	orrs	r3, r1
    1704:	6053      	str	r3, [r2, #4]
    1706:	4770      	bx	lr
    1708:	4a03      	ldr	r2, [pc, #12]	; (1718 <copy_bits_ref+0x2c>)
    170a:	6853      	ldr	r3, [r2, #4]
    170c:	2106      	movs	r1, #6
    170e:	438b      	bics	r3, r1
    1710:	3904      	subs	r1, #4
    1712:	430b      	orrs	r3, r1
    1714:	6053      	str	r3, [r2, #4]
    1716:	e7f6      	b.n	1706 <copy_bits_ref+0x1a>
    1718:	10001dc0 	.word	0x10001dc0

0000171c <call_copy_bits_ref>:
    171c:	b500      	push	{lr}
    171e:	b081      	sub	sp, #4
    1720:	4b07      	ldr	r3, [pc, #28]	; (1740 <call_copy_bits_ref+0x24>)
    1722:	2200      	movs	r2, #0
    1724:	605a      	str	r2, [r3, #4]
    1726:	685a      	ldr	r2, [r3, #4]
    1728:	2140      	movs	r1, #64	; 0x40
    172a:	430a      	orrs	r2, r1
    172c:	605a      	str	r2, [r3, #4]
    172e:	685b      	ldr	r3, [r3, #4]
    1730:	065b      	lsls	r3, r3, #25
    1732:	0fdb      	lsrs	r3, r3, #31
    1734:	9300      	str	r3, [sp, #0]
    1736:	4668      	mov	r0, sp
    1738:	f7ff fffe 	bl	16ec <copy_bits_ref>
    173c:	b001      	add	sp, #4
    173e:	bd00      	pop	{pc}
    1740:	10001dc0 	.word	0x10001dc0

00001744 <run>:
    1744:	b570      	push	{r4, r5, r6, lr}
    1746:	4cfe      	ldr	r4, [pc, #1016]	; (1b40 <run+0x3fc>)
    1748:	2200      	movs	r2, #0
    174a:	0021      	movs	r1, r4
    174c:	48fd      	ldr	r0, [pc, #1012]	; (1b44 <run+0x400>)
    174e:	f7ff fffe 	bl	0 <do_test>
    1752:	2201      	movs	r2, #1
    1754:	0021      	movs	r1, r4
    1756:	48fc      	ldr	r0, [pc, #1008]	; (1b48 <run+0x404>)
    1758:	f7ff fffe 	bl	0 <do_test>
    175c:	2202      	movs	r2, #2
    175e:	0021      	movs	r1, r4
    1760:	48fa      	ldr	r0, [pc, #1000]	; (1b4c <run+0x408>)
    1762:	f7ff fffe 	bl	0 <do_test>
    1766:	2203      	movs	r2, #3
    1768:	0021      	movs	r1, r4
    176a:	48f9      	ldr	r0, [pc, #996]	; (1b50 <run+0x40c>)
    176c:	f7ff fffe 	bl	0 <do_test>
    1770:	2204      	movs	r2, #4
    1772:	0021      	movs	r1, r4
    1774:	48f7      	ldr	r0, [pc, #988]	; (1b54 <run+0x410>)
    1776:	f7ff fffe 	bl	0 <do_test>
    177a:	2205      	movs	r2, #5
    177c:	0021      	movs	r1, r4
    177e:	48f6      	ldr	r0, [pc, #984]	; (1b58 <run+0x414>)
    1780:	f7ff fffe 	bl	0 <do_test>
    1784:	2206      	movs	r2, #6
    1786:	0021      	movs	r1, r4
    1788:	48f4      	ldr	r0, [pc, #976]	; (1b5c <run+0x418>)
    178a:	f7ff fffe 	bl	0 <do_test>
    178e:	2207      	movs	r2, #7
    1790:	0021      	movs	r1, r4
    1792:	48f3      	ldr	r0, [pc, #972]	; (1b60 <run+0x41c>)
    1794:	f7ff fffe 	bl	0 <do_test>
    1798:	2208      	movs	r2, #8
    179a:	0021      	movs	r1, r4
    179c:	48f1      	ldr	r0, [pc, #964]	; (1b64 <run+0x420>)
    179e:	f7ff fffe 	bl	0 <do_test>
    17a2:	2209      	movs	r2, #9
    17a4:	0021      	movs	r1, r4
    17a6:	48f0      	ldr	r0, [pc, #960]	; (1b68 <run+0x424>)
    17a8:	f7ff fffe 	bl	0 <do_test>
    17ac:	220a      	movs	r2, #10
    17ae:	0021      	movs	r1, r4
    17b0:	48ee      	ldr	r0, [pc, #952]	; (1b6c <run+0x428>)
    17b2:	f7ff fffe 	bl	0 <do_test>
    17b6:	220b      	movs	r2, #11
    17b8:	0021      	movs	r1, r4
    17ba:	48ed      	ldr	r0, [pc, #948]	; (1b70 <run+0x42c>)
    17bc:	f7ff fffe 	bl	0 <do_test>
    17c0:	220c      	movs	r2, #12
    17c2:	0021      	movs	r1, r4
    17c4:	48eb      	ldr	r0, [pc, #940]	; (1b74 <run+0x430>)
    17c6:	f7ff fffe 	bl	0 <do_test>
    17ca:	220d      	movs	r2, #13
    17cc:	0021      	movs	r1, r4
    17ce:	48ea      	ldr	r0, [pc, #936]	; (1b78 <run+0x434>)
    17d0:	f7ff fffe 	bl	0 <do_test>
    17d4:	220e      	movs	r2, #14
    17d6:	0021      	movs	r1, r4
    17d8:	48e8      	ldr	r0, [pc, #928]	; (1b7c <run+0x438>)
    17da:	f7ff fffe 	bl	0 <do_test>
    17de:	220f      	movs	r2, #15
    17e0:	0021      	movs	r1, r4
    17e2:	48e7      	ldr	r0, [pc, #924]	; (1b80 <run+0x43c>)
    17e4:	f7ff fffe 	bl	0 <do_test>
    17e8:	2210      	movs	r2, #16
    17ea:	0021      	movs	r1, r4
    17ec:	48e5      	ldr	r0, [pc, #916]	; (1b84 <run+0x440>)
    17ee:	f7ff fffe 	bl	0 <do_test>
    17f2:	2211      	movs	r2, #17
    17f4:	0021      	movs	r1, r4
    17f6:	48e4      	ldr	r0, [pc, #912]	; (1b88 <run+0x444>)
    17f8:	f7ff fffe 	bl	0 <do_test>
    17fc:	2212      	movs	r2, #18
    17fe:	0021      	movs	r1, r4
    1800:	48e2      	ldr	r0, [pc, #904]	; (1b8c <run+0x448>)
    1802:	f7ff fffe 	bl	0 <do_test>
    1806:	2213      	movs	r2, #19
    1808:	0021      	movs	r1, r4
    180a:	48e1      	ldr	r0, [pc, #900]	; (1b90 <run+0x44c>)
    180c:	f7ff fffe 	bl	0 <do_test>
    1810:	2214      	movs	r2, #20
    1812:	0021      	movs	r1, r4
    1814:	48df      	ldr	r0, [pc, #892]	; (1b94 <run+0x450>)
    1816:	f7ff fffe 	bl	0 <do_test>
    181a:	2215      	movs	r2, #21
    181c:	0021      	movs	r1, r4
    181e:	48de      	ldr	r0, [pc, #888]	; (1b98 <run+0x454>)
    1820:	f7ff fffe 	bl	0 <do_test>
    1824:	2216      	movs	r2, #22
    1826:	0021      	movs	r1, r4
    1828:	48dc      	ldr	r0, [pc, #880]	; (1b9c <run+0x458>)
    182a:	f7ff fffe 	bl	0 <do_test>
    182e:	2217      	movs	r2, #23
    1830:	0021      	movs	r1, r4
    1832:	48db      	ldr	r0, [pc, #876]	; (1ba0 <run+0x45c>)
    1834:	f7ff fffe 	bl	0 <do_test>
    1838:	2218      	movs	r2, #24
    183a:	0021      	movs	r1, r4
    183c:	48d9      	ldr	r0, [pc, #868]	; (1ba4 <run+0x460>)
    183e:	f7ff fffe 	bl	0 <do_test>
    1842:	2219      	movs	r2, #25
    1844:	0021      	movs	r1, r4
    1846:	48d8      	ldr	r0, [pc, #864]	; (1ba8 <run+0x464>)
    1848:	f7ff fffe 	bl	0 <do_test>
    184c:	221a      	movs	r2, #26
    184e:	0021      	movs	r1, r4
    1850:	48d6      	ldr	r0, [pc, #856]	; (1bac <run+0x468>)
    1852:	f7ff fffe 	bl	0 <do_test>
    1856:	221b      	movs	r2, #27
    1858:	0021      	movs	r1, r4
    185a:	48d5      	ldr	r0, [pc, #852]	; (1bb0 <run+0x46c>)
    185c:	f7ff fffe 	bl	0 <do_test>
    1860:	221c      	movs	r2, #28
    1862:	0021      	movs	r1, r4
    1864:	48d3      	ldr	r0, [pc, #844]	; (1bb4 <run+0x470>)
    1866:	f7ff fffe 	bl	0 <do_test>
    186a:	221d      	movs	r2, #29
    186c:	0021      	movs	r1, r4
    186e:	48d2      	ldr	r0, [pc, #840]	; (1bb8 <run+0x474>)
    1870:	f7ff fffe 	bl	0 <do_test>
    1874:	221e      	movs	r2, #30
    1876:	0021      	movs	r1, r4
    1878:	48d0      	ldr	r0, [pc, #832]	; (1bbc <run+0x478>)
    187a:	f7ff fffe 	bl	0 <do_test>
    187e:	221f      	movs	r2, #31
    1880:	0021      	movs	r1, r4
    1882:	48cf      	ldr	r0, [pc, #828]	; (1bc0 <run+0x47c>)
    1884:	f7ff fffe 	bl	0 <do_test>
    1888:	2220      	movs	r2, #32
    188a:	0021      	movs	r1, r4
    188c:	48cd      	ldr	r0, [pc, #820]	; (1bc4 <run+0x480>)
    188e:	f7ff fffe 	bl	0 <do_test>
    1892:	2221      	movs	r2, #33	; 0x21
    1894:	0021      	movs	r1, r4
    1896:	48cc      	ldr	r0, [pc, #816]	; (1bc8 <run+0x484>)
    1898:	f7ff fffe 	bl	0 <do_test>
    189c:	2222      	movs	r2, #34	; 0x22
    189e:	0021      	movs	r1, r4
    18a0:	48ca      	ldr	r0, [pc, #808]	; (1bcc <run+0x488>)
    18a2:	f7ff fffe 	bl	0 <do_test>
    18a6:	2223      	movs	r2, #35	; 0x23
    18a8:	0021      	movs	r1, r4
    18aa:	48c9      	ldr	r0, [pc, #804]	; (1bd0 <run+0x48c>)
    18ac:	f7ff fffe 	bl	0 <do_test>
    18b0:	2224      	movs	r2, #36	; 0x24
    18b2:	0021      	movs	r1, r4
    18b4:	48c7      	ldr	r0, [pc, #796]	; (1bd4 <run+0x490>)
    18b6:	f7ff fffe 	bl	0 <do_test>
    18ba:	4ec7      	ldr	r6, [pc, #796]	; (1bd8 <run+0x494>)
    18bc:	2225      	movs	r2, #37	; 0x25
    18be:	0031      	movs	r1, r6
    18c0:	48c6      	ldr	r0, [pc, #792]	; (1bdc <run+0x498>)
    18c2:	f7ff fffe 	bl	0 <do_test>
    18c6:	2226      	movs	r2, #38	; 0x26
    18c8:	0031      	movs	r1, r6
    18ca:	48c5      	ldr	r0, [pc, #788]	; (1be0 <run+0x49c>)
    18cc:	f7ff fffe 	bl	0 <do_test>
    18d0:	2227      	movs	r2, #39	; 0x27
    18d2:	0031      	movs	r1, r6
    18d4:	48c3      	ldr	r0, [pc, #780]	; (1be4 <run+0x4a0>)
    18d6:	f7ff fffe 	bl	0 <do_test>
    18da:	2228      	movs	r2, #40	; 0x28
    18dc:	0021      	movs	r1, r4
    18de:	48c2      	ldr	r0, [pc, #776]	; (1be8 <run+0x4a4>)
    18e0:	f7ff fffe 	bl	0 <do_test>
    18e4:	2229      	movs	r2, #41	; 0x29
    18e6:	0021      	movs	r1, r4
    18e8:	48c0      	ldr	r0, [pc, #768]	; (1bec <run+0x4a8>)
    18ea:	f7ff fffe 	bl	0 <do_test>
    18ee:	222a      	movs	r2, #42	; 0x2a
    18f0:	0021      	movs	r1, r4
    18f2:	48bf      	ldr	r0, [pc, #764]	; (1bf0 <run+0x4ac>)
    18f4:	f7ff fffe 	bl	0 <do_test>
    18f8:	222b      	movs	r2, #43	; 0x2b
    18fa:	0021      	movs	r1, r4
    18fc:	48bd      	ldr	r0, [pc, #756]	; (1bf4 <run+0x4b0>)
    18fe:	f7ff fffe 	bl	0 <do_test>
    1902:	222c      	movs	r2, #44	; 0x2c
    1904:	0021      	movs	r1, r4
    1906:	48bc      	ldr	r0, [pc, #752]	; (1bf8 <run+0x4b4>)
    1908:	f7ff fffe 	bl	0 <do_test>
    190c:	4dbb      	ldr	r5, [pc, #748]	; (1bfc <run+0x4b8>)
    190e:	222d      	movs	r2, #45	; 0x2d
    1910:	0029      	movs	r1, r5
    1912:	48bb      	ldr	r0, [pc, #748]	; (1c00 <run+0x4bc>)
    1914:	f7ff fffe 	bl	0 <do_test>
    1918:	222e      	movs	r2, #46	; 0x2e
    191a:	0021      	movs	r1, r4
    191c:	48b9      	ldr	r0, [pc, #740]	; (1c04 <run+0x4c0>)
    191e:	f7ff fffe 	bl	0 <do_test>
    1922:	222f      	movs	r2, #47	; 0x2f
    1924:	0021      	movs	r1, r4
    1926:	48b8      	ldr	r0, [pc, #736]	; (1c08 <run+0x4c4>)
    1928:	f7ff fffe 	bl	0 <do_test>
    192c:	2230      	movs	r2, #48	; 0x30
    192e:	0021      	movs	r1, r4
    1930:	48b6      	ldr	r0, [pc, #728]	; (1c0c <run+0x4c8>)
    1932:	f7ff fffe 	bl	0 <do_test>
    1936:	2231      	movs	r2, #49	; 0x31
    1938:	0021      	movs	r1, r4
    193a:	48b5      	ldr	r0, [pc, #724]	; (1c10 <run+0x4cc>)
    193c:	f7ff fffe 	bl	0 <do_test>
    1940:	2232      	movs	r2, #50	; 0x32
    1942:	0021      	movs	r1, r4
    1944:	48b3      	ldr	r0, [pc, #716]	; (1c14 <run+0x4d0>)
    1946:	f7ff fffe 	bl	0 <do_test>
    194a:	2233      	movs	r2, #51	; 0x33
    194c:	0021      	movs	r1, r4
    194e:	48b2      	ldr	r0, [pc, #712]	; (1c18 <run+0x4d4>)
    1950:	f7ff fffe 	bl	0 <do_test>
    1954:	2234      	movs	r2, #52	; 0x34
    1956:	0021      	movs	r1, r4
    1958:	48b0      	ldr	r0, [pc, #704]	; (1c1c <run+0x4d8>)
    195a:	f7ff fffe 	bl	0 <do_test>
    195e:	2235      	movs	r2, #53	; 0x35
    1960:	0021      	movs	r1, r4
    1962:	48af      	ldr	r0, [pc, #700]	; (1c20 <run+0x4dc>)
    1964:	f7ff fffe 	bl	0 <do_test>
    1968:	2236      	movs	r2, #54	; 0x36
    196a:	0021      	movs	r1, r4
    196c:	48ad      	ldr	r0, [pc, #692]	; (1c24 <run+0x4e0>)
    196e:	f7ff fffe 	bl	0 <do_test>
    1972:	2237      	movs	r2, #55	; 0x37
    1974:	0021      	movs	r1, r4
    1976:	48ac      	ldr	r0, [pc, #688]	; (1c28 <run+0x4e4>)
    1978:	f7ff fffe 	bl	0 <do_test>
    197c:	2238      	movs	r2, #56	; 0x38
    197e:	0021      	movs	r1, r4
    1980:	48aa      	ldr	r0, [pc, #680]	; (1c2c <run+0x4e8>)
    1982:	f7ff fffe 	bl	0 <do_test>
    1986:	2239      	movs	r2, #57	; 0x39
    1988:	0021      	movs	r1, r4
    198a:	48a9      	ldr	r0, [pc, #676]	; (1c30 <run+0x4ec>)
    198c:	f7ff fffe 	bl	0 <do_test>
    1990:	223a      	movs	r2, #58	; 0x3a
    1992:	0021      	movs	r1, r4
    1994:	48a7      	ldr	r0, [pc, #668]	; (1c34 <run+0x4f0>)
    1996:	f7ff fffe 	bl	0 <do_test>
    199a:	223b      	movs	r2, #59	; 0x3b
    199c:	0021      	movs	r1, r4
    199e:	48a6      	ldr	r0, [pc, #664]	; (1c38 <run+0x4f4>)
    19a0:	f7ff fffe 	bl	0 <do_test>
    19a4:	223c      	movs	r2, #60	; 0x3c
    19a6:	0021      	movs	r1, r4
    19a8:	48a4      	ldr	r0, [pc, #656]	; (1c3c <run+0x4f8>)
    19aa:	f7ff fffe 	bl	0 <do_test>
    19ae:	223d      	movs	r2, #61	; 0x3d
    19b0:	0021      	movs	r1, r4
    19b2:	48a3      	ldr	r0, [pc, #652]	; (1c40 <run+0x4fc>)
    19b4:	f7ff fffe 	bl	0 <do_test>
    19b8:	223e      	movs	r2, #62	; 0x3e
    19ba:	0021      	movs	r1, r4
    19bc:	48a1      	ldr	r0, [pc, #644]	; (1c44 <run+0x500>)
    19be:	f7ff fffe 	bl	0 <do_test>
    19c2:	223f      	movs	r2, #63	; 0x3f
    19c4:	0021      	movs	r1, r4
    19c6:	48a0      	ldr	r0, [pc, #640]	; (1c48 <run+0x504>)
    19c8:	f7ff fffe 	bl	0 <do_test>
    19cc:	2240      	movs	r2, #64	; 0x40
    19ce:	0031      	movs	r1, r6
    19d0:	489e      	ldr	r0, [pc, #632]	; (1c4c <run+0x508>)
    19d2:	f7ff fffe 	bl	0 <do_test>
    19d6:	2241      	movs	r2, #65	; 0x41
    19d8:	0031      	movs	r1, r6
    19da:	489d      	ldr	r0, [pc, #628]	; (1c50 <run+0x50c>)
    19dc:	f7ff fffe 	bl	0 <do_test>
    19e0:	2242      	movs	r2, #66	; 0x42
    19e2:	0031      	movs	r1, r6
    19e4:	489b      	ldr	r0, [pc, #620]	; (1c54 <run+0x510>)
    19e6:	f7ff fffe 	bl	0 <do_test>
    19ea:	2243      	movs	r2, #67	; 0x43
    19ec:	0021      	movs	r1, r4
    19ee:	489a      	ldr	r0, [pc, #616]	; (1c58 <run+0x514>)
    19f0:	f7ff fffe 	bl	0 <do_test>
    19f4:	2244      	movs	r2, #68	; 0x44
    19f6:	0029      	movs	r1, r5
    19f8:	4898      	ldr	r0, [pc, #608]	; (1c5c <run+0x518>)
    19fa:	f7ff fffe 	bl	0 <do_test>
    19fe:	2245      	movs	r2, #69	; 0x45
    1a00:	0029      	movs	r1, r5
    1a02:	4897      	ldr	r0, [pc, #604]	; (1c60 <run+0x51c>)
    1a04:	f7ff fffe 	bl	0 <do_test>
    1a08:	2246      	movs	r2, #70	; 0x46
    1a0a:	0021      	movs	r1, r4
    1a0c:	4895      	ldr	r0, [pc, #596]	; (1c64 <run+0x520>)
    1a0e:	f7ff fffe 	bl	0 <do_test>
    1a12:	2247      	movs	r2, #71	; 0x47
    1a14:	0021      	movs	r1, r4
    1a16:	4894      	ldr	r0, [pc, #592]	; (1c68 <run+0x524>)
    1a18:	f7ff fffe 	bl	0 <do_test>
    1a1c:	2248      	movs	r2, #72	; 0x48
    1a1e:	0029      	movs	r1, r5
    1a20:	4892      	ldr	r0, [pc, #584]	; (1c6c <run+0x528>)
    1a22:	f7ff fffe 	bl	0 <do_test>
    1a26:	2249      	movs	r2, #73	; 0x49
    1a28:	0029      	movs	r1, r5
    1a2a:	4891      	ldr	r0, [pc, #580]	; (1c70 <run+0x52c>)
    1a2c:	f7ff fffe 	bl	0 <do_test>
    1a30:	224a      	movs	r2, #74	; 0x4a
    1a32:	0021      	movs	r1, r4
    1a34:	488f      	ldr	r0, [pc, #572]	; (1c74 <run+0x530>)
    1a36:	f7ff fffe 	bl	0 <do_test>
    1a3a:	224b      	movs	r2, #75	; 0x4b
    1a3c:	0021      	movs	r1, r4
    1a3e:	488e      	ldr	r0, [pc, #568]	; (1c78 <run+0x534>)
    1a40:	f7ff fffe 	bl	0 <do_test>
    1a44:	224c      	movs	r2, #76	; 0x4c
    1a46:	0021      	movs	r1, r4
    1a48:	488c      	ldr	r0, [pc, #560]	; (1c7c <run+0x538>)
    1a4a:	f7ff fffe 	bl	0 <do_test>
    1a4e:	224d      	movs	r2, #77	; 0x4d
    1a50:	0021      	movs	r1, r4
    1a52:	488b      	ldr	r0, [pc, #556]	; (1c80 <run+0x53c>)
    1a54:	f7ff fffe 	bl	0 <do_test>
    1a58:	224e      	movs	r2, #78	; 0x4e
    1a5a:	0021      	movs	r1, r4
    1a5c:	4889      	ldr	r0, [pc, #548]	; (1c84 <run+0x540>)
    1a5e:	f7ff fffe 	bl	0 <do_test>
    1a62:	224f      	movs	r2, #79	; 0x4f
    1a64:	0021      	movs	r1, r4
    1a66:	4888      	ldr	r0, [pc, #544]	; (1c88 <run+0x544>)
    1a68:	f7ff fffe 	bl	0 <do_test>
    1a6c:	4e87      	ldr	r6, [pc, #540]	; (1c8c <run+0x548>)
    1a6e:	2250      	movs	r2, #80	; 0x50
    1a70:	0021      	movs	r1, r4
    1a72:	0030      	movs	r0, r6
    1a74:	f7ff fffe 	bl	0 <do_test>
    1a78:	2251      	movs	r2, #81	; 0x51
    1a7a:	0021      	movs	r1, r4
    1a7c:	0030      	movs	r0, r6
    1a7e:	f7ff fffe 	bl	0 <do_test>
    1a82:	2252      	movs	r2, #82	; 0x52
    1a84:	0021      	movs	r1, r4
    1a86:	4882      	ldr	r0, [pc, #520]	; (1c90 <run+0x54c>)
    1a88:	f7ff fffe 	bl	0 <do_test>
    1a8c:	2253      	movs	r2, #83	; 0x53
    1a8e:	0021      	movs	r1, r4
    1a90:	4880      	ldr	r0, [pc, #512]	; (1c94 <run+0x550>)
    1a92:	f7ff fffe 	bl	0 <do_test>
    1a96:	2254      	movs	r2, #84	; 0x54
    1a98:	0021      	movs	r1, r4
    1a9a:	487f      	ldr	r0, [pc, #508]	; (1c98 <run+0x554>)
    1a9c:	f7ff fffe 	bl	0 <do_test>
    1aa0:	4e7e      	ldr	r6, [pc, #504]	; (1c9c <run+0x558>)
    1aa2:	2255      	movs	r2, #85	; 0x55
    1aa4:	0021      	movs	r1, r4
    1aa6:	0030      	movs	r0, r6
    1aa8:	f7ff fffe 	bl	0 <do_test>
    1aac:	2256      	movs	r2, #86	; 0x56
    1aae:	0021      	movs	r1, r4
    1ab0:	487b      	ldr	r0, [pc, #492]	; (1ca0 <run+0x55c>)
    1ab2:	f7ff fffe 	bl	0 <do_test>
    1ab6:	2257      	movs	r2, #87	; 0x57
    1ab8:	0021      	movs	r1, r4
    1aba:	0030      	movs	r0, r6
    1abc:	f7ff fffe 	bl	0 <do_test>
    1ac0:	2258      	movs	r2, #88	; 0x58
    1ac2:	0021      	movs	r1, r4
    1ac4:	4877      	ldr	r0, [pc, #476]	; (1ca4 <run+0x560>)
    1ac6:	f7ff fffe 	bl	0 <do_test>
    1aca:	2259      	movs	r2, #89	; 0x59
    1acc:	0021      	movs	r1, r4
    1ace:	4876      	ldr	r0, [pc, #472]	; (1ca8 <run+0x564>)
    1ad0:	f7ff fffe 	bl	0 <do_test>
    1ad4:	225a      	movs	r2, #90	; 0x5a
    1ad6:	0029      	movs	r1, r5
    1ad8:	4874      	ldr	r0, [pc, #464]	; (1cac <run+0x568>)
    1ada:	f7ff fffe 	bl	0 <do_test>
    1ade:	225b      	movs	r2, #91	; 0x5b
    1ae0:	0029      	movs	r1, r5
    1ae2:	4873      	ldr	r0, [pc, #460]	; (1cb0 <run+0x56c>)
    1ae4:	f7ff fffe 	bl	0 <do_test>
    1ae8:	225c      	movs	r2, #92	; 0x5c
    1aea:	0021      	movs	r1, r4
    1aec:	4871      	ldr	r0, [pc, #452]	; (1cb4 <run+0x570>)
    1aee:	f7ff fffe 	bl	0 <do_test>
    1af2:	225d      	movs	r2, #93	; 0x5d
    1af4:	0029      	movs	r1, r5
    1af6:	4870      	ldr	r0, [pc, #448]	; (1cb8 <run+0x574>)
    1af8:	f7ff fffe 	bl	0 <do_test>
    1afc:	225e      	movs	r2, #94	; 0x5e
    1afe:	0029      	movs	r1, r5
    1b00:	486e      	ldr	r0, [pc, #440]	; (1cbc <run+0x578>)
    1b02:	f7ff fffe 	bl	0 <do_test>
    1b06:	225f      	movs	r2, #95	; 0x5f
    1b08:	0021      	movs	r1, r4
    1b0a:	486d      	ldr	r0, [pc, #436]	; (1cc0 <run+0x57c>)
    1b0c:	f7ff fffe 	bl	0 <do_test>
    1b10:	2260      	movs	r2, #96	; 0x60
    1b12:	0021      	movs	r1, r4
    1b14:	486b      	ldr	r0, [pc, #428]	; (1cc4 <run+0x580>)
    1b16:	f7ff fffe 	bl	0 <do_test>
    1b1a:	2261      	movs	r2, #97	; 0x61
    1b1c:	0021      	movs	r1, r4
    1b1e:	486a      	ldr	r0, [pc, #424]	; (1cc8 <run+0x584>)
    1b20:	f7ff fffe 	bl	0 <do_test>
    1b24:	2262      	movs	r2, #98	; 0x62
    1b26:	0021      	movs	r1, r4
    1b28:	4868      	ldr	r0, [pc, #416]	; (1ccc <run+0x588>)
    1b2a:	f7ff fffe 	bl	0 <do_test>
    1b2e:	2263      	movs	r2, #99	; 0x63
    1b30:	0029      	movs	r1, r5
    1b32:	4867      	ldr	r0, [pc, #412]	; (1cd0 <run+0x58c>)
    1b34:	f7ff fffe 	bl	0 <do_test>
    1b38:	2264      	movs	r2, #100	; 0x64
    1b3a:	0029      	movs	r1, r5
    1b3c:	e0ca      	b.n	1cd4 <run+0x590>
    1b3e:	46c0      	nop			; (mov r8, r8)
    1b40:	10001dc4 	.word	0x10001dc4
	...
    1bd8:	10001d24 	.word	0x10001d24
	...
    1bfc:	10001c2c 	.word	0x10001c2c
	...
    1cd4:	4827      	ldr	r0, [pc, #156]	; (a0 <do_test+0xa0>)
    1cd6:	f7ff fffe 	bl	0 <do_test>
    1cda:	2265      	movs	r2, #101	; 0x65
    1cdc:	0029      	movs	r1, r5
    1cde:	4826      	ldr	r0, [pc, #152]	; (1d78 <run+0x634>)
    1ce0:	f7ff fffe 	bl	0 <do_test>
    1ce4:	2266      	movs	r2, #102	; 0x66
    1ce6:	0029      	movs	r1, r5
    1ce8:	4824      	ldr	r0, [pc, #144]	; (1d7c <run+0x638>)
    1cea:	f7ff fffe 	bl	0 <do_test>
    1cee:	2267      	movs	r2, #103	; 0x67
    1cf0:	0029      	movs	r1, r5
    1cf2:	4823      	ldr	r0, [pc, #140]	; (1d80 <run+0x63c>)
    1cf4:	f7ff fffe 	bl	0 <do_test>
    1cf8:	2268      	movs	r2, #104	; 0x68
    1cfa:	0029      	movs	r1, r5
    1cfc:	4821      	ldr	r0, [pc, #132]	; (1d84 <run+0x640>)
    1cfe:	f7ff fffe 	bl	0 <do_test>
    1d02:	2269      	movs	r2, #105	; 0x69
    1d04:	0021      	movs	r1, r4
    1d06:	4820      	ldr	r0, [pc, #128]	; (1d88 <run+0x644>)
    1d08:	f7ff fffe 	bl	0 <do_test>
    1d0c:	226a      	movs	r2, #106	; 0x6a
    1d0e:	0021      	movs	r1, r4
    1d10:	481e      	ldr	r0, [pc, #120]	; (1d8c <run+0x648>)
    1d12:	f7ff fffe 	bl	0 <do_test>
    1d16:	226b      	movs	r2, #107	; 0x6b
    1d18:	0021      	movs	r1, r4
    1d1a:	481d      	ldr	r0, [pc, #116]	; (1d90 <run+0x64c>)
    1d1c:	f7ff fffe 	bl	0 <do_test>
    1d20:	226c      	movs	r2, #108	; 0x6c
    1d22:	0021      	movs	r1, r4
    1d24:	481b      	ldr	r0, [pc, #108]	; (1d94 <run+0x650>)
    1d26:	f7ff fffe 	bl	0 <do_test>
    1d2a:	226d      	movs	r2, #109	; 0x6d
    1d2c:	0021      	movs	r1, r4
    1d2e:	481a      	ldr	r0, [pc, #104]	; (1d98 <run+0x654>)
    1d30:	f7ff fffe 	bl	0 <do_test>
    1d34:	226e      	movs	r2, #110	; 0x6e
    1d36:	0021      	movs	r1, r4
    1d38:	4818      	ldr	r0, [pc, #96]	; (1d9c <run+0x658>)
    1d3a:	f7ff fffe 	bl	0 <do_test>
    1d3e:	226f      	movs	r2, #111	; 0x6f
    1d40:	0021      	movs	r1, r4
    1d42:	4817      	ldr	r0, [pc, #92]	; (1da0 <run+0x65c>)
    1d44:	f7ff fffe 	bl	0 <do_test>
    1d48:	2270      	movs	r2, #112	; 0x70
    1d4a:	0021      	movs	r1, r4
    1d4c:	4815      	ldr	r0, [pc, #84]	; (1da4 <run+0x660>)
    1d4e:	f7ff fffe 	bl	0 <do_test>
    1d52:	2271      	movs	r2, #113	; 0x71
    1d54:	0021      	movs	r1, r4
    1d56:	4814      	ldr	r0, [pc, #80]	; (1da8 <run+0x664>)
    1d58:	f7ff fffe 	bl	0 <do_test>
    1d5c:	2272      	movs	r2, #114	; 0x72
    1d5e:	0021      	movs	r1, r4
    1d60:	4812      	ldr	r0, [pc, #72]	; (1dac <run+0x668>)
    1d62:	f7ff fffe 	bl	0 <do_test>
    1d66:	2273      	movs	r2, #115	; 0x73
    1d68:	0021      	movs	r1, r4
    1d6a:	4811      	ldr	r0, [pc, #68]	; (1db0 <run+0x66c>)
    1d6c:	f7ff fffe 	bl	0 <do_test>
    1d70:	bd70      	pop	{r4, r5, r6, pc}
    1d72:	46c0      	nop			; (mov r8, r8)
	...

Disassembly of section .rodata:

00000000 <.rodata>:
   0:	00000ebe 	.word	0x00000ebe
   4:	00000ed8 	.word	0x00000ed8
   8:	00000ef4 	.word	0x00000ef4
   c:	00000f10 	.word	0x00000f10
  10:	00000f2c 	.word	0x00000f2c
  14:	00000f48 	.word	0x00000f48
  18:	00000f64 	.word	0x00000f64
  1c:	00000fd4 	.word	0x00000fd4
  20:	00000ff2 	.word	0x00000ff2
  24:	00001016 	.word	0x00001016
  28:	0000103a 	.word	0x0000103a
  2c:	0000105e 	.word	0x0000105e
  30:	00001082 	.word	0x00001082
  34:	000010a6 	.word	0x000010a6
