
bitfield.o:     file format elf32-littlearm


Disassembly of section .text:

00000000 <zero_reg>:
       0:	2200      	movs	r2, #0
       2:	4b01      	ldr	r3, [pc, #4]	; (8 <zero_reg+0x8>)
       4:	605a      	str	r2, [r3, #4]
       6:	4770      	bx	lr
       8:	20002480 	.word	0x20002480

0000000c <zero_array>:
       c:	2200      	movs	r2, #0
       e:	4b01      	ldr	r3, [pc, #4]	; (14 <zero_array+0x8>)
      10:	62da      	str	r2, [r3, #44]	; 0x2c
      12:	4770      	bx	lr
      14:	200022c0 	.word	0x200022c0

00000018 <set_singl_bits_operator>:
      18:	4a02      	ldr	r2, [pc, #8]	; (24 <set_singl_bits_operator+0xc>)
      1a:	6853      	ldr	r3, [r2, #4]
      1c:	f043 0340 	orr.w	r3, r3, #64	; 0x40
      20:	6053      	str	r3, [r2, #4]
      22:	4770      	bx	lr
      24:	20002480 	.word	0x20002480

00000028 <set_singl_bits_method>:
      28:	4a02      	ldr	r2, [pc, #8]	; (34 <set_singl_bits_method+0xc>)
      2a:	6853      	ldr	r3, [r2, #4]
      2c:	f043 0340 	orr.w	r3, r3, #64	; 0x40
      30:	6053      	str	r3, [r2, #4]
      32:	4770      	bx	lr
      34:	20002480 	.word	0x20002480

00000038 <clr_singl_bits_operator>:
      38:	4b02      	ldr	r3, [pc, #8]	; (44 <clr_singl_bits_operator+0xc>)
      3a:	685a      	ldr	r2, [r3, #4]
      3c:	f36f 1286 	bfc	r2, #6, #1
      40:	605a      	str	r2, [r3, #4]
      42:	4770      	bx	lr
      44:	20002480 	.word	0x20002480

00000048 <clr_singl_bits_method>:
      48:	4b02      	ldr	r3, [pc, #8]	; (54 <clr_singl_bits_method+0xc>)
      4a:	685a      	ldr	r2, [r3, #4]
      4c:	f36f 1286 	bfc	r2, #6, #1
      50:	605a      	str	r2, [r3, #4]
      52:	4770      	bx	lr
      54:	20002480 	.word	0x20002480

00000058 <set_singl_mskd_operator>:
      58:	4a05      	ldr	r2, [pc, #20]	; (70 <set_singl_mskd_operator+0x18>)
      5a:	6853      	ldr	r3, [r2, #4]
      5c:	6851      	ldr	r1, [r2, #4]
      5e:	f3c3 0341 	ubfx	r3, r3, #1, #2
      62:	f043 0301 	orr.w	r3, r3, #1
      66:	f363 0142 	bfi	r1, r3, #1, #2
      6a:	6051      	str	r1, [r2, #4]
      6c:	4770      	bx	lr
      6e:	bf00      	nop
      70:	20002480 	.word	0x20002480

00000074 <set_singl_mskd_method>:
      74:	4a05      	ldr	r2, [pc, #20]	; (8c <set_singl_mskd_method+0x18>)
      76:	6853      	ldr	r3, [r2, #4]
      78:	6851      	ldr	r1, [r2, #4]
      7a:	f3c3 0341 	ubfx	r3, r3, #1, #2
      7e:	f043 0301 	orr.w	r3, r3, #1
      82:	f363 0142 	bfi	r1, r3, #1, #2
      86:	6051      	str	r1, [r2, #4]
      88:	4770      	bx	lr
      8a:	bf00      	nop
      8c:	20002480 	.word	0x20002480

00000090 <clr_singl_mskd_operator>:
      90:	4a05      	ldr	r2, [pc, #20]	; (a8 <clr_singl_mskd_operator+0x18>)
      92:	6853      	ldr	r3, [r2, #4]
      94:	6851      	ldr	r1, [r2, #4]
      96:	f3c3 0341 	ubfx	r3, r3, #1, #2
      9a:	f003 0302 	and.w	r3, r3, #2
      9e:	f363 0142 	bfi	r1, r3, #1, #2
      a2:	6051      	str	r1, [r2, #4]
      a4:	4770      	bx	lr
      a6:	bf00      	nop
      a8:	20002480 	.word	0x20002480

000000ac <clr_singl_mskd_method>:
      ac:	4a05      	ldr	r2, [pc, #20]	; (c4 <clr_singl_mskd_method+0x18>)
      ae:	6853      	ldr	r3, [r2, #4]
      b0:	6851      	ldr	r1, [r2, #4]
      b2:	f3c3 0341 	ubfx	r3, r3, #1, #2
      b6:	f003 0302 	and.w	r3, r3, #2
      ba:	f363 0142 	bfi	r1, r3, #1, #2
      be:	6051      	str	r1, [r2, #4]
      c0:	4770      	bx	lr
      c2:	bf00      	nop
      c4:	20002480 	.word	0x20002480

000000c8 <equ_singl_bits_operator>:
      c8:	2200      	movs	r2, #0
      ca:	4b03      	ldr	r3, [pc, #12]	; (d8 <equ_singl_bits_operator+0x10>)
      cc:	605a      	str	r2, [r3, #4]
      ce:	685a      	ldr	r2, [r3, #4]
      d0:	f042 0240 	orr.w	r2, r2, #64	; 0x40
      d4:	605a      	str	r2, [r3, #4]
      d6:	4770      	bx	lr
      d8:	20002480 	.word	0x20002480

000000dc <equ_singl_bits_method>:
      dc:	2200      	movs	r2, #0
      de:	4b03      	ldr	r3, [pc, #12]	; (ec <equ_singl_bits_method+0x10>)
      e0:	605a      	str	r2, [r3, #4]
      e2:	685a      	ldr	r2, [r3, #4]
      e4:	f042 0240 	orr.w	r2, r2, #64	; 0x40
      e8:	605a      	str	r2, [r3, #4]
      ea:	4770      	bx	lr
      ec:	20002480 	.word	0x20002480

000000f0 <equ_singl_mskd_operator>:
      f0:	2200      	movs	r2, #0
      f2:	2101      	movs	r1, #1
      f4:	4b03      	ldr	r3, [pc, #12]	; (104 <equ_singl_mskd_operator+0x14>)
      f6:	605a      	str	r2, [r3, #4]
      f8:	685a      	ldr	r2, [r3, #4]
      fa:	f361 0242 	bfi	r2, r1, #1, #2
      fe:	605a      	str	r2, [r3, #4]
     100:	4770      	bx	lr
     102:	bf00      	nop
     104:	20002480 	.word	0x20002480

00000108 <equ_singl_mskd_method>:
     108:	2200      	movs	r2, #0
     10a:	2101      	movs	r1, #1
     10c:	4b03      	ldr	r3, [pc, #12]	; (11c <equ_singl_mskd_method+0x14>)
     10e:	605a      	str	r2, [r3, #4]
     110:	685a      	ldr	r2, [r3, #4]
     112:	f361 0242 	bfi	r2, r1, #1, #2
     116:	605a      	str	r2, [r3, #4]
     118:	4770      	bx	lr
     11a:	bf00      	nop
     11c:	20002480 	.word	0x20002480

00000120 <flp_singl_bits_operator>:
     120:	4a05      	ldr	r2, [pc, #20]	; (138 <flp_singl_bits_operator+0x18>)
     122:	6853      	ldr	r3, [r2, #4]
     124:	6851      	ldr	r1, [r2, #4]
     126:	f3c3 1380 	ubfx	r3, r3, #6, #1
     12a:	f083 0301 	eor.w	r3, r3, #1
     12e:	f363 1186 	bfi	r1, r3, #6, #1
     132:	6051      	str	r1, [r2, #4]
     134:	4770      	bx	lr
     136:	bf00      	nop
     138:	20002480 	.word	0x20002480

0000013c <flp_singl_bits_method>:
     13c:	4a05      	ldr	r2, [pc, #20]	; (154 <flp_singl_bits_method+0x18>)
     13e:	6853      	ldr	r3, [r2, #4]
     140:	6851      	ldr	r1, [r2, #4]
     142:	f3c3 1380 	ubfx	r3, r3, #6, #1
     146:	f083 0301 	eor.w	r3, r3, #1
     14a:	f363 1186 	bfi	r1, r3, #6, #1
     14e:	6051      	str	r1, [r2, #4]
     150:	4770      	bx	lr
     152:	bf00      	nop
     154:	20002480 	.word	0x20002480

00000158 <flp_singl_mskd_operator>:
     158:	4a05      	ldr	r2, [pc, #20]	; (170 <flp_singl_mskd_operator+0x18>)
     15a:	6853      	ldr	r3, [r2, #4]
     15c:	6851      	ldr	r1, [r2, #4]
     15e:	f3c3 0341 	ubfx	r3, r3, #1, #2
     162:	f083 0301 	eor.w	r3, r3, #1
     166:	f363 0142 	bfi	r1, r3, #1, #2
     16a:	6051      	str	r1, [r2, #4]
     16c:	4770      	bx	lr
     16e:	bf00      	nop
     170:	20002480 	.word	0x20002480

00000174 <flp_singl_mskd_method>:
     174:	4a05      	ldr	r2, [pc, #20]	; (18c <flp_singl_mskd_method+0x18>)
     176:	6853      	ldr	r3, [r2, #4]
     178:	6851      	ldr	r1, [r2, #4]
     17a:	f3c3 0341 	ubfx	r3, r3, #1, #2
     17e:	f083 0301 	eor.w	r3, r3, #1
     182:	f363 0142 	bfi	r1, r3, #1, #2
     186:	6051      	str	r1, [r2, #4]
     188:	4770      	bx	lr
     18a:	bf00      	nop
     18c:	20002480 	.word	0x20002480

00000190 <ins_singl_mskd_operator>:
     190:	2102      	movs	r1, #2
     192:	4b03      	ldr	r3, [pc, #12]	; (1a0 <ins_singl_mskd_operator+0x10>)
     194:	685a      	ldr	r2, [r3, #4]
     196:	f361 0242 	bfi	r2, r1, #1, #2
     19a:	605a      	str	r2, [r3, #4]
     19c:	4770      	bx	lr
     19e:	bf00      	nop
     1a0:	20002480 	.word	0x20002480

000001a4 <ins_singl_mskd_method>:
     1a4:	2102      	movs	r1, #2
     1a6:	4b03      	ldr	r3, [pc, #12]	; (1b4 <ins_singl_mskd_method+0x10>)
     1a8:	685a      	ldr	r2, [r3, #4]
     1aa:	f361 0242 	bfi	r2, r1, #1, #2
     1ae:	605a      	str	r2, [r3, #4]
     1b0:	4770      	bx	lr
     1b2:	bf00      	nop
     1b4:	20002480 	.word	0x20002480

000001b8 <set_multi_bits_operator>:
     1b8:	4b04      	ldr	r3, [pc, #16]	; (1cc <set_multi_bits_operator+0x14>)
     1ba:	685a      	ldr	r2, [r3, #4]
     1bc:	f042 0201 	orr.w	r2, r2, #1
     1c0:	605a      	str	r2, [r3, #4]
     1c2:	685a      	ldr	r2, [r3, #4]
     1c4:	f042 0220 	orr.w	r2, r2, #32
     1c8:	605a      	str	r2, [r3, #4]
     1ca:	4770      	bx	lr
     1cc:	20002480 	.word	0x20002480

000001d0 <set_multi_bits_method>:
     1d0:	4b04      	ldr	r3, [pc, #16]	; (1e4 <set_multi_bits_method+0x14>)
     1d2:	685a      	ldr	r2, [r3, #4]
     1d4:	f042 0201 	orr.w	r2, r2, #1
     1d8:	605a      	str	r2, [r3, #4]
     1da:	685a      	ldr	r2, [r3, #4]
     1dc:	f042 0220 	orr.w	r2, r2, #32
     1e0:	605a      	str	r2, [r3, #4]
     1e2:	4770      	bx	lr
     1e4:	20002480 	.word	0x20002480

000001e8 <ins_multi_mskd_operator>:
     1e8:	2003      	movs	r0, #3
     1ea:	2101      	movs	r1, #1
     1ec:	4b04      	ldr	r3, [pc, #16]	; (200 <ins_multi_mskd_operator+0x18>)
     1ee:	685a      	ldr	r2, [r3, #4]
     1f0:	f360 12cb 	bfi	r2, r0, #7, #5
     1f4:	605a      	str	r2, [r3, #4]
     1f6:	685a      	ldr	r2, [r3, #4]
     1f8:	f361 0242 	bfi	r2, r1, #1, #2
     1fc:	605a      	str	r2, [r3, #4]
     1fe:	4770      	bx	lr
     200:	20002480 	.word	0x20002480

00000204 <ins_multi_mskd_method>:
     204:	2003      	movs	r0, #3
     206:	2101      	movs	r1, #1
     208:	4b04      	ldr	r3, [pc, #16]	; (21c <ins_multi_mskd_method+0x18>)
     20a:	685a      	ldr	r2, [r3, #4]
     20c:	f360 12cb 	bfi	r2, r0, #7, #5
     210:	605a      	str	r2, [r3, #4]
     212:	685a      	ldr	r2, [r3, #4]
     214:	f361 0242 	bfi	r2, r1, #1, #2
     218:	605a      	str	r2, [r3, #4]
     21a:	4770      	bx	lr
     21c:	20002480 	.word	0x20002480

00000220 <equ_multi_bits_operator>:
     220:	2200      	movs	r2, #0
     222:	4b05      	ldr	r3, [pc, #20]	; (238 <equ_multi_bits_operator+0x18>)
     224:	605a      	str	r2, [r3, #4]
     226:	685a      	ldr	r2, [r3, #4]
     228:	f042 0220 	orr.w	r2, r2, #32
     22c:	605a      	str	r2, [r3, #4]
     22e:	685a      	ldr	r2, [r3, #4]
     230:	f042 0240 	orr.w	r2, r2, #64	; 0x40
     234:	605a      	str	r2, [r3, #4]
     236:	4770      	bx	lr
     238:	20002480 	.word	0x20002480

0000023c <equ_multi_bits_method>:
     23c:	2200      	movs	r2, #0
     23e:	4b05      	ldr	r3, [pc, #20]	; (254 <equ_multi_bits_method+0x18>)
     240:	605a      	str	r2, [r3, #4]
     242:	685a      	ldr	r2, [r3, #4]
     244:	f042 0220 	orr.w	r2, r2, #32
     248:	605a      	str	r2, [r3, #4]
     24a:	685a      	ldr	r2, [r3, #4]
     24c:	f042 0240 	orr.w	r2, r2, #64	; 0x40
     250:	605a      	str	r2, [r3, #4]
     252:	4770      	bx	lr
     254:	20002480 	.word	0x20002480

00000258 <equ_multi_mskd_operator>:
     258:	2200      	movs	r2, #0
     25a:	2001      	movs	r0, #1
     25c:	2106      	movs	r1, #6
     25e:	4b05      	ldr	r3, [pc, #20]	; (274 <equ_multi_mskd_operator+0x1c>)
     260:	605a      	str	r2, [r3, #4]
     262:	685a      	ldr	r2, [r3, #4]
     264:	f360 02c4 	bfi	r2, r0, #3, #2
     268:	605a      	str	r2, [r3, #4]
     26a:	685a      	ldr	r2, [r3, #4]
     26c:	f361 12cb 	bfi	r2, r1, #7, #5
     270:	605a      	str	r2, [r3, #4]
     272:	4770      	bx	lr
     274:	20002480 	.word	0x20002480

00000278 <equ_multi_mskd_method>:
     278:	2200      	movs	r2, #0
     27a:	2001      	movs	r0, #1
     27c:	2106      	movs	r1, #6
     27e:	4b05      	ldr	r3, [pc, #20]	; (294 <equ_multi_mskd_method+0x1c>)
     280:	605a      	str	r2, [r3, #4]
     282:	685a      	ldr	r2, [r3, #4]
     284:	f360 02c4 	bfi	r2, r0, #3, #2
     288:	605a      	str	r2, [r3, #4]
     28a:	685a      	ldr	r2, [r3, #4]
     28c:	f361 12cb 	bfi	r2, r1, #7, #5
     290:	605a      	str	r2, [r3, #4]
     292:	4770      	bx	lr
     294:	20002480 	.word	0x20002480

00000298 <equ_bits_mskd_operator>:
     298:	2200      	movs	r2, #0
     29a:	2101      	movs	r1, #1
     29c:	4b05      	ldr	r3, [pc, #20]	; (2b4 <equ_bits_mskd_operator+0x1c>)
     29e:	605a      	str	r2, [r3, #4]
     2a0:	685a      	ldr	r2, [r3, #4]
     2a2:	f042 0220 	orr.w	r2, r2, #32
     2a6:	605a      	str	r2, [r3, #4]
     2a8:	685a      	ldr	r2, [r3, #4]
     2aa:	f361 0242 	bfi	r2, r1, #1, #2
     2ae:	605a      	str	r2, [r3, #4]
     2b0:	4770      	bx	lr
     2b2:	bf00      	nop
     2b4:	20002480 	.word	0x20002480

000002b8 <equ_bits_mskd_method>:
     2b8:	2200      	movs	r2, #0
     2ba:	2101      	movs	r1, #1
     2bc:	4b05      	ldr	r3, [pc, #20]	; (2d4 <equ_bits_mskd_method+0x1c>)
     2be:	605a      	str	r2, [r3, #4]
     2c0:	685a      	ldr	r2, [r3, #4]
     2c2:	f042 0220 	orr.w	r2, r2, #32
     2c6:	605a      	str	r2, [r3, #4]
     2c8:	685a      	ldr	r2, [r3, #4]
     2ca:	f361 0242 	bfi	r2, r1, #1, #2
     2ce:	605a      	str	r2, [r3, #4]
     2d0:	4770      	bx	lr
     2d2:	bf00      	nop
     2d4:	20002480 	.word	0x20002480

000002d8 <equ_mskd_bits_operator>:
     2d8:	2200      	movs	r2, #0
     2da:	2102      	movs	r1, #2
     2dc:	4b05      	ldr	r3, [pc, #20]	; (2f4 <equ_mskd_bits_operator+0x1c>)
     2de:	605a      	str	r2, [r3, #4]
     2e0:	685a      	ldr	r2, [r3, #4]
     2e2:	f361 0242 	bfi	r2, r1, #1, #2
     2e6:	605a      	str	r2, [r3, #4]
     2e8:	685a      	ldr	r2, [r3, #4]
     2ea:	f042 0240 	orr.w	r2, r2, #64	; 0x40
     2ee:	605a      	str	r2, [r3, #4]
     2f0:	4770      	bx	lr
     2f2:	bf00      	nop
     2f4:	20002480 	.word	0x20002480

000002f8 <equ_mskd_bits_method>:
     2f8:	2200      	movs	r2, #0
     2fa:	2102      	movs	r1, #2
     2fc:	4b05      	ldr	r3, [pc, #20]	; (314 <equ_mskd_bits_method+0x1c>)
     2fe:	605a      	str	r2, [r3, #4]
     300:	685a      	ldr	r2, [r3, #4]
     302:	f361 0242 	bfi	r2, r1, #1, #2
     306:	605a      	str	r2, [r3, #4]
     308:	685a      	ldr	r2, [r3, #4]
     30a:	f042 0240 	orr.w	r2, r2, #64	; 0x40
     30e:	605a      	str	r2, [r3, #4]
     310:	4770      	bx	lr
     312:	bf00      	nop
     314:	20002480 	.word	0x20002480

00000318 <equ_bits_var>:
     318:	2100      	movs	r1, #0
     31a:	4b06      	ldr	r3, [pc, #24]	; (334 <equ_bits_var+0x1c>)
     31c:	6059      	str	r1, [r3, #4]
     31e:	685a      	ldr	r2, [r3, #4]
     320:	f042 0240 	orr.w	r2, r2, #64	; 0x40
     324:	605a      	str	r2, [r3, #4]
     326:	6059      	str	r1, [r3, #4]
     328:	685a      	ldr	r2, [r3, #4]
     32a:	f042 0201 	orr.w	r2, r2, #1
     32e:	605a      	str	r2, [r3, #4]
     330:	4770      	bx	lr
     332:	bf00      	nop
     334:	20002480 	.word	0x20002480

00000338 <equ_mskd_var>:
     338:	2200      	movs	r2, #0
     33a:	b410      	push	{r4}
     33c:	2401      	movs	r4, #1
     33e:	2003      	movs	r0, #3
     340:	4b06      	ldr	r3, [pc, #24]	; (35c <equ_mskd_var+0x24>)
     342:	605a      	str	r2, [r3, #4]
     344:	6859      	ldr	r1, [r3, #4]
     346:	f364 0142 	bfi	r1, r4, #1, #2
     34a:	6059      	str	r1, [r3, #4]
     34c:	605a      	str	r2, [r3, #4]
     34e:	685a      	ldr	r2, [r3, #4]
     350:	f360 12cb 	bfi	r2, r0, #7, #5
     354:	605a      	str	r2, [r3, #4]
     356:	bc10      	pop	{r4}
     358:	4770      	bx	lr
     35a:	bf00      	nop
     35c:	20002480 	.word	0x20002480

00000360 <cmp_equ_zero>:
     360:	2100      	movs	r1, #0
     362:	4a09      	ldr	r2, [pc, #36]	; (388 <cmp_equ_zero+0x28>)
     364:	4b09      	ldr	r3, [pc, #36]	; (38c <cmp_equ_zero+0x2c>)
     366:	6051      	str	r1, [r2, #4]
     368:	6059      	str	r1, [r3, #4]
     36a:	6852      	ldr	r2, [r2, #4]
     36c:	b92a      	cbnz	r2, 37a <cmp_equ_zero+0x1a>
     36e:	211d      	movs	r1, #29
     370:	685a      	ldr	r2, [r3, #4]
     372:	f361 625d 	bfi	r2, r1, #25, #5
     376:	605a      	str	r2, [r3, #4]
     378:	4770      	bx	lr
     37a:	2111      	movs	r1, #17
     37c:	685a      	ldr	r2, [r3, #4]
     37e:	f361 625d 	bfi	r2, r1, #25, #5
     382:	605a      	str	r2, [r3, #4]
     384:	4770      	bx	lr
     386:	bf00      	nop
     388:	20002480 	.word	0x20002480
     38c:	200023e0 	.word	0x200023e0

00000390 <cmp_neq_zero>:
     390:	2200      	movs	r2, #0
     392:	4b07      	ldr	r3, [pc, #28]	; (3b0 <cmp_neq_zero+0x20>)
     394:	605a      	str	r2, [r3, #4]
     396:	685a      	ldr	r2, [r3, #4]
     398:	b12a      	cbz	r2, 3a6 <cmp_neq_zero+0x16>
     39a:	2102      	movs	r1, #2
     39c:	685a      	ldr	r2, [r3, #4]
     39e:	f361 0242 	bfi	r2, r1, #1, #2
     3a2:	605a      	str	r2, [r3, #4]
     3a4:	4770      	bx	lr
     3a6:	685a      	ldr	r2, [r3, #4]
     3a8:	f042 0220 	orr.w	r2, r2, #32
     3ac:	605a      	str	r2, [r3, #4]
     3ae:	4770      	bx	lr
     3b0:	20002480 	.word	0x20002480

000003b4 <cmp_equ_bits>:
     3b4:	2200      	movs	r2, #0
     3b6:	4b08      	ldr	r3, [pc, #32]	; (3d8 <cmp_equ_bits+0x24>)
     3b8:	605a      	str	r2, [r3, #4]
     3ba:	685a      	ldr	r2, [r3, #4]
     3bc:	f042 0240 	orr.w	r2, r2, #64	; 0x40
     3c0:	605a      	str	r2, [r3, #4]
     3c2:	685b      	ldr	r3, [r3, #4]
     3c4:	065b      	lsls	r3, r3, #25
     3c6:	bf4c      	ite	mi
     3c8:	210b      	movmi	r1, #11
     3ca:	210d      	movpl	r1, #13
     3cc:	4b03      	ldr	r3, [pc, #12]	; (3dc <cmp_equ_bits+0x28>)
     3ce:	685a      	ldr	r2, [r3, #4]
     3d0:	f361 625d 	bfi	r2, r1, #25, #5
     3d4:	605a      	str	r2, [r3, #4]
     3d6:	4770      	bx	lr
     3d8:	20002480 	.word	0x20002480
     3dc:	200023e0 	.word	0x200023e0

000003e0 <cmp_neq_bits>:
     3e0:	2100      	movs	r1, #0
     3e2:	4b0b      	ldr	r3, [pc, #44]	; (410 <cmp_neq_bits+0x30>)
     3e4:	6059      	str	r1, [r3, #4]
     3e6:	685a      	ldr	r2, [r3, #4]
     3e8:	f042 0240 	orr.w	r2, r2, #64	; 0x40
     3ec:	605a      	str	r2, [r3, #4]
     3ee:	685a      	ldr	r2, [r3, #4]
     3f0:	f3c2 1280 	ubfx	r2, r2, #6, #1
     3f4:	b932      	cbnz	r2, 404 <cmp_neq_bits+0x24>
     3f6:	2101      	movs	r1, #1
     3f8:	605a      	str	r2, [r3, #4]
     3fa:	685a      	ldr	r2, [r3, #4]
     3fc:	f361 0242 	bfi	r2, r1, #1, #2
     400:	605a      	str	r2, [r3, #4]
     402:	4770      	bx	lr
     404:	6059      	str	r1, [r3, #4]
     406:	685a      	ldr	r2, [r3, #4]
     408:	f042 0220 	orr.w	r2, r2, #32
     40c:	605a      	str	r2, [r3, #4]
     40e:	4770      	bx	lr
     410:	20002480 	.word	0x20002480

00000414 <cmp_equ_mskd>:
     414:	2200      	movs	r2, #0
     416:	211d      	movs	r1, #29
     418:	4b09      	ldr	r3, [pc, #36]	; (440 <cmp_equ_mskd+0x2c>)
     41a:	605a      	str	r2, [r3, #4]
     41c:	685a      	ldr	r2, [r3, #4]
     41e:	f361 3210 	bfi	r2, r1, #12, #5
     422:	605a      	str	r2, [r3, #4]
     424:	685b      	ldr	r3, [r3, #4]
     426:	f3c3 3304 	ubfx	r3, r3, #12, #5
     42a:	2b11      	cmp	r3, #17
     42c:	bf0c      	ite	eq
     42e:	2107      	moveq	r1, #7
     430:	2111      	movne	r1, #17
     432:	4b04      	ldr	r3, [pc, #16]	; (444 <cmp_equ_mskd+0x30>)
     434:	685a      	ldr	r2, [r3, #4]
     436:	f361 625d 	bfi	r2, r1, #25, #5
     43a:	605a      	str	r2, [r3, #4]
     43c:	4770      	bx	lr
     43e:	bf00      	nop
     440:	20002480 	.word	0x20002480
     444:	200023e0 	.word	0x200023e0

00000448 <cmp_neq_mskd>:
     448:	2200      	movs	r2, #0
     44a:	211d      	movs	r1, #29
     44c:	4b0a      	ldr	r3, [pc, #40]	; (478 <cmp_neq_mskd+0x30>)
     44e:	605a      	str	r2, [r3, #4]
     450:	685a      	ldr	r2, [r3, #4]
     452:	f361 3210 	bfi	r2, r1, #12, #5
     456:	605a      	str	r2, [r3, #4]
     458:	685a      	ldr	r2, [r3, #4]
     45a:	f3c2 3204 	ubfx	r2, r2, #12, #5
     45e:	2a11      	cmp	r2, #17
     460:	d005      	beq.n	46e <cmp_neq_mskd+0x26>
     462:	2102      	movs	r1, #2
     464:	685a      	ldr	r2, [r3, #4]
     466:	f361 0242 	bfi	r2, r1, #1, #2
     46a:	605a      	str	r2, [r3, #4]
     46c:	4770      	bx	lr
     46e:	685a      	ldr	r2, [r3, #4]
     470:	f042 0240 	orr.w	r2, r2, #64	; 0x40
     474:	605a      	str	r2, [r3, #4]
     476:	4770      	bx	lr
     478:	20002480 	.word	0x20002480

0000047c <cmp_equ_reg>:
     47c:	2200      	movs	r2, #0
     47e:	2101      	movs	r1, #1
     480:	4b1a      	ldr	r3, [pc, #104]	; (4ec <cmp_equ_reg+0x70>)
     482:	605a      	str	r2, [r3, #4]
     484:	685a      	ldr	r2, [r3, #4]
     486:	f042 0220 	orr.w	r2, r2, #32
     48a:	605a      	str	r2, [r3, #4]
     48c:	685a      	ldr	r2, [r3, #4]
     48e:	f361 0242 	bfi	r2, r1, #1, #2
     492:	605a      	str	r2, [r3, #4]
     494:	685a      	ldr	r2, [r3, #4]
     496:	07d2      	lsls	r2, r2, #31
     498:	d404      	bmi.n	4a4 <cmp_equ_reg+0x28>
     49a:	685a      	ldr	r2, [r3, #4]
     49c:	f3c2 0241 	ubfx	r2, r2, #1, #2
     4a0:	428a      	cmp	r2, r1
     4a2:	d008      	beq.n	4b6 <cmp_equ_reg+0x3a>
     4a4:	2200      	movs	r2, #0
     4a6:	2117      	movs	r1, #23
     4a8:	4b11      	ldr	r3, [pc, #68]	; (4f0 <cmp_equ_reg+0x74>)
     4aa:	605a      	str	r2, [r3, #4]
     4ac:	685a      	ldr	r2, [r3, #4]
     4ae:	f361 625d 	bfi	r2, r1, #25, #5
     4b2:	605a      	str	r2, [r3, #4]
     4b4:	4770      	bx	lr
     4b6:	685a      	ldr	r2, [r3, #4]
     4b8:	07d0      	lsls	r0, r2, #31
     4ba:	d4f3      	bmi.n	4a4 <cmp_equ_reg+0x28>
     4bc:	685a      	ldr	r2, [r3, #4]
     4be:	0691      	lsls	r1, r2, #26
     4c0:	d5f0      	bpl.n	4a4 <cmp_equ_reg+0x28>
     4c2:	685a      	ldr	r2, [r3, #4]
     4c4:	0652      	lsls	r2, r2, #25
     4c6:	d4ed      	bmi.n	4a4 <cmp_equ_reg+0x28>
     4c8:	685a      	ldr	r2, [r3, #4]
     4ca:	f412 6f78 	tst.w	r2, #3968	; 0xf80
     4ce:	d1e9      	bne.n	4a4 <cmp_equ_reg+0x28>
     4d0:	685b      	ldr	r3, [r3, #4]
     4d2:	f3c3 3304 	ubfx	r3, r3, #12, #5
     4d6:	2b00      	cmp	r3, #0
     4d8:	d1e4      	bne.n	4a4 <cmp_equ_reg+0x28>
     4da:	2115      	movs	r1, #21
     4dc:	4a04      	ldr	r2, [pc, #16]	; (4f0 <cmp_equ_reg+0x74>)
     4de:	6053      	str	r3, [r2, #4]
     4e0:	6853      	ldr	r3, [r2, #4]
     4e2:	f361 635d 	bfi	r3, r1, #25, #5
     4e6:	6053      	str	r3, [r2, #4]
     4e8:	4770      	bx	lr
     4ea:	bf00      	nop
     4ec:	20002480 	.word	0x20002480
     4f0:	200023e0 	.word	0x200023e0

000004f4 <cmp_neq_reg>:
     4f4:	2200      	movs	r2, #0
     4f6:	2101      	movs	r1, #1
     4f8:	4b19      	ldr	r3, [pc, #100]	; (560 <cmp_neq_reg+0x6c>)
     4fa:	605a      	str	r2, [r3, #4]
     4fc:	685a      	ldr	r2, [r3, #4]
     4fe:	f042 0220 	orr.w	r2, r2, #32
     502:	605a      	str	r2, [r3, #4]
     504:	685a      	ldr	r2, [r3, #4]
     506:	f361 0242 	bfi	r2, r1, #1, #2
     50a:	605a      	str	r2, [r3, #4]
     50c:	685a      	ldr	r2, [r3, #4]
     50e:	07d2      	lsls	r2, r2, #31
     510:	d404      	bmi.n	51c <cmp_neq_reg+0x28>
     512:	685a      	ldr	r2, [r3, #4]
     514:	f3c2 0241 	ubfx	r2, r2, #1, #2
     518:	428a      	cmp	r2, r1
     51a:	d008      	beq.n	52e <cmp_neq_reg+0x3a>
     51c:	2200      	movs	r2, #0
     51e:	2101      	movs	r1, #1
     520:	4b0f      	ldr	r3, [pc, #60]	; (560 <cmp_neq_reg+0x6c>)
     522:	605a      	str	r2, [r3, #4]
     524:	685a      	ldr	r2, [r3, #4]
     526:	f361 0242 	bfi	r2, r1, #1, #2
     52a:	605a      	str	r2, [r3, #4]
     52c:	4770      	bx	lr
     52e:	685a      	ldr	r2, [r3, #4]
     530:	07d0      	lsls	r0, r2, #31
     532:	d4f3      	bmi.n	51c <cmp_neq_reg+0x28>
     534:	685a      	ldr	r2, [r3, #4]
     536:	0691      	lsls	r1, r2, #26
     538:	d5f0      	bpl.n	51c <cmp_neq_reg+0x28>
     53a:	685a      	ldr	r2, [r3, #4]
     53c:	0652      	lsls	r2, r2, #25
     53e:	d4ed      	bmi.n	51c <cmp_neq_reg+0x28>
     540:	685a      	ldr	r2, [r3, #4]
     542:	f412 6f78 	tst.w	r2, #3968	; 0xf80
     546:	d1e9      	bne.n	51c <cmp_neq_reg+0x28>
     548:	685a      	ldr	r2, [r3, #4]
     54a:	f3c2 3204 	ubfx	r2, r2, #12, #5
     54e:	2a00      	cmp	r2, #0
     550:	d1e4      	bne.n	51c <cmp_neq_reg+0x28>
     552:	605a      	str	r2, [r3, #4]
     554:	685a      	ldr	r2, [r3, #4]
     556:	f042 0220 	orr.w	r2, r2, #32
     55a:	605a      	str	r2, [r3, #4]
     55c:	4770      	bx	lr
     55e:	bf00      	nop
     560:	20002480 	.word	0x20002480

00000564 <constexpr_bits_array>:
     564:	2200      	movs	r2, #0
     566:	2106      	movs	r1, #6
     568:	4b05      	ldr	r3, [pc, #20]	; (580 <constexpr_bits_array+0x1c>)
     56a:	62d9      	str	r1, [r3, #44]	; 0x2c
     56c:	f8c3 20a0 	str.w	r2, [r3, #160]	; 0xa0
     570:	f8d3 20a0 	ldr.w	r2, [r3, #160]	; 0xa0
     574:	f442 5200 	orr.w	r2, r2, #8192	; 0x2000
     578:	f8c3 20a0 	str.w	r2, [r3, #160]	; 0xa0
     57c:	4770      	bx	lr
     57e:	bf00      	nop
     580:	200022c0 	.word	0x200022c0

00000584 <runtime_bits_array>:
     584:	2303      	movs	r3, #3
     586:	b410      	push	{r4}
     588:	2007      	movs	r0, #7
     58a:	2421      	movs	r4, #33	; 0x21
     58c:	2100      	movs	r1, #0
     58e:	b081      	sub	sp, #4
     590:	9300      	str	r3, [sp, #0]
     592:	9b00      	ldr	r3, [sp, #0]
     594:	4a09      	ldr	r2, [pc, #36]	; (5bc <runtime_bits_array+0x38>)
     596:	3308      	adds	r3, #8
     598:	f842 4023 	str.w	r4, [r2, r3, lsl #2]
     59c:	9000      	str	r0, [sp, #0]
     59e:	f8c2 10a0 	str.w	r1, [r2, #160]	; 0xa0
     5a2:	9b00      	ldr	r3, [sp, #0]
     5a4:	4283      	cmp	r3, r0
     5a6:	d105      	bne.n	5b4 <runtime_bits_array+0x30>
     5a8:	f8d2 30a0 	ldr.w	r3, [r2, #160]	; 0xa0
     5ac:	f043 0380 	orr.w	r3, r3, #128	; 0x80
     5b0:	f8c2 30a0 	str.w	r3, [r2, #160]	; 0xa0
     5b4:	b001      	add	sp, #4
     5b6:	bc10      	pop	{r4}
     5b8:	4770      	bx	lr
     5ba:	bf00      	nop
     5bc:	200022c0 	.word	0x200022c0

000005c0 <prescaler_low>:
     5c0:	2077      	movs	r0, #119	; 0x77
     5c2:	4b05      	ldr	r3, [pc, #20]	; (5d8 <prescaler_low+0x18>)
     5c4:	4905      	ldr	r1, [pc, #20]	; (5dc <prescaler_low+0x1c>)
     5c6:	685a      	ldr	r2, [r3, #4]
     5c8:	f360 0206 	bfi	r2, r0, #0, #7
     5cc:	605a      	str	r2, [r3, #4]
     5ce:	685b      	ldr	r3, [r3, #4]
     5d0:	f003 037f 	and.w	r3, r3, #127	; 0x7f
     5d4:	62cb      	str	r3, [r1, #44]	; 0x2c
     5d6:	4770      	bx	lr
     5d8:	200023e0 	.word	0x200023e0
     5dc:	200022c0 	.word	0x200022c0

000005e0 <prescaler_high>:
     5e0:	201d      	movs	r0, #29
     5e2:	4b05      	ldr	r3, [pc, #20]	; (5f8 <prescaler_high+0x18>)
     5e4:	4905      	ldr	r1, [pc, #20]	; (5fc <prescaler_high+0x1c>)
     5e6:	685a      	ldr	r2, [r3, #4]
     5e8:	f360 625d 	bfi	r2, r0, #25, #5
     5ec:	605a      	str	r2, [r3, #4]
     5ee:	685b      	ldr	r3, [r3, #4]
     5f0:	f3c3 6344 	ubfx	r3, r3, #25, #5
     5f4:	62cb      	str	r3, [r1, #44]	; 0x2c
     5f6:	4770      	bx	lr
     5f8:	200023e0 	.word	0x200023e0
     5fc:	200022c0 	.word	0x200022c0

00000600 <reg_mskd_lss>:
     600:	b410      	push	{r4}
     602:	241b      	movs	r4, #27
     604:	2000      	movs	r0, #0
     606:	4a0a      	ldr	r2, [pc, #40]	; (630 <reg_mskd_lss+0x30>)
     608:	4b0a      	ldr	r3, [pc, #40]	; (634 <reg_mskd_lss+0x34>)
     60a:	6851      	ldr	r1, [r2, #4]
     60c:	f364 615d 	bfi	r1, r4, #25, #5
     610:	6051      	str	r1, [r2, #4]
     612:	6058      	str	r0, [r3, #4]
     614:	6852      	ldr	r2, [r2, #4]
     616:	f3c2 6244 	ubfx	r2, r2, #25, #5
     61a:	42a2      	cmp	r2, r4
     61c:	bf94      	ite	ls
     61e:	2101      	movls	r1, #1
     620:	2102      	movhi	r1, #2
     622:	685a      	ldr	r2, [r3, #4]
     624:	f361 0242 	bfi	r2, r1, #1, #2
     628:	605a      	str	r2, [r3, #4]
     62a:	bc10      	pop	{r4}
     62c:	4770      	bx	lr
     62e:	bf00      	nop
     630:	200023e0 	.word	0x200023e0
     634:	20002480 	.word	0x20002480

00000638 <reg_mskd_leq>:
     638:	b410      	push	{r4}
     63a:	2417      	movs	r4, #23
     63c:	2000      	movs	r0, #0
     63e:	4b10      	ldr	r3, [pc, #64]	; (680 <reg_mskd_leq+0x48>)
     640:	4910      	ldr	r1, [pc, #64]	; (684 <reg_mskd_leq+0x4c>)
     642:	685a      	ldr	r2, [r3, #4]
     644:	f364 625d 	bfi	r2, r4, #25, #5
     648:	605a      	str	r2, [r3, #4]
     64a:	6048      	str	r0, [r1, #4]
     64c:	685a      	ldr	r2, [r3, #4]
     64e:	f3c2 6244 	ubfx	r2, r2, #25, #5
     652:	42a2      	cmp	r2, r4
     654:	d804      	bhi.n	660 <reg_mskd_leq+0x28>
     656:	685b      	ldr	r3, [r3, #4]
     658:	f3c3 6344 	ubfx	r3, r3, #25, #5
     65c:	2b18      	cmp	r3, #24
     65e:	d907      	bls.n	670 <reg_mskd_leq+0x38>
     660:	2102      	movs	r1, #2
     662:	4b08      	ldr	r3, [pc, #32]	; (684 <reg_mskd_leq+0x4c>)
     664:	685a      	ldr	r2, [r3, #4]
     666:	f361 0242 	bfi	r2, r1, #1, #2
     66a:	605a      	str	r2, [r3, #4]
     66c:	bc10      	pop	{r4}
     66e:	4770      	bx	lr
     670:	2201      	movs	r2, #1
     672:	684b      	ldr	r3, [r1, #4]
     674:	f362 0342 	bfi	r3, r2, #1, #2
     678:	604b      	str	r3, [r1, #4]
     67a:	bc10      	pop	{r4}
     67c:	4770      	bx	lr
     67e:	bf00      	nop
     680:	200023e0 	.word	0x200023e0
     684:	20002480 	.word	0x20002480

00000688 <reg_mskd_gtr>:
     688:	b410      	push	{r4}
     68a:	2413      	movs	r4, #19
     68c:	2000      	movs	r0, #0
     68e:	4a0a      	ldr	r2, [pc, #40]	; (6b8 <reg_mskd_gtr+0x30>)
     690:	4b0a      	ldr	r3, [pc, #40]	; (6bc <reg_mskd_gtr+0x34>)
     692:	6851      	ldr	r1, [r2, #4]
     694:	f364 615d 	bfi	r1, r4, #25, #5
     698:	6051      	str	r1, [r2, #4]
     69a:	6058      	str	r0, [r3, #4]
     69c:	6852      	ldr	r2, [r2, #4]
     69e:	f3c2 6244 	ubfx	r2, r2, #25, #5
     6a2:	2a12      	cmp	r2, #18
     6a4:	bf8c      	ite	hi
     6a6:	2101      	movhi	r1, #1
     6a8:	2102      	movls	r1, #2
     6aa:	685a      	ldr	r2, [r3, #4]
     6ac:	f361 0242 	bfi	r2, r1, #1, #2
     6b0:	605a      	str	r2, [r3, #4]
     6b2:	bc10      	pop	{r4}
     6b4:	4770      	bx	lr
     6b6:	bf00      	nop
     6b8:	200023e0 	.word	0x200023e0
     6bc:	20002480 	.word	0x20002480

000006c0 <reg_mskd_geq>:
     6c0:	b410      	push	{r4}
     6c2:	2411      	movs	r4, #17
     6c4:	2000      	movs	r0, #0
     6c6:	4b10      	ldr	r3, [pc, #64]	; (708 <reg_mskd_geq+0x48>)
     6c8:	4910      	ldr	r1, [pc, #64]	; (70c <reg_mskd_geq+0x4c>)
     6ca:	685a      	ldr	r2, [r3, #4]
     6cc:	f364 625d 	bfi	r2, r4, #25, #5
     6d0:	605a      	str	r2, [r3, #4]
     6d2:	6048      	str	r0, [r1, #4]
     6d4:	685a      	ldr	r2, [r3, #4]
     6d6:	f3c2 6244 	ubfx	r2, r2, #25, #5
     6da:	2a0f      	cmp	r2, #15
     6dc:	d904      	bls.n	6e8 <reg_mskd_geq+0x28>
     6de:	685b      	ldr	r3, [r3, #4]
     6e0:	f3c3 6344 	ubfx	r3, r3, #25, #5
     6e4:	2b10      	cmp	r3, #16
     6e6:	d807      	bhi.n	6f8 <reg_mskd_geq+0x38>
     6e8:	2102      	movs	r1, #2
     6ea:	4b08      	ldr	r3, [pc, #32]	; (70c <reg_mskd_geq+0x4c>)
     6ec:	685a      	ldr	r2, [r3, #4]
     6ee:	f361 0242 	bfi	r2, r1, #1, #2
     6f2:	605a      	str	r2, [r3, #4]
     6f4:	bc10      	pop	{r4}
     6f6:	4770      	bx	lr
     6f8:	2201      	movs	r2, #1
     6fa:	684b      	ldr	r3, [r1, #4]
     6fc:	f362 0342 	bfi	r3, r2, #1, #2
     700:	604b      	str	r3, [r1, #4]
     702:	bc10      	pop	{r4}
     704:	4770      	bx	lr
     706:	bf00      	nop
     708:	200023e0 	.word	0x200023e0
     70c:	20002480 	.word	0x20002480

00000710 <pos_cmp_eq>:
     710:	2200      	movs	r2, #0
     712:	2101      	movs	r1, #1
     714:	4b03      	ldr	r3, [pc, #12]	; (724 <pos_cmp_eq+0x14>)
     716:	605a      	str	r2, [r3, #4]
     718:	685a      	ldr	r2, [r3, #4]
     71a:	f361 0242 	bfi	r2, r1, #1, #2
     71e:	605a      	str	r2, [r3, #4]
     720:	4770      	bx	lr
     722:	bf00      	nop
     724:	20002480 	.word	0x20002480

00000728 <pos_cmp_ne>:
     728:	2200      	movs	r2, #0
     72a:	2101      	movs	r1, #1
     72c:	4b03      	ldr	r3, [pc, #12]	; (73c <pos_cmp_ne+0x14>)
     72e:	605a      	str	r2, [r3, #4]
     730:	685a      	ldr	r2, [r3, #4]
     732:	f361 0242 	bfi	r2, r1, #1, #2
     736:	605a      	str	r2, [r3, #4]
     738:	4770      	bx	lr
     73a:	bf00      	nop
     73c:	20002480 	.word	0x20002480

00000740 <bits_extract_eq>:
     740:	2100      	movs	r1, #0
     742:	4b08      	ldr	r3, [pc, #32]	; (764 <bits_extract_eq+0x24>)
     744:	685a      	ldr	r2, [r3, #4]
     746:	f042 0240 	orr.w	r2, r2, #64	; 0x40
     74a:	605a      	str	r2, [r3, #4]
     74c:	685a      	ldr	r2, [r3, #4]
     74e:	6059      	str	r1, [r3, #4]
     750:	0652      	lsls	r2, r2, #25
     752:	bf4c      	ite	mi
     754:	2101      	movmi	r1, #1
     756:	2102      	movpl	r1, #2
     758:	685a      	ldr	r2, [r3, #4]
     75a:	f361 0242 	bfi	r2, r1, #1, #2
     75e:	605a      	str	r2, [r3, #4]
     760:	4770      	bx	lr
     762:	bf00      	nop
     764:	20002480 	.word	0x20002480

00000768 <mskd_extract_eq>:
     768:	2001      	movs	r0, #1
     76a:	2100      	movs	r1, #0
     76c:	4b08      	ldr	r3, [pc, #32]	; (790 <mskd_extract_eq+0x28>)
     76e:	685a      	ldr	r2, [r3, #4]
     770:	f360 0242 	bfi	r2, r0, #1, #2
     774:	605a      	str	r2, [r3, #4]
     776:	685a      	ldr	r2, [r3, #4]
     778:	6059      	str	r1, [r3, #4]
     77a:	f3c2 0241 	ubfx	r2, r2, #1, #2
     77e:	4282      	cmp	r2, r0
     780:	685a      	ldr	r2, [r3, #4]
     782:	bf0c      	ite	eq
     784:	f042 0220 	orreq.w	r2, r2, #32
     788:	f042 0240 	orrne.w	r2, r2, #64	; 0x40
     78c:	605a      	str	r2, [r3, #4]
     78e:	4770      	bx	lr
     790:	20002480 	.word	0x20002480

00000794 <mskd_extract_ne>:
     794:	2100      	movs	r1, #0
     796:	2002      	movs	r0, #2
     798:	4b09      	ldr	r3, [pc, #36]	; (7c0 <mskd_extract_ne+0x2c>)
     79a:	6059      	str	r1, [r3, #4]
     79c:	685a      	ldr	r2, [r3, #4]
     79e:	f360 0242 	bfi	r2, r0, #1, #2
     7a2:	605a      	str	r2, [r3, #4]
     7a4:	685a      	ldr	r2, [r3, #4]
     7a6:	6059      	str	r1, [r3, #4]
     7a8:	f3c2 0241 	ubfx	r2, r2, #1, #2
     7ac:	4282      	cmp	r2, r0
     7ae:	685a      	ldr	r2, [r3, #4]
     7b0:	bf14      	ite	ne
     7b2:	f042 0220 	orrne.w	r2, r2, #32
     7b6:	f042 0240 	orreq.w	r2, r2, #64	; 0x40
     7ba:	605a      	str	r2, [r3, #4]
     7bc:	4770      	bx	lr
     7be:	bf00      	nop
     7c0:	20002480 	.word	0x20002480

000007c4 <mskd_extract_lss>:
     7c4:	2100      	movs	r1, #0
     7c6:	b410      	push	{r4}
     7c8:	240b      	movs	r4, #11
     7ca:	4b0a      	ldr	r3, [pc, #40]	; (7f4 <mskd_extract_lss+0x30>)
     7cc:	4a0a      	ldr	r2, [pc, #40]	; (7f8 <mskd_extract_lss+0x34>)
     7ce:	6059      	str	r1, [r3, #4]
     7d0:	6858      	ldr	r0, [r3, #4]
     7d2:	f364 605d 	bfi	r0, r4, #25, #5
     7d6:	6058      	str	r0, [r3, #4]
     7d8:	685b      	ldr	r3, [r3, #4]
     7da:	6051      	str	r1, [r2, #4]
     7dc:	f3c3 6344 	ubfx	r3, r3, #25, #5
     7e0:	42a3      	cmp	r3, r4
     7e2:	6853      	ldr	r3, [r2, #4]
     7e4:	bf94      	ite	ls
     7e6:	f043 0320 	orrls.w	r3, r3, #32
     7ea:	f043 0340 	orrhi.w	r3, r3, #64	; 0x40
     7ee:	6053      	str	r3, [r2, #4]
     7f0:	bc10      	pop	{r4}
     7f2:	4770      	bx	lr
     7f4:	200023e0 	.word	0x200023e0
     7f8:	20002480 	.word	0x20002480

000007fc <mskd_extract_leq>:
     7fc:	2200      	movs	r2, #0
     7fe:	b410      	push	{r4}
     800:	2417      	movs	r4, #23
     802:	4b0e      	ldr	r3, [pc, #56]	; (83c <mskd_extract_leq+0x40>)
     804:	480e      	ldr	r0, [pc, #56]	; (840 <mskd_extract_leq+0x44>)
     806:	605a      	str	r2, [r3, #4]
     808:	6859      	ldr	r1, [r3, #4]
     80a:	f364 615d 	bfi	r1, r4, #25, #5
     80e:	6059      	str	r1, [r3, #4]
     810:	685b      	ldr	r3, [r3, #4]
     812:	6042      	str	r2, [r0, #4]
     814:	f3c3 6244 	ubfx	r2, r3, #25, #5
     818:	42a2      	cmp	r2, r4
     81a:	d801      	bhi.n	820 <mskd_extract_leq+0x24>
     81c:	2a18      	cmp	r2, #24
     81e:	d906      	bls.n	82e <mskd_extract_leq+0x32>
     820:	4a07      	ldr	r2, [pc, #28]	; (840 <mskd_extract_leq+0x44>)
     822:	6853      	ldr	r3, [r2, #4]
     824:	f043 0340 	orr.w	r3, r3, #64	; 0x40
     828:	6053      	str	r3, [r2, #4]
     82a:	bc10      	pop	{r4}
     82c:	4770      	bx	lr
     82e:	6843      	ldr	r3, [r0, #4]
     830:	f043 0320 	orr.w	r3, r3, #32
     834:	6043      	str	r3, [r0, #4]
     836:	bc10      	pop	{r4}
     838:	4770      	bx	lr
     83a:	bf00      	nop
     83c:	200023e0 	.word	0x200023e0
     840:	20002480 	.word	0x20002480

00000844 <mskd_extract_gtr>:
     844:	2100      	movs	r1, #0
     846:	b410      	push	{r4}
     848:	2413      	movs	r4, #19
     84a:	4b0a      	ldr	r3, [pc, #40]	; (874 <mskd_extract_gtr+0x30>)
     84c:	4a0a      	ldr	r2, [pc, #40]	; (878 <mskd_extract_gtr+0x34>)
     84e:	6059      	str	r1, [r3, #4]
     850:	6858      	ldr	r0, [r3, #4]
     852:	f364 605d 	bfi	r0, r4, #25, #5
     856:	6058      	str	r0, [r3, #4]
     858:	685b      	ldr	r3, [r3, #4]
     85a:	6051      	str	r1, [r2, #4]
     85c:	f3c3 6344 	ubfx	r3, r3, #25, #5
     860:	2b12      	cmp	r3, #18
     862:	6853      	ldr	r3, [r2, #4]
     864:	bf8c      	ite	hi
     866:	f043 0320 	orrhi.w	r3, r3, #32
     86a:	f043 0340 	orrls.w	r3, r3, #64	; 0x40
     86e:	6053      	str	r3, [r2, #4]
     870:	bc10      	pop	{r4}
     872:	4770      	bx	lr
     874:	200023e0 	.word	0x200023e0
     878:	20002480 	.word	0x20002480

0000087c <set_bits_global>:
     87c:	4a02      	ldr	r2, [pc, #8]	; (888 <set_bits_global+0xc>)
     87e:	6853      	ldr	r3, [r2, #4]
     880:	f043 0340 	orr.w	r3, r3, #64	; 0x40
     884:	6053      	str	r3, [r2, #4]
     886:	4770      	bx	lr
     888:	20002480 	.word	0x20002480

0000088c <ins_mskd_global>:
     88c:	2101      	movs	r1, #1
     88e:	4b03      	ldr	r3, [pc, #12]	; (89c <ins_mskd_global+0x10>)
     890:	685a      	ldr	r2, [r3, #4]
     892:	f361 0242 	bfi	r2, r1, #1, #2
     896:	605a      	str	r2, [r3, #4]
     898:	4770      	bx	lr
     89a:	bf00      	nop
     89c:	20002480 	.word	0x20002480

000008a0 <assign_array_global>:
     8a0:	22bd      	movs	r2, #189	; 0xbd
     8a2:	4b01      	ldr	r3, [pc, #4]	; (8a8 <assign_array_global+0x8>)
     8a4:	601a      	str	r2, [r3, #0]
     8a6:	4770      	bx	lr
     8a8:	200022ec 	.word	0x200022ec

000008ac <shifted_global>:
     8ac:	2017      	movs	r0, #23
     8ae:	4b05      	ldr	r3, [pc, #20]	; (8c4 <shifted_global+0x18>)
     8b0:	4905      	ldr	r1, [pc, #20]	; (8c8 <shifted_global+0x1c>)
     8b2:	685a      	ldr	r2, [r3, #4]
     8b4:	f360 625d 	bfi	r2, r0, #25, #5
     8b8:	605a      	str	r2, [r3, #4]
     8ba:	685b      	ldr	r3, [r3, #4]
     8bc:	f3c3 6344 	ubfx	r3, r3, #25, #5
     8c0:	62cb      	str	r3, [r1, #44]	; 0x2c
     8c2:	4770      	bx	lr
     8c4:	200023e0 	.word	0x200023e0
     8c8:	200022c0 	.word	0x200022c0

000008cc <assign_register_global>:
     8cc:	2200      	movs	r2, #0
     8ce:	2102      	movs	r1, #2
     8d0:	4b03      	ldr	r3, [pc, #12]	; (8e0 <assign_register_global+0x14>)
     8d2:	605a      	str	r2, [r3, #4]
     8d4:	685a      	ldr	r2, [r3, #4]
     8d6:	f361 0242 	bfi	r2, r1, #1, #2
     8da:	605a      	str	r2, [r3, #4]
     8dc:	4770      	bx	lr
     8de:	bf00      	nop
     8e0:	20002480 	.word	0x20002480

000008e4 <copy_bits_equ>:
     8e4:	2100      	movs	r1, #0
     8e6:	4b0b      	ldr	r3, [pc, #44]	; (914 <copy_bits_equ+0x30>)
     8e8:	6059      	str	r1, [r3, #4]
     8ea:	685a      	ldr	r2, [r3, #4]
     8ec:	f042 0240 	orr.w	r2, r2, #64	; 0x40
     8f0:	605a      	str	r2, [r3, #4]
     8f2:	685a      	ldr	r2, [r3, #4]
     8f4:	6059      	str	r1, [r3, #4]
     8f6:	f3c2 1280 	ubfx	r2, r2, #6, #1
     8fa:	b92a      	cbnz	r2, 908 <copy_bits_equ+0x24>
     8fc:	2102      	movs	r1, #2
     8fe:	685a      	ldr	r2, [r3, #4]
     900:	f361 0242 	bfi	r2, r1, #1, #2
     904:	605a      	str	r2, [r3, #4]
     906:	4770      	bx	lr
     908:	6859      	ldr	r1, [r3, #4]
     90a:	f362 0142 	bfi	r1, r2, #1, #2
     90e:	6059      	str	r1, [r3, #4]
     910:	4770      	bx	lr
     912:	bf00      	nop
     914:	20002480 	.word	0x20002480

00000918 <copy_bits_neq>:
     918:	2100      	movs	r1, #0
     91a:	4b08      	ldr	r3, [pc, #32]	; (93c <copy_bits_neq+0x24>)
     91c:	6059      	str	r1, [r3, #4]
     91e:	685a      	ldr	r2, [r3, #4]
     920:	f042 0240 	orr.w	r2, r2, #64	; 0x40
     924:	605a      	str	r2, [r3, #4]
     926:	685a      	ldr	r2, [r3, #4]
     928:	6059      	str	r1, [r3, #4]
     92a:	0652      	lsls	r2, r2, #25
     92c:	bf54      	ite	pl
     92e:	2101      	movpl	r1, #1
     930:	2102      	movmi	r1, #2
     932:	685a      	ldr	r2, [r3, #4]
     934:	f361 0242 	bfi	r2, r1, #1, #2
     938:	605a      	str	r2, [r3, #4]
     93a:	4770      	bx	lr
     93c:	20002480 	.word	0x20002480

00000940 <copy_mskd_equ>:
     940:	2100      	movs	r1, #0
     942:	b410      	push	{r4}
     944:	240b      	movs	r4, #11
     946:	4b0a      	ldr	r3, [pc, #40]	; (970 <copy_mskd_equ+0x30>)
     948:	4a0a      	ldr	r2, [pc, #40]	; (974 <copy_mskd_equ+0x34>)
     94a:	6059      	str	r1, [r3, #4]
     94c:	6858      	ldr	r0, [r3, #4]
     94e:	f364 605d 	bfi	r0, r4, #25, #5
     952:	6058      	str	r0, [r3, #4]
     954:	685b      	ldr	r3, [r3, #4]
     956:	6051      	str	r1, [r2, #4]
     958:	f3c3 6344 	ubfx	r3, r3, #25, #5
     95c:	42a3      	cmp	r3, r4
     95e:	bf0c      	ite	eq
     960:	2101      	moveq	r1, #1
     962:	2102      	movne	r1, #2
     964:	6853      	ldr	r3, [r2, #4]
     966:	f361 0342 	bfi	r3, r1, #1, #2
     96a:	6053      	str	r3, [r2, #4]
     96c:	bc10      	pop	{r4}
     96e:	4770      	bx	lr
     970:	200023e0 	.word	0x200023e0
     974:	20002480 	.word	0x20002480

00000978 <copy_mskd_neq>:
     978:	2100      	movs	r1, #0
     97a:	b410      	push	{r4}
     97c:	240d      	movs	r4, #13
     97e:	4b0a      	ldr	r3, [pc, #40]	; (9a8 <copy_mskd_neq+0x30>)
     980:	4a0a      	ldr	r2, [pc, #40]	; (9ac <copy_mskd_neq+0x34>)
     982:	6059      	str	r1, [r3, #4]
     984:	6858      	ldr	r0, [r3, #4]
     986:	f364 605d 	bfi	r0, r4, #25, #5
     98a:	6058      	str	r0, [r3, #4]
     98c:	685b      	ldr	r3, [r3, #4]
     98e:	6051      	str	r1, [r2, #4]
     990:	f3c3 6344 	ubfx	r3, r3, #25, #5
     994:	42a3      	cmp	r3, r4
     996:	bf14      	ite	ne
     998:	2101      	movne	r1, #1
     99a:	2102      	moveq	r1, #2
     99c:	6853      	ldr	r3, [r2, #4]
     99e:	f361 0342 	bfi	r3, r1, #1, #2
     9a2:	6053      	str	r3, [r2, #4]
     9a4:	bc10      	pop	{r4}
     9a6:	4770      	bx	lr
     9a8:	200023e0 	.word	0x200023e0
     9ac:	20002480 	.word	0x20002480

000009b0 <copy_mskd_lss>:
     9b0:	2100      	movs	r1, #0
     9b2:	b410      	push	{r4}
     9b4:	241b      	movs	r4, #27
     9b6:	4b0a      	ldr	r3, [pc, #40]	; (9e0 <copy_mskd_lss+0x30>)
     9b8:	4a0a      	ldr	r2, [pc, #40]	; (9e4 <copy_mskd_lss+0x34>)
     9ba:	6059      	str	r1, [r3, #4]
     9bc:	6858      	ldr	r0, [r3, #4]
     9be:	f364 605d 	bfi	r0, r4, #25, #5
     9c2:	6058      	str	r0, [r3, #4]
     9c4:	685b      	ldr	r3, [r3, #4]
     9c6:	6051      	str	r1, [r2, #4]
     9c8:	f3c3 6344 	ubfx	r3, r3, #25, #5
     9cc:	42a3      	cmp	r3, r4
     9ce:	bf94      	ite	ls
     9d0:	2101      	movls	r1, #1
     9d2:	2102      	movhi	r1, #2
     9d4:	6853      	ldr	r3, [r2, #4]
     9d6:	f361 0342 	bfi	r3, r1, #1, #2
     9da:	6053      	str	r3, [r2, #4]
     9dc:	bc10      	pop	{r4}
     9de:	4770      	bx	lr
     9e0:	200023e0 	.word	0x200023e0
     9e4:	20002480 	.word	0x20002480

000009e8 <copy_mskd_leq>:
     9e8:	2100      	movs	r1, #0
     9ea:	b410      	push	{r4}
     9ec:	2417      	movs	r4, #23
     9ee:	4b0a      	ldr	r3, [pc, #40]	; (a18 <copy_mskd_leq+0x30>)
     9f0:	4a0a      	ldr	r2, [pc, #40]	; (a1c <copy_mskd_leq+0x34>)
     9f2:	6059      	str	r1, [r3, #4]
     9f4:	6858      	ldr	r0, [r3, #4]
     9f6:	f364 605d 	bfi	r0, r4, #25, #5
     9fa:	6058      	str	r0, [r3, #4]
     9fc:	685b      	ldr	r3, [r3, #4]
     9fe:	6051      	str	r1, [r2, #4]
     a00:	f3c3 6344 	ubfx	r3, r3, #25, #5
     a04:	42a3      	cmp	r3, r4
     a06:	bf94      	ite	ls
     a08:	2101      	movls	r1, #1
     a0a:	2102      	movhi	r1, #2
     a0c:	6853      	ldr	r3, [r2, #4]
     a0e:	f361 0342 	bfi	r3, r1, #1, #2
     a12:	6053      	str	r3, [r2, #4]
     a14:	bc10      	pop	{r4}
     a16:	4770      	bx	lr
     a18:	200023e0 	.word	0x200023e0
     a1c:	20002480 	.word	0x20002480

00000a20 <copy_mskd_gtr>:
     a20:	2100      	movs	r1, #0
     a22:	b410      	push	{r4}
     a24:	2413      	movs	r4, #19
     a26:	4b0a      	ldr	r3, [pc, #40]	; (a50 <copy_mskd_gtr+0x30>)
     a28:	4a0a      	ldr	r2, [pc, #40]	; (a54 <copy_mskd_gtr+0x34>)
     a2a:	6059      	str	r1, [r3, #4]
     a2c:	6858      	ldr	r0, [r3, #4]
     a2e:	f364 605d 	bfi	r0, r4, #25, #5
     a32:	6058      	str	r0, [r3, #4]
     a34:	685b      	ldr	r3, [r3, #4]
     a36:	6051      	str	r1, [r2, #4]
     a38:	f3c3 6344 	ubfx	r3, r3, #25, #5
     a3c:	2b12      	cmp	r3, #18
     a3e:	bf8c      	ite	hi
     a40:	2101      	movhi	r1, #1
     a42:	2102      	movls	r1, #2
     a44:	6853      	ldr	r3, [r2, #4]
     a46:	f361 0342 	bfi	r3, r1, #1, #2
     a4a:	6053      	str	r3, [r2, #4]
     a4c:	bc10      	pop	{r4}
     a4e:	4770      	bx	lr
     a50:	200023e0 	.word	0x200023e0
     a54:	20002480 	.word	0x20002480

00000a58 <copy_mskd_geq>:
     a58:	2100      	movs	r1, #0
     a5a:	b410      	push	{r4}
     a5c:	2411      	movs	r4, #17
     a5e:	4b0a      	ldr	r3, [pc, #40]	; (a88 <copy_mskd_geq+0x30>)
     a60:	4a0a      	ldr	r2, [pc, #40]	; (a8c <copy_mskd_geq+0x34>)
     a62:	6059      	str	r1, [r3, #4]
     a64:	6858      	ldr	r0, [r3, #4]
     a66:	f364 605d 	bfi	r0, r4, #25, #5
     a6a:	6058      	str	r0, [r3, #4]
     a6c:	685b      	ldr	r3, [r3, #4]
     a6e:	6051      	str	r1, [r2, #4]
     a70:	f3c3 6344 	ubfx	r3, r3, #25, #5
     a74:	2b10      	cmp	r3, #16
     a76:	bf8c      	ite	hi
     a78:	2101      	movhi	r1, #1
     a7a:	2102      	movls	r1, #2
     a7c:	6853      	ldr	r3, [r2, #4]
     a7e:	f361 0342 	bfi	r3, r1, #1, #2
     a82:	6053      	str	r3, [r2, #4]
     a84:	bc10      	pop	{r4}
     a86:	4770      	bx	lr
     a88:	200023e0 	.word	0x200023e0
     a8c:	20002480 	.word	0x20002480

00000a90 <copy_shifted>:
     a90:	2100      	movs	r1, #0
     a92:	b410      	push	{r4}
     a94:	240b      	movs	r4, #11
     a96:	4b0a      	ldr	r3, [pc, #40]	; (ac0 <copy_shifted+0x30>)
     a98:	4a0a      	ldr	r2, [pc, #40]	; (ac4 <copy_shifted+0x34>)
     a9a:	6059      	str	r1, [r3, #4]
     a9c:	6858      	ldr	r0, [r3, #4]
     a9e:	f364 605d 	bfi	r0, r4, #25, #5
     aa2:	6058      	str	r0, [r3, #4]
     aa4:	685b      	ldr	r3, [r3, #4]
     aa6:	6051      	str	r1, [r2, #4]
     aa8:	f3c3 6344 	ubfx	r3, r3, #25, #5
     aac:	42a3      	cmp	r3, r4
     aae:	bf0c      	ite	eq
     ab0:	2101      	moveq	r1, #1
     ab2:	2102      	movne	r1, #2
     ab4:	6853      	ldr	r3, [r2, #4]
     ab6:	f361 0342 	bfi	r3, r1, #1, #2
     aba:	6053      	str	r3, [r2, #4]
     abc:	bc10      	pop	{r4}
     abe:	4770      	bx	lr
     ac0:	200023e0 	.word	0x200023e0
     ac4:	20002480 	.word	0x20002480

00000ac8 <shifted_ref.constprop.0>:
     ac8:	2200      	movs	r2, #0
     aca:	2017      	movs	r0, #23
     acc:	4b05      	ldr	r3, [pc, #20]	; (ae4 <shifted_ref.constprop.0+0x1c>)
     ace:	4906      	ldr	r1, [pc, #24]	; (ae8 <shifted_ref.constprop.0+0x20>)
     ad0:	605a      	str	r2, [r3, #4]
     ad2:	685a      	ldr	r2, [r3, #4]
     ad4:	f360 625d 	bfi	r2, r0, #25, #5
     ad8:	605a      	str	r2, [r3, #4]
     ada:	685b      	ldr	r3, [r3, #4]
     adc:	f3c3 6344 	ubfx	r3, r3, #25, #5
     ae0:	62cb      	str	r3, [r1, #44]	; 0x2c
     ae2:	4770      	bx	lr
     ae4:	200023e0 	.word	0x200023e0
     ae8:	200022c0 	.word	0x200022c0

00000aec <call_shifted_const_ref>:
     aec:	2301      	movs	r3, #1
     aee:	b500      	push	{lr}
     af0:	b081      	sub	sp, #4
     af2:	4668      	mov	r0, sp
     af4:	9300      	str	r3, [sp, #0]
     af6:	f7ff ffe7 	bl	ac8 <shifted_ref.constprop.0>
     afa:	b001      	add	sp, #4
     afc:	f85d fb04 	ldr.w	pc, [sp], #4

00000b00 <call_shifted_var_ref>:
     b00:	2301      	movs	r3, #1
     b02:	b500      	push	{lr}
     b04:	b081      	sub	sp, #4
     b06:	4668      	mov	r0, sp
     b08:	9300      	str	r3, [sp, #0]
     b0a:	f7ff ffdd 	bl	ac8 <shifted_ref.constprop.0>
     b0e:	b001      	add	sp, #4
     b10:	f85d fb04 	ldr.w	pc, [sp], #4

00000b14 <call_shifted_global_ref>:
     b14:	2301      	movs	r3, #1
     b16:	b500      	push	{lr}
     b18:	b081      	sub	sp, #4
     b1a:	4668      	mov	r0, sp
     b1c:	9300      	str	r3, [sp, #0]
     b1e:	f7ff ffd3 	bl	ac8 <shifted_ref.constprop.0>
     b22:	b001      	add	sp, #4
     b24:	f85d fb04 	ldr.w	pc, [sp], #4

00000b28 <shifted_val.constprop.1>:
     b28:	2200      	movs	r2, #0
     b2a:	2017      	movs	r0, #23
     b2c:	4b05      	ldr	r3, [pc, #20]	; (b44 <shifted_val.constprop.1+0x1c>)
     b2e:	4906      	ldr	r1, [pc, #24]	; (b48 <shifted_val.constprop.1+0x20>)
     b30:	605a      	str	r2, [r3, #4]
     b32:	685a      	ldr	r2, [r3, #4]
     b34:	f360 625d 	bfi	r2, r0, #25, #5
     b38:	605a      	str	r2, [r3, #4]
     b3a:	685b      	ldr	r3, [r3, #4]
     b3c:	f3c3 6344 	ubfx	r3, r3, #25, #5
     b40:	62cb      	str	r3, [r1, #44]	; 0x2c
     b42:	4770      	bx	lr
     b44:	200023e0 	.word	0x200023e0
     b48:	200022c0 	.word	0x200022c0

00000b4c <call_shifted_const_val>:
     b4c:	e7ec      	b.n	b28 <shifted_val.constprop.1>
     b4e:	bf00      	nop

00000b50 <call_shifted_var_val>:
     b50:	e7ea      	b.n	b28 <shifted_val.constprop.1>
     b52:	bf00      	nop

00000b54 <call_shifted_global_val>:
     b54:	e7e8      	b.n	b28 <shifted_val.constprop.1>
     b56:	bf00      	nop

00000b58 <pos_ref.constprop.2>:
     b58:	2266      	movs	r2, #102	; 0x66
     b5a:	4b01      	ldr	r3, [pc, #4]	; (b60 <pos_ref.constprop.2+0x8>)
     b5c:	62da      	str	r2, [r3, #44]	; 0x2c
     b5e:	4770      	bx	lr
     b60:	200022c0 	.word	0x200022c0

00000b64 <pos_ref.constprop.3>:
     b64:	2277      	movs	r2, #119	; 0x77
     b66:	4b01      	ldr	r3, [pc, #4]	; (b6c <pos_ref.constprop.3+0x8>)
     b68:	62da      	str	r2, [r3, #44]	; 0x2c
     b6a:	4770      	bx	lr
     b6c:	200022c0 	.word	0x200022c0

00000b70 <call_pos_ref_global>:
     b70:	2304      	movs	r3, #4
     b72:	b500      	push	{lr}
     b74:	b081      	sub	sp, #4
     b76:	4668      	mov	r0, sp
     b78:	9300      	str	r3, [sp, #0]
     b7a:	f7ff fff3 	bl	b64 <pos_ref.constprop.3>
     b7e:	b001      	add	sp, #4
     b80:	f85d fb04 	ldr.w	pc, [sp], #4

00000b84 <pos_val.constprop.4>:
     b84:	2233      	movs	r2, #51	; 0x33
     b86:	4b01      	ldr	r3, [pc, #4]	; (b8c <pos_val.constprop.4+0x8>)
     b88:	62da      	str	r2, [r3, #44]	; 0x2c
     b8a:	4770      	bx	lr
     b8c:	200022c0 	.word	0x200022c0

00000b90 <pos_val.constprop.5>:
     b90:	2244      	movs	r2, #68	; 0x44
     b92:	4b01      	ldr	r3, [pc, #4]	; (b98 <pos_val.constprop.5+0x8>)
     b94:	62da      	str	r2, [r3, #44]	; 0x2c
     b96:	4770      	bx	lr
     b98:	200022c0 	.word	0x200022c0

00000b9c <call_pos_val>:
     b9c:	b500      	push	{lr}
     b9e:	f7ff fff1 	bl	b84 <pos_val.constprop.4>
     ba2:	f85d eb04 	ldr.w	lr, [sp], #4
     ba6:	e7f3      	b.n	b90 <pos_val.constprop.5>

00000ba8 <call_pos_val_global>:
     ba8:	e7f2      	b.n	b90 <pos_val.constprop.5>
     baa:	bf00      	nop

00000bac <reg_mskd_ref.constprop.6>:
     bac:	2101      	movs	r1, #1
     bae:	4b03      	ldr	r3, [pc, #12]	; (bbc <reg_mskd_ref.constprop.6+0x10>)
     bb0:	681a      	ldr	r2, [r3, #0]
     bb2:	f361 0242 	bfi	r2, r1, #1, #2
     bb6:	601a      	str	r2, [r3, #0]
     bb8:	4770      	bx	lr
     bba:	bf00      	nop
     bbc:	20002484 	.word	0x20002484

00000bc0 <call_reg_mskd_ref>:
     bc0:	2301      	movs	r3, #1
     bc2:	b500      	push	{lr}
     bc4:	b081      	sub	sp, #4
     bc6:	4668      	mov	r0, sp
     bc8:	9300      	str	r3, [sp, #0]
     bca:	f7ff ffef 	bl	bac <reg_mskd_ref.constprop.6>
     bce:	b001      	add	sp, #4
     bd0:	f85d fb04 	ldr.w	pc, [sp], #4

00000bd4 <periph_mskd_ref.constprop.7>:
     bd4:	2101      	movs	r1, #1
     bd6:	4b03      	ldr	r3, [pc, #12]	; (be4 <periph_mskd_ref.constprop.7+0x10>)
     bd8:	685a      	ldr	r2, [r3, #4]
     bda:	f361 0242 	bfi	r2, r1, #1, #2
     bde:	605a      	str	r2, [r3, #4]
     be0:	4770      	bx	lr
     be2:	bf00      	nop
     be4:	20002480 	.word	0x20002480

00000be8 <call_periph_mskd_ref>:
     be8:	2301      	movs	r3, #1
     bea:	b500      	push	{lr}
     bec:	b081      	sub	sp, #4
     bee:	4668      	mov	r0, sp
     bf0:	9300      	str	r3, [sp, #0]
     bf2:	f7ff ffef 	bl	bd4 <periph_mskd_ref.constprop.7>
     bf6:	b001      	add	sp, #4
     bf8:	f85d fb04 	ldr.w	pc, [sp], #4

00000bfc <reg_mskd_val.constprop.8>:
     bfc:	2101      	movs	r1, #1
     bfe:	4b03      	ldr	r3, [pc, #12]	; (c0c <reg_mskd_val.constprop.8+0x10>)
     c00:	681a      	ldr	r2, [r3, #0]
     c02:	f361 0242 	bfi	r2, r1, #1, #2
     c06:	601a      	str	r2, [r3, #0]
     c08:	4770      	bx	lr
     c0a:	bf00      	nop
     c0c:	20002484 	.word	0x20002484

00000c10 <call_reg_mskd_val>:
     c10:	e7f4      	b.n	bfc <reg_mskd_val.constprop.8>
     c12:	bf00      	nop

00000c14 <periph_mskd_val.constprop.9>:
     c14:	2101      	movs	r1, #1
     c16:	4b03      	ldr	r3, [pc, #12]	; (c24 <periph_mskd_val.constprop.9+0x10>)
     c18:	685a      	ldr	r2, [r3, #4]
     c1a:	f361 0242 	bfi	r2, r1, #1, #2
     c1e:	605a      	str	r2, [r3, #4]
     c20:	4770      	bx	lr
     c22:	bf00      	nop
     c24:	20002480 	.word	0x20002480

00000c28 <call_periph_mskd_val>:
     c28:	e7f4      	b.n	c14 <periph_mskd_val.constprop.9>
     c2a:	bf00      	nop

00000c2c <reg_bits_ref.constprop.10>:
     c2c:	4a02      	ldr	r2, [pc, #8]	; (c38 <reg_bits_ref.constprop.10+0xc>)
     c2e:	6813      	ldr	r3, [r2, #0]
     c30:	f043 0340 	orr.w	r3, r3, #64	; 0x40
     c34:	6013      	str	r3, [r2, #0]
     c36:	4770      	bx	lr
     c38:	20002484 	.word	0x20002484

00000c3c <call_reg_bits_ref>:
     c3c:	2304      	movs	r3, #4
     c3e:	b500      	push	{lr}
     c40:	b081      	sub	sp, #4
     c42:	4668      	mov	r0, sp
     c44:	9300      	str	r3, [sp, #0]
     c46:	f7ff fff1 	bl	c2c <reg_bits_ref.constprop.10>
     c4a:	b001      	add	sp, #4
     c4c:	f85d fb04 	ldr.w	pc, [sp], #4

00000c50 <periph_bits_ref.constprop.11>:
     c50:	4a02      	ldr	r2, [pc, #8]	; (c5c <periph_bits_ref.constprop.11+0xc>)
     c52:	6853      	ldr	r3, [r2, #4]
     c54:	f043 0340 	orr.w	r3, r3, #64	; 0x40
     c58:	6053      	str	r3, [r2, #4]
     c5a:	4770      	bx	lr
     c5c:	20002480 	.word	0x20002480

00000c60 <call_periph_bits_ref>:
     c60:	2304      	movs	r3, #4
     c62:	b500      	push	{lr}
     c64:	b081      	sub	sp, #4
     c66:	4668      	mov	r0, sp
     c68:	9300      	str	r3, [sp, #0]
     c6a:	f7ff fff1 	bl	c50 <periph_bits_ref.constprop.11>
     c6e:	b001      	add	sp, #4
     c70:	f85d fb04 	ldr.w	pc, [sp], #4

00000c74 <reg_bits_val.constprop.12>:
     c74:	4a02      	ldr	r2, [pc, #8]	; (c80 <reg_bits_val.constprop.12+0xc>)
     c76:	6813      	ldr	r3, [r2, #0]
     c78:	f043 0340 	orr.w	r3, r3, #64	; 0x40
     c7c:	6013      	str	r3, [r2, #0]
     c7e:	4770      	bx	lr
     c80:	20002484 	.word	0x20002484

00000c84 <call_reg_bits_val>:
     c84:	e7f6      	b.n	c74 <reg_bits_val.constprop.12>
     c86:	bf00      	nop

00000c88 <periph_bits_val.constprop.13>:
     c88:	4a02      	ldr	r2, [pc, #8]	; (c94 <periph_bits_val.constprop.13+0xc>)
     c8a:	6853      	ldr	r3, [r2, #4]
     c8c:	f043 0340 	orr.w	r3, r3, #64	; 0x40
     c90:	6053      	str	r3, [r2, #4]
     c92:	4770      	bx	lr
     c94:	20002480 	.word	0x20002480

00000c98 <call_periph_bits_val>:
     c98:	e7f6      	b.n	c88 <periph_bits_val.constprop.13>
     c9a:	bf00      	nop

00000c9c <mskd_ref.constprop.14>:
     c9c:	4b05      	ldr	r3, [pc, #20]	; (cb4 <mskd_ref.constprop.14+0x18>)
     c9e:	6808      	ldr	r0, [r1, #0]
     ca0:	685a      	ldr	r2, [r3, #4]
     ca2:	f360 0242 	bfi	r2, r0, #1, #2
     ca6:	605a      	str	r2, [r3, #4]
     ca8:	6809      	ldr	r1, [r1, #0]
     caa:	685a      	ldr	r2, [r3, #4]
     cac:	f361 0242 	bfi	r2, r1, #1, #2
     cb0:	605a      	str	r2, [r3, #4]
     cb2:	4770      	bx	lr
     cb4:	20002480 	.word	0x20002480

00000cb8 <call_mskd_ref_const>:
     cb8:	2201      	movs	r2, #1
     cba:	2302      	movs	r3, #2
     cbc:	b500      	push	{lr}
     cbe:	b082      	sub	sp, #8
     cc0:	a901      	add	r1, sp, #4
     cc2:	4668      	mov	r0, sp
     cc4:	e88d 000c 	stmia.w	sp, {r2, r3}
     cc8:	f7ff ffe8 	bl	c9c <mskd_ref.constprop.14>
     ccc:	b002      	add	sp, #8
     cce:	f85d fb04 	ldr.w	pc, [sp], #4
     cd2:	bf00      	nop

00000cd4 <call_mskd_ref_var>:
     cd4:	2301      	movs	r3, #1
     cd6:	b500      	push	{lr}
     cd8:	b082      	sub	sp, #8
     cda:	a901      	add	r1, sp, #4
     cdc:	4668      	mov	r0, sp
     cde:	9300      	str	r3, [sp, #0]
     ce0:	9301      	str	r3, [sp, #4]
     ce2:	f7ff ffdb 	bl	c9c <mskd_ref.constprop.14>
     ce6:	b002      	add	sp, #8
     ce8:	f85d fb04 	ldr.w	pc, [sp], #4

00000cec <call_mskd_ref_global>:
     cec:	2301      	movs	r3, #1
     cee:	b500      	push	{lr}
     cf0:	b082      	sub	sp, #8
     cf2:	a901      	add	r1, sp, #4
     cf4:	4668      	mov	r0, sp
     cf6:	9300      	str	r3, [sp, #0]
     cf8:	9301      	str	r3, [sp, #4]
     cfa:	f7ff ffcf 	bl	c9c <mskd_ref.constprop.14>
     cfe:	b002      	add	sp, #8
     d00:	f85d fb04 	ldr.w	pc, [sp], #4

00000d04 <mskd_val.constprop.15>:
     d04:	2101      	movs	r1, #1
     d06:	4b05      	ldr	r3, [pc, #20]	; (d1c <mskd_val.constprop.15+0x18>)
     d08:	685a      	ldr	r2, [r3, #4]
     d0a:	f361 0242 	bfi	r2, r1, #1, #2
     d0e:	605a      	str	r2, [r3, #4]
     d10:	685a      	ldr	r2, [r3, #4]
     d12:	f361 0242 	bfi	r2, r1, #1, #2
     d16:	605a      	str	r2, [r3, #4]
     d18:	4770      	bx	lr
     d1a:	bf00      	nop
     d1c:	20002480 	.word	0x20002480

00000d20 <call_mskd_val_const>:
     d20:	b500      	push	{lr}
     d22:	f7ff ffef 	bl	d04 <mskd_val.constprop.15>
     d26:	f85d eb04 	ldr.w	lr, [sp], #4
     d2a:	e7eb      	b.n	d04 <mskd_val.constprop.15>

00000d2c <call_mskd_val_var>:
     d2c:	b500      	push	{lr}
     d2e:	f7ff ffe9 	bl	d04 <mskd_val.constprop.15>
     d32:	f85d eb04 	ldr.w	lr, [sp], #4
     d36:	e7e5      	b.n	d04 <mskd_val.constprop.15>

00000d38 <call_mskd_val_global>:
     d38:	e7e4      	b.n	d04 <mskd_val.constprop.15>
     d3a:	bf00      	nop

00000d3c <bits_ref.constprop.16>:
     d3c:	4b05      	ldr	r3, [pc, #20]	; (d54 <bits_ref.constprop.16+0x18>)
     d3e:	685a      	ldr	r2, [r3, #4]
     d40:	f042 0201 	orr.w	r2, r2, #1
     d44:	605a      	str	r2, [r3, #4]
     d46:	6809      	ldr	r1, [r1, #0]
     d48:	685a      	ldr	r2, [r3, #4]
     d4a:	f361 0200 	bfi	r2, r1, #0, #1
     d4e:	605a      	str	r2, [r3, #4]
     d50:	4770      	bx	lr
     d52:	bf00      	nop
     d54:	20002480 	.word	0x20002480

00000d58 <call_bits_ref_const>:
     d58:	2200      	movs	r2, #0
     d5a:	2301      	movs	r3, #1
     d5c:	b500      	push	{lr}
     d5e:	b082      	sub	sp, #8
     d60:	a901      	add	r1, sp, #4
     d62:	4668      	mov	r0, sp
     d64:	e88d 000c 	stmia.w	sp, {r2, r3}
     d68:	f7ff ffe8 	bl	d3c <bits_ref.constprop.16>
     d6c:	b002      	add	sp, #8
     d6e:	f85d fb04 	ldr.w	pc, [sp], #4
     d72:	bf00      	nop

00000d74 <call_bits_ref_var>:
     d74:	2200      	movs	r2, #0
     d76:	2301      	movs	r3, #1
     d78:	b500      	push	{lr}
     d7a:	b082      	sub	sp, #8
     d7c:	a901      	add	r1, sp, #4
     d7e:	4668      	mov	r0, sp
     d80:	e88d 000c 	stmia.w	sp, {r2, r3}
     d84:	f7ff ffda 	bl	d3c <bits_ref.constprop.16>
     d88:	b002      	add	sp, #8
     d8a:	f85d fb04 	ldr.w	pc, [sp], #4
     d8e:	bf00      	nop

00000d90 <bits_ref.constprop.17>:
     d90:	4b05      	ldr	r3, [pc, #20]	; (da8 <bits_ref.constprop.17+0x18>)
     d92:	685a      	ldr	r2, [r3, #4]
     d94:	f042 0240 	orr.w	r2, r2, #64	; 0x40
     d98:	605a      	str	r2, [r3, #4]
     d9a:	6809      	ldr	r1, [r1, #0]
     d9c:	685a      	ldr	r2, [r3, #4]
     d9e:	f361 1286 	bfi	r2, r1, #6, #1
     da2:	605a      	str	r2, [r3, #4]
     da4:	4770      	bx	lr
     da6:	bf00      	nop
     da8:	20002480 	.word	0x20002480

00000dac <call_bits_ref_global>:
     dac:	2204      	movs	r2, #4
     dae:	2301      	movs	r3, #1
     db0:	b500      	push	{lr}
     db2:	b082      	sub	sp, #8
     db4:	eb0d 0102 	add.w	r1, sp, r2
     db8:	4668      	mov	r0, sp
     dba:	e88d 000c 	stmia.w	sp, {r2, r3}
     dbe:	f7ff ffe7 	bl	d90 <bits_ref.constprop.17>
     dc2:	b002      	add	sp, #8
     dc4:	f85d fb04 	ldr.w	pc, [sp], #4

00000dc8 <bits_val.constprop.18>:
     dc8:	4b04      	ldr	r3, [pc, #16]	; (ddc <bits_val.constprop.18+0x14>)
     dca:	685a      	ldr	r2, [r3, #4]
     dcc:	f042 0240 	orr.w	r2, r2, #64	; 0x40
     dd0:	605a      	str	r2, [r3, #4]
     dd2:	685a      	ldr	r2, [r3, #4]
     dd4:	f042 0240 	orr.w	r2, r2, #64	; 0x40
     dd8:	605a      	str	r2, [r3, #4]
     dda:	4770      	bx	lr
     ddc:	20002480 	.word	0x20002480

00000de0 <call_bits_val_const>:
     de0:	e7f2      	b.n	dc8 <bits_val.constprop.18>
     de2:	bf00      	nop

00000de4 <call_bits_val_var>:
     de4:	e7f0      	b.n	dc8 <bits_val.constprop.18>
     de6:	bf00      	nop

00000de8 <call_bits_val_global>:
     de8:	e7ee      	b.n	dc8 <bits_val.constprop.18>
     dea:	bf00      	nop

00000dec <bits_val>:
     dec:	2803      	cmp	r0, #3
     dee:	d003      	beq.n	df8 <bits_val+0xc>
     df0:	2804      	cmp	r0, #4
     df2:	d019      	beq.n	e28 <bits_val+0x3c>
     df4:	b160      	cbz	r0, e10 <bits_val+0x24>
     df6:	4770      	bx	lr
     df8:	4b11      	ldr	r3, [pc, #68]	; (e40 <bits_val+0x54>)
     dfa:	f001 0101 	and.w	r1, r1, #1
     dfe:	685a      	ldr	r2, [r3, #4]
     e00:	f361 1245 	bfi	r2, r1, #5, #1
     e04:	605a      	str	r2, [r3, #4]
     e06:	685a      	ldr	r2, [r3, #4]
     e08:	f361 1245 	bfi	r2, r1, #5, #1
     e0c:	605a      	str	r2, [r3, #4]
     e0e:	4770      	bx	lr
     e10:	4b0b      	ldr	r3, [pc, #44]	; (e40 <bits_val+0x54>)
     e12:	f001 0101 	and.w	r1, r1, #1
     e16:	685a      	ldr	r2, [r3, #4]
     e18:	f361 0200 	bfi	r2, r1, #0, #1
     e1c:	605a      	str	r2, [r3, #4]
     e1e:	685a      	ldr	r2, [r3, #4]
     e20:	f361 0200 	bfi	r2, r1, #0, #1
     e24:	605a      	str	r2, [r3, #4]
     e26:	4770      	bx	lr
     e28:	4b05      	ldr	r3, [pc, #20]	; (e40 <bits_val+0x54>)
     e2a:	f001 0101 	and.w	r1, r1, #1
     e2e:	685a      	ldr	r2, [r3, #4]
     e30:	f361 1286 	bfi	r2, r1, #6, #1
     e34:	605a      	str	r2, [r3, #4]
     e36:	685a      	ldr	r2, [r3, #4]
     e38:	f361 1286 	bfi	r2, r1, #6, #1
     e3c:	605a      	str	r2, [r3, #4]
     e3e:	4770      	bx	lr
     e40:	20002480 	.word	0x20002480

00000e44 <bits_ref>:
     e44:	6803      	ldr	r3, [r0, #0]
     e46:	2b03      	cmp	r3, #3
     e48:	d003      	beq.n	e52 <bits_ref+0xe>
     e4a:	2b04      	cmp	r3, #4
     e4c:	d019      	beq.n	e82 <bits_ref+0x3e>
     e4e:	b163      	cbz	r3, e6a <bits_ref+0x26>
     e50:	4770      	bx	lr
     e52:	4b12      	ldr	r3, [pc, #72]	; (e9c <bits_ref+0x58>)
     e54:	6808      	ldr	r0, [r1, #0]
     e56:	685a      	ldr	r2, [r3, #4]
     e58:	f360 1245 	bfi	r2, r0, #5, #1
     e5c:	605a      	str	r2, [r3, #4]
     e5e:	6809      	ldr	r1, [r1, #0]
     e60:	685a      	ldr	r2, [r3, #4]
     e62:	f361 1245 	bfi	r2, r1, #5, #1
     e66:	605a      	str	r2, [r3, #4]
     e68:	4770      	bx	lr
     e6a:	4b0c      	ldr	r3, [pc, #48]	; (e9c <bits_ref+0x58>)
     e6c:	6808      	ldr	r0, [r1, #0]
     e6e:	685a      	ldr	r2, [r3, #4]
     e70:	f360 0200 	bfi	r2, r0, #0, #1
     e74:	605a      	str	r2, [r3, #4]
     e76:	6809      	ldr	r1, [r1, #0]
     e78:	685a      	ldr	r2, [r3, #4]
     e7a:	f361 0200 	bfi	r2, r1, #0, #1
     e7e:	605a      	str	r2, [r3, #4]
     e80:	4770      	bx	lr
     e82:	4b06      	ldr	r3, [pc, #24]	; (e9c <bits_ref+0x58>)
     e84:	6808      	ldr	r0, [r1, #0]
     e86:	685a      	ldr	r2, [r3, #4]
     e88:	f360 1286 	bfi	r2, r0, #6, #1
     e8c:	605a      	str	r2, [r3, #4]
     e8e:	6809      	ldr	r1, [r1, #0]
     e90:	685a      	ldr	r2, [r3, #4]
     e92:	f361 1286 	bfi	r2, r1, #6, #1
     e96:	605a      	str	r2, [r3, #4]
     e98:	4770      	bx	lr
     e9a:	bf00      	nop
     e9c:	20002480 	.word	0x20002480

00000ea0 <mskd_val>:
     ea0:	2806      	cmp	r0, #6
     ea2:	d810      	bhi.n	ec6 <mskd_val+0x26>
     ea4:	e8df f000 	tbb	[pc, r0]
     ea8:	1c104034 	.word	0x1c104034
     eac:	2810      	.short	0x2810
     eae:	04          	.byte	0x04
     eaf:	00          	.byte	0x00
     eb0:	4b23      	ldr	r3, [pc, #140]	; (f40 <mskd_val+0xa0>)
     eb2:	f001 011f 	and.w	r1, r1, #31
     eb6:	685a      	ldr	r2, [r3, #4]
     eb8:	f361 3210 	bfi	r2, r1, #12, #5
     ebc:	605a      	str	r2, [r3, #4]
     ebe:	685a      	ldr	r2, [r3, #4]
     ec0:	f361 3210 	bfi	r2, r1, #12, #5
     ec4:	605a      	str	r2, [r3, #4]
     ec6:	4770      	bx	lr
     ec8:	4b1d      	ldr	r3, [pc, #116]	; (f40 <mskd_val+0xa0>)
     eca:	f001 0103 	and.w	r1, r1, #3
     ece:	685a      	ldr	r2, [r3, #4]
     ed0:	f361 02c4 	bfi	r2, r1, #3, #2
     ed4:	605a      	str	r2, [r3, #4]
     ed6:	685a      	ldr	r2, [r3, #4]
     ed8:	f361 02c4 	bfi	r2, r1, #3, #2
     edc:	605a      	str	r2, [r3, #4]
     ede:	4770      	bx	lr
     ee0:	4b17      	ldr	r3, [pc, #92]	; (f40 <mskd_val+0xa0>)
     ee2:	f001 0101 	and.w	r1, r1, #1
     ee6:	685a      	ldr	r2, [r3, #4]
     ee8:	f361 1245 	bfi	r2, r1, #5, #1
     eec:	605a      	str	r2, [r3, #4]
     eee:	685a      	ldr	r2, [r3, #4]
     ef0:	f361 1245 	bfi	r2, r1, #5, #1
     ef4:	605a      	str	r2, [r3, #4]
     ef6:	4770      	bx	lr
     ef8:	4b11      	ldr	r3, [pc, #68]	; (f40 <mskd_val+0xa0>)
     efa:	f001 011f 	and.w	r1, r1, #31
     efe:	685a      	ldr	r2, [r3, #4]
     f00:	f361 12cb 	bfi	r2, r1, #7, #5
     f04:	605a      	str	r2, [r3, #4]
     f06:	685a      	ldr	r2, [r3, #4]
     f08:	f361 12cb 	bfi	r2, r1, #7, #5
     f0c:	605a      	str	r2, [r3, #4]
     f0e:	4770      	bx	lr
     f10:	4b0b      	ldr	r3, [pc, #44]	; (f40 <mskd_val+0xa0>)
     f12:	f001 0101 	and.w	r1, r1, #1
     f16:	685a      	ldr	r2, [r3, #4]
     f18:	f361 0200 	bfi	r2, r1, #0, #1
     f1c:	605a      	str	r2, [r3, #4]
     f1e:	685a      	ldr	r2, [r3, #4]
     f20:	f361 0200 	bfi	r2, r1, #0, #1
     f24:	605a      	str	r2, [r3, #4]
     f26:	4770      	bx	lr
     f28:	4b05      	ldr	r3, [pc, #20]	; (f40 <mskd_val+0xa0>)
     f2a:	f001 0103 	and.w	r1, r1, #3
     f2e:	685a      	ldr	r2, [r3, #4]
     f30:	f361 0242 	bfi	r2, r1, #1, #2
     f34:	605a      	str	r2, [r3, #4]
     f36:	685a      	ldr	r2, [r3, #4]
     f38:	f361 0242 	bfi	r2, r1, #1, #2
     f3c:	605a      	str	r2, [r3, #4]
     f3e:	4770      	bx	lr
     f40:	20002480 	.word	0x20002480

00000f44 <mskd_ref>:
     f44:	6803      	ldr	r3, [r0, #0]
     f46:	2b06      	cmp	r3, #6
     f48:	d810      	bhi.n	f6c <mskd_ref+0x28>
     f4a:	e8df f003 	tbb	[pc, r3]
     f4e:	4034      	.short	0x4034
     f50:	28101c10 	.word	0x28101c10
     f54:	04          	.byte	0x04
     f55:	00          	.byte	0x00
     f56:	4b24      	ldr	r3, [pc, #144]	; (fe8 <mskd_ref+0xa4>)
     f58:	6808      	ldr	r0, [r1, #0]
     f5a:	685a      	ldr	r2, [r3, #4]
     f5c:	f360 3210 	bfi	r2, r0, #12, #5
     f60:	605a      	str	r2, [r3, #4]
     f62:	6809      	ldr	r1, [r1, #0]
     f64:	685a      	ldr	r2, [r3, #4]
     f66:	f361 3210 	bfi	r2, r1, #12, #5
     f6a:	605a      	str	r2, [r3, #4]
     f6c:	4770      	bx	lr
     f6e:	4b1e      	ldr	r3, [pc, #120]	; (fe8 <mskd_ref+0xa4>)
     f70:	6808      	ldr	r0, [r1, #0]
     f72:	685a      	ldr	r2, [r3, #4]
     f74:	f360 02c4 	bfi	r2, r0, #3, #2
     f78:	605a      	str	r2, [r3, #4]
     f7a:	6809      	ldr	r1, [r1, #0]
     f7c:	685a      	ldr	r2, [r3, #4]
     f7e:	f361 02c4 	bfi	r2, r1, #3, #2
     f82:	605a      	str	r2, [r3, #4]
     f84:	4770      	bx	lr
     f86:	4b18      	ldr	r3, [pc, #96]	; (fe8 <mskd_ref+0xa4>)
     f88:	6808      	ldr	r0, [r1, #0]
     f8a:	685a      	ldr	r2, [r3, #4]
     f8c:	f360 1245 	bfi	r2, r0, #5, #1
     f90:	605a      	str	r2, [r3, #4]
     f92:	6809      	ldr	r1, [r1, #0]
     f94:	685a      	ldr	r2, [r3, #4]
     f96:	f361 1245 	bfi	r2, r1, #5, #1
     f9a:	605a      	str	r2, [r3, #4]
     f9c:	4770      	bx	lr
     f9e:	4b12      	ldr	r3, [pc, #72]	; (fe8 <mskd_ref+0xa4>)
     fa0:	6808      	ldr	r0, [r1, #0]
     fa2:	685a      	ldr	r2, [r3, #4]
     fa4:	f360 12cb 	bfi	r2, r0, #7, #5
     fa8:	605a      	str	r2, [r3, #4]
     faa:	6809      	ldr	r1, [r1, #0]
     fac:	685a      	ldr	r2, [r3, #4]
     fae:	f361 12cb 	bfi	r2, r1, #7, #5
     fb2:	605a      	str	r2, [r3, #4]
     fb4:	4770      	bx	lr
     fb6:	4b0c      	ldr	r3, [pc, #48]	; (fe8 <mskd_ref+0xa4>)
     fb8:	6808      	ldr	r0, [r1, #0]
     fba:	685a      	ldr	r2, [r3, #4]
     fbc:	f360 0200 	bfi	r2, r0, #0, #1
     fc0:	605a      	str	r2, [r3, #4]
     fc2:	6809      	ldr	r1, [r1, #0]
     fc4:	685a      	ldr	r2, [r3, #4]
     fc6:	f361 0200 	bfi	r2, r1, #0, #1
     fca:	605a      	str	r2, [r3, #4]
     fcc:	4770      	bx	lr
     fce:	4b06      	ldr	r3, [pc, #24]	; (fe8 <mskd_ref+0xa4>)
     fd0:	6808      	ldr	r0, [r1, #0]
     fd2:	685a      	ldr	r2, [r3, #4]
     fd4:	f360 0242 	bfi	r2, r0, #1, #2
     fd8:	605a      	str	r2, [r3, #4]
     fda:	6809      	ldr	r1, [r1, #0]
     fdc:	685a      	ldr	r2, [r3, #4]
     fde:	f361 0242 	bfi	r2, r1, #1, #2
     fe2:	605a      	str	r2, [r3, #4]
     fe4:	4770      	bx	lr
     fe6:	bf00      	nop
     fe8:	20002480 	.word	0x20002480

00000fec <periph_bits>:
     fec:	6843      	ldr	r3, [r0, #4]
     fee:	f043 0340 	orr.w	r3, r3, #64	; 0x40
     ff2:	6043      	str	r3, [r0, #4]
     ff4:	4770      	bx	lr
     ff6:	bf00      	nop

00000ff8 <call_periph_bits>:
     ff8:	4801      	ldr	r0, [pc, #4]	; (1000 <call_periph_bits+0x8>)
     ffa:	f7ff bffe 	b.w	fec <periph_bits>
     ffe:	bf00      	nop
    1000:	20002480 	.word	0x20002480

00001004 <periph_bits_val>:
    1004:	2904      	cmp	r1, #4
    1006:	d103      	bne.n	1010 <periph_bits_val+0xc>
    1008:	6843      	ldr	r3, [r0, #4]
    100a:	f043 0340 	orr.w	r3, r3, #64	; 0x40
    100e:	6043      	str	r3, [r0, #4]
    1010:	4770      	bx	lr
    1012:	bf00      	nop

00001014 <reg_bits_val>:
    1014:	2904      	cmp	r1, #4
    1016:	d103      	bne.n	1020 <reg_bits_val+0xc>
    1018:	6803      	ldr	r3, [r0, #0]
    101a:	f043 0340 	orr.w	r3, r3, #64	; 0x40
    101e:	6003      	str	r3, [r0, #0]
    1020:	4770      	bx	lr
    1022:	bf00      	nop

00001024 <periph_bits_ref>:
    1024:	680b      	ldr	r3, [r1, #0]
    1026:	2b04      	cmp	r3, #4
    1028:	d103      	bne.n	1032 <periph_bits_ref+0xe>
    102a:	6843      	ldr	r3, [r0, #4]
    102c:	f043 0340 	orr.w	r3, r3, #64	; 0x40
    1030:	6043      	str	r3, [r0, #4]
    1032:	4770      	bx	lr

00001034 <reg_bits_ref>:
    1034:	680b      	ldr	r3, [r1, #0]
    1036:	2b04      	cmp	r3, #4
    1038:	d103      	bne.n	1042 <reg_bits_ref+0xe>
    103a:	6803      	ldr	r3, [r0, #0]
    103c:	f043 0340 	orr.w	r3, r3, #64	; 0x40
    1040:	6003      	str	r3, [r0, #0]
    1042:	4770      	bx	lr

00001044 <periph_mskd>:
    1044:	2201      	movs	r2, #1
    1046:	6843      	ldr	r3, [r0, #4]
    1048:	f362 0342 	bfi	r3, r2, #1, #2
    104c:	6043      	str	r3, [r0, #4]
    104e:	4770      	bx	lr

00001050 <call_periph_mskd>:
    1050:	4801      	ldr	r0, [pc, #4]	; (1058 <call_periph_mskd+0x8>)
    1052:	f7ff bffe 	b.w	1044 <periph_mskd>
    1056:	bf00      	nop
    1058:	20002480 	.word	0x20002480

0000105c <periph_mskd_val>:
    105c:	2901      	cmp	r1, #1
    105e:	d103      	bne.n	1068 <periph_mskd_val+0xc>
    1060:	6843      	ldr	r3, [r0, #4]
    1062:	f361 0342 	bfi	r3, r1, #1, #2
    1066:	6043      	str	r3, [r0, #4]
    1068:	4770      	bx	lr
    106a:	bf00      	nop

0000106c <reg_mskd_val>:
    106c:	2901      	cmp	r1, #1
    106e:	d103      	bne.n	1078 <reg_mskd_val+0xc>
    1070:	6803      	ldr	r3, [r0, #0]
    1072:	f361 0342 	bfi	r3, r1, #1, #2
    1076:	6003      	str	r3, [r0, #0]
    1078:	4770      	bx	lr
    107a:	bf00      	nop

0000107c <periph_mskd_ref>:
    107c:	680b      	ldr	r3, [r1, #0]
    107e:	2b01      	cmp	r3, #1
    1080:	d103      	bne.n	108a <periph_mskd_ref+0xe>
    1082:	6842      	ldr	r2, [r0, #4]
    1084:	f363 0242 	bfi	r2, r3, #1, #2
    1088:	6042      	str	r2, [r0, #4]
    108a:	4770      	bx	lr

0000108c <reg_mskd_ref>:
    108c:	680b      	ldr	r3, [r1, #0]
    108e:	2b01      	cmp	r3, #1
    1090:	d103      	bne.n	109a <reg_mskd_ref+0xe>
    1092:	6802      	ldr	r2, [r0, #0]
    1094:	f363 0242 	bfi	r2, r3, #1, #2
    1098:	6002      	str	r2, [r0, #0]
    109a:	4770      	bx	lr

0000109c <return_bits>:
    109c:	2001      	movs	r0, #1
    109e:	4770      	bx	lr

000010a0 <call_return_bits>:
    10a0:	b500      	push	{lr}
    10a2:	f7ff fffe 	bl	109c <return_bits>
    10a6:	2200      	movs	r2, #0
    10a8:	4b08      	ldr	r3, [pc, #32]	; (10cc <call_return_bits+0x2c>)
    10aa:	2801      	cmp	r0, #1
    10ac:	605a      	str	r2, [r3, #4]
    10ae:	d005      	beq.n	10bc <call_return_bits+0x1c>
    10b0:	685a      	ldr	r2, [r3, #4]
    10b2:	f042 5278 	orr.w	r2, r2, #1040187392	; 0x3e000000
    10b6:	605a      	str	r2, [r3, #4]
    10b8:	f85d fb04 	ldr.w	pc, [sp], #4
    10bc:	2115      	movs	r1, #21
    10be:	685a      	ldr	r2, [r3, #4]
    10c0:	f361 625d 	bfi	r2, r1, #25, #5
    10c4:	605a      	str	r2, [r3, #4]
    10c6:	f85d fb04 	ldr.w	pc, [sp], #4
    10ca:	bf00      	nop
    10cc:	200023e0 	.word	0x200023e0

000010d0 <return_mskd>:
    10d0:	2202      	movs	r2, #2
    10d2:	2301      	movs	r3, #1
    10d4:	6002      	str	r2, [r0, #0]
    10d6:	600b      	str	r3, [r1, #0]
    10d8:	4770      	bx	lr
    10da:	bf00      	nop

000010dc <call_return_mskd>:
    10dc:	b500      	push	{lr}
    10de:	b082      	sub	sp, #8
    10e0:	a901      	add	r1, sp, #4
    10e2:	4668      	mov	r0, sp
    10e4:	f7ff fffe 	bl	10d0 <return_mskd>
    10e8:	2100      	movs	r1, #0
    10ea:	9a00      	ldr	r2, [sp, #0]
    10ec:	4b0b      	ldr	r3, [pc, #44]	; (111c <call_return_mskd+0x40>)
    10ee:	2a02      	cmp	r2, #2
    10f0:	6059      	str	r1, [r3, #4]
    10f2:	d008      	beq.n	1106 <call_return_mskd+0x2a>
    10f4:	2113      	movs	r1, #19
    10f6:	4b09      	ldr	r3, [pc, #36]	; (111c <call_return_mskd+0x40>)
    10f8:	685a      	ldr	r2, [r3, #4]
    10fa:	f361 625d 	bfi	r2, r1, #25, #5
    10fe:	605a      	str	r2, [r3, #4]
    1100:	b002      	add	sp, #8
    1102:	f85d fb04 	ldr.w	pc, [sp], #4
    1106:	9a01      	ldr	r2, [sp, #4]
    1108:	2a01      	cmp	r2, #1
    110a:	d1f3      	bne.n	10f4 <call_return_mskd+0x18>
    110c:	2111      	movs	r1, #17
    110e:	685a      	ldr	r2, [r3, #4]
    1110:	f361 625d 	bfi	r2, r1, #25, #5
    1114:	605a      	str	r2, [r3, #4]
    1116:	b002      	add	sp, #8
    1118:	f85d fb04 	ldr.w	pc, [sp], #4
    111c:	200023e0 	.word	0x200023e0

00001120 <return_reg>:
    1120:	2200      	movs	r2, #0
    1122:	4b04      	ldr	r3, [pc, #16]	; (1134 <return_reg+0x14>)
    1124:	4804      	ldr	r0, [pc, #16]	; (1138 <return_reg+0x18>)
    1126:	605a      	str	r2, [r3, #4]
    1128:	685a      	ldr	r2, [r3, #4]
    112a:	f042 0240 	orr.w	r2, r2, #64	; 0x40
    112e:	605a      	str	r2, [r3, #4]
    1130:	4770      	bx	lr
    1132:	bf00      	nop
    1134:	20002480 	.word	0x20002480
    1138:	20002484 	.word	0x20002484

0000113c <call_return_reg>:
    113c:	b500      	push	{lr}
    113e:	f7ff fffe 	bl	1120 <return_reg>
    1142:	2200      	movs	r2, #0
    1144:	4b06      	ldr	r3, [pc, #24]	; (1160 <call_return_reg+0x24>)
    1146:	605a      	str	r2, [r3, #4]
    1148:	6802      	ldr	r2, [r0, #0]
    114a:	0652      	lsls	r2, r2, #25
    114c:	bf4c      	ite	mi
    114e:	210f      	movmi	r1, #15
    1150:	2117      	movpl	r1, #23
    1152:	685a      	ldr	r2, [r3, #4]
    1154:	f361 625d 	bfi	r2, r1, #25, #5
    1158:	605a      	str	r2, [r3, #4]
    115a:	f85d fb04 	ldr.w	pc, [sp], #4
    115e:	bf00      	nop
    1160:	200023e0 	.word	0x200023e0

00001164 <return_periph>:
    1164:	2200      	movs	r2, #0
    1166:	4b04      	ldr	r3, [pc, #16]	; (1178 <return_periph+0x14>)
    1168:	605a      	str	r2, [r3, #4]
    116a:	685a      	ldr	r2, [r3, #4]
    116c:	4618      	mov	r0, r3
    116e:	f042 0240 	orr.w	r2, r2, #64	; 0x40
    1172:	605a      	str	r2, [r3, #4]
    1174:	4770      	bx	lr
    1176:	bf00      	nop
    1178:	20002480 	.word	0x20002480

0000117c <call_return_periph>:
    117c:	b500      	push	{lr}
    117e:	f7ff fffe 	bl	1164 <return_periph>
    1182:	6843      	ldr	r3, [r0, #4]
    1184:	065b      	lsls	r3, r3, #25
    1186:	bf4c      	ite	mi
    1188:	2113      	movmi	r1, #19
    118a:	2115      	movpl	r1, #21
    118c:	4b03      	ldr	r3, [pc, #12]	; (119c <call_return_periph+0x20>)
    118e:	685a      	ldr	r2, [r3, #4]
    1190:	f361 625d 	bfi	r2, r1, #25, #5
    1194:	605a      	str	r2, [r3, #4]
    1196:	f85d fb04 	ldr.w	pc, [sp], #4
    119a:	bf00      	nop
    119c:	200023e0 	.word	0x200023e0

000011a0 <pos_val>:
    11a0:	2803      	cmp	r0, #3
    11a2:	d006      	beq.n	11b2 <pos_val+0x12>
    11a4:	2804      	cmp	r0, #4
    11a6:	bf0c      	ite	eq
    11a8:	2244      	moveq	r2, #68	; 0x44
    11aa:	2255      	movne	r2, #85	; 0x55
    11ac:	4b03      	ldr	r3, [pc, #12]	; (11bc <pos_val+0x1c>)
    11ae:	62da      	str	r2, [r3, #44]	; 0x2c
    11b0:	4770      	bx	lr
    11b2:	2233      	movs	r2, #51	; 0x33
    11b4:	4b01      	ldr	r3, [pc, #4]	; (11bc <pos_val+0x1c>)
    11b6:	62da      	str	r2, [r3, #44]	; 0x2c
    11b8:	4770      	bx	lr
    11ba:	bf00      	nop
    11bc:	200022c0 	.word	0x200022c0

000011c0 <pos_ref>:
    11c0:	6803      	ldr	r3, [r0, #0]
    11c2:	2b03      	cmp	r3, #3
    11c4:	d006      	beq.n	11d4 <pos_ref+0x14>
    11c6:	2b04      	cmp	r3, #4
    11c8:	bf0c      	ite	eq
    11ca:	2277      	moveq	r2, #119	; 0x77
    11cc:	2288      	movne	r2, #136	; 0x88
    11ce:	4b03      	ldr	r3, [pc, #12]	; (11dc <pos_ref+0x1c>)
    11d0:	62da      	str	r2, [r3, #44]	; 0x2c
    11d2:	4770      	bx	lr
    11d4:	2266      	movs	r2, #102	; 0x66
    11d6:	4b01      	ldr	r3, [pc, #4]	; (11dc <pos_ref+0x1c>)
    11d8:	62da      	str	r2, [r3, #44]	; 0x2c
    11da:	4770      	bx	lr
    11dc:	200022c0 	.word	0x200022c0

000011e0 <call_pos_ref>:
    11e0:	2303      	movs	r3, #3
    11e2:	b500      	push	{lr}
    11e4:	b081      	sub	sp, #4
    11e6:	4668      	mov	r0, sp
    11e8:	9300      	str	r3, [sp, #0]
    11ea:	f7ff fcb5 	bl	b58 <pos_ref.constprop.2>
    11ee:	4668      	mov	r0, sp
    11f0:	f7ff fffe 	bl	11c0 <pos_ref>
    11f4:	b001      	add	sp, #4
    11f6:	f85d fb04 	ldr.w	pc, [sp], #4
    11fa:	bf00      	nop

000011fc <runtime_range_val>:
    11fc:	4b02      	ldr	r3, [pc, #8]	; (1208 <runtime_range_val+0xc>)
    11fe:	685a      	ldr	r2, [r3, #4]
    1200:	f360 3210 	bfi	r2, r0, #12, #5
    1204:	605a      	str	r2, [r3, #4]
    1206:	4770      	bx	lr
    1208:	20002480 	.word	0x20002480

0000120c <call_range_val>:
    120c:	b2c0      	uxtb	r0, r0
    120e:	f7ff bffe 	b.w	11fc <runtime_range_val>
    1212:	bf00      	nop

00001214 <call_range_val_port>:
    1214:	201f      	movs	r0, #31
    1216:	f7ff bffe 	b.w	120c <call_range_val>
    121a:	bf00      	nop

0000121c <runtime_range_ref>:
    121c:	4b03      	ldr	r3, [pc, #12]	; (122c <runtime_range_ref+0x10>)
    121e:	6801      	ldr	r1, [r0, #0]
    1220:	685a      	ldr	r2, [r3, #4]
    1222:	f361 3210 	bfi	r2, r1, #12, #5
    1226:	605a      	str	r2, [r3, #4]
    1228:	4770      	bx	lr
    122a:	bf00      	nop
    122c:	20002480 	.word	0x20002480

00001230 <call_range_ref>:
    1230:	b500      	push	{lr}
    1232:	b081      	sub	sp, #4
    1234:	9000      	str	r0, [sp, #0]
    1236:	4668      	mov	r0, sp
    1238:	f7ff fffe 	bl	121c <runtime_range_ref>
    123c:	b001      	add	sp, #4
    123e:	f85d fb04 	ldr.w	pc, [sp], #4
    1242:	bf00      	nop

00001244 <call_range_ref_port>:
    1244:	200c      	movs	r0, #12
    1246:	f7ff bffe 	b.w	1230 <call_range_ref>
    124a:	bf00      	nop

0000124c <check_array_range_pass>:
    124c:	2816      	cmp	r0, #22
    124e:	bf94      	ite	ls
    1250:	227f      	movls	r2, #127	; 0x7f
    1252:	2283      	movhi	r2, #131	; 0x83
    1254:	4b01      	ldr	r3, [pc, #4]	; (125c <check_array_range_pass+0x10>)
    1256:	62da      	str	r2, [r3, #44]	; 0x2c
    1258:	4770      	bx	lr
    125a:	bf00      	nop
    125c:	200022c0 	.word	0x200022c0

00001260 <check_array_range_fail>:
    1260:	2816      	cmp	r0, #22
    1262:	bf94      	ite	ls
    1264:	2295      	movls	r2, #149	; 0x95
    1266:	2297      	movhi	r2, #151	; 0x97
    1268:	4b01      	ldr	r3, [pc, #4]	; (1270 <check_array_range_fail+0x10>)
    126a:	62da      	str	r2, [r3, #44]	; 0x2c
    126c:	4770      	bx	lr
    126e:	bf00      	nop
    1270:	200022c0 	.word	0x200022c0

00001274 <check_bits_range_pass>:
    1274:	280f      	cmp	r0, #15
    1276:	bf94      	ite	ls
    1278:	229d      	movls	r2, #157	; 0x9d
    127a:	22a3      	movhi	r2, #163	; 0xa3
    127c:	4b01      	ldr	r3, [pc, #4]	; (1284 <check_bits_range_pass+0x10>)
    127e:	62da      	str	r2, [r3, #44]	; 0x2c
    1280:	4770      	bx	lr
    1282:	bf00      	nop
    1284:	200022c0 	.word	0x200022c0

00001288 <check_bits_range_fail>:
    1288:	280f      	cmp	r0, #15
    128a:	bf94      	ite	ls
    128c:	22a7      	movls	r2, #167	; 0xa7
    128e:	22ad      	movhi	r2, #173	; 0xad
    1290:	4b01      	ldr	r3, [pc, #4]	; (1298 <check_bits_range_fail+0x10>)
    1292:	62da      	str	r2, [r3, #44]	; 0x2c
    1294:	4770      	bx	lr
    1296:	bf00      	nop
    1298:	200022c0 	.word	0x200022c0

0000129c <check_mskd_range_pass>:
    129c:	281f      	cmp	r0, #31
    129e:	bf94      	ite	ls
    12a0:	22b3      	movls	r2, #179	; 0xb3
    12a2:	22b5      	movhi	r2, #181	; 0xb5
    12a4:	4b01      	ldr	r3, [pc, #4]	; (12ac <check_mskd_range_pass+0x10>)
    12a6:	62da      	str	r2, [r3, #44]	; 0x2c
    12a8:	4770      	bx	lr
    12aa:	bf00      	nop
    12ac:	200022c0 	.word	0x200022c0

000012b0 <check_mskd_range_fail>:
    12b0:	281f      	cmp	r0, #31
    12b2:	bf94      	ite	ls
    12b4:	22bf      	movls	r2, #191	; 0xbf
    12b6:	22c1      	movhi	r2, #193	; 0xc1
    12b8:	4b01      	ldr	r3, [pc, #4]	; (12c0 <check_mskd_range_fail+0x10>)
    12ba:	62da      	str	r2, [r3, #44]	; 0x2c
    12bc:	4770      	bx	lr
    12be:	bf00      	nop
    12c0:	200022c0 	.word	0x200022c0

000012c4 <bits_extract_ne>:
    12c4:	2100      	movs	r1, #0
    12c6:	4b08      	ldr	r3, [pc, #32]	; (12e8 <bits_extract_ne+0x24>)
    12c8:	685a      	ldr	r2, [r3, #4]
    12ca:	f042 0220 	orr.w	r2, r2, #32
    12ce:	605a      	str	r2, [r3, #4]
    12d0:	685a      	ldr	r2, [r3, #4]
    12d2:	6059      	str	r1, [r3, #4]
    12d4:	0692      	lsls	r2, r2, #26
    12d6:	bf54      	ite	pl
    12d8:	2101      	movpl	r1, #1
    12da:	2102      	movmi	r1, #2
    12dc:	685a      	ldr	r2, [r3, #4]
    12de:	f361 0242 	bfi	r2, r1, #1, #2
    12e2:	605a      	str	r2, [r3, #4]
    12e4:	4770      	bx	lr
    12e6:	bf00      	nop
    12e8:	20002480 	.word	0x20002480

000012ec <mskd_extract_geq>:
    12ec:	2200      	movs	r2, #0
    12ee:	b410      	push	{r4}
    12f0:	240b      	movs	r4, #11
    12f2:	4b0e      	ldr	r3, [pc, #56]	; (132c <mskd_extract_geq+0x40>)
    12f4:	480e      	ldr	r0, [pc, #56]	; (1330 <mskd_extract_geq+0x44>)
    12f6:	605a      	str	r2, [r3, #4]
    12f8:	6859      	ldr	r1, [r3, #4]
    12fa:	f364 615d 	bfi	r1, r4, #25, #5
    12fe:	6059      	str	r1, [r3, #4]
    1300:	685b      	ldr	r3, [r3, #4]
    1302:	6042      	str	r2, [r0, #4]
    1304:	f3c3 6244 	ubfx	r2, r3, #25, #5
    1308:	2a09      	cmp	r2, #9
    130a:	d901      	bls.n	1310 <mskd_extract_geq+0x24>
    130c:	2a0a      	cmp	r2, #10
    130e:	d806      	bhi.n	131e <mskd_extract_geq+0x32>
    1310:	4a07      	ldr	r2, [pc, #28]	; (1330 <mskd_extract_geq+0x44>)
    1312:	6853      	ldr	r3, [r2, #4]
    1314:	f043 0340 	orr.w	r3, r3, #64	; 0x40
    1318:	6053      	str	r3, [r2, #4]
    131a:	bc10      	pop	{r4}
    131c:	4770      	bx	lr
    131e:	6843      	ldr	r3, [r0, #4]
    1320:	f043 0320 	orr.w	r3, r3, #32
    1324:	6043      	str	r3, [r0, #4]
    1326:	bc10      	pop	{r4}
    1328:	4770      	bx	lr
    132a:	bf00      	nop
    132c:	200023e0 	.word	0x200023e0
    1330:	20002480 	.word	0x20002480

00001334 <shifted_val>:
    1334:	2200      	movs	r2, #0
    1336:	2117      	movs	r1, #23
    1338:	4b06      	ldr	r3, [pc, #24]	; (1354 <shifted_val+0x20>)
    133a:	2801      	cmp	r0, #1
    133c:	605a      	str	r2, [r3, #4]
    133e:	685a      	ldr	r2, [r3, #4]
    1340:	f361 625d 	bfi	r2, r1, #25, #5
    1344:	605a      	str	r2, [r3, #4]
    1346:	d104      	bne.n	1352 <shifted_val+0x1e>
    1348:	685b      	ldr	r3, [r3, #4]
    134a:	4a03      	ldr	r2, [pc, #12]	; (1358 <shifted_val+0x24>)
    134c:	f3c3 6344 	ubfx	r3, r3, #25, #5
    1350:	62d3      	str	r3, [r2, #44]	; 0x2c
    1352:	4770      	bx	lr
    1354:	200023e0 	.word	0x200023e0
    1358:	200022c0 	.word	0x200022c0

0000135c <shifted_ref>:
    135c:	2200      	movs	r2, #0
    135e:	2117      	movs	r1, #23
    1360:	4b07      	ldr	r3, [pc, #28]	; (1380 <shifted_ref+0x24>)
    1362:	605a      	str	r2, [r3, #4]
    1364:	685a      	ldr	r2, [r3, #4]
    1366:	f361 625d 	bfi	r2, r1, #25, #5
    136a:	605a      	str	r2, [r3, #4]
    136c:	6802      	ldr	r2, [r0, #0]
    136e:	2a01      	cmp	r2, #1
    1370:	d104      	bne.n	137c <shifted_ref+0x20>
    1372:	685b      	ldr	r3, [r3, #4]
    1374:	4a03      	ldr	r2, [pc, #12]	; (1384 <shifted_ref+0x28>)
    1376:	f3c3 6344 	ubfx	r3, r3, #25, #5
    137a:	62d3      	str	r3, [r2, #44]	; 0x2c
    137c:	4770      	bx	lr
    137e:	bf00      	nop
    1380:	200023e0 	.word	0x200023e0
    1384:	200022c0 	.word	0x200022c0

00001388 <copy_bits_val>:
    1388:	2200      	movs	r2, #0
    138a:	4b07      	ldr	r3, [pc, #28]	; (13a8 <copy_bits_val+0x20>)
    138c:	2801      	cmp	r0, #1
    138e:	605a      	str	r2, [r3, #4]
    1390:	d005      	beq.n	139e <copy_bits_val+0x16>
    1392:	2102      	movs	r1, #2
    1394:	685a      	ldr	r2, [r3, #4]
    1396:	f361 0242 	bfi	r2, r1, #1, #2
    139a:	605a      	str	r2, [r3, #4]
    139c:	4770      	bx	lr
    139e:	685a      	ldr	r2, [r3, #4]
    13a0:	f360 0242 	bfi	r2, r0, #1, #2
    13a4:	605a      	str	r2, [r3, #4]
    13a6:	4770      	bx	lr
    13a8:	20002480 	.word	0x20002480

000013ac <call_copy_bits_val>:
    13ac:	2200      	movs	r2, #0
    13ae:	4b05      	ldr	r3, [pc, #20]	; (13c4 <call_copy_bits_val+0x18>)
    13b0:	605a      	str	r2, [r3, #4]
    13b2:	685a      	ldr	r2, [r3, #4]
    13b4:	f042 0240 	orr.w	r2, r2, #64	; 0x40
    13b8:	605a      	str	r2, [r3, #4]
    13ba:	6858      	ldr	r0, [r3, #4]
    13bc:	f3c0 1080 	ubfx	r0, r0, #6, #1
    13c0:	f7ff bffe 	b.w	1388 <copy_bits_val>
    13c4:	20002480 	.word	0x20002480

000013c8 <copy_bits_ref>:
    13c8:	2200      	movs	r2, #0
    13ca:	4b08      	ldr	r3, [pc, #32]	; (13ec <copy_bits_ref+0x24>)
    13cc:	605a      	str	r2, [r3, #4]
    13ce:	6802      	ldr	r2, [r0, #0]
    13d0:	2a01      	cmp	r2, #1
    13d2:	d005      	beq.n	13e0 <copy_bits_ref+0x18>
    13d4:	2102      	movs	r1, #2
    13d6:	685a      	ldr	r2, [r3, #4]
    13d8:	f361 0242 	bfi	r2, r1, #1, #2
    13dc:	605a      	str	r2, [r3, #4]
    13de:	4770      	bx	lr
    13e0:	6859      	ldr	r1, [r3, #4]
    13e2:	f362 0142 	bfi	r1, r2, #1, #2
    13e6:	6059      	str	r1, [r3, #4]
    13e8:	4770      	bx	lr
    13ea:	bf00      	nop
    13ec:	20002480 	.word	0x20002480

000013f0 <call_copy_bits_ref>:
    13f0:	2200      	movs	r2, #0
    13f2:	b500      	push	{lr}
    13f4:	4b08      	ldr	r3, [pc, #32]	; (1418 <call_copy_bits_ref+0x28>)
    13f6:	b081      	sub	sp, #4
    13f8:	605a      	str	r2, [r3, #4]
    13fa:	685a      	ldr	r2, [r3, #4]
    13fc:	4668      	mov	r0, sp
    13fe:	f042 0240 	orr.w	r2, r2, #64	; 0x40
    1402:	605a      	str	r2, [r3, #4]
    1404:	685b      	ldr	r3, [r3, #4]
    1406:	f3c3 1380 	ubfx	r3, r3, #6, #1
    140a:	9300      	str	r3, [sp, #0]
    140c:	f7ff fffe 	bl	13c8 <copy_bits_ref>
    1410:	b001      	add	sp, #4
    1412:	f85d fb04 	ldr.w	pc, [sp], #4
    1416:	bf00      	nop
    1418:	20002480 	.word	0x20002480

0000141c <run>:
    141c:	b570      	push	{r4, r5, r6, lr}
    141e:	4cd3      	ldr	r4, [pc, #844]	; (176c <run+0x350>)
    1420:	2200      	movs	r2, #0
    1422:	4621      	mov	r1, r4
    1424:	48d2      	ldr	r0, [pc, #840]	; (1770 <run+0x354>)
    1426:	f7ff fffe 	bl	0 <do_test>
    142a:	4621      	mov	r1, r4
    142c:	2201      	movs	r2, #1
    142e:	48d1      	ldr	r0, [pc, #836]	; (1774 <run+0x358>)
    1430:	f7ff fffe 	bl	0 <do_test>
    1434:	4621      	mov	r1, r4
    1436:	2202      	movs	r2, #2
    1438:	48cf      	ldr	r0, [pc, #828]	; (1778 <run+0x35c>)
    143a:	f7ff fffe 	bl	0 <do_test>
    143e:	4621      	mov	r1, r4
    1440:	2203      	movs	r2, #3
    1442:	48ce      	ldr	r0, [pc, #824]	; (177c <run+0x360>)
    1444:	f7ff fffe 	bl	0 <do_test>
    1448:	4621      	mov	r1, r4
    144a:	2204      	movs	r2, #4
    144c:	48cc      	ldr	r0, [pc, #816]	; (1780 <run+0x364>)
    144e:	f7ff fffe 	bl	0 <do_test>
    1452:	4621      	mov	r1, r4
    1454:	2205      	movs	r2, #5
    1456:	48cb      	ldr	r0, [pc, #812]	; (1784 <run+0x368>)
    1458:	f7ff fffe 	bl	0 <do_test>
    145c:	4621      	mov	r1, r4
    145e:	2206      	movs	r2, #6
    1460:	48c9      	ldr	r0, [pc, #804]	; (1788 <run+0x36c>)
    1462:	f7ff fffe 	bl	0 <do_test>
    1466:	4621      	mov	r1, r4
    1468:	2207      	movs	r2, #7
    146a:	48c8      	ldr	r0, [pc, #800]	; (178c <run+0x370>)
    146c:	f7ff fffe 	bl	0 <do_test>
    1470:	4621      	mov	r1, r4
    1472:	2208      	movs	r2, #8
    1474:	48c6      	ldr	r0, [pc, #792]	; (1790 <run+0x374>)
    1476:	f7ff fffe 	bl	0 <do_test>
    147a:	4621      	mov	r1, r4
    147c:	2209      	movs	r2, #9
    147e:	48c5      	ldr	r0, [pc, #788]	; (1794 <run+0x378>)
    1480:	f7ff fffe 	bl	0 <do_test>
    1484:	4621      	mov	r1, r4
    1486:	220a      	movs	r2, #10
    1488:	48c3      	ldr	r0, [pc, #780]	; (1798 <run+0x37c>)
    148a:	f7ff fffe 	bl	0 <do_test>
    148e:	4621      	mov	r1, r4
    1490:	220b      	movs	r2, #11
    1492:	48c2      	ldr	r0, [pc, #776]	; (179c <run+0x380>)
    1494:	f7ff fffe 	bl	0 <do_test>
    1498:	4621      	mov	r1, r4
    149a:	220c      	movs	r2, #12
    149c:	48c0      	ldr	r0, [pc, #768]	; (17a0 <run+0x384>)
    149e:	f7ff fffe 	bl	0 <do_test>
    14a2:	4621      	mov	r1, r4
    14a4:	220d      	movs	r2, #13
    14a6:	48bf      	ldr	r0, [pc, #764]	; (17a4 <run+0x388>)
    14a8:	f7ff fffe 	bl	0 <do_test>
    14ac:	4621      	mov	r1, r4
    14ae:	220e      	movs	r2, #14
    14b0:	48bd      	ldr	r0, [pc, #756]	; (17a8 <run+0x38c>)
    14b2:	f7ff fffe 	bl	0 <do_test>
    14b6:	4621      	mov	r1, r4
    14b8:	220f      	movs	r2, #15
    14ba:	48bc      	ldr	r0, [pc, #752]	; (17ac <run+0x390>)
    14bc:	f7ff fffe 	bl	0 <do_test>
    14c0:	4621      	mov	r1, r4
    14c2:	2210      	movs	r2, #16
    14c4:	48ba      	ldr	r0, [pc, #744]	; (17b0 <run+0x394>)
    14c6:	f7ff fffe 	bl	0 <do_test>
    14ca:	4621      	mov	r1, r4
    14cc:	2211      	movs	r2, #17
    14ce:	48b9      	ldr	r0, [pc, #740]	; (17b4 <run+0x398>)
    14d0:	f7ff fffe 	bl	0 <do_test>
    14d4:	4621      	mov	r1, r4
    14d6:	2212      	movs	r2, #18
    14d8:	48b7      	ldr	r0, [pc, #732]	; (17b8 <run+0x39c>)
    14da:	f7ff fffe 	bl	0 <do_test>
    14de:	4621      	mov	r1, r4
    14e0:	2213      	movs	r2, #19
    14e2:	48b6      	ldr	r0, [pc, #728]	; (17bc <run+0x3a0>)
    14e4:	f7ff fffe 	bl	0 <do_test>
    14e8:	4621      	mov	r1, r4
    14ea:	2214      	movs	r2, #20
    14ec:	48b4      	ldr	r0, [pc, #720]	; (17c0 <run+0x3a4>)
    14ee:	f7ff fffe 	bl	0 <do_test>
    14f2:	4621      	mov	r1, r4
    14f4:	2215      	movs	r2, #21
    14f6:	48b3      	ldr	r0, [pc, #716]	; (17c4 <run+0x3a8>)
    14f8:	f7ff fffe 	bl	0 <do_test>
    14fc:	4621      	mov	r1, r4
    14fe:	2216      	movs	r2, #22
    1500:	48b1      	ldr	r0, [pc, #708]	; (17c8 <run+0x3ac>)
    1502:	f7ff fffe 	bl	0 <do_test>
    1506:	4621      	mov	r1, r4
    1508:	2217      	movs	r2, #23
    150a:	48b0      	ldr	r0, [pc, #704]	; (17cc <run+0x3b0>)
    150c:	f7ff fffe 	bl	0 <do_test>
    1510:	4621      	mov	r1, r4
    1512:	2218      	movs	r2, #24
    1514:	48ae      	ldr	r0, [pc, #696]	; (17d0 <run+0x3b4>)
    1516:	f7ff fffe 	bl	0 <do_test>
    151a:	4621      	mov	r1, r4
    151c:	2219      	movs	r2, #25
    151e:	48ad      	ldr	r0, [pc, #692]	; (17d4 <run+0x3b8>)
    1520:	f7ff fffe 	bl	0 <do_test>
    1524:	4621      	mov	r1, r4
    1526:	221a      	movs	r2, #26
    1528:	48ab      	ldr	r0, [pc, #684]	; (17d8 <run+0x3bc>)
    152a:	f7ff fffe 	bl	0 <do_test>
    152e:	4621      	mov	r1, r4
    1530:	221b      	movs	r2, #27
    1532:	48aa      	ldr	r0, [pc, #680]	; (17dc <run+0x3c0>)
    1534:	f7ff fffe 	bl	0 <do_test>
    1538:	4621      	mov	r1, r4
    153a:	221c      	movs	r2, #28
    153c:	48a8      	ldr	r0, [pc, #672]	; (17e0 <run+0x3c4>)
    153e:	f7ff fffe 	bl	0 <do_test>
    1542:	4621      	mov	r1, r4
    1544:	221d      	movs	r2, #29
    1546:	48a7      	ldr	r0, [pc, #668]	; (17e4 <run+0x3c8>)
    1548:	f7ff fffe 	bl	0 <do_test>
    154c:	4621      	mov	r1, r4
    154e:	221e      	movs	r2, #30
    1550:	48a5      	ldr	r0, [pc, #660]	; (17e8 <run+0x3cc>)
    1552:	f7ff fffe 	bl	0 <do_test>
    1556:	4621      	mov	r1, r4
    1558:	221f      	movs	r2, #31
    155a:	48a4      	ldr	r0, [pc, #656]	; (17ec <run+0x3d0>)
    155c:	f7ff fffe 	bl	0 <do_test>
    1560:	4621      	mov	r1, r4
    1562:	2220      	movs	r2, #32
    1564:	48a2      	ldr	r0, [pc, #648]	; (17f0 <run+0x3d4>)
    1566:	f7ff fffe 	bl	0 <do_test>
    156a:	4621      	mov	r1, r4
    156c:	2221      	movs	r2, #33	; 0x21
    156e:	48a1      	ldr	r0, [pc, #644]	; (17f4 <run+0x3d8>)
    1570:	f7ff fffe 	bl	0 <do_test>
    1574:	4621      	mov	r1, r4
    1576:	2222      	movs	r2, #34	; 0x22
    1578:	489f      	ldr	r0, [pc, #636]	; (17f8 <run+0x3dc>)
    157a:	f7ff fffe 	bl	0 <do_test>
    157e:	4621      	mov	r1, r4
    1580:	2223      	movs	r2, #35	; 0x23
    1582:	489e      	ldr	r0, [pc, #632]	; (17fc <run+0x3e0>)
    1584:	f7ff fffe 	bl	0 <do_test>
    1588:	4621      	mov	r1, r4
    158a:	2224      	movs	r2, #36	; 0x24
    158c:	489c      	ldr	r0, [pc, #624]	; (1800 <run+0x3e4>)
    158e:	f7ff fffe 	bl	0 <do_test>
    1592:	4621      	mov	r1, r4
    1594:	2225      	movs	r2, #37	; 0x25
    1596:	489b      	ldr	r0, [pc, #620]	; (1804 <run+0x3e8>)
    1598:	f7ff fffe 	bl	0 <do_test>
    159c:	4621      	mov	r1, r4
    159e:	2226      	movs	r2, #38	; 0x26
    15a0:	4899      	ldr	r0, [pc, #612]	; (1808 <run+0x3ec>)
    15a2:	f7ff fffe 	bl	0 <do_test>
    15a6:	4621      	mov	r1, r4
    15a8:	2227      	movs	r2, #39	; 0x27
    15aa:	4898      	ldr	r0, [pc, #608]	; (180c <run+0x3f0>)
    15ac:	f7ff fffe 	bl	0 <do_test>
    15b0:	4621      	mov	r1, r4
    15b2:	2228      	movs	r2, #40	; 0x28
    15b4:	4896      	ldr	r0, [pc, #600]	; (1810 <run+0x3f4>)
    15b6:	f7ff fffe 	bl	0 <do_test>
    15ba:	4621      	mov	r1, r4
    15bc:	2229      	movs	r2, #41	; 0x29
    15be:	4895      	ldr	r0, [pc, #596]	; (1814 <run+0x3f8>)
    15c0:	f7ff fffe 	bl	0 <do_test>
    15c4:	4621      	mov	r1, r4
    15c6:	222a      	movs	r2, #42	; 0x2a
    15c8:	4893      	ldr	r0, [pc, #588]	; (1818 <run+0x3fc>)
    15ca:	f7ff fffe 	bl	0 <do_test>
    15ce:	222b      	movs	r2, #43	; 0x2b
    15d0:	4992      	ldr	r1, [pc, #584]	; (181c <run+0x400>)
    15d2:	4893      	ldr	r0, [pc, #588]	; (1820 <run+0x404>)
    15d4:	f7ff fffe 	bl	0 <do_test>
    15d8:	4621      	mov	r1, r4
    15da:	222c      	movs	r2, #44	; 0x2c
    15dc:	4891      	ldr	r0, [pc, #580]	; (1824 <run+0x408>)
    15de:	f7ff fffe 	bl	0 <do_test>
    15e2:	4621      	mov	r1, r4
    15e4:	222d      	movs	r2, #45	; 0x2d
    15e6:	4890      	ldr	r0, [pc, #576]	; (1828 <run+0x40c>)
    15e8:	f7ff fffe 	bl	0 <do_test>
    15ec:	4621      	mov	r1, r4
    15ee:	222e      	movs	r2, #46	; 0x2e
    15f0:	488e      	ldr	r0, [pc, #568]	; (182c <run+0x410>)
    15f2:	f7ff fffe 	bl	0 <do_test>
    15f6:	4621      	mov	r1, r4
    15f8:	222f      	movs	r2, #47	; 0x2f
    15fa:	488d      	ldr	r0, [pc, #564]	; (1830 <run+0x414>)
    15fc:	f7ff fffe 	bl	0 <do_test>
    1600:	4621      	mov	r1, r4
    1602:	2230      	movs	r2, #48	; 0x30
    1604:	488b      	ldr	r0, [pc, #556]	; (1834 <run+0x418>)
    1606:	f7ff fffe 	bl	0 <do_test>
    160a:	4621      	mov	r1, r4
    160c:	2231      	movs	r2, #49	; 0x31
    160e:	488a      	ldr	r0, [pc, #552]	; (1838 <run+0x41c>)
    1610:	f7ff fffe 	bl	0 <do_test>
    1614:	4621      	mov	r1, r4
    1616:	2232      	movs	r2, #50	; 0x32
    1618:	4888      	ldr	r0, [pc, #544]	; (183c <run+0x420>)
    161a:	f7ff fffe 	bl	0 <do_test>
    161e:	4621      	mov	r1, r4
    1620:	2233      	movs	r2, #51	; 0x33
    1622:	4887      	ldr	r0, [pc, #540]	; (1840 <run+0x424>)
    1624:	f7ff fffe 	bl	0 <do_test>
    1628:	4621      	mov	r1, r4
    162a:	2234      	movs	r2, #52	; 0x34
    162c:	4885      	ldr	r0, [pc, #532]	; (1844 <run+0x428>)
    162e:	f7ff fffe 	bl	0 <do_test>
    1632:	4621      	mov	r1, r4
    1634:	2235      	movs	r2, #53	; 0x35
    1636:	4884      	ldr	r0, [pc, #528]	; (1848 <run+0x42c>)
    1638:	f7ff fffe 	bl	0 <do_test>
    163c:	4621      	mov	r1, r4
    163e:	2236      	movs	r2, #54	; 0x36
    1640:	4882      	ldr	r0, [pc, #520]	; (184c <run+0x430>)
    1642:	f7ff fffe 	bl	0 <do_test>
    1646:	4621      	mov	r1, r4
    1648:	2237      	movs	r2, #55	; 0x37
    164a:	4881      	ldr	r0, [pc, #516]	; (1850 <run+0x434>)
    164c:	f7ff fffe 	bl	0 <do_test>
    1650:	4621      	mov	r1, r4
    1652:	2238      	movs	r2, #56	; 0x38
    1654:	487f      	ldr	r0, [pc, #508]	; (1854 <run+0x438>)
    1656:	f7ff fffe 	bl	0 <do_test>
    165a:	4621      	mov	r1, r4
    165c:	2239      	movs	r2, #57	; 0x39
    165e:	487e      	ldr	r0, [pc, #504]	; (1858 <run+0x43c>)
    1660:	f7ff fffe 	bl	0 <do_test>
    1664:	4621      	mov	r1, r4
    1666:	223a      	movs	r2, #58	; 0x3a
    1668:	487c      	ldr	r0, [pc, #496]	; (185c <run+0x440>)
    166a:	f7ff fffe 	bl	0 <do_test>
    166e:	4621      	mov	r1, r4
    1670:	223b      	movs	r2, #59	; 0x3b
    1672:	487b      	ldr	r0, [pc, #492]	; (1860 <run+0x444>)
    1674:	f7ff fffe 	bl	0 <do_test>
    1678:	4e7a      	ldr	r6, [pc, #488]	; (1864 <run+0x448>)
    167a:	4621      	mov	r1, r4
    167c:	223c      	movs	r2, #60	; 0x3c
    167e:	487a      	ldr	r0, [pc, #488]	; (1868 <run+0x44c>)
    1680:	f7ff fffe 	bl	0 <do_test>
    1684:	4621      	mov	r1, r4
    1686:	223d      	movs	r2, #61	; 0x3d
    1688:	4878      	ldr	r0, [pc, #480]	; (186c <run+0x450>)
    168a:	f7ff fffe 	bl	0 <do_test>
    168e:	4631      	mov	r1, r6
    1690:	223e      	movs	r2, #62	; 0x3e
    1692:	4877      	ldr	r0, [pc, #476]	; (1870 <run+0x454>)
    1694:	f7ff fffe 	bl	0 <do_test>
    1698:	4631      	mov	r1, r6
    169a:	223f      	movs	r2, #63	; 0x3f
    169c:	4875      	ldr	r0, [pc, #468]	; (1874 <run+0x458>)
    169e:	4d76      	ldr	r5, [pc, #472]	; (1878 <run+0x45c>)
    16a0:	f7ff fffe 	bl	0 <do_test>
    16a4:	4631      	mov	r1, r6
    16a6:	2240      	movs	r2, #64	; 0x40
    16a8:	4874      	ldr	r0, [pc, #464]	; (187c <run+0x460>)
    16aa:	f7ff fffe 	bl	0 <do_test>
    16ae:	4621      	mov	r1, r4
    16b0:	2241      	movs	r2, #65	; 0x41
    16b2:	4873      	ldr	r0, [pc, #460]	; (1880 <run+0x464>)
    16b4:	f7ff fffe 	bl	0 <do_test>
    16b8:	4629      	mov	r1, r5
    16ba:	2242      	movs	r2, #66	; 0x42
    16bc:	4871      	ldr	r0, [pc, #452]	; (1884 <run+0x468>)
    16be:	f7ff fffe 	bl	0 <do_test>
    16c2:	4629      	mov	r1, r5
    16c4:	2243      	movs	r2, #67	; 0x43
    16c6:	4870      	ldr	r0, [pc, #448]	; (1888 <run+0x46c>)
    16c8:	f7ff fffe 	bl	0 <do_test>
    16cc:	4621      	mov	r1, r4
    16ce:	2244      	movs	r2, #68	; 0x44
    16d0:	486e      	ldr	r0, [pc, #440]	; (188c <run+0x470>)
    16d2:	f7ff fffe 	bl	0 <do_test>
    16d6:	4621      	mov	r1, r4
    16d8:	2245      	movs	r2, #69	; 0x45
    16da:	486d      	ldr	r0, [pc, #436]	; (1890 <run+0x474>)
    16dc:	f7ff fffe 	bl	0 <do_test>
    16e0:	4629      	mov	r1, r5
    16e2:	2246      	movs	r2, #70	; 0x46
    16e4:	486b      	ldr	r0, [pc, #428]	; (1894 <run+0x478>)
    16e6:	f7ff fffe 	bl	0 <do_test>
    16ea:	4629      	mov	r1, r5
    16ec:	2247      	movs	r2, #71	; 0x47
    16ee:	486a      	ldr	r0, [pc, #424]	; (1898 <run+0x47c>)
    16f0:	f7ff fffe 	bl	0 <do_test>
    16f4:	4621      	mov	r1, r4
    16f6:	2248      	movs	r2, #72	; 0x48
    16f8:	4868      	ldr	r0, [pc, #416]	; (189c <run+0x480>)
    16fa:	f7ff fffe 	bl	0 <do_test>
    16fe:	4621      	mov	r1, r4
    1700:	2249      	movs	r2, #73	; 0x49
    1702:	4867      	ldr	r0, [pc, #412]	; (18a0 <run+0x484>)
    1704:	f7ff fffe 	bl	0 <do_test>
    1708:	4621      	mov	r1, r4
    170a:	224a      	movs	r2, #74	; 0x4a
    170c:	4865      	ldr	r0, [pc, #404]	; (18a4 <run+0x488>)
    170e:	f7ff fffe 	bl	0 <do_test>
    1712:	4621      	mov	r1, r4
    1714:	224b      	movs	r2, #75	; 0x4b
    1716:	4864      	ldr	r0, [pc, #400]	; (18a8 <run+0x48c>)
    1718:	f7ff fffe 	bl	0 <do_test>
    171c:	4e63      	ldr	r6, [pc, #396]	; (18ac <run+0x490>)
    171e:	4621      	mov	r1, r4
    1720:	224c      	movs	r2, #76	; 0x4c
    1722:	4863      	ldr	r0, [pc, #396]	; (18b0 <run+0x494>)
    1724:	f7ff fffe 	bl	0 <do_test>
    1728:	4621      	mov	r1, r4
    172a:	224d      	movs	r2, #77	; 0x4d
    172c:	4861      	ldr	r0, [pc, #388]	; (18b4 <run+0x498>)
    172e:	f7ff fffe 	bl	0 <do_test>
    1732:	4621      	mov	r1, r4
    1734:	4630      	mov	r0, r6
    1736:	224e      	movs	r2, #78	; 0x4e
    1738:	f7ff fffe 	bl	0 <do_test>
    173c:	4630      	mov	r0, r6
    173e:	4621      	mov	r1, r4
    1740:	224f      	movs	r2, #79	; 0x4f
    1742:	f7ff fffe 	bl	0 <do_test>
    1746:	4621      	mov	r1, r4
    1748:	2250      	movs	r2, #80	; 0x50
    174a:	485b      	ldr	r0, [pc, #364]	; (18b8 <run+0x49c>)
    174c:	f7ff fffe 	bl	0 <do_test>
    1750:	4e5a      	ldr	r6, [pc, #360]	; (18bc <run+0x4a0>)
    1752:	4621      	mov	r1, r4
    1754:	2251      	movs	r2, #81	; 0x51
    1756:	485a      	ldr	r0, [pc, #360]	; (18c0 <run+0x4a4>)
    1758:	f7ff fffe 	bl	0 <do_test>
    175c:	4621      	mov	r1, r4
    175e:	2252      	movs	r2, #82	; 0x52
    1760:	4858      	ldr	r0, [pc, #352]	; (18c4 <run+0x4a8>)
    1762:	f7ff fffe 	bl	0 <do_test>
    1766:	4621      	mov	r1, r4
    1768:	e0ae      	b.n	18c8 <run+0x4ac>
    176a:	bf00      	nop
    176c:	20002484 	.word	0x20002484
	...
    181c:	20002360 	.word	0x20002360
	...
    1864:	200023e4 	.word	0x200023e4
	...
    1878:	200022ec 	.word	0x200022ec
	...
    18c8:	4630      	mov	r0, r6
    18ca:	2253      	movs	r2, #83	; 0x53
    18cc:	f7ff fffe 	bl	0 <do_test>
    18d0:	4621      	mov	r1, r4
    18d2:	2254      	movs	r2, #84	; 0x54
    18d4:	484a      	ldr	r0, [pc, #296]	; (1a00 <run+0x5e4>)
    18d6:	f7ff fffe 	bl	0 <do_test>
    18da:	4630      	mov	r0, r6
    18dc:	4621      	mov	r1, r4
    18de:	2255      	movs	r2, #85	; 0x55
    18e0:	f7ff fffe 	bl	0 <do_test>
    18e4:	4621      	mov	r1, r4
    18e6:	2256      	movs	r2, #86	; 0x56
    18e8:	4846      	ldr	r0, [pc, #280]	; (1a04 <run+0x5e8>)
    18ea:	f7ff fffe 	bl	0 <do_test>
    18ee:	4621      	mov	r1, r4
    18f0:	2257      	movs	r2, #87	; 0x57
    18f2:	4845      	ldr	r0, [pc, #276]	; (1a08 <run+0x5ec>)
    18f4:	f7ff fffe 	bl	0 <do_test>
    18f8:	4629      	mov	r1, r5
    18fa:	2258      	movs	r2, #88	; 0x58
    18fc:	4843      	ldr	r0, [pc, #268]	; (1a0c <run+0x5f0>)
    18fe:	f7ff fffe 	bl	0 <do_test>
    1902:	4629      	mov	r1, r5
    1904:	2259      	movs	r2, #89	; 0x59
    1906:	4842      	ldr	r0, [pc, #264]	; (1a10 <run+0x5f4>)
    1908:	f7ff fffe 	bl	0 <do_test>
    190c:	4621      	mov	r1, r4
    190e:	225a      	movs	r2, #90	; 0x5a
    1910:	4840      	ldr	r0, [pc, #256]	; (1a14 <run+0x5f8>)
    1912:	f7ff fffe 	bl	0 <do_test>
    1916:	4629      	mov	r1, r5
    1918:	225b      	movs	r2, #91	; 0x5b
    191a:	483f      	ldr	r0, [pc, #252]	; (1a18 <run+0x5fc>)
    191c:	f7ff fffe 	bl	0 <do_test>
    1920:	4629      	mov	r1, r5
    1922:	225c      	movs	r2, #92	; 0x5c
    1924:	483d      	ldr	r0, [pc, #244]	; (1a1c <run+0x600>)
    1926:	f7ff fffe 	bl	0 <do_test>
    192a:	4621      	mov	r1, r4
    192c:	225d      	movs	r2, #93	; 0x5d
    192e:	483c      	ldr	r0, [pc, #240]	; (1a20 <run+0x604>)
    1930:	f7ff fffe 	bl	0 <do_test>
    1934:	4621      	mov	r1, r4
    1936:	225e      	movs	r2, #94	; 0x5e
    1938:	483a      	ldr	r0, [pc, #232]	; (1a24 <run+0x608>)
    193a:	f7ff fffe 	bl	0 <do_test>
    193e:	4621      	mov	r1, r4
    1940:	225f      	movs	r2, #95	; 0x5f
    1942:	4839      	ldr	r0, [pc, #228]	; (1a28 <run+0x60c>)
    1944:	f7ff fffe 	bl	0 <do_test>
    1948:	4621      	mov	r1, r4
    194a:	2260      	movs	r2, #96	; 0x60
    194c:	4837      	ldr	r0, [pc, #220]	; (1a2c <run+0x610>)
    194e:	f7ff fffe 	bl	0 <do_test>
    1952:	4629      	mov	r1, r5
    1954:	2261      	movs	r2, #97	; 0x61
    1956:	4836      	ldr	r0, [pc, #216]	; (1a30 <run+0x614>)
    1958:	f7ff fffe 	bl	0 <do_test>
    195c:	4629      	mov	r1, r5
    195e:	2262      	movs	r2, #98	; 0x62
    1960:	4834      	ldr	r0, [pc, #208]	; (1a34 <run+0x618>)
    1962:	f7ff fffe 	bl	0 <do_test>
    1966:	4629      	mov	r1, r5
    1968:	2263      	movs	r2, #99	; 0x63
    196a:	4833      	ldr	r0, [pc, #204]	; (1a38 <run+0x61c>)
    196c:	f7ff fffe 	bl	0 <do_test>
    1970:	4629      	mov	r1, r5
    1972:	2264      	movs	r2, #100	; 0x64
    1974:	4831      	ldr	r0, [pc, #196]	; (1a3c <run+0x620>)
    1976:	f7ff fffe 	bl	0 <do_test>
    197a:	4629      	mov	r1, r5
    197c:	2265      	movs	r2, #101	; 0x65
    197e:	4830      	ldr	r0, [pc, #192]	; (1a40 <run+0x624>)
    1980:	f7ff fffe 	bl	0 <do_test>
    1984:	4629      	mov	r1, r5
    1986:	2266      	movs	r2, #102	; 0x66
    1988:	482e      	ldr	r0, [pc, #184]	; (1a44 <run+0x628>)
    198a:	f7ff fffe 	bl	0 <do_test>
    198e:	4621      	mov	r1, r4
    1990:	2267      	movs	r2, #103	; 0x67
    1992:	482d      	ldr	r0, [pc, #180]	; (1a48 <run+0x62c>)
    1994:	f7ff fffe 	bl	0 <do_test>
    1998:	4621      	mov	r1, r4
    199a:	2268      	movs	r2, #104	; 0x68
    199c:	482b      	ldr	r0, [pc, #172]	; (1a4c <run+0x630>)
    199e:	f7ff fffe 	bl	0 <do_test>
    19a2:	4621      	mov	r1, r4
    19a4:	2269      	movs	r2, #105	; 0x69
    19a6:	482a      	ldr	r0, [pc, #168]	; (1a50 <run+0x634>)
    19a8:	f7ff fffe 	bl	0 <do_test>
    19ac:	4621      	mov	r1, r4
    19ae:	226a      	movs	r2, #106	; 0x6a
    19b0:	4828      	ldr	r0, [pc, #160]	; (1a54 <run+0x638>)
    19b2:	f7ff fffe 	bl	0 <do_test>
    19b6:	4621      	mov	r1, r4
    19b8:	226b      	movs	r2, #107	; 0x6b
    19ba:	4827      	ldr	r0, [pc, #156]	; (1a58 <run+0x63c>)
    19bc:	f7ff fffe 	bl	0 <do_test>
    19c0:	4621      	mov	r1, r4
    19c2:	226c      	movs	r2, #108	; 0x6c
    19c4:	4825      	ldr	r0, [pc, #148]	; (1a5c <run+0x640>)
    19c6:	f7ff fffe 	bl	0 <do_test>
    19ca:	4621      	mov	r1, r4
    19cc:	226d      	movs	r2, #109	; 0x6d
    19ce:	4824      	ldr	r0, [pc, #144]	; (1a60 <run+0x644>)
    19d0:	f7ff fffe 	bl	0 <do_test>
    19d4:	4621      	mov	r1, r4
    19d6:	226e      	movs	r2, #110	; 0x6e
    19d8:	4822      	ldr	r0, [pc, #136]	; (1a64 <run+0x648>)
    19da:	f7ff fffe 	bl	0 <do_test>
    19de:	4621      	mov	r1, r4
    19e0:	226f      	movs	r2, #111	; 0x6f
    19e2:	4821      	ldr	r0, [pc, #132]	; (1a68 <run+0x64c>)
    19e4:	f7ff fffe 	bl	0 <do_test>
    19e8:	4621      	mov	r1, r4
    19ea:	2270      	movs	r2, #112	; 0x70
    19ec:	481f      	ldr	r0, [pc, #124]	; (1a6c <run+0x650>)
    19ee:	f7ff fffe 	bl	0 <do_test>
    19f2:	4621      	mov	r1, r4
    19f4:	e8bd 4070 	ldmia.w	sp!, {r4, r5, r6, lr}
    19f8:	2271      	movs	r2, #113	; 0x71
    19fa:	481d      	ldr	r0, [pc, #116]	; (1a70 <run+0x654>)
    19fc:	f7ff bffe 	b.w	0 <do_test>
	...
