
Allocating common symbols
Common symbol       size              file

results             0x3a0             main.o

Discarded input sections

 .group         0x0000000000000000        0x8 struct.o
 .group         0x0000000000000000        0x8 struct.o
 .group         0x0000000000000000        0x8 struct.o
 .group         0x0000000000000000        0x8 struct.o
 .group         0x0000000000000000        0x8 struct.o
 .group         0x0000000000000000        0x8 struct.o
 .group         0x0000000000000000        0x8 struct.o
 .group         0x0000000000000000        0x8 struct.o
 .group         0x0000000000000000        0x8 struct.o
 .group         0x0000000000000000        0x8 main.o
 .group         0x0000000000000000        0x8 main.o
 .group         0x0000000000000000        0x8 main.o
 .group         0x0000000000000000        0x8 main.o
 .group         0x0000000000000000        0x8 main.o
 .group         0x0000000000000000        0x8 main.o
 .group         0x0000000000000000        0x8 main.o
 .group         0x0000000000000000        0x8 main.o
 .group         0x0000000000000000        0x8 main.o
 .group         0x0000000000000000        0x8 main.o
 .group         0x0000000000000000        0x8 main.o
 .debug_macro   0x0000000000000000      0xa7e main.o
 .debug_macro   0x0000000000000000       0x22 main.o
 .debug_macro   0x0000000000000000       0x8e main.o
 .debug_macro   0x0000000000000000       0x51 main.o
 .debug_macro   0x0000000000000000       0xef main.o
 .debug_macro   0x0000000000000000       0x6a main.o
 .debug_macro   0x0000000000000000      0x1df main.o
 .group         0x0000000000000000        0x8 stm32f103_ram_init.o
 .group         0x0000000000000000        0x8 stm32f103_ram_init.o
 .group         0x0000000000000000        0x8 stm32f103_ram_init.o
 .group         0x0000000000000000        0x8 stm32f103_ram_init.o
 .group         0x0000000000000000        0x8 stm32f103_ram_init.o
 .group         0x0000000000000000        0x8 stm32f103_ram_init.o
 .group         0x0000000000000000        0x8 stm32f103_ram_init.o
 .group         0x0000000000000000        0x8 stm32f103_ram_init.o
 .group         0x0000000000000000        0x8 stm32f103_ram_init.o
 .group         0x0000000000000000        0x8 stm32f103_ram_init.o
 .group         0x0000000000000000        0x8 stm32f103_ram_init.o
 .group         0x0000000000000000        0x8 stm32f103_ram_init.o
 .debug_macro   0x0000000000000000      0xa7e stm32f103_ram_init.o
 .debug_macro   0x0000000000000000       0x22 stm32f103_ram_init.o
 .debug_macro   0x0000000000000000       0x8e stm32f103_ram_init.o
 .debug_macro   0x0000000000000000       0x51 stm32f103_ram_init.o
 .debug_macro   0x0000000000000000       0xef stm32f103_ram_init.o
 .debug_macro   0x0000000000000000       0x6a stm32f103_ram_init.o
 .debug_macro   0x0000000000000000      0x1df stm32f103_ram_init.o
 .debug_macro   0x0000000000000000       0x3a stm32f103_ram_init.o
 .debug_macro   0x0000000000000000       0x34 stm32f103_ram_init.o
 .debug_macro   0x0000000000000000      0xb8e stm32f103_ram_init.o

Memory Configuration

Name             Origin             Length             Attributes
FLASH            0x0000000008000000 0x0000000000010000 xr
RAM              0x0000000020000000 0x0000000000005000 xrw
*default*        0x0000000000000000 0xffffffffffffffff

Linker script and memory map

LOAD struct.o
LOAD main.o
LOAD stm32f103_ram_init.o
                0x0000000020000000                . = ORIGIN (RAM)

.text           0x0000000020000000     0x124c
 *(.vectors)
 .vectors       0x0000000020000000       0xec stm32f103_ram_init.o
                0x0000000020000000                INTERRUPT_VECTORS
 *(.text)
 .text          0x00000000200000ec     0x1014 struct.o
                0x00000000200000ec                zero_reg
                0x00000000200000f8                zero_array
                0x0000000020000104                set_singl_bits_operator
                0x0000000020000114                set_singl_bits_method
                0x0000000020000124                clr_singl_bits_operator
                0x0000000020000134                clr_singl_bits_method
                0x0000000020000144                set_singl_mskd_operator
                0x0000000020000154                set_singl_mskd_method
                0x0000000020000164                clr_singl_mskd_operator
                0x0000000020000174                clr_singl_mskd_method
                0x0000000020000184                equ_singl_bits_operator
                0x0000000020000190                equ_singl_bits_method
                0x000000002000019c                equ_singl_mskd_operator
                0x00000000200001a8                equ_singl_mskd_method
                0x00000000200001b4                flp_singl_bits_operator
                0x00000000200001c4                flp_singl_bits_method
                0x00000000200001d4                flp_singl_mskd_operator
                0x00000000200001e4                flp_singl_mskd_method
                0x00000000200001f4                ins_singl_mskd_operator
                0x0000000020000208                ins_singl_mskd_method
                0x000000002000021c                set_multi_bits_operator
                0x000000002000022c                set_multi_bits_method
                0x000000002000023c                ins_multi_mskd_operator
                0x0000000020000254                ins_multi_mskd_method
                0x000000002000026c                equ_multi_bits_operator
                0x0000000020000278                equ_multi_bits_method
                0x0000000020000284                equ_multi_mskd_operator
                0x0000000020000294                equ_multi_mskd_method
                0x00000000200002a4                equ_bits_mskd_operator
                0x00000000200002b0                equ_bits_mskd_method
                0x00000000200002bc                equ_mskd_bits_operator
                0x00000000200002c8                equ_mskd_bits_method
                0x00000000200002d4                equ_bits_var
                0x00000000200002e4                equ_mskd_var
                0x00000000200002f8                cmp_equ_zero
                0x0000000020000320                cmp_neq_zero
                0x0000000020000340                cmp_equ_bits
                0x0000000020000364                cmp_neq_bits
                0x0000000020000380                cmp_equ_multi_bits
                0x00000000200003a4                cmp_neq_multi_bits
                0x00000000200003c8                cmp_equ_mskd
                0x00000000200003f8                cmp_neq_mskd
                0x0000000020000424                cmp_equ_reg
                0x0000000020000448                cmp_neq_reg
                0x0000000020000464                bits_val
                0x0000000020000474                call_bits_val_const
                0x0000000020000486                call_bits_val_var
                0x0000000020000498                constexpr_bits_array
                0x00000000200004ac                runtime_bits_array
                0x00000000200004d4                bits_ref
                0x00000000200004e4                call_bits_ref_const
                0x00000000200004f8                call_bits_ref_var
                0x000000002000050c                mskd_val
                0x0000000020000520                call_mskd_val_const
                0x0000000020000536                call_mskd_val_var
                0x000000002000054c                mskd_ref
                0x0000000020000564                call_mskd_ref_const
                0x0000000020000580                call_mskd_ref_var
                0x00000000200005a0                periph_bits
                0x00000000200005aa                call_periph_bits
                0x00000000200005bc                periph_bits_val
                0x00000000200005c4                call_periph_bits_val
                0x00000000200005d8                reg_bits_val
                0x00000000200005e0                call_reg_bits_val
                0x00000000200005f4                periph_bits_ref
                0x00000000200005fe                call_periph_bits_ref
                0x0000000020000618                reg_bits_ref
                0x0000000020000622                call_reg_bits_ref
                0x000000002000063c                periph_mskd
                0x000000002000064a                call_periph_mskd
                0x000000002000065c                periph_mskd_val
                0x0000000020000668                call_periph_mskd_val
                0x000000002000067c                reg_mskd_val
                0x0000000020000688                call_reg_mskd_val
                0x000000002000069c                periph_mskd_ref
                0x00000000200006ac                call_periph_mskd_ref
                0x00000000200006d4                reg_mskd_ref
                0x00000000200006e4                call_reg_mskd_ref
                0x000000002000070c                return_bits
                0x0000000020000710                call_return_bits
                0x0000000020000730                return_mskd
                0x000000002000073a                call_return_mskd
                0x0000000020000770                return_reg
                0x0000000020000784                call_return_reg
                0x00000000200007a4                return_periph
                0x00000000200007b0                call_return_periph
                0x00000000200007d0                pos_val
                0x00000000200007f0                call_pos_val
                0x0000000020000802                pos_ref
                0x0000000020000824                call_pos_ref
                0x0000000020000844                runtime_range_val
                0x0000000020000858                call_range_val
                0x000000002000086c                call_range_val_port
                0x0000000020000878                runtime_range_ref
                0x0000000020000890                call_range_ref
                0x00000000200008ac                call_range_ref_port
                0x00000000200008b8                check_array_range_pass
                0x00000000200008cc                check_array_range_fail
                0x00000000200008e0                check_bits_range_pass
                0x00000000200008f4                check_bits_range_fail
                0x0000000020000908                check_mskd_range_pass
                0x000000002000091c                check_mskd_range_fail
                0x0000000020000930                prescaler_low
                0x000000002000094c                prescaler_high
                0x0000000020000968                reg_mskd_lss
                0x0000000020000990                reg_mskd_leq
                0x00000000200009c8                reg_mskd_gtr
                0x00000000200009f0                reg_mskd_geq
                0x0000000020000a28                pos_cmp_eq
                0x0000000020000a34                pos_cmp_ne
                0x0000000020000a40                bits_extract_eq
                0x0000000020000a5c                bits_extract_ne
                0x0000000020000a78                mskd_extract_eq
                0x0000000020000a98                mskd_extract_ne
                0x0000000020000ab8                mskd_extract_lss
                0x0000000020000ae0                mskd_extract_leq
                0x0000000020000b04                mskd_extract_gtr
                0x0000000020000b2c                mskd_extract_geq
                0x0000000020000b50                set_bits_global
                0x0000000020000b60                ins_mskd_global
                0x0000000020000b74                assign_array_global
                0x0000000020000b80                shifted_global
                0x0000000020000b9c                assign_register_global
                0x0000000020000ba8                call_pos_val_global
                0x0000000020000bb4                call_pos_ref_global
                0x0000000020000bcc                call_bits_val_global
                0x0000000020000bd8                call_bits_ref_global
                0x0000000020000bec                call_mskd_val_global
                0x0000000020000bfa                call_mskd_ref_global
                0x0000000020000c1c                shifted_val
                0x0000000020000c38                call_shifted_const_val
                0x0000000020000c48                call_shifted_var_val
                0x0000000020000c58                call_shifted_global_val
                0x0000000020000c68                shifted_ref
                0x0000000020000c88                call_shifted_const_ref
                0x0000000020000ca8                call_shifted_var_ref
                0x0000000020000cc8                call_shifted_global_ref
                0x0000000020000ce8                copy_bits_equ
                0x0000000020000d04                copy_bits_neq
                0x0000000020000d20                copy_mskd_equ
                0x0000000020000d44                copy_mskd_neq
                0x0000000020000d68                copy_mskd_lss
                0x0000000020000d90                copy_mskd_leq
                0x0000000020000db4                copy_mskd_gtr
                0x0000000020000ddc                copy_mskd_geq
                0x0000000020000e00                copy_shifted
                0x0000000020000e24                copy_bits_val
                0x0000000020000e38                call_copy_bits_val
                0x0000000020000e50                copy_bits_ref
                0x0000000020000e68                call_copy_bits_ref
                0x0000000020000e88                run
 .text          0x0000000020001100       0x9c main.o
                0x0000000020001100                memset
                0x000000002000111e                do_test
                0x0000000020001190                main
 .text          0x000000002000119c       0xb0 stm32f103_ram_init.o
                0x000000002000119c                NMI_Handler
                0x000000002000119e                HardFault_Handler
                0x00000000200011a0                MemManage_Handler
                0x00000000200011a2                BusFault_Handler
                0x00000000200011a4                UsageFault_Handler
                0x00000000200011a6                Reserved1_Handler
                0x00000000200011a8                Reserved2_Handler
                0x00000000200011aa                Reserved3_Handler
                0x00000000200011ac                Reserved4_Handler
                0x00000000200011ae                SVCall_Handler
                0x00000000200011b0                Debug_Handler
                0x00000000200011b2                Reserved5_Handler
                0x00000000200011b4                PendSV_Handler
                0x00000000200011b6                SysTick_Handler
                0x00000000200011b8                WWDG_IRQHandler
                0x00000000200011ba                PVD_IRQHandler
                0x00000000200011bc                TAMPER_IRQHandler
                0x00000000200011be                RTC_IRQHandler
                0x00000000200011c0                FLASH_IRQHandler
                0x00000000200011c2                RCC_IRQHandler
                0x00000000200011c4                EXTI0_IRQHandler
                0x00000000200011c6                EXTI1_IRQHandler
                0x00000000200011c8                EXTI2_IRQHandler
                0x00000000200011ca                EXTI3_IRQHandler
                0x00000000200011cc                EXTI4_IRQHandler
                0x00000000200011ce                DMA1_Channel1_IRQHandler
                0x00000000200011d0                DMA1_Channel2_IRQHandler
                0x00000000200011d2                DMA1_Channel3_IRQHandler
                0x00000000200011d4                DMA1_Channel4_IRQHandler
                0x00000000200011d6                DMA1_Channel5_IRQHandler
                0x00000000200011d8                DMA1_Channel6_IRQHandler
                0x00000000200011da                DMA1_Channel7_IRQHandler
                0x00000000200011dc                ADC1_2_IRQHandler
                0x00000000200011de                USB_HP_CAN1_TX_IRQHandle
                0x00000000200011e0                USB_LP_CAN1_RX0_IRQHandler
                0x00000000200011e2                CAN1_RX1_IRQHandler
                0x00000000200011e4                CAN1_SCE_IRQHandler
                0x00000000200011e6                EXTI9_5_IRQHandler
                0x00000000200011e8                TIM1_BRK_IRQHandler
                0x00000000200011ea                TIM1_UP_IRQHandler
                0x00000000200011ec                TIM1_TRG_COM_IRQHandler
                0x00000000200011ee                TIM1_CC_IRQHandler
                0x00000000200011f0                TIM2_IRQHandler
                0x00000000200011f2                TIM3_IRQHandler
                0x00000000200011f4                TIM4_IRQHandler
                0x00000000200011f6                I2C1_EV_IRQHandler
                0x00000000200011f8                I2C1_ER_IRQHandler
                0x00000000200011fa                I2C2_EV_IRQHandler
                0x00000000200011fc                I2C2_ER_IRQHandler
                0x00000000200011fe                SPI1_IRQHandler
                0x0000000020001200                SPI2_IRQHandler
                0x0000000020001202                USART1_IRQHandler
                0x0000000020001204                USART2_IRQHandler
                0x0000000020001206                USART3_IRQHandler
                0x0000000020001208                EXTI15_10_IRQHandler
                0x000000002000120a                RTC_Alarm_IRQHandler
                0x000000002000120c                USBWakeUp_IRQHandler
                0x000000002000120e                init

.glue_7         0x000000002000124c        0x0
 .glue_7        0x000000002000124c        0x0 linker stubs

.glue_7t        0x000000002000124c        0x0
 .glue_7t       0x000000002000124c        0x0 linker stubs

.vfp11_veneer   0x000000002000124c        0x0
 .vfp11_veneer  0x000000002000124c        0x0 linker stubs

.v4_bx          0x000000002000124c        0x0
 .v4_bx         0x000000002000124c        0x0 linker stubs

.iplt           0x000000002000124c        0x0
 .iplt          0x000000002000124c        0x0 struct.o

.rodata         0x000000002000124c       0x18
 .rodata        0x000000002000124c       0x18 struct.o

.rel.dyn        0x0000000020001264        0x0
 .rel.iplt      0x0000000020001264        0x0 struct.o

.data           0x0000000020001264        0x0
                0x0000000020001264                . = ALIGN (0x4)
 *(.data)
 .data          0x0000000020001264        0x0 struct.o
 .data          0x0000000020001264        0x0 main.o
 .data          0x0000000020001264        0x0 stm32f103_ram_init.o
                0x0000000020001264                BSS_START = .

.igot.plt       0x0000000020001264        0x0
 .igot.plt      0x0000000020001264        0x0 struct.o

.bss            0x0000000020001264      0x3a4
                0x0000000020001264                . = ALIGN (0x4)
 *(.bss)
 .bss           0x0000000020001264        0x0 struct.o
 .bss           0x0000000020001264        0x4 main.o
                0x0000000020001264                elapsed_time
 .bss           0x0000000020001268        0x0 stm32f103_ram_init.o
 COMMON         0x0000000020001268      0x3a0 main.o
                0x0000000020001268                results
                0x0000000020001608                BSS_END = .
                0x0000000020001608                end = .
                0x0000000020005000                TOP_OF_STACK = (ORIGIN (RAM) + LENGTH (RAM))
OUTPUT(struct.elf elf32-littlearm)

.debug_info     0x0000000000000000     0x2b7d
 .debug_info    0x0000000000000000     0x20db struct.o
 .debug_info    0x00000000000020db      0x2f8 main.o
 .debug_info    0x00000000000023d3      0x7aa stm32f103_ram_init.o

.debug_abbrev   0x0000000000000000      0x58d
 .debug_abbrev  0x0000000000000000      0x244 struct.o
 .debug_abbrev  0x0000000000000244      0x1d3 main.o
 .debug_abbrev  0x0000000000000417      0x176 stm32f103_ram_init.o

.debug_loc      0x0000000000000000      0x517
 .debug_loc     0x0000000000000000      0x376 struct.o
 .debug_loc     0x0000000000000376      0x18c main.o
 .debug_loc     0x0000000000000502       0x15 stm32f103_ram_init.o

.debug_aranges  0x0000000000000000       0x60
 .debug_aranges
                0x0000000000000000       0x20 struct.o
 .debug_aranges
                0x0000000000000020       0x20 main.o
 .debug_aranges
                0x0000000000000040       0x20 stm32f103_ram_init.o

.debug_macro    0x0000000000000000    0x10e07
 .debug_macro   0x0000000000000000       0x80 struct.o
 .debug_macro   0x0000000000000080      0xa7e struct.o
 .debug_macro   0x0000000000000afe       0x10 struct.o
 .debug_macro   0x0000000000000b0e       0x22 struct.o
 .debug_macro   0x0000000000000b30       0x8e struct.o
 .debug_macro   0x0000000000000bbe       0x51 struct.o
 .debug_macro   0x0000000000000c0f       0xef struct.o
 .debug_macro   0x0000000000000cfe       0x6a struct.o
 .debug_macro   0x0000000000000d68      0x1df struct.o
 .debug_macro   0x0000000000000f47      0x6ca struct.o
 .debug_macro   0x0000000000001611       0xa9 main.o
 .debug_macro   0x00000000000016ba      0x174 main.o
 .debug_macro   0x000000000000182e       0x3a main.o
 .debug_macro   0x0000000000001868       0x34 main.o
 .debug_macro   0x000000000000189c      0xb8e main.o
 .debug_macro   0x000000000000242a       0xb1 stm32f103_ram_init.o
 .debug_macro   0x00000000000024db       0x22 stm32f103_ram_init.o
 .debug_macro   0x00000000000024fd     0xe90a stm32f103_ram_init.o

.debug_line     0x0000000000000000     0x1c5a
 .debug_line    0x0000000000000000     0x106b struct.o
 .debug_line    0x000000000000106b      0x39a main.o
 .debug_line    0x0000000000001405      0x855 stm32f103_ram_init.o

.debug_str      0x0000000000000000    0x58a67
 .debug_str     0x0000000000000000     0x68d0 struct.o
                                       0x6b78 (size before relaxing)
 .debug_str     0x00000000000068d0     0x458e main.o
                                       0x82dc (size before relaxing)
 .debug_str     0x000000000000ae5e    0x4dc09 stm32f103_ram_init.o
                                      0x55c4c (size before relaxing)

.comment        0x0000000000000000       0x75
 .comment       0x0000000000000000       0x75 struct.o
                                         0x76 (size before relaxing)
 .comment       0x0000000000000075       0x76 main.o
 .comment       0x0000000000000075       0x76 stm32f103_ram_init.o

.ARM.attributes
                0x0000000000000000       0x1b
 .ARM.attributes
                0x0000000000000000       0x1b struct.o
 .ARM.attributes
                0x000000000000001b       0x1b main.o
 .ARM.attributes
                0x0000000000000036       0x1b stm32f103_ram_init.o

.debug_frame    0x0000000000000000      0xf58
 .debug_frame   0x0000000000000000      0xb30 struct.o
 .debug_frame   0x0000000000000b30       0x68 main.o
 .debug_frame   0x0000000000000b98      0x3c0 stm32f103_ram_init.o
Memory region         Used Size  Region Size  %age Used
           FLASH:          0 GB        64 KB      0.00%
             RAM:        5640 B        20 KB     27.54%
