
Allocating common symbols
Common symbol       size              file

finish              0x4               main.o
results             0x3a0             main.o
start               0x4               main.o

Discarded input sections

 .group         0x0000000000000000        0x8 struct.o
 .group         0x0000000000000000        0x8 struct.o
 .group         0x0000000000000000        0x8 struct.o
 .group         0x0000000000000000        0x8 struct.o
 .group         0x0000000000000000        0x8 struct.o
 .group         0x0000000000000000        0x8 struct.o
 .group         0x0000000000000000        0x8 struct.o
 .group         0x0000000000000000        0x8 struct.o
 .group         0x0000000000000000        0x8 struct.o
 .group         0x0000000000000000        0x8 main.o
 .group         0x0000000000000000        0x8 main.o
 .group         0x0000000000000000        0x8 main.o
 .group         0x0000000000000000        0x8 main.o
 .group         0x0000000000000000        0x8 main.o
 .group         0x0000000000000000        0x8 main.o
 .group         0x0000000000000000        0x8 main.o
 .group         0x0000000000000000        0x8 main.o
 .group         0x0000000000000000        0x8 main.o
 .group         0x0000000000000000        0x8 main.o
 .group         0x0000000000000000        0x8 main.o
 .debug_macro   0x0000000000000000      0xa7e main.o
 .debug_macro   0x0000000000000000       0x22 main.o
 .debug_macro   0x0000000000000000       0x8e main.o
 .debug_macro   0x0000000000000000       0x51 main.o
 .debug_macro   0x0000000000000000       0xef main.o
 .debug_macro   0x0000000000000000       0x6a main.o
 .debug_macro   0x0000000000000000      0x1df main.o
 .group         0x0000000000000000        0x8 stm32f103_ram_init.o
 .group         0x0000000000000000        0x8 stm32f103_ram_init.o
 .group         0x0000000000000000        0x8 stm32f103_ram_init.o
 .group         0x0000000000000000        0x8 stm32f103_ram_init.o
 .group         0x0000000000000000        0x8 stm32f103_ram_init.o
 .group         0x0000000000000000        0x8 stm32f103_ram_init.o
 .group         0x0000000000000000        0x8 stm32f103_ram_init.o
 .group         0x0000000000000000        0x8 stm32f103_ram_init.o
 .group         0x0000000000000000        0x8 stm32f103_ram_init.o
 .group         0x0000000000000000        0x8 stm32f103_ram_init.o
 .group         0x0000000000000000        0x8 stm32f103_ram_init.o
 .group         0x0000000000000000        0x8 stm32f103_ram_init.o
 .debug_macro   0x0000000000000000      0xa7e stm32f103_ram_init.o
 .debug_macro   0x0000000000000000       0x22 stm32f103_ram_init.o
 .debug_macro   0x0000000000000000       0x8e stm32f103_ram_init.o
 .debug_macro   0x0000000000000000       0x51 stm32f103_ram_init.o
 .debug_macro   0x0000000000000000       0xef stm32f103_ram_init.o
 .debug_macro   0x0000000000000000       0x6a stm32f103_ram_init.o
 .debug_macro   0x0000000000000000      0x1df stm32f103_ram_init.o
 .debug_macro   0x0000000000000000       0x3a stm32f103_ram_init.o
 .debug_macro   0x0000000000000000       0x34 stm32f103_ram_init.o
 .debug_macro   0x0000000000000000      0xb8e stm32f103_ram_init.o

Memory Configuration

Name             Origin             Length             Attributes
FLASH            0x0000000008000000 0x0000000000010000 xr
RAM              0x0000000020000000 0x0000000000005000 xrw
*default*        0x0000000000000000 0xffffffffffffffff

Linker script and memory map

LOAD struct.o
LOAD main.o
LOAD stm32f103_ram_init.o
                0x0000000020000000                . = ORIGIN (RAM)

.text           0x0000000020000000     0x1644
 *(.vectors)
 .vectors       0x0000000020000000       0xec stm32f103_ram_init.o
                0x0000000020000000                INTERRUPT_VECTORS
 *(.text)
 .text          0x00000000200000ec     0x13f4 struct.o
                0x00000000200000ec                zero_reg
                0x00000000200000f8                zero_array
                0x0000000020000104                set_singl_bits_operator
                0x0000000020000114                set_singl_bits_method
                0x0000000020000124                clr_singl_bits_operator
                0x0000000020000134                clr_singl_bits_method
                0x0000000020000144                set_singl_mskd_operator
                0x0000000020000154                set_singl_mskd_method
                0x0000000020000164                clr_singl_mskd_operator
                0x0000000020000174                clr_singl_mskd_method
                0x0000000020000184                equ_singl_bits_operator
                0x0000000020000190                equ_singl_bits_method
                0x000000002000019c                equ_singl_mskd_operator
                0x00000000200001a8                equ_singl_mskd_method
                0x00000000200001b4                flp_singl_bits_operator
                0x00000000200001c4                flp_singl_bits_method
                0x00000000200001d4                flp_singl_mskd_operator
                0x00000000200001e4                flp_singl_mskd_method
                0x00000000200001f4                ins_singl_mskd_operator
                0x0000000020000208                ins_singl_mskd_method
                0x000000002000021c                set_multi_bits_operator
                0x000000002000022c                set_multi_bits_method
                0x000000002000023c                ins_multi_mskd_operator
                0x0000000020000254                ins_multi_mskd_method
                0x000000002000026c                equ_multi_bits_operator
                0x0000000020000278                equ_multi_bits_method
                0x0000000020000284                equ_multi_mskd_operator
                0x0000000020000294                equ_multi_mskd_method
                0x00000000200002a4                equ_bits_mskd_operator
                0x00000000200002b0                equ_bits_mskd_method
                0x00000000200002bc                equ_mskd_bits_operator
                0x00000000200002c8                equ_mskd_bits_method
                0x00000000200002d4                equ_bits_var
                0x00000000200002e4                equ_mskd_var
                0x00000000200002f8                cmp_equ_zero
                0x0000000020000320                cmp_neq_zero
                0x000000002000033c                cmp_equ_bits
                0x0000000020000360                cmp_neq_bits
                0x0000000020000378                cmp_equ_multi_bits
                0x000000002000039c                cmp_neq_multi_bits
                0x00000000200003c0                cmp_equ_mskd
                0x00000000200003f0                cmp_neq_mskd
                0x000000002000041c                cmp_equ_reg
                0x0000000020000440                cmp_neq_reg
                0x0000000020000458                constexpr_bits_array
                0x000000002000046c                runtime_bits_array
                0x0000000020000498                prescaler_low
                0x00000000200004b4                prescaler_high
                0x00000000200004d0                reg_mskd_lss
                0x00000000200004f8                reg_mskd_leq
                0x0000000020000530                reg_mskd_gtr
                0x0000000020000558                reg_mskd_geq
                0x0000000020000590                pos_cmp_eq
                0x000000002000059c                pos_cmp_ne
                0x00000000200005a8                bits_extract_eq
                0x00000000200005c0                mskd_extract_eq
                0x00000000200005dc                mskd_extract_ne
                0x00000000200005f8                mskd_extract_lss
                0x0000000020000620                mskd_extract_leq
                0x0000000020000644                mskd_extract_gtr
                0x000000002000066c                set_bits_global
                0x000000002000067c                ins_mskd_global
                0x0000000020000690                assign_array_global
                0x000000002000069c                shifted_global
                0x00000000200006b8                assign_register_global
                0x00000000200006c4                copy_bits_equ
                0x00000000200006dc                copy_bits_neq
                0x00000000200006f4                copy_mskd_equ
                0x0000000020000718                copy_mskd_neq
                0x000000002000073c                copy_mskd_lss
                0x0000000020000764                copy_mskd_leq
                0x0000000020000788                copy_mskd_gtr
                0x00000000200007b0                copy_mskd_geq
                0x00000000200007d4                copy_shifted
                0x0000000020000814                call_range_val_port
                0x0000000020000830                call_pos_ref_global
                0x0000000020000860                call_pos_val
                0x000000002000086c                call_pos_val_global
                0x0000000020000884                call_mskd_val_const
                0x0000000020000890                call_mskd_val_var
                0x000000002000089c                call_mskd_val_global
                0x00000000200008b0                call_bits_val_const
                0x00000000200008bc                call_bits_val_var
                0x00000000200008c8                call_bits_val_global
                0x00000000200008cc                bits_val
                0x00000000200008dc                bits_ref
                0x00000000200008ec                call_bits_ref_const
                0x0000000020000900                call_bits_ref_var
                0x0000000020000914                call_bits_ref_global
                0x0000000020000928                mskd_val
                0x000000002000093c                mskd_ref
                0x0000000020000958                call_mskd_ref_const
                0x0000000020000974                call_mskd_ref_var
                0x0000000020000994                call_mskd_ref_global
                0x00000000200009b4                periph_bits
                0x00000000200009c0                call_periph_bits
                0x00000000200009cc                periph_bits_val
                0x00000000200009d4                call_periph_bits_val
                0x00000000200009e0                reg_bits_val
                0x00000000200009e8                call_reg_bits_val
                0x00000000200009f4                periph_bits_ref
                0x0000000020000a00                call_periph_bits_ref
                0x0000000020000a1c                reg_bits_ref
                0x0000000020000a28                call_reg_bits_ref
                0x0000000020000a44                periph_mskd
                0x0000000020000a54                call_periph_mskd
                0x0000000020000a60                periph_mskd_val
                0x0000000020000a6c                call_periph_mskd_val
                0x0000000020000a7c                reg_mskd_val
                0x0000000020000a88                call_reg_mskd_val
                0x0000000020000a98                periph_mskd_ref
                0x0000000020000aac                call_periph_mskd_ref
                0x0000000020000ad4                reg_mskd_ref
                0x0000000020000ae8                call_reg_mskd_ref
                0x0000000020000b10                return_bits
                0x0000000020000b14                call_return_bits
                0x0000000020000b34                return_mskd
                0x0000000020000b40                call_return_mskd
                0x0000000020000b78                return_reg
                0x0000000020000b8c                call_return_reg
                0x0000000020000bac                return_periph
                0x0000000020000bb8                call_return_periph
                0x0000000020000bd8                pos_val
                0x0000000020000bf8                pos_ref
                0x0000000020000c18                call_pos_ref
                0x0000000020000c38                runtime_range_val
                0x0000000020000c4c                call_range_val
                0x0000000020000c54                runtime_range_ref
                0x0000000020000c70                call_range_ref
                0x0000000020000c90                call_range_ref_port
                0x0000000020000c98                check_array_range_pass
                0x0000000020000cac                check_array_range_fail
                0x0000000020000cc0                check_bits_range_pass
                0x0000000020000cd4                check_bits_range_fail
                0x0000000020000ce8                check_mskd_range_pass
                0x0000000020000cfc                check_mskd_range_fail
                0x0000000020000d10                bits_extract_ne
                0x0000000020000d28                mskd_extract_geq
                0x0000000020000d4c                shifted_val
                0x0000000020000d6c                call_shifted_const_val
                0x0000000020000d78                call_shifted_var_val
                0x0000000020000d84                call_shifted_global_val
                0x0000000020000d90                shifted_ref
                0x0000000020000db4                call_shifted_const_ref
                0x0000000020000dd4                call_shifted_var_ref
                0x0000000020000df4                call_shifted_global_ref
                0x0000000020000e14                copy_bits_val
                0x0000000020000e28                call_copy_bits_val
                0x0000000020000e38                copy_bits_ref
                0x0000000020000e4c                call_copy_bits_ref
                0x0000000020000e6c                run
 .text          0x00000000200014e0       0x44 main.o
                0x00000000200014e0                memset
                0x00000000200014f4                do_test
 .text          0x0000000020001524      0x120 stm32f103_ram_init.o
                0x0000000020001524                NMI_Handler
                0x0000000020001528                HardFault_Handler
                0x000000002000152c                MemManage_Handler
                0x0000000020001530                BusFault_Handler
                0x0000000020001534                UsageFault_Handler
                0x0000000020001538                Reserved1_Handler
                0x000000002000153c                Reserved2_Handler
                0x0000000020001540                Reserved3_Handler
                0x0000000020001544                Reserved4_Handler
                0x0000000020001548                SVCall_Handler
                0x000000002000154c                Debug_Handler
                0x0000000020001550                Reserved5_Handler
                0x0000000020001554                PendSV_Handler
                0x0000000020001558                SysTick_Handler
                0x000000002000155c                WWDG_IRQHandler
                0x0000000020001560                PVD_IRQHandler
                0x0000000020001564                TAMPER_IRQHandler
                0x0000000020001568                RTC_IRQHandler
                0x000000002000156c                FLASH_IRQHandler
                0x0000000020001570                RCC_IRQHandler
                0x0000000020001574                EXTI0_IRQHandler
                0x0000000020001578                EXTI1_IRQHandler
                0x000000002000157c                EXTI2_IRQHandler
                0x0000000020001580                EXTI3_IRQHandler
                0x0000000020001584                EXTI4_IRQHandler
                0x0000000020001588                DMA1_Channel1_IRQHandler
                0x000000002000158c                DMA1_Channel2_IRQHandler
                0x0000000020001590                DMA1_Channel3_IRQHandler
                0x0000000020001594                DMA1_Channel4_IRQHandler
                0x0000000020001598                DMA1_Channel5_IRQHandler
                0x000000002000159c                DMA1_Channel6_IRQHandler
                0x00000000200015a0                DMA1_Channel7_IRQHandler
                0x00000000200015a4                ADC1_2_IRQHandler
                0x00000000200015a8                USB_HP_CAN1_TX_IRQHandle
                0x00000000200015ac                USB_LP_CAN1_RX0_IRQHandler
                0x00000000200015b0                CAN1_RX1_IRQHandler
                0x00000000200015b4                CAN1_SCE_IRQHandler
                0x00000000200015b8                EXTI9_5_IRQHandler
                0x00000000200015bc                TIM1_BRK_IRQHandler
                0x00000000200015c0                TIM1_UP_IRQHandler
                0x00000000200015c4                TIM1_TRG_COM_IRQHandler
                0x00000000200015c8                TIM1_CC_IRQHandler
                0x00000000200015cc                TIM2_IRQHandler
                0x00000000200015d0                TIM3_IRQHandler
                0x00000000200015d4                TIM4_IRQHandler
                0x00000000200015d8                I2C1_EV_IRQHandler
                0x00000000200015dc                I2C1_ER_IRQHandler
                0x00000000200015e0                I2C2_EV_IRQHandler
                0x00000000200015e4                I2C2_ER_IRQHandler
                0x00000000200015e8                SPI1_IRQHandler
                0x00000000200015ec                SPI2_IRQHandler
                0x00000000200015f0                USART1_IRQHandler
                0x00000000200015f4                USART2_IRQHandler
                0x00000000200015f8                USART3_IRQHandler
                0x00000000200015fc                EXTI15_10_IRQHandler
                0x0000000020001600                RTC_Alarm_IRQHandler
                0x0000000020001604                USBWakeUp_IRQHandler
                0x0000000020001608                init

.glue_7         0x0000000020001644        0x0
 .glue_7        0x0000000020001644        0x0 linker stubs

.glue_7t        0x0000000020001644        0x0
 .glue_7t       0x0000000020001644        0x0 linker stubs

.vfp11_veneer   0x0000000020001644        0x0
 .vfp11_veneer  0x0000000020001644        0x0 linker stubs

.v4_bx          0x0000000020001644        0x0
 .v4_bx         0x0000000020001644        0x0 linker stubs

.iplt           0x0000000020001644        0x0
 .iplt          0x0000000020001644        0x0 struct.o

.text.startup   0x0000000020001644       0x34
 .text.startup  0x0000000020001644       0x34 main.o
                0x0000000020001644                main

.rodata         0x0000000020001678       0x18
 .rodata        0x0000000020001678       0x18 struct.o

.rel.dyn        0x0000000020001690        0x0
 .rel.iplt      0x0000000020001690        0x0 struct.o

.data           0x0000000020001690        0x0
                0x0000000020001690                . = ALIGN (0x4)
 *(.data)
 .data          0x0000000020001690        0x0 struct.o
 .data          0x0000000020001690        0x0 main.o
 .data          0x0000000020001690        0x0 stm32f103_ram_init.o
                0x0000000020001690                BSS_START = .

.igot.plt       0x0000000020001690        0x0
 .igot.plt      0x0000000020001690        0x0 struct.o

.bss            0x0000000020001690      0x3a8
                0x0000000020001690                . = ALIGN (0x4)
 *(.bss)
 .bss           0x0000000020001690        0x0 struct.o
 .bss           0x0000000020001690        0x0 main.o
 .bss           0x0000000020001690        0x0 stm32f103_ram_init.o
 COMMON         0x0000000020001690      0x3a8 main.o
                0x0000000020001690                finish
                0x0000000020001694                results
                0x0000000020001a34                start
                0x0000000020001a38                BSS_END = .
                0x0000000020001a38                end = .
                0x0000000020005000                TOP_OF_STACK = (ORIGIN (RAM) + LENGTH (RAM))
OUTPUT(struct.elf elf32-littlearm)

.debug_info     0x0000000000000000     0x362b
 .debug_info    0x0000000000000000     0x2b71 struct.o
 .debug_info    0x0000000000002b71      0x2f2 main.o
 .debug_info    0x0000000000002e63      0x7c8 stm32f103_ram_init.o

.debug_abbrev   0x0000000000000000      0x63a
 .debug_abbrev  0x0000000000000000      0x2bb struct.o
 .debug_abbrev  0x00000000000002bb      0x1df main.o
 .debug_abbrev  0x000000000000049a      0x1a0 stm32f103_ram_init.o

.debug_loc      0x0000000000000000      0x512
 .debug_loc     0x0000000000000000      0x39b struct.o
 .debug_loc     0x000000000000039b      0x13b main.o
 .debug_loc     0x00000000000004d6       0x3c stm32f103_ram_init.o

.debug_aranges  0x0000000000000000       0x68
 .debug_aranges
                0x0000000000000000       0x20 struct.o
 .debug_aranges
                0x0000000000000020       0x28 main.o
 .debug_aranges
                0x0000000000000048       0x20 stm32f103_ram_init.o

.debug_macro    0x0000000000000000    0x10e07
 .debug_macro   0x0000000000000000       0x80 struct.o
 .debug_macro   0x0000000000000080      0xa7e struct.o
 .debug_macro   0x0000000000000afe       0x10 struct.o
 .debug_macro   0x0000000000000b0e       0x22 struct.o
 .debug_macro   0x0000000000000b30       0x8e struct.o
 .debug_macro   0x0000000000000bbe       0x51 struct.o
 .debug_macro   0x0000000000000c0f       0xef struct.o
 .debug_macro   0x0000000000000cfe       0x6a struct.o
 .debug_macro   0x0000000000000d68      0x1df struct.o
 .debug_macro   0x0000000000000f47      0x6ca struct.o
 .debug_macro   0x0000000000001611       0xa9 main.o
 .debug_macro   0x00000000000016ba      0x174 main.o
 .debug_macro   0x000000000000182e       0x3a main.o
 .debug_macro   0x0000000000001868       0x34 main.o
 .debug_macro   0x000000000000189c      0xb8e main.o
 .debug_macro   0x000000000000242a       0xb1 stm32f103_ram_init.o
 .debug_macro   0x00000000000024db       0x22 stm32f103_ram_init.o
 .debug_macro   0x00000000000024fd     0xe90a stm32f103_ram_init.o

.debug_line     0x0000000000000000     0x1f6a
 .debug_line    0x0000000000000000     0x1373 struct.o
 .debug_line    0x0000000000001373      0x38a main.o
 .debug_line    0x00000000000016fd      0x86d stm32f103_ram_init.o

.debug_str      0x0000000000000000    0x58a64
 .debug_str     0x0000000000000000     0x68d0 struct.o
                                       0x6b78 (size before relaxing)
 .debug_str     0x00000000000068d0     0x457a main.o
                                       0x82cf (size before relaxing)
 .debug_str     0x000000000000ae4a    0x4dc1a stm32f103_ram_init.o
                                      0x55c64 (size before relaxing)

.comment        0x0000000000000000       0x75
 .comment       0x0000000000000000       0x75 struct.o
                                         0x76 (size before relaxing)
 .comment       0x0000000000000075       0x76 main.o
 .comment       0x0000000000000075       0x76 stm32f103_ram_init.o

.ARM.attributes
                0x0000000000000000       0x1b
 .ARM.attributes
                0x0000000000000000       0x1b struct.o
 .ARM.attributes
                0x000000000000001b       0x1b main.o
 .ARM.attributes
                0x0000000000000036       0x1b stm32f103_ram_init.o

.debug_frame    0x0000000000000000      0xfb8
 .debug_frame   0x0000000000000000      0xba0 struct.o
 .debug_frame   0x0000000000000ba0       0x58 main.o
 .debug_frame   0x0000000000000bf8      0x3c0 stm32f103_ram_init.o

.debug_ranges   0x0000000000000000       0x18
 .debug_ranges  0x0000000000000000       0x18 main.o
Memory region         Used Size  Region Size  %age Used
           FLASH:          0 GB        64 KB      0.00%
             RAM:        6712 B        20 KB     32.77%
