
struct.elf:     file format elf32-littlearm


Disassembly of section .text:

20000000 <INTERRUPT_VECTORS>:
20000000:	00 50 00 20 09 16 00 20 25 15 00 20 29 15 00 20     .P. ... %.. ).. 
20000010:	2d 15 00 20 31 15 00 20 35 15 00 20 39 15 00 20     -.. 1.. 5.. 9.. 
20000020:	3d 15 00 20 41 15 00 20 45 15 00 20 49 15 00 20     =.. A.. E.. I.. 
20000030:	4d 15 00 20 51 15 00 20 55 15 00 20 59 15 00 20     M.. Q.. U.. Y.. 
20000040:	5d 15 00 20 61 15 00 20 65 15 00 20 69 15 00 20     ].. a.. e.. i.. 
20000050:	6d 15 00 20 71 15 00 20 75 15 00 20 79 15 00 20     m.. q.. u.. y.. 
20000060:	7d 15 00 20 81 15 00 20 85 15 00 20 89 15 00 20     }.. ... ... ... 
20000070:	8d 15 00 20 91 15 00 20 95 15 00 20 99 15 00 20     ... ... ... ... 
20000080:	9d 15 00 20 a1 15 00 20 a5 15 00 20 a9 15 00 20     ... ... ... ... 
20000090:	ad 15 00 20 b1 15 00 20 b5 15 00 20 b9 15 00 20     ... ... ... ... 
200000a0:	bd 15 00 20 c1 15 00 20 c5 15 00 20 c9 15 00 20     ... ... ... ... 
200000b0:	cd 15 00 20 d1 15 00 20 d5 15 00 20 d9 15 00 20     ... ... ... ... 
200000c0:	dd 15 00 20 e1 15 00 20 e5 15 00 20 e9 15 00 20     ... ... ... ... 
200000d0:	ed 15 00 20 f1 15 00 20 f5 15 00 20 f9 15 00 20     ... ... ... ... 
200000e0:	fd 15 00 20 01 16 00 20 05 16 00 20                 ... ... ... 

200000ec <zero_reg>:
200000ec:	2200      	movs	r2, #0
200000ee:	4b01      	ldr	r3, [pc, #4]	; (200000f4 <zero_reg+0x8>)
200000f0:	605a      	str	r2, [r3, #4]
200000f2:	4770      	bx	lr
200000f4:	20002480 	.word	0x20002480

200000f8 <zero_array>:
200000f8:	2200      	movs	r2, #0
200000fa:	4b01      	ldr	r3, [pc, #4]	; (20000100 <zero_array+0x8>)
200000fc:	62da      	str	r2, [r3, #44]	; 0x2c
200000fe:	4770      	bx	lr
20000100:	200022c0 	.word	0x200022c0

20000104 <set_singl_bits_operator>:
20000104:	4a02      	ldr	r2, [pc, #8]	; (20000110 <set_singl_bits_operator+0xc>)
20000106:	6853      	ldr	r3, [r2, #4]
20000108:	f043 0340 	orr.w	r3, r3, #64	; 0x40
2000010c:	6053      	str	r3, [r2, #4]
2000010e:	4770      	bx	lr
20000110:	20002480 	.word	0x20002480

20000114 <set_singl_bits_method>:
20000114:	4a02      	ldr	r2, [pc, #8]	; (20000120 <set_singl_bits_method+0xc>)
20000116:	6853      	ldr	r3, [r2, #4]
20000118:	f043 0340 	orr.w	r3, r3, #64	; 0x40
2000011c:	6053      	str	r3, [r2, #4]
2000011e:	4770      	bx	lr
20000120:	20002480 	.word	0x20002480

20000124 <clr_singl_bits_operator>:
20000124:	4a02      	ldr	r2, [pc, #8]	; (20000130 <clr_singl_bits_operator+0xc>)
20000126:	6853      	ldr	r3, [r2, #4]
20000128:	f023 0340 	bic.w	r3, r3, #64	; 0x40
2000012c:	6053      	str	r3, [r2, #4]
2000012e:	4770      	bx	lr
20000130:	20002480 	.word	0x20002480

20000134 <clr_singl_bits_method>:
20000134:	4a02      	ldr	r2, [pc, #8]	; (20000140 <clr_singl_bits_method+0xc>)
20000136:	6853      	ldr	r3, [r2, #4]
20000138:	f023 0340 	bic.w	r3, r3, #64	; 0x40
2000013c:	6053      	str	r3, [r2, #4]
2000013e:	4770      	bx	lr
20000140:	20002480 	.word	0x20002480

20000144 <set_singl_mskd_operator>:
20000144:	4a02      	ldr	r2, [pc, #8]	; (20000150 <set_singl_mskd_operator+0xc>)
20000146:	6853      	ldr	r3, [r2, #4]
20000148:	f043 0302 	orr.w	r3, r3, #2
2000014c:	6053      	str	r3, [r2, #4]
2000014e:	4770      	bx	lr
20000150:	20002480 	.word	0x20002480

20000154 <set_singl_mskd_method>:
20000154:	4a02      	ldr	r2, [pc, #8]	; (20000160 <set_singl_mskd_method+0xc>)
20000156:	6853      	ldr	r3, [r2, #4]
20000158:	f043 0302 	orr.w	r3, r3, #2
2000015c:	6053      	str	r3, [r2, #4]
2000015e:	4770      	bx	lr
20000160:	20002480 	.word	0x20002480

20000164 <clr_singl_mskd_operator>:
20000164:	4a02      	ldr	r2, [pc, #8]	; (20000170 <clr_singl_mskd_operator+0xc>)
20000166:	6853      	ldr	r3, [r2, #4]
20000168:	f023 0302 	bic.w	r3, r3, #2
2000016c:	6053      	str	r3, [r2, #4]
2000016e:	4770      	bx	lr
20000170:	20002480 	.word	0x20002480

20000174 <clr_singl_mskd_method>:
20000174:	4a02      	ldr	r2, [pc, #8]	; (20000180 <clr_singl_mskd_method+0xc>)
20000176:	6853      	ldr	r3, [r2, #4]
20000178:	f023 0302 	bic.w	r3, r3, #2
2000017c:	6053      	str	r3, [r2, #4]
2000017e:	4770      	bx	lr
20000180:	20002480 	.word	0x20002480

20000184 <equ_singl_bits_operator>:
20000184:	2240      	movs	r2, #64	; 0x40
20000186:	4b01      	ldr	r3, [pc, #4]	; (2000018c <equ_singl_bits_operator+0x8>)
20000188:	605a      	str	r2, [r3, #4]
2000018a:	4770      	bx	lr
2000018c:	20002480 	.word	0x20002480

20000190 <equ_singl_bits_method>:
20000190:	2240      	movs	r2, #64	; 0x40
20000192:	4b01      	ldr	r3, [pc, #4]	; (20000198 <equ_singl_bits_method+0x8>)
20000194:	605a      	str	r2, [r3, #4]
20000196:	4770      	bx	lr
20000198:	20002480 	.word	0x20002480

2000019c <equ_singl_mskd_operator>:
2000019c:	2202      	movs	r2, #2
2000019e:	4b01      	ldr	r3, [pc, #4]	; (200001a4 <equ_singl_mskd_operator+0x8>)
200001a0:	605a      	str	r2, [r3, #4]
200001a2:	4770      	bx	lr
200001a4:	20002480 	.word	0x20002480

200001a8 <equ_singl_mskd_method>:
200001a8:	2202      	movs	r2, #2
200001aa:	4b01      	ldr	r3, [pc, #4]	; (200001b0 <equ_singl_mskd_method+0x8>)
200001ac:	605a      	str	r2, [r3, #4]
200001ae:	4770      	bx	lr
200001b0:	20002480 	.word	0x20002480

200001b4 <flp_singl_bits_operator>:
200001b4:	4a02      	ldr	r2, [pc, #8]	; (200001c0 <flp_singl_bits_operator+0xc>)
200001b6:	6853      	ldr	r3, [r2, #4]
200001b8:	f083 0340 	eor.w	r3, r3, #64	; 0x40
200001bc:	6053      	str	r3, [r2, #4]
200001be:	4770      	bx	lr
200001c0:	20002480 	.word	0x20002480

200001c4 <flp_singl_bits_method>:
200001c4:	4a02      	ldr	r2, [pc, #8]	; (200001d0 <flp_singl_bits_method+0xc>)
200001c6:	6853      	ldr	r3, [r2, #4]
200001c8:	f083 0340 	eor.w	r3, r3, #64	; 0x40
200001cc:	6053      	str	r3, [r2, #4]
200001ce:	4770      	bx	lr
200001d0:	20002480 	.word	0x20002480

200001d4 <flp_singl_mskd_operator>:
200001d4:	4a02      	ldr	r2, [pc, #8]	; (200001e0 <flp_singl_mskd_operator+0xc>)
200001d6:	6853      	ldr	r3, [r2, #4]
200001d8:	f083 0302 	eor.w	r3, r3, #2
200001dc:	6053      	str	r3, [r2, #4]
200001de:	4770      	bx	lr
200001e0:	20002480 	.word	0x20002480

200001e4 <flp_singl_mskd_method>:
200001e4:	4a02      	ldr	r2, [pc, #8]	; (200001f0 <flp_singl_mskd_method+0xc>)
200001e6:	6853      	ldr	r3, [r2, #4]
200001e8:	f083 0302 	eor.w	r3, r3, #2
200001ec:	6053      	str	r3, [r2, #4]
200001ee:	4770      	bx	lr
200001f0:	20002480 	.word	0x20002480

200001f4 <ins_singl_mskd_operator>:
200001f4:	4a03      	ldr	r2, [pc, #12]	; (20000204 <ins_singl_mskd_operator+0x10>)
200001f6:	6853      	ldr	r3, [r2, #4]
200001f8:	f023 0306 	bic.w	r3, r3, #6
200001fc:	f043 0304 	orr.w	r3, r3, #4
20000200:	6053      	str	r3, [r2, #4]
20000202:	4770      	bx	lr
20000204:	20002480 	.word	0x20002480

20000208 <ins_singl_mskd_method>:
20000208:	4a03      	ldr	r2, [pc, #12]	; (20000218 <ins_singl_mskd_method+0x10>)
2000020a:	6853      	ldr	r3, [r2, #4]
2000020c:	f023 0306 	bic.w	r3, r3, #6
20000210:	f043 0304 	orr.w	r3, r3, #4
20000214:	6053      	str	r3, [r2, #4]
20000216:	4770      	bx	lr
20000218:	20002480 	.word	0x20002480

2000021c <set_multi_bits_operator>:
2000021c:	4a02      	ldr	r2, [pc, #8]	; (20000228 <set_multi_bits_operator+0xc>)
2000021e:	6853      	ldr	r3, [r2, #4]
20000220:	f043 0321 	orr.w	r3, r3, #33	; 0x21
20000224:	6053      	str	r3, [r2, #4]
20000226:	4770      	bx	lr
20000228:	20002480 	.word	0x20002480

2000022c <set_multi_bits_method>:
2000022c:	4a02      	ldr	r2, [pc, #8]	; (20000238 <set_multi_bits_method+0xc>)
2000022e:	6853      	ldr	r3, [r2, #4]
20000230:	f043 0321 	orr.w	r3, r3, #33	; 0x21
20000234:	6053      	str	r3, [r2, #4]
20000236:	4770      	bx	lr
20000238:	20002480 	.word	0x20002480

2000023c <ins_multi_mskd_operator>:
2000023c:	4a04      	ldr	r2, [pc, #16]	; (20000250 <ins_multi_mskd_operator+0x14>)
2000023e:	6853      	ldr	r3, [r2, #4]
20000240:	f423 6378 	bic.w	r3, r3, #3968	; 0xf80
20000244:	f023 0306 	bic.w	r3, r3, #6
20000248:	f443 73c1 	orr.w	r3, r3, #386	; 0x182
2000024c:	6053      	str	r3, [r2, #4]
2000024e:	4770      	bx	lr
20000250:	20002480 	.word	0x20002480

20000254 <ins_multi_mskd_method>:
20000254:	4a04      	ldr	r2, [pc, #16]	; (20000268 <ins_multi_mskd_method+0x14>)
20000256:	6853      	ldr	r3, [r2, #4]
20000258:	f423 6378 	bic.w	r3, r3, #3968	; 0xf80
2000025c:	f023 0306 	bic.w	r3, r3, #6
20000260:	f443 73c1 	orr.w	r3, r3, #386	; 0x182
20000264:	6053      	str	r3, [r2, #4]
20000266:	4770      	bx	lr
20000268:	20002480 	.word	0x20002480

2000026c <equ_multi_bits_operator>:
2000026c:	2260      	movs	r2, #96	; 0x60
2000026e:	4b01      	ldr	r3, [pc, #4]	; (20000274 <equ_multi_bits_operator+0x8>)
20000270:	605a      	str	r2, [r3, #4]
20000272:	4770      	bx	lr
20000274:	20002480 	.word	0x20002480

20000278 <equ_multi_bits_method>:
20000278:	2260      	movs	r2, #96	; 0x60
2000027a:	4b01      	ldr	r3, [pc, #4]	; (20000280 <equ_multi_bits_method+0x8>)
2000027c:	605a      	str	r2, [r3, #4]
2000027e:	4770      	bx	lr
20000280:	20002480 	.word	0x20002480

20000284 <equ_multi_mskd_operator>:
20000284:	f44f 7242 	mov.w	r2, #776	; 0x308
20000288:	4b01      	ldr	r3, [pc, #4]	; (20000290 <equ_multi_mskd_operator+0xc>)
2000028a:	605a      	str	r2, [r3, #4]
2000028c:	4770      	bx	lr
2000028e:	bf00      	nop
20000290:	20002480 	.word	0x20002480

20000294 <equ_multi_mskd_method>:
20000294:	f44f 7242 	mov.w	r2, #776	; 0x308
20000298:	4b01      	ldr	r3, [pc, #4]	; (200002a0 <equ_multi_mskd_method+0xc>)
2000029a:	605a      	str	r2, [r3, #4]
2000029c:	4770      	bx	lr
2000029e:	bf00      	nop
200002a0:	20002480 	.word	0x20002480

200002a4 <equ_bits_mskd_operator>:
200002a4:	2222      	movs	r2, #34	; 0x22
200002a6:	4b01      	ldr	r3, [pc, #4]	; (200002ac <equ_bits_mskd_operator+0x8>)
200002a8:	605a      	str	r2, [r3, #4]
200002aa:	4770      	bx	lr
200002ac:	20002480 	.word	0x20002480

200002b0 <equ_bits_mskd_method>:
200002b0:	2222      	movs	r2, #34	; 0x22
200002b2:	4b01      	ldr	r3, [pc, #4]	; (200002b8 <equ_bits_mskd_method+0x8>)
200002b4:	605a      	str	r2, [r3, #4]
200002b6:	4770      	bx	lr
200002b8:	20002480 	.word	0x20002480

200002bc <equ_mskd_bits_operator>:
200002bc:	2244      	movs	r2, #68	; 0x44
200002be:	4b01      	ldr	r3, [pc, #4]	; (200002c4 <equ_mskd_bits_operator+0x8>)
200002c0:	605a      	str	r2, [r3, #4]
200002c2:	4770      	bx	lr
200002c4:	20002480 	.word	0x20002480

200002c8 <equ_mskd_bits_method>:
200002c8:	2244      	movs	r2, #68	; 0x44
200002ca:	4b01      	ldr	r3, [pc, #4]	; (200002d0 <equ_mskd_bits_method+0x8>)
200002cc:	605a      	str	r2, [r3, #4]
200002ce:	4770      	bx	lr
200002d0:	20002480 	.word	0x20002480

200002d4 <equ_bits_var>:
200002d4:	2140      	movs	r1, #64	; 0x40
200002d6:	2201      	movs	r2, #1
200002d8:	4b01      	ldr	r3, [pc, #4]	; (200002e0 <equ_bits_var+0xc>)
200002da:	6059      	str	r1, [r3, #4]
200002dc:	605a      	str	r2, [r3, #4]
200002de:	4770      	bx	lr
200002e0:	20002480 	.word	0x20002480

200002e4 <equ_mskd_var>:
200002e4:	2102      	movs	r1, #2
200002e6:	f44f 72c0 	mov.w	r2, #384	; 0x180
200002ea:	4b02      	ldr	r3, [pc, #8]	; (200002f4 <equ_mskd_var+0x10>)
200002ec:	6059      	str	r1, [r3, #4]
200002ee:	605a      	str	r2, [r3, #4]
200002f0:	4770      	bx	lr
200002f2:	bf00      	nop
200002f4:	20002480 	.word	0x20002480

200002f8 <cmp_equ_zero>:
200002f8:	2200      	movs	r2, #0
200002fa:	4b07      	ldr	r3, [pc, #28]	; (20000318 <cmp_equ_zero+0x20>)
200002fc:	605a      	str	r2, [r3, #4]
200002fe:	685b      	ldr	r3, [r3, #4]
20000300:	b923      	cbnz	r3, 2000030c <cmp_equ_zero+0x14>
20000302:	f04f 5268 	mov.w	r2, #973078528	; 0x3a000000
20000306:	4b05      	ldr	r3, [pc, #20]	; (2000031c <cmp_equ_zero+0x24>)
20000308:	605a      	str	r2, [r3, #4]
2000030a:	4770      	bx	lr
2000030c:	f04f 5208 	mov.w	r2, #570425344	; 0x22000000
20000310:	4b02      	ldr	r3, [pc, #8]	; (2000031c <cmp_equ_zero+0x24>)
20000312:	605a      	str	r2, [r3, #4]
20000314:	4770      	bx	lr
20000316:	bf00      	nop
20000318:	20002480 	.word	0x20002480
2000031c:	200023e0 	.word	0x200023e0

20000320 <cmp_neq_zero>:
20000320:	2200      	movs	r2, #0
20000322:	4b05      	ldr	r3, [pc, #20]	; (20000338 <cmp_neq_zero+0x18>)
20000324:	605a      	str	r2, [r3, #4]
20000326:	685a      	ldr	r2, [r3, #4]
20000328:	b112      	cbz	r2, 20000330 <cmp_neq_zero+0x10>
2000032a:	2204      	movs	r2, #4
2000032c:	605a      	str	r2, [r3, #4]
2000032e:	4770      	bx	lr
20000330:	2220      	movs	r2, #32
20000332:	605a      	str	r2, [r3, #4]
20000334:	4770      	bx	lr
20000336:	bf00      	nop
20000338:	20002480 	.word	0x20002480

2000033c <cmp_equ_bits>:
2000033c:	2240      	movs	r2, #64	; 0x40
2000033e:	4b06      	ldr	r3, [pc, #24]	; (20000358 <cmp_equ_bits+0x1c>)
20000340:	605a      	str	r2, [r3, #4]
20000342:	685b      	ldr	r3, [r3, #4]
20000344:	065b      	lsls	r3, r3, #25
20000346:	bf4c      	ite	mi
20000348:	f04f 52b0 	movmi.w	r2, #369098752	; 0x16000000
2000034c:	f04f 52d0 	movpl.w	r2, #436207616	; 0x1a000000
20000350:	4b02      	ldr	r3, [pc, #8]	; (2000035c <cmp_equ_bits+0x20>)
20000352:	605a      	str	r2, [r3, #4]
20000354:	4770      	bx	lr
20000356:	bf00      	nop
20000358:	20002480 	.word	0x20002480
2000035c:	200023e0 	.word	0x200023e0

20000360 <cmp_neq_bits>:
20000360:	2240      	movs	r2, #64	; 0x40
20000362:	4b04      	ldr	r3, [pc, #16]	; (20000374 <cmp_neq_bits+0x14>)
20000364:	605a      	str	r2, [r3, #4]
20000366:	685a      	ldr	r2, [r3, #4]
20000368:	0652      	lsls	r2, r2, #25
2000036a:	bf54      	ite	pl
2000036c:	2202      	movpl	r2, #2
2000036e:	2220      	movmi	r2, #32
20000370:	605a      	str	r2, [r3, #4]
20000372:	4770      	bx	lr
20000374:	20002480 	.word	0x20002480

20000378 <cmp_equ_multi_bits>:
20000378:	2260      	movs	r2, #96	; 0x60
2000037a:	4b06      	ldr	r3, [pc, #24]	; (20000394 <cmp_equ_multi_bits+0x1c>)
2000037c:	605a      	str	r2, [r3, #4]
2000037e:	685b      	ldr	r3, [r3, #4]
20000380:	4013      	ands	r3, r2
20000382:	4293      	cmp	r3, r2
20000384:	bf0c      	ite	eq
20000386:	f04f 5208 	moveq.w	r2, #570425344	; 0x22000000
2000038a:	f04f 5238 	movne.w	r2, #771751936	; 0x2e000000
2000038e:	4b02      	ldr	r3, [pc, #8]	; (20000398 <cmp_equ_multi_bits+0x20>)
20000390:	605a      	str	r2, [r3, #4]
20000392:	4770      	bx	lr
20000394:	20002480 	.word	0x20002480
20000398:	200023e0 	.word	0x200023e0

2000039c <cmp_neq_multi_bits>:
2000039c:	2260      	movs	r2, #96	; 0x60
2000039e:	4b06      	ldr	r3, [pc, #24]	; (200003b8 <cmp_neq_multi_bits+0x1c>)
200003a0:	605a      	str	r2, [r3, #4]
200003a2:	685b      	ldr	r3, [r3, #4]
200003a4:	4013      	ands	r3, r2
200003a6:	4293      	cmp	r3, r2
200003a8:	bf14      	ite	ne
200003aa:	f04f 5268 	movne.w	r2, #973078528	; 0x3a000000
200003ae:	f04f 5278 	moveq.w	r2, #1040187392	; 0x3e000000
200003b2:	4b02      	ldr	r3, [pc, #8]	; (200003bc <cmp_neq_multi_bits+0x20>)
200003b4:	605a      	str	r2, [r3, #4]
200003b6:	4770      	bx	lr
200003b8:	20002480 	.word	0x20002480
200003bc:	200023e0 	.word	0x200023e0

200003c0 <cmp_equ_mskd>:
200003c0:	f44f 32e8 	mov.w	r2, #118784	; 0x1d000
200003c4:	4b08      	ldr	r3, [pc, #32]	; (200003e8 <cmp_equ_mskd+0x28>)
200003c6:	605a      	str	r2, [r3, #4]
200003c8:	685b      	ldr	r3, [r3, #4]
200003ca:	4a08      	ldr	r2, [pc, #32]	; (200003ec <cmp_equ_mskd+0x2c>)
200003cc:	f403 33f8 	and.w	r3, r3, #126976	; 0x1f000
200003d0:	f5b3 3f88 	cmp.w	r3, #69632	; 0x11000
200003d4:	6853      	ldr	r3, [r2, #4]
200003d6:	f023 5378 	bic.w	r3, r3, #1040187392	; 0x3e000000
200003da:	bf0c      	ite	eq
200003dc:	f043 6360 	orreq.w	r3, r3, #234881024	; 0xe000000
200003e0:	f043 5308 	orrne.w	r3, r3, #570425344	; 0x22000000
200003e4:	6053      	str	r3, [r2, #4]
200003e6:	4770      	bx	lr
200003e8:	20002480 	.word	0x20002480
200003ec:	200023e0 	.word	0x200023e0

200003f0 <cmp_neq_mskd>:
200003f0:	f44f 32e8 	mov.w	r2, #118784	; 0x1d000
200003f4:	4b08      	ldr	r3, [pc, #32]	; (20000418 <cmp_neq_mskd+0x28>)
200003f6:	605a      	str	r2, [r3, #4]
200003f8:	685a      	ldr	r2, [r3, #4]
200003fa:	f402 32f8 	and.w	r2, r2, #126976	; 0x1f000
200003fe:	f5b2 3f88 	cmp.w	r2, #69632	; 0x11000
20000402:	685a      	ldr	r2, [r3, #4]
20000404:	bf1a      	itte	ne
20000406:	f022 0206 	bicne.w	r2, r2, #6
2000040a:	f042 0204 	orrne.w	r2, r2, #4
2000040e:	f042 0240 	orreq.w	r2, r2, #64	; 0x40
20000412:	605a      	str	r2, [r3, #4]
20000414:	4770      	bx	lr
20000416:	bf00      	nop
20000418:	20002480 	.word	0x20002480

2000041c <cmp_equ_reg>:
2000041c:	2222      	movs	r2, #34	; 0x22
2000041e:	4b06      	ldr	r3, [pc, #24]	; (20000438 <cmp_equ_reg+0x1c>)
20000420:	605a      	str	r2, [r3, #4]
20000422:	685b      	ldr	r3, [r3, #4]
20000424:	4293      	cmp	r3, r2
20000426:	bf0c      	ite	eq
20000428:	f04f 5228 	moveq.w	r2, #704643072	; 0x2a000000
2000042c:	f04f 5238 	movne.w	r2, #771751936	; 0x2e000000
20000430:	4b02      	ldr	r3, [pc, #8]	; (2000043c <cmp_equ_reg+0x20>)
20000432:	605a      	str	r2, [r3, #4]
20000434:	4770      	bx	lr
20000436:	bf00      	nop
20000438:	20002480 	.word	0x20002480
2000043c:	200023e0 	.word	0x200023e0

20000440 <cmp_neq_reg>:
20000440:	2222      	movs	r2, #34	; 0x22
20000442:	4b04      	ldr	r3, [pc, #16]	; (20000454 <cmp_neq_reg+0x14>)
20000444:	605a      	str	r2, [r3, #4]
20000446:	685a      	ldr	r2, [r3, #4]
20000448:	2a22      	cmp	r2, #34	; 0x22
2000044a:	bf14      	ite	ne
2000044c:	2202      	movne	r2, #2
2000044e:	2220      	moveq	r2, #32
20000450:	605a      	str	r2, [r3, #4]
20000452:	4770      	bx	lr
20000454:	20002480 	.word	0x20002480

20000458 <constexpr_bits_array>:
20000458:	2106      	movs	r1, #6
2000045a:	f44f 5200 	mov.w	r2, #8192	; 0x2000
2000045e:	4b02      	ldr	r3, [pc, #8]	; (20000468 <constexpr_bits_array+0x10>)
20000460:	62d9      	str	r1, [r3, #44]	; 0x2c
20000462:	f8c3 20a0 	str.w	r2, [r3, #160]	; 0xa0
20000466:	4770      	bx	lr
20000468:	200022c0 	.word	0x200022c0

2000046c <runtime_bits_array>:
2000046c:	2203      	movs	r2, #3
2000046e:	b410      	push	{r4}
20000470:	2007      	movs	r0, #7
20000472:	2421      	movs	r4, #33	; 0x21
20000474:	2301      	movs	r3, #1
20000476:	b081      	sub	sp, #4
20000478:	9200      	str	r2, [sp, #0]
2000047a:	9a00      	ldr	r2, [sp, #0]
2000047c:	4905      	ldr	r1, [pc, #20]	; (20000494 <runtime_bits_array+0x28>)
2000047e:	3208      	adds	r2, #8
20000480:	f841 4022 	str.w	r4, [r1, r2, lsl #2]
20000484:	9000      	str	r0, [sp, #0]
20000486:	9a00      	ldr	r2, [sp, #0]
20000488:	4093      	lsls	r3, r2
2000048a:	f8c1 30a0 	str.w	r3, [r1, #160]	; 0xa0
2000048e:	b001      	add	sp, #4
20000490:	bc10      	pop	{r4}
20000492:	4770      	bx	lr
20000494:	200022c0 	.word	0x200022c0

20000498 <prescaler_low>:
20000498:	2177      	movs	r1, #119	; 0x77
2000049a:	4b04      	ldr	r3, [pc, #16]	; (200004ac <prescaler_low+0x14>)
2000049c:	4a04      	ldr	r2, [pc, #16]	; (200004b0 <prescaler_low+0x18>)
2000049e:	6059      	str	r1, [r3, #4]
200004a0:	685b      	ldr	r3, [r3, #4]
200004a2:	f003 037f 	and.w	r3, r3, #127	; 0x7f
200004a6:	62d3      	str	r3, [r2, #44]	; 0x2c
200004a8:	4770      	bx	lr
200004aa:	bf00      	nop
200004ac:	200023e0 	.word	0x200023e0
200004b0:	200022c0 	.word	0x200022c0

200004b4 <prescaler_high>:
200004b4:	f04f 5168 	mov.w	r1, #973078528	; 0x3a000000
200004b8:	4b03      	ldr	r3, [pc, #12]	; (200004c8 <prescaler_high+0x14>)
200004ba:	4a04      	ldr	r2, [pc, #16]	; (200004cc <prescaler_high+0x18>)
200004bc:	6059      	str	r1, [r3, #4]
200004be:	685b      	ldr	r3, [r3, #4]
200004c0:	f3c3 6344 	ubfx	r3, r3, #25, #5
200004c4:	62d3      	str	r3, [r2, #44]	; 0x2c
200004c6:	4770      	bx	lr
200004c8:	200023e0 	.word	0x200023e0
200004cc:	200022c0 	.word	0x200022c0

200004d0 <reg_mskd_lss>:
200004d0:	f04f 5258 	mov.w	r2, #905969664	; 0x36000000
200004d4:	4b06      	ldr	r3, [pc, #24]	; (200004f0 <reg_mskd_lss+0x20>)
200004d6:	605a      	str	r2, [r3, #4]
200004d8:	685b      	ldr	r3, [r3, #4]
200004da:	f003 5378 	and.w	r3, r3, #1040187392	; 0x3e000000
200004de:	f1b3 5f60 	cmp.w	r3, #939524096	; 0x38000000
200004e2:	bf34      	ite	cc
200004e4:	2202      	movcc	r2, #2
200004e6:	2204      	movcs	r2, #4
200004e8:	4b02      	ldr	r3, [pc, #8]	; (200004f4 <reg_mskd_lss+0x24>)
200004ea:	605a      	str	r2, [r3, #4]
200004ec:	4770      	bx	lr
200004ee:	bf00      	nop
200004f0:	200023e0 	.word	0x200023e0
200004f4:	20002480 	.word	0x20002480

200004f8 <reg_mskd_leq>:
200004f8:	f04f 5338 	mov.w	r3, #771751936	; 0x2e000000
200004fc:	4a0a      	ldr	r2, [pc, #40]	; (20000528 <reg_mskd_leq+0x30>)
200004fe:	6053      	str	r3, [r2, #4]
20000500:	6853      	ldr	r3, [r2, #4]
20000502:	f003 5378 	and.w	r3, r3, #1040187392	; 0x3e000000
20000506:	f1b3 5f38 	cmp.w	r3, #771751936	; 0x2e000000
2000050a:	d809      	bhi.n	20000520 <reg_mskd_leq+0x28>
2000050c:	6853      	ldr	r3, [r2, #4]
2000050e:	f003 5378 	and.w	r3, r3, #1040187392	; 0x3e000000
20000512:	f1b3 5f40 	cmp.w	r3, #805306368	; 0x30000000
20000516:	d803      	bhi.n	20000520 <reg_mskd_leq+0x28>
20000518:	2202      	movs	r2, #2
2000051a:	4b04      	ldr	r3, [pc, #16]	; (2000052c <reg_mskd_leq+0x34>)
2000051c:	605a      	str	r2, [r3, #4]
2000051e:	4770      	bx	lr
20000520:	2204      	movs	r2, #4
20000522:	4b02      	ldr	r3, [pc, #8]	; (2000052c <reg_mskd_leq+0x34>)
20000524:	605a      	str	r2, [r3, #4]
20000526:	4770      	bx	lr
20000528:	200023e0 	.word	0x200023e0
2000052c:	20002480 	.word	0x20002480

20000530 <reg_mskd_gtr>:
20000530:	f04f 5218 	mov.w	r2, #637534208	; 0x26000000
20000534:	4b06      	ldr	r3, [pc, #24]	; (20000550 <reg_mskd_gtr+0x20>)
20000536:	605a      	str	r2, [r3, #4]
20000538:	685b      	ldr	r3, [r3, #4]
2000053a:	f003 5378 	and.w	r3, r3, #1040187392	; 0x3e000000
2000053e:	f1b3 5f10 	cmp.w	r3, #603979776	; 0x24000000
20000542:	bf8c      	ite	hi
20000544:	2202      	movhi	r2, #2
20000546:	2204      	movls	r2, #4
20000548:	4b02      	ldr	r3, [pc, #8]	; (20000554 <reg_mskd_gtr+0x24>)
2000054a:	605a      	str	r2, [r3, #4]
2000054c:	4770      	bx	lr
2000054e:	bf00      	nop
20000550:	200023e0 	.word	0x200023e0
20000554:	20002480 	.word	0x20002480

20000558 <reg_mskd_geq>:
20000558:	f04f 5308 	mov.w	r3, #570425344	; 0x22000000
2000055c:	4a0a      	ldr	r2, [pc, #40]	; (20000588 <reg_mskd_geq+0x30>)
2000055e:	6053      	str	r3, [r2, #4]
20000560:	6853      	ldr	r3, [r2, #4]
20000562:	f003 5378 	and.w	r3, r3, #1040187392	; 0x3e000000
20000566:	f1b3 5f00 	cmp.w	r3, #536870912	; 0x20000000
2000056a:	d309      	bcc.n	20000580 <reg_mskd_geq+0x28>
2000056c:	6853      	ldr	r3, [r2, #4]
2000056e:	f003 5378 	and.w	r3, r3, #1040187392	; 0x3e000000
20000572:	f1b3 5f08 	cmp.w	r3, #570425344	; 0x22000000
20000576:	d303      	bcc.n	20000580 <reg_mskd_geq+0x28>
20000578:	2202      	movs	r2, #2
2000057a:	4b04      	ldr	r3, [pc, #16]	; (2000058c <reg_mskd_geq+0x34>)
2000057c:	605a      	str	r2, [r3, #4]
2000057e:	4770      	bx	lr
20000580:	2204      	movs	r2, #4
20000582:	4b02      	ldr	r3, [pc, #8]	; (2000058c <reg_mskd_geq+0x34>)
20000584:	605a      	str	r2, [r3, #4]
20000586:	4770      	bx	lr
20000588:	200023e0 	.word	0x200023e0
2000058c:	20002480 	.word	0x20002480

20000590 <pos_cmp_eq>:
20000590:	2202      	movs	r2, #2
20000592:	4b01      	ldr	r3, [pc, #4]	; (20000598 <pos_cmp_eq+0x8>)
20000594:	605a      	str	r2, [r3, #4]
20000596:	4770      	bx	lr
20000598:	20002480 	.word	0x20002480

2000059c <pos_cmp_ne>:
2000059c:	2202      	movs	r2, #2
2000059e:	4b01      	ldr	r3, [pc, #4]	; (200005a4 <pos_cmp_ne+0x8>)
200005a0:	605a      	str	r2, [r3, #4]
200005a2:	4770      	bx	lr
200005a4:	20002480 	.word	0x20002480

200005a8 <bits_extract_eq>:
200005a8:	2240      	movs	r2, #64	; 0x40
200005aa:	4b04      	ldr	r3, [pc, #16]	; (200005bc <bits_extract_eq+0x14>)
200005ac:	605a      	str	r2, [r3, #4]
200005ae:	685a      	ldr	r2, [r3, #4]
200005b0:	2a40      	cmp	r2, #64	; 0x40
200005b2:	bf0c      	ite	eq
200005b4:	2202      	moveq	r2, #2
200005b6:	2204      	movne	r2, #4
200005b8:	605a      	str	r2, [r3, #4]
200005ba:	4770      	bx	lr
200005bc:	20002480 	.word	0x20002480

200005c0 <mskd_extract_eq>:
200005c0:	2202      	movs	r2, #2
200005c2:	4b05      	ldr	r3, [pc, #20]	; (200005d8 <mskd_extract_eq+0x18>)
200005c4:	605a      	str	r2, [r3, #4]
200005c6:	685a      	ldr	r2, [r3, #4]
200005c8:	f002 0206 	and.w	r2, r2, #6
200005cc:	2a02      	cmp	r2, #2
200005ce:	bf0c      	ite	eq
200005d0:	2220      	moveq	r2, #32
200005d2:	2240      	movne	r2, #64	; 0x40
200005d4:	605a      	str	r2, [r3, #4]
200005d6:	4770      	bx	lr
200005d8:	20002480 	.word	0x20002480

200005dc <mskd_extract_ne>:
200005dc:	2204      	movs	r2, #4
200005de:	4b05      	ldr	r3, [pc, #20]	; (200005f4 <mskd_extract_ne+0x18>)
200005e0:	605a      	str	r2, [r3, #4]
200005e2:	685a      	ldr	r2, [r3, #4]
200005e4:	f002 0206 	and.w	r2, r2, #6
200005e8:	2a04      	cmp	r2, #4
200005ea:	bf14      	ite	ne
200005ec:	2220      	movne	r2, #32
200005ee:	2240      	moveq	r2, #64	; 0x40
200005f0:	605a      	str	r2, [r3, #4]
200005f2:	4770      	bx	lr
200005f4:	20002480 	.word	0x20002480

200005f8 <mskd_extract_lss>:
200005f8:	f04f 52b0 	mov.w	r2, #369098752	; 0x16000000
200005fc:	4b06      	ldr	r3, [pc, #24]	; (20000618 <mskd_extract_lss+0x20>)
200005fe:	605a      	str	r2, [r3, #4]
20000600:	685b      	ldr	r3, [r3, #4]
20000602:	f003 5378 	and.w	r3, r3, #1040187392	; 0x3e000000
20000606:	f1b3 5fc0 	cmp.w	r3, #402653184	; 0x18000000
2000060a:	bf34      	ite	cc
2000060c:	2220      	movcc	r2, #32
2000060e:	2240      	movcs	r2, #64	; 0x40
20000610:	4b02      	ldr	r3, [pc, #8]	; (2000061c <mskd_extract_lss+0x24>)
20000612:	605a      	str	r2, [r3, #4]
20000614:	4770      	bx	lr
20000616:	bf00      	nop
20000618:	200023e0 	.word	0x200023e0
2000061c:	20002480 	.word	0x20002480

20000620 <mskd_extract_leq>:
20000620:	f04f 5238 	mov.w	r2, #771751936	; 0x2e000000
20000624:	4b05      	ldr	r3, [pc, #20]	; (2000063c <mskd_extract_leq+0x1c>)
20000626:	605a      	str	r2, [r3, #4]
20000628:	685b      	ldr	r3, [r3, #4]
2000062a:	f003 5378 	and.w	r3, r3, #1040187392	; 0x3e000000
2000062e:	4293      	cmp	r3, r2
20000630:	bf94      	ite	ls
20000632:	2220      	movls	r2, #32
20000634:	2240      	movhi	r2, #64	; 0x40
20000636:	4b02      	ldr	r3, [pc, #8]	; (20000640 <mskd_extract_leq+0x20>)
20000638:	605a      	str	r2, [r3, #4]
2000063a:	4770      	bx	lr
2000063c:	200023e0 	.word	0x200023e0
20000640:	20002480 	.word	0x20002480

20000644 <mskd_extract_gtr>:
20000644:	f04f 5218 	mov.w	r2, #637534208	; 0x26000000
20000648:	4b06      	ldr	r3, [pc, #24]	; (20000664 <mskd_extract_gtr+0x20>)
2000064a:	605a      	str	r2, [r3, #4]
2000064c:	685b      	ldr	r3, [r3, #4]
2000064e:	f003 5378 	and.w	r3, r3, #1040187392	; 0x3e000000
20000652:	f1b3 5f10 	cmp.w	r3, #603979776	; 0x24000000
20000656:	bf8c      	ite	hi
20000658:	2220      	movhi	r2, #32
2000065a:	2240      	movls	r2, #64	; 0x40
2000065c:	4b02      	ldr	r3, [pc, #8]	; (20000668 <mskd_extract_gtr+0x24>)
2000065e:	605a      	str	r2, [r3, #4]
20000660:	4770      	bx	lr
20000662:	bf00      	nop
20000664:	200023e0 	.word	0x200023e0
20000668:	20002480 	.word	0x20002480

2000066c <set_bits_global>:
2000066c:	4a02      	ldr	r2, [pc, #8]	; (20000678 <set_bits_global+0xc>)
2000066e:	6853      	ldr	r3, [r2, #4]
20000670:	f043 0340 	orr.w	r3, r3, #64	; 0x40
20000674:	6053      	str	r3, [r2, #4]
20000676:	4770      	bx	lr
20000678:	20002480 	.word	0x20002480

2000067c <ins_mskd_global>:
2000067c:	4a03      	ldr	r2, [pc, #12]	; (2000068c <ins_mskd_global+0x10>)
2000067e:	6853      	ldr	r3, [r2, #4]
20000680:	f023 0306 	bic.w	r3, r3, #6
20000684:	f043 0302 	orr.w	r3, r3, #2
20000688:	6053      	str	r3, [r2, #4]
2000068a:	4770      	bx	lr
2000068c:	20002480 	.word	0x20002480

20000690 <assign_array_global>:
20000690:	22bd      	movs	r2, #189	; 0xbd
20000692:	4b01      	ldr	r3, [pc, #4]	; (20000698 <assign_array_global+0x8>)
20000694:	601a      	str	r2, [r3, #0]
20000696:	4770      	bx	lr
20000698:	200022ec 	.word	0x200022ec

2000069c <shifted_global>:
2000069c:	f04f 5138 	mov.w	r1, #771751936	; 0x2e000000
200006a0:	4b03      	ldr	r3, [pc, #12]	; (200006b0 <shifted_global+0x14>)
200006a2:	4a04      	ldr	r2, [pc, #16]	; (200006b4 <shifted_global+0x18>)
200006a4:	6059      	str	r1, [r3, #4]
200006a6:	685b      	ldr	r3, [r3, #4]
200006a8:	f3c3 6344 	ubfx	r3, r3, #25, #5
200006ac:	62d3      	str	r3, [r2, #44]	; 0x2c
200006ae:	4770      	bx	lr
200006b0:	200023e0 	.word	0x200023e0
200006b4:	200022c0 	.word	0x200022c0

200006b8 <assign_register_global>:
200006b8:	2204      	movs	r2, #4
200006ba:	4b01      	ldr	r3, [pc, #4]	; (200006c0 <assign_register_global+0x8>)
200006bc:	605a      	str	r2, [r3, #4]
200006be:	4770      	bx	lr
200006c0:	20002480 	.word	0x20002480

200006c4 <copy_bits_equ>:
200006c4:	2240      	movs	r2, #64	; 0x40
200006c6:	4b04      	ldr	r3, [pc, #16]	; (200006d8 <copy_bits_equ+0x14>)
200006c8:	605a      	str	r2, [r3, #4]
200006ca:	685a      	ldr	r2, [r3, #4]
200006cc:	0652      	lsls	r2, r2, #25
200006ce:	bf4c      	ite	mi
200006d0:	2202      	movmi	r2, #2
200006d2:	2204      	movpl	r2, #4
200006d4:	605a      	str	r2, [r3, #4]
200006d6:	4770      	bx	lr
200006d8:	20002480 	.word	0x20002480

200006dc <copy_bits_neq>:
200006dc:	2240      	movs	r2, #64	; 0x40
200006de:	4b04      	ldr	r3, [pc, #16]	; (200006f0 <copy_bits_neq+0x14>)
200006e0:	605a      	str	r2, [r3, #4]
200006e2:	685a      	ldr	r2, [r3, #4]
200006e4:	0652      	lsls	r2, r2, #25
200006e6:	bf54      	ite	pl
200006e8:	2202      	movpl	r2, #2
200006ea:	2204      	movmi	r2, #4
200006ec:	605a      	str	r2, [r3, #4]
200006ee:	4770      	bx	lr
200006f0:	20002480 	.word	0x20002480

200006f4 <copy_mskd_equ>:
200006f4:	f04f 52b0 	mov.w	r2, #369098752	; 0x16000000
200006f8:	4b05      	ldr	r3, [pc, #20]	; (20000710 <copy_mskd_equ+0x1c>)
200006fa:	605a      	str	r2, [r3, #4]
200006fc:	685b      	ldr	r3, [r3, #4]
200006fe:	f003 5378 	and.w	r3, r3, #1040187392	; 0x3e000000
20000702:	4293      	cmp	r3, r2
20000704:	bf0c      	ite	eq
20000706:	2202      	moveq	r2, #2
20000708:	2204      	movne	r2, #4
2000070a:	4b02      	ldr	r3, [pc, #8]	; (20000714 <copy_mskd_equ+0x20>)
2000070c:	605a      	str	r2, [r3, #4]
2000070e:	4770      	bx	lr
20000710:	200023e0 	.word	0x200023e0
20000714:	20002480 	.word	0x20002480

20000718 <copy_mskd_neq>:
20000718:	f04f 52b0 	mov.w	r2, #369098752	; 0x16000000
2000071c:	4b05      	ldr	r3, [pc, #20]	; (20000734 <copy_mskd_neq+0x1c>)
2000071e:	605a      	str	r2, [r3, #4]
20000720:	685b      	ldr	r3, [r3, #4]
20000722:	f003 5378 	and.w	r3, r3, #1040187392	; 0x3e000000
20000726:	4293      	cmp	r3, r2
20000728:	bf14      	ite	ne
2000072a:	2202      	movne	r2, #2
2000072c:	2204      	moveq	r2, #4
2000072e:	4b02      	ldr	r3, [pc, #8]	; (20000738 <copy_mskd_neq+0x20>)
20000730:	605a      	str	r2, [r3, #4]
20000732:	4770      	bx	lr
20000734:	200023e0 	.word	0x200023e0
20000738:	20002480 	.word	0x20002480

2000073c <copy_mskd_lss>:
2000073c:	f04f 5258 	mov.w	r2, #905969664	; 0x36000000
20000740:	4b06      	ldr	r3, [pc, #24]	; (2000075c <copy_mskd_lss+0x20>)
20000742:	605a      	str	r2, [r3, #4]
20000744:	685b      	ldr	r3, [r3, #4]
20000746:	f003 5378 	and.w	r3, r3, #1040187392	; 0x3e000000
2000074a:	f1b3 5f60 	cmp.w	r3, #939524096	; 0x38000000
2000074e:	bf34      	ite	cc
20000750:	2202      	movcc	r2, #2
20000752:	2204      	movcs	r2, #4
20000754:	4b02      	ldr	r3, [pc, #8]	; (20000760 <copy_mskd_lss+0x24>)
20000756:	605a      	str	r2, [r3, #4]
20000758:	4770      	bx	lr
2000075a:	bf00      	nop
2000075c:	200023e0 	.word	0x200023e0
20000760:	20002480 	.word	0x20002480

20000764 <copy_mskd_leq>:
20000764:	f04f 5238 	mov.w	r2, #771751936	; 0x2e000000
20000768:	4b05      	ldr	r3, [pc, #20]	; (20000780 <copy_mskd_leq+0x1c>)
2000076a:	605a      	str	r2, [r3, #4]
2000076c:	685b      	ldr	r3, [r3, #4]
2000076e:	f003 5378 	and.w	r3, r3, #1040187392	; 0x3e000000
20000772:	4293      	cmp	r3, r2
20000774:	bf94      	ite	ls
20000776:	2202      	movls	r2, #2
20000778:	2204      	movhi	r2, #4
2000077a:	4b02      	ldr	r3, [pc, #8]	; (20000784 <copy_mskd_leq+0x20>)
2000077c:	605a      	str	r2, [r3, #4]
2000077e:	4770      	bx	lr
20000780:	200023e0 	.word	0x200023e0
20000784:	20002480 	.word	0x20002480

20000788 <copy_mskd_gtr>:
20000788:	f04f 5218 	mov.w	r2, #637534208	; 0x26000000
2000078c:	4b06      	ldr	r3, [pc, #24]	; (200007a8 <copy_mskd_gtr+0x20>)
2000078e:	605a      	str	r2, [r3, #4]
20000790:	685b      	ldr	r3, [r3, #4]
20000792:	f003 5378 	and.w	r3, r3, #1040187392	; 0x3e000000
20000796:	f1b3 5f10 	cmp.w	r3, #603979776	; 0x24000000
2000079a:	bf8c      	ite	hi
2000079c:	2202      	movhi	r2, #2
2000079e:	2204      	movls	r2, #4
200007a0:	4b02      	ldr	r3, [pc, #8]	; (200007ac <copy_mskd_gtr+0x24>)
200007a2:	605a      	str	r2, [r3, #4]
200007a4:	4770      	bx	lr
200007a6:	bf00      	nop
200007a8:	200023e0 	.word	0x200023e0
200007ac:	20002480 	.word	0x20002480

200007b0 <copy_mskd_geq>:
200007b0:	f04f 5208 	mov.w	r2, #570425344	; 0x22000000
200007b4:	4b05      	ldr	r3, [pc, #20]	; (200007cc <copy_mskd_geq+0x1c>)
200007b6:	605a      	str	r2, [r3, #4]
200007b8:	685b      	ldr	r3, [r3, #4]
200007ba:	f003 5378 	and.w	r3, r3, #1040187392	; 0x3e000000
200007be:	4293      	cmp	r3, r2
200007c0:	bf2c      	ite	cs
200007c2:	2202      	movcs	r2, #2
200007c4:	2204      	movcc	r2, #4
200007c6:	4b02      	ldr	r3, [pc, #8]	; (200007d0 <copy_mskd_geq+0x20>)
200007c8:	605a      	str	r2, [r3, #4]
200007ca:	4770      	bx	lr
200007cc:	200023e0 	.word	0x200023e0
200007d0:	20002480 	.word	0x20002480

200007d4 <copy_shifted>:
200007d4:	f04f 52b0 	mov.w	r2, #369098752	; 0x16000000
200007d8:	4b05      	ldr	r3, [pc, #20]	; (200007f0 <copy_shifted+0x1c>)
200007da:	605a      	str	r2, [r3, #4]
200007dc:	685b      	ldr	r3, [r3, #4]
200007de:	f3c3 6344 	ubfx	r3, r3, #25, #5
200007e2:	2b0b      	cmp	r3, #11
200007e4:	bf0c      	ite	eq
200007e6:	2202      	moveq	r2, #2
200007e8:	2204      	movne	r2, #4
200007ea:	4b02      	ldr	r3, [pc, #8]	; (200007f4 <copy_shifted+0x20>)
200007ec:	605a      	str	r2, [r3, #4]
200007ee:	4770      	bx	lr
200007f0:	200023e0 	.word	0x200023e0
200007f4:	20002480 	.word	0x20002480

200007f8 <runtime_range_val.constprop.1>:
200007f8:	4a03      	ldr	r2, [pc, #12]	; (20000808 <runtime_range_val.constprop.1+0x10>)
200007fa:	6853      	ldr	r3, [r2, #4]
200007fc:	f423 33f8 	bic.w	r3, r3, #126976	; 0x1f000
20000800:	4318      	orrs	r0, r3
20000802:	6050      	str	r0, [r2, #4]
20000804:	4770      	bx	lr
20000806:	bf00      	nop
20000808:	20002480 	.word	0x20002480

2000080c <call_range_val.constprop.0>:
2000080c:	f44f 30f8 	mov.w	r0, #126976	; 0x1f000
20000810:	e7f2      	b.n	200007f8 <runtime_range_val.constprop.1>
20000812:	bf00      	nop

20000814 <call_range_val_port>:
20000814:	e7fa      	b.n	2000080c <call_range_val.constprop.0>
20000816:	bf00      	nop

20000818 <pos_ref.constprop.2>:
20000818:	2266      	movs	r2, #102	; 0x66
2000081a:	4b01      	ldr	r3, [pc, #4]	; (20000820 <pos_ref.constprop.2+0x8>)
2000081c:	62da      	str	r2, [r3, #44]	; 0x2c
2000081e:	4770      	bx	lr
20000820:	200022c0 	.word	0x200022c0

20000824 <pos_ref.constprop.3>:
20000824:	2277      	movs	r2, #119	; 0x77
20000826:	4b01      	ldr	r3, [pc, #4]	; (2000082c <pos_ref.constprop.3+0x8>)
20000828:	62da      	str	r2, [r3, #44]	; 0x2c
2000082a:	4770      	bx	lr
2000082c:	200022c0 	.word	0x200022c0

20000830 <call_pos_ref_global>:
20000830:	2306      	movs	r3, #6
20000832:	b500      	push	{lr}
20000834:	b081      	sub	sp, #4
20000836:	f10d 0003 	add.w	r0, sp, #3
2000083a:	f88d 3003 	strb.w	r3, [sp, #3]
2000083e:	f7ff fff1 	bl	20000824 <pos_ref.constprop.3>
20000842:	b001      	add	sp, #4
20000844:	f85d fb04 	ldr.w	pc, [sp], #4

20000848 <pos_val.constprop.4>:
20000848:	2233      	movs	r2, #51	; 0x33
2000084a:	4b01      	ldr	r3, [pc, #4]	; (20000850 <pos_val.constprop.4+0x8>)
2000084c:	62da      	str	r2, [r3, #44]	; 0x2c
2000084e:	4770      	bx	lr
20000850:	200022c0 	.word	0x200022c0

20000854 <pos_val.constprop.5>:
20000854:	2244      	movs	r2, #68	; 0x44
20000856:	4b01      	ldr	r3, [pc, #4]	; (2000085c <pos_val.constprop.5+0x8>)
20000858:	62da      	str	r2, [r3, #44]	; 0x2c
2000085a:	4770      	bx	lr
2000085c:	200022c0 	.word	0x200022c0

20000860 <call_pos_val>:
20000860:	b500      	push	{lr}
20000862:	f7ff fff1 	bl	20000848 <pos_val.constprop.4>
20000866:	f85d eb04 	ldr.w	lr, [sp], #4
2000086a:	e7f3      	b.n	20000854 <pos_val.constprop.5>

2000086c <call_pos_val_global>:
2000086c:	e7f2      	b.n	20000854 <pos_val.constprop.5>
2000086e:	bf00      	nop

20000870 <mskd_val.constprop.6>:
20000870:	4a03      	ldr	r2, [pc, #12]	; (20000880 <mskd_val.constprop.6+0x10>)
20000872:	6853      	ldr	r3, [r2, #4]
20000874:	f023 0306 	bic.w	r3, r3, #6
20000878:	f043 0302 	orr.w	r3, r3, #2
2000087c:	6053      	str	r3, [r2, #4]
2000087e:	4770      	bx	lr
20000880:	20002480 	.word	0x20002480

20000884 <call_mskd_val_const>:
20000884:	b500      	push	{lr}
20000886:	f7ff fff3 	bl	20000870 <mskd_val.constprop.6>
2000088a:	f85d eb04 	ldr.w	lr, [sp], #4
2000088e:	e7ef      	b.n	20000870 <mskd_val.constprop.6>

20000890 <call_mskd_val_var>:
20000890:	b500      	push	{lr}
20000892:	f7ff ffed 	bl	20000870 <mskd_val.constprop.6>
20000896:	f85d eb04 	ldr.w	lr, [sp], #4
2000089a:	e7e9      	b.n	20000870 <mskd_val.constprop.6>

2000089c <call_mskd_val_global>:
2000089c:	e7e8      	b.n	20000870 <mskd_val.constprop.6>
2000089e:	bf00      	nop

200008a0 <bits_val.constprop.7>:
200008a0:	4a02      	ldr	r2, [pc, #8]	; (200008ac <bits_val.constprop.7+0xc>)
200008a2:	6853      	ldr	r3, [r2, #4]
200008a4:	f043 0340 	orr.w	r3, r3, #64	; 0x40
200008a8:	6053      	str	r3, [r2, #4]
200008aa:	4770      	bx	lr
200008ac:	20002480 	.word	0x20002480

200008b0 <call_bits_val_const>:
200008b0:	b500      	push	{lr}
200008b2:	f7ff fff5 	bl	200008a0 <bits_val.constprop.7>
200008b6:	f85d eb04 	ldr.w	lr, [sp], #4
200008ba:	e7f1      	b.n	200008a0 <bits_val.constprop.7>

200008bc <call_bits_val_var>:
200008bc:	b500      	push	{lr}
200008be:	f7ff ffef 	bl	200008a0 <bits_val.constprop.7>
200008c2:	f85d eb04 	ldr.w	lr, [sp], #4
200008c6:	e7eb      	b.n	200008a0 <bits_val.constprop.7>

200008c8 <call_bits_val_global>:
200008c8:	e7ea      	b.n	200008a0 <bits_val.constprop.7>
200008ca:	bf00      	nop

200008cc <bits_val>:
200008cc:	4a02      	ldr	r2, [pc, #8]	; (200008d8 <bits_val+0xc>)
200008ce:	6853      	ldr	r3, [r2, #4]
200008d0:	4318      	orrs	r0, r3
200008d2:	6050      	str	r0, [r2, #4]
200008d4:	4770      	bx	lr
200008d6:	bf00      	nop
200008d8:	20002480 	.word	0x20002480

200008dc <bits_ref>:
200008dc:	4a02      	ldr	r2, [pc, #8]	; (200008e8 <bits_ref+0xc>)
200008de:	6801      	ldr	r1, [r0, #0]
200008e0:	6853      	ldr	r3, [r2, #4]
200008e2:	430b      	orrs	r3, r1
200008e4:	6053      	str	r3, [r2, #4]
200008e6:	4770      	bx	lr
200008e8:	20002480 	.word	0x20002480

200008ec <call_bits_ref_const>:
200008ec:	2301      	movs	r3, #1
200008ee:	b500      	push	{lr}
200008f0:	b081      	sub	sp, #4
200008f2:	4668      	mov	r0, sp
200008f4:	9300      	str	r3, [sp, #0]
200008f6:	f7ff fff1 	bl	200008dc <bits_ref>
200008fa:	b001      	add	sp, #4
200008fc:	f85d fb04 	ldr.w	pc, [sp], #4

20000900 <call_bits_ref_var>:
20000900:	2301      	movs	r3, #1
20000902:	b500      	push	{lr}
20000904:	b081      	sub	sp, #4
20000906:	4668      	mov	r0, sp
20000908:	9300      	str	r3, [sp, #0]
2000090a:	f7ff ffe7 	bl	200008dc <bits_ref>
2000090e:	b001      	add	sp, #4
20000910:	f85d fb04 	ldr.w	pc, [sp], #4

20000914 <call_bits_ref_global>:
20000914:	2340      	movs	r3, #64	; 0x40
20000916:	b500      	push	{lr}
20000918:	b081      	sub	sp, #4
2000091a:	4668      	mov	r0, sp
2000091c:	9300      	str	r3, [sp, #0]
2000091e:	f7ff ffdd 	bl	200008dc <bits_ref>
20000922:	b001      	add	sp, #4
20000924:	f85d fb04 	ldr.w	pc, [sp], #4

20000928 <mskd_val>:
20000928:	4a03      	ldr	r2, [pc, #12]	; (20000938 <mskd_val+0x10>)
2000092a:	6853      	ldr	r3, [r2, #4]
2000092c:	ea23 0000 	bic.w	r0, r3, r0
20000930:	4308      	orrs	r0, r1
20000932:	6050      	str	r0, [r2, #4]
20000934:	4770      	bx	lr
20000936:	bf00      	nop
20000938:	20002480 	.word	0x20002480

2000093c <mskd_ref>:
2000093c:	4a05      	ldr	r2, [pc, #20]	; (20000954 <mskd_ref+0x18>)
2000093e:	b410      	push	{r4}
20000940:	6853      	ldr	r3, [r2, #4]
20000942:	6804      	ldr	r4, [r0, #0]
20000944:	6841      	ldr	r1, [r0, #4]
20000946:	ea23 0304 	bic.w	r3, r3, r4
2000094a:	430b      	orrs	r3, r1
2000094c:	6053      	str	r3, [r2, #4]
2000094e:	bc10      	pop	{r4}
20000950:	4770      	bx	lr
20000952:	bf00      	nop
20000954:	20002480 	.word	0x20002480

20000958 <call_mskd_ref_const>:
20000958:	b500      	push	{lr}
2000095a:	4b05      	ldr	r3, [pc, #20]	; (20000970 <call_mskd_ref_const+0x18>)
2000095c:	b082      	sub	sp, #8
2000095e:	4668      	mov	r0, sp
20000960:	cb0c      	ldmia	r3, {r2, r3}
20000962:	e88d 000c 	stmia.w	sp, {r2, r3}
20000966:	f7ff ffe9 	bl	2000093c <mskd_ref>
2000096a:	b002      	add	sp, #8
2000096c:	f85d fb04 	ldr.w	pc, [sp], #4
20000970:	20001678 	.word	0x20001678

20000974 <call_mskd_ref_var>:
20000974:	b500      	push	{lr}
20000976:	4b06      	ldr	r3, [pc, #24]	; (20000990 <call_mskd_ref_var+0x1c>)
20000978:	b082      	sub	sp, #8
2000097a:	4668      	mov	r0, sp
2000097c:	f103 0308 	add.w	r3, r3, #8
20000980:	cb0c      	ldmia	r3, {r2, r3}
20000982:	e88d 000c 	stmia.w	sp, {r2, r3}
20000986:	f7ff ffd9 	bl	2000093c <mskd_ref>
2000098a:	b002      	add	sp, #8
2000098c:	f85d fb04 	ldr.w	pc, [sp], #4
20000990:	20001678 	.word	0x20001678

20000994 <call_mskd_ref_global>:
20000994:	b500      	push	{lr}
20000996:	4b06      	ldr	r3, [pc, #24]	; (200009b0 <call_mskd_ref_global+0x1c>)
20000998:	b082      	sub	sp, #8
2000099a:	4668      	mov	r0, sp
2000099c:	f103 0308 	add.w	r3, r3, #8
200009a0:	cb0c      	ldmia	r3, {r2, r3}
200009a2:	e88d 000c 	stmia.w	sp, {r2, r3}
200009a6:	f7ff ffc9 	bl	2000093c <mskd_ref>
200009aa:	b002      	add	sp, #8
200009ac:	f85d fb04 	ldr.w	pc, [sp], #4
200009b0:	20001678 	.word	0x20001678

200009b4 <periph_bits>:
200009b4:	6843      	ldr	r3, [r0, #4]
200009b6:	f043 0340 	orr.w	r3, r3, #64	; 0x40
200009ba:	6043      	str	r3, [r0, #4]
200009bc:	4770      	bx	lr
200009be:	bf00      	nop

200009c0 <call_periph_bits>:
200009c0:	4801      	ldr	r0, [pc, #4]	; (200009c8 <call_periph_bits+0x8>)
200009c2:	f7ff bff7 	b.w	200009b4 <periph_bits>
200009c6:	bf00      	nop
200009c8:	20002480 	.word	0x20002480

200009cc <periph_bits_val>:
200009cc:	6843      	ldr	r3, [r0, #4]
200009ce:	4319      	orrs	r1, r3
200009d0:	6041      	str	r1, [r0, #4]
200009d2:	4770      	bx	lr

200009d4 <call_periph_bits_val>:
200009d4:	2140      	movs	r1, #64	; 0x40
200009d6:	4801      	ldr	r0, [pc, #4]	; (200009dc <call_periph_bits_val+0x8>)
200009d8:	f7ff bff8 	b.w	200009cc <periph_bits_val>
200009dc:	20002480 	.word	0x20002480

200009e0 <reg_bits_val>:
200009e0:	6803      	ldr	r3, [r0, #0]
200009e2:	4319      	orrs	r1, r3
200009e4:	6001      	str	r1, [r0, #0]
200009e6:	4770      	bx	lr

200009e8 <call_reg_bits_val>:
200009e8:	2140      	movs	r1, #64	; 0x40
200009ea:	4801      	ldr	r0, [pc, #4]	; (200009f0 <call_reg_bits_val+0x8>)
200009ec:	f7ff bff8 	b.w	200009e0 <reg_bits_val>
200009f0:	20002484 	.word	0x20002484

200009f4 <periph_bits_ref>:
200009f4:	680a      	ldr	r2, [r1, #0]
200009f6:	6843      	ldr	r3, [r0, #4]
200009f8:	4313      	orrs	r3, r2
200009fa:	6043      	str	r3, [r0, #4]
200009fc:	4770      	bx	lr
200009fe:	bf00      	nop

20000a00 <call_periph_bits_ref>:
20000a00:	2340      	movs	r3, #64	; 0x40
20000a02:	b500      	push	{lr}
20000a04:	b081      	sub	sp, #4
20000a06:	4669      	mov	r1, sp
20000a08:	4803      	ldr	r0, [pc, #12]	; (20000a18 <call_periph_bits_ref+0x18>)
20000a0a:	9300      	str	r3, [sp, #0]
20000a0c:	f7ff fff2 	bl	200009f4 <periph_bits_ref>
20000a10:	b001      	add	sp, #4
20000a12:	f85d fb04 	ldr.w	pc, [sp], #4
20000a16:	bf00      	nop
20000a18:	20002480 	.word	0x20002480

20000a1c <reg_bits_ref>:
20000a1c:	680a      	ldr	r2, [r1, #0]
20000a1e:	6803      	ldr	r3, [r0, #0]
20000a20:	4313      	orrs	r3, r2
20000a22:	6003      	str	r3, [r0, #0]
20000a24:	4770      	bx	lr
20000a26:	bf00      	nop

20000a28 <call_reg_bits_ref>:
20000a28:	2340      	movs	r3, #64	; 0x40
20000a2a:	b500      	push	{lr}
20000a2c:	b081      	sub	sp, #4
20000a2e:	4669      	mov	r1, sp
20000a30:	4803      	ldr	r0, [pc, #12]	; (20000a40 <call_reg_bits_ref+0x18>)
20000a32:	9300      	str	r3, [sp, #0]
20000a34:	f7ff fff2 	bl	20000a1c <reg_bits_ref>
20000a38:	b001      	add	sp, #4
20000a3a:	f85d fb04 	ldr.w	pc, [sp], #4
20000a3e:	bf00      	nop
20000a40:	20002484 	.word	0x20002484

20000a44 <periph_mskd>:
20000a44:	6843      	ldr	r3, [r0, #4]
20000a46:	f023 0306 	bic.w	r3, r3, #6
20000a4a:	f043 0302 	orr.w	r3, r3, #2
20000a4e:	6043      	str	r3, [r0, #4]
20000a50:	4770      	bx	lr
20000a52:	bf00      	nop

20000a54 <call_periph_mskd>:
20000a54:	4801      	ldr	r0, [pc, #4]	; (20000a5c <call_periph_mskd+0x8>)
20000a56:	f7ff bff5 	b.w	20000a44 <periph_mskd>
20000a5a:	bf00      	nop
20000a5c:	20002480 	.word	0x20002480

20000a60 <periph_mskd_val>:
20000a60:	6843      	ldr	r3, [r0, #4]
20000a62:	ea23 0101 	bic.w	r1, r3, r1
20000a66:	4311      	orrs	r1, r2
20000a68:	6041      	str	r1, [r0, #4]
20000a6a:	4770      	bx	lr

20000a6c <call_periph_mskd_val>:
20000a6c:	2202      	movs	r2, #2
20000a6e:	2106      	movs	r1, #6
20000a70:	4801      	ldr	r0, [pc, #4]	; (20000a78 <call_periph_mskd_val+0xc>)
20000a72:	f7ff bff5 	b.w	20000a60 <periph_mskd_val>
20000a76:	bf00      	nop
20000a78:	20002480 	.word	0x20002480

20000a7c <reg_mskd_val>:
20000a7c:	6803      	ldr	r3, [r0, #0]
20000a7e:	ea23 0101 	bic.w	r1, r3, r1
20000a82:	4311      	orrs	r1, r2
20000a84:	6001      	str	r1, [r0, #0]
20000a86:	4770      	bx	lr

20000a88 <call_reg_mskd_val>:
20000a88:	2202      	movs	r2, #2
20000a8a:	2106      	movs	r1, #6
20000a8c:	4801      	ldr	r0, [pc, #4]	; (20000a94 <call_reg_mskd_val+0xc>)
20000a8e:	f7ff bff5 	b.w	20000a7c <reg_mskd_val>
20000a92:	bf00      	nop
20000a94:	20002484 	.word	0x20002484

20000a98 <periph_mskd_ref>:
20000a98:	b410      	push	{r4}
20000a9a:	6843      	ldr	r3, [r0, #4]
20000a9c:	680c      	ldr	r4, [r1, #0]
20000a9e:	684a      	ldr	r2, [r1, #4]
20000aa0:	ea23 0304 	bic.w	r3, r3, r4
20000aa4:	4313      	orrs	r3, r2
20000aa6:	6043      	str	r3, [r0, #4]
20000aa8:	bc10      	pop	{r4}
20000aaa:	4770      	bx	lr

20000aac <call_periph_mskd_ref>:
20000aac:	b500      	push	{lr}
20000aae:	4b07      	ldr	r3, [pc, #28]	; (20000acc <call_periph_mskd_ref+0x20>)
20000ab0:	b082      	sub	sp, #8
20000ab2:	4669      	mov	r1, sp
20000ab4:	f103 0308 	add.w	r3, r3, #8
20000ab8:	cb0c      	ldmia	r3, {r2, r3}
20000aba:	4805      	ldr	r0, [pc, #20]	; (20000ad0 <call_periph_mskd_ref+0x24>)
20000abc:	e88d 000c 	stmia.w	sp, {r2, r3}
20000ac0:	f7ff ffea 	bl	20000a98 <periph_mskd_ref>
20000ac4:	b002      	add	sp, #8
20000ac6:	f85d fb04 	ldr.w	pc, [sp], #4
20000aca:	bf00      	nop
20000acc:	20001678 	.word	0x20001678
20000ad0:	20002480 	.word	0x20002480

20000ad4 <reg_mskd_ref>:
20000ad4:	b410      	push	{r4}
20000ad6:	6803      	ldr	r3, [r0, #0]
20000ad8:	680c      	ldr	r4, [r1, #0]
20000ada:	684a      	ldr	r2, [r1, #4]
20000adc:	ea23 0304 	bic.w	r3, r3, r4
20000ae0:	4313      	orrs	r3, r2
20000ae2:	6003      	str	r3, [r0, #0]
20000ae4:	bc10      	pop	{r4}
20000ae6:	4770      	bx	lr

20000ae8 <call_reg_mskd_ref>:
20000ae8:	b500      	push	{lr}
20000aea:	4b07      	ldr	r3, [pc, #28]	; (20000b08 <call_reg_mskd_ref+0x20>)
20000aec:	b082      	sub	sp, #8
20000aee:	4669      	mov	r1, sp
20000af0:	f103 0308 	add.w	r3, r3, #8
20000af4:	cb0c      	ldmia	r3, {r2, r3}
20000af6:	4805      	ldr	r0, [pc, #20]	; (20000b0c <call_reg_mskd_ref+0x24>)
20000af8:	e88d 000c 	stmia.w	sp, {r2, r3}
20000afc:	f7ff ffea 	bl	20000ad4 <reg_mskd_ref>
20000b00:	b002      	add	sp, #8
20000b02:	f85d fb04 	ldr.w	pc, [sp], #4
20000b06:	bf00      	nop
20000b08:	20001678 	.word	0x20001678
20000b0c:	20002484 	.word	0x20002484

20000b10 <return_bits>:
20000b10:	2020      	movs	r0, #32
20000b12:	4770      	bx	lr

20000b14 <call_return_bits>:
20000b14:	b500      	push	{lr}
20000b16:	f7ff fffb 	bl	20000b10 <return_bits>
20000b1a:	2820      	cmp	r0, #32
20000b1c:	bf0c      	ite	eq
20000b1e:	f04f 5228 	moveq.w	r2, #704643072	; 0x2a000000
20000b22:	f04f 5278 	movne.w	r2, #1040187392	; 0x3e000000
20000b26:	4b02      	ldr	r3, [pc, #8]	; (20000b30 <call_return_bits+0x1c>)
20000b28:	605a      	str	r2, [r3, #4]
20000b2a:	f85d fb04 	ldr.w	pc, [sp], #4
20000b2e:	bf00      	nop
20000b30:	200023e0 	.word	0x200023e0

20000b34 <return_mskd>:
20000b34:	2218      	movs	r2, #24
20000b36:	2308      	movs	r3, #8
20000b38:	6002      	str	r2, [r0, #0]
20000b3a:	600b      	str	r3, [r1, #0]
20000b3c:	4770      	bx	lr
20000b3e:	bf00      	nop

20000b40 <call_return_mskd>:
20000b40:	b500      	push	{lr}
20000b42:	b082      	sub	sp, #8
20000b44:	a901      	add	r1, sp, #4
20000b46:	4668      	mov	r0, sp
20000b48:	f7ff fff4 	bl	20000b34 <return_mskd>
20000b4c:	9b00      	ldr	r3, [sp, #0]
20000b4e:	2b18      	cmp	r3, #24
20000b50:	d006      	beq.n	20000b60 <call_return_mskd+0x20>
20000b52:	f04f 5218 	mov.w	r2, #637534208	; 0x26000000
20000b56:	4b07      	ldr	r3, [pc, #28]	; (20000b74 <call_return_mskd+0x34>)
20000b58:	605a      	str	r2, [r3, #4]
20000b5a:	b002      	add	sp, #8
20000b5c:	f85d fb04 	ldr.w	pc, [sp], #4
20000b60:	9b01      	ldr	r3, [sp, #4]
20000b62:	2b08      	cmp	r3, #8
20000b64:	d1f5      	bne.n	20000b52 <call_return_mskd+0x12>
20000b66:	f04f 5208 	mov.w	r2, #570425344	; 0x22000000
20000b6a:	4b02      	ldr	r3, [pc, #8]	; (20000b74 <call_return_mskd+0x34>)
20000b6c:	605a      	str	r2, [r3, #4]
20000b6e:	b002      	add	sp, #8
20000b70:	f85d fb04 	ldr.w	pc, [sp], #4
20000b74:	200023e0 	.word	0x200023e0

20000b78 <return_reg>:
20000b78:	2240      	movs	r2, #64	; 0x40
20000b7a:	4b02      	ldr	r3, [pc, #8]	; (20000b84 <return_reg+0xc>)
20000b7c:	4802      	ldr	r0, [pc, #8]	; (20000b88 <return_reg+0x10>)
20000b7e:	605a      	str	r2, [r3, #4]
20000b80:	4770      	bx	lr
20000b82:	bf00      	nop
20000b84:	20002480 	.word	0x20002480
20000b88:	20002484 	.word	0x20002484

20000b8c <call_return_reg>:
20000b8c:	b500      	push	{lr}
20000b8e:	f7ff fff3 	bl	20000b78 <return_reg>
20000b92:	6803      	ldr	r3, [r0, #0]
20000b94:	2b40      	cmp	r3, #64	; 0x40
20000b96:	bf0c      	ite	eq
20000b98:	f04f 52f0 	moveq.w	r2, #503316480	; 0x1e000000
20000b9c:	f04f 5238 	movne.w	r2, #771751936	; 0x2e000000
20000ba0:	4b01      	ldr	r3, [pc, #4]	; (20000ba8 <call_return_reg+0x1c>)
20000ba2:	605a      	str	r2, [r3, #4]
20000ba4:	f85d fb04 	ldr.w	pc, [sp], #4
20000ba8:	200023e0 	.word	0x200023e0

20000bac <return_periph>:
20000bac:	2340      	movs	r3, #64	; 0x40
20000bae:	4801      	ldr	r0, [pc, #4]	; (20000bb4 <return_periph+0x8>)
20000bb0:	6043      	str	r3, [r0, #4]
20000bb2:	4770      	bx	lr
20000bb4:	20002480 	.word	0x20002480

20000bb8 <call_return_periph>:
20000bb8:	b500      	push	{lr}
20000bba:	f7ff fff7 	bl	20000bac <return_periph>
20000bbe:	6843      	ldr	r3, [r0, #4]
20000bc0:	2b40      	cmp	r3, #64	; 0x40
20000bc2:	bf0c      	ite	eq
20000bc4:	f04f 5218 	moveq.w	r2, #637534208	; 0x26000000
20000bc8:	f04f 5228 	movne.w	r2, #704643072	; 0x2a000000
20000bcc:	4b01      	ldr	r3, [pc, #4]	; (20000bd4 <call_return_periph+0x1c>)
20000bce:	605a      	str	r2, [r3, #4]
20000bd0:	f85d fb04 	ldr.w	pc, [sp], #4
20000bd4:	200023e0 	.word	0x200023e0

20000bd8 <pos_val>:
20000bd8:	b2c0      	uxtb	r0, r0
20000bda:	2805      	cmp	r0, #5
20000bdc:	d006      	beq.n	20000bec <pos_val+0x14>
20000bde:	2806      	cmp	r0, #6
20000be0:	bf0c      	ite	eq
20000be2:	2244      	moveq	r2, #68	; 0x44
20000be4:	2255      	movne	r2, #85	; 0x55
20000be6:	4b03      	ldr	r3, [pc, #12]	; (20000bf4 <pos_val+0x1c>)
20000be8:	62da      	str	r2, [r3, #44]	; 0x2c
20000bea:	4770      	bx	lr
20000bec:	2233      	movs	r2, #51	; 0x33
20000bee:	4b01      	ldr	r3, [pc, #4]	; (20000bf4 <pos_val+0x1c>)
20000bf0:	62da      	str	r2, [r3, #44]	; 0x2c
20000bf2:	4770      	bx	lr
20000bf4:	200022c0 	.word	0x200022c0

20000bf8 <pos_ref>:
20000bf8:	7803      	ldrb	r3, [r0, #0]
20000bfa:	2b05      	cmp	r3, #5
20000bfc:	d006      	beq.n	20000c0c <pos_ref+0x14>
20000bfe:	2b06      	cmp	r3, #6
20000c00:	bf0c      	ite	eq
20000c02:	2277      	moveq	r2, #119	; 0x77
20000c04:	2288      	movne	r2, #136	; 0x88
20000c06:	4b03      	ldr	r3, [pc, #12]	; (20000c14 <pos_ref+0x1c>)
20000c08:	62da      	str	r2, [r3, #44]	; 0x2c
20000c0a:	4770      	bx	lr
20000c0c:	2266      	movs	r2, #102	; 0x66
20000c0e:	4b01      	ldr	r3, [pc, #4]	; (20000c14 <pos_ref+0x1c>)
20000c10:	62da      	str	r2, [r3, #44]	; 0x2c
20000c12:	4770      	bx	lr
20000c14:	200022c0 	.word	0x200022c0

20000c18 <call_pos_ref>:
20000c18:	2305      	movs	r3, #5
20000c1a:	b500      	push	{lr}
20000c1c:	b081      	sub	sp, #4
20000c1e:	f10d 0003 	add.w	r0, sp, #3
20000c22:	f88d 3003 	strb.w	r3, [sp, #3]
20000c26:	f7ff fdf7 	bl	20000818 <pos_ref.constprop.2>
20000c2a:	f10d 0003 	add.w	r0, sp, #3
20000c2e:	f7ff ffe3 	bl	20000bf8 <pos_ref>
20000c32:	b001      	add	sp, #4
20000c34:	f85d fb04 	ldr.w	pc, [sp], #4

20000c38 <runtime_range_val>:
20000c38:	4a03      	ldr	r2, [pc, #12]	; (20000c48 <runtime_range_val+0x10>)
20000c3a:	6853      	ldr	r3, [r2, #4]
20000c3c:	ea23 0000 	bic.w	r0, r3, r0
20000c40:	4308      	orrs	r0, r1
20000c42:	6050      	str	r0, [r2, #4]
20000c44:	4770      	bx	lr
20000c46:	bf00      	nop
20000c48:	20002480 	.word	0x20002480

20000c4c <call_range_val>:
20000c4c:	0300      	lsls	r0, r0, #12
20000c4e:	f400 30f8 	and.w	r0, r0, #126976	; 0x1f000
20000c52:	e5d1      	b.n	200007f8 <runtime_range_val.constprop.1>

20000c54 <runtime_range_ref>:
20000c54:	4a05      	ldr	r2, [pc, #20]	; (20000c6c <runtime_range_ref+0x18>)
20000c56:	b410      	push	{r4}
20000c58:	6853      	ldr	r3, [r2, #4]
20000c5a:	6804      	ldr	r4, [r0, #0]
20000c5c:	6841      	ldr	r1, [r0, #4]
20000c5e:	ea23 0304 	bic.w	r3, r3, r4
20000c62:	430b      	orrs	r3, r1
20000c64:	6053      	str	r3, [r2, #4]
20000c66:	bc10      	pop	{r4}
20000c68:	4770      	bx	lr
20000c6a:	bf00      	nop
20000c6c:	20002480 	.word	0x20002480

20000c70 <call_range_ref>:
20000c70:	f44f 32f8 	mov.w	r2, #126976	; 0x1f000
20000c74:	b500      	push	{lr}
20000c76:	0300      	lsls	r0, r0, #12
20000c78:	b082      	sub	sp, #8
20000c7a:	ea00 0302 	and.w	r3, r0, r2
20000c7e:	4668      	mov	r0, sp
20000c80:	e88d 000c 	stmia.w	sp, {r2, r3}
20000c84:	f7ff ffe6 	bl	20000c54 <runtime_range_ref>
20000c88:	b002      	add	sp, #8
20000c8a:	f85d fb04 	ldr.w	pc, [sp], #4
20000c8e:	bf00      	nop

20000c90 <call_range_ref_port>:
20000c90:	200c      	movs	r0, #12
20000c92:	f7ff bfed 	b.w	20000c70 <call_range_ref>
20000c96:	bf00      	nop

20000c98 <check_array_range_pass>:
20000c98:	2816      	cmp	r0, #22
20000c9a:	bf94      	ite	ls
20000c9c:	227f      	movls	r2, #127	; 0x7f
20000c9e:	2283      	movhi	r2, #131	; 0x83
20000ca0:	4b01      	ldr	r3, [pc, #4]	; (20000ca8 <check_array_range_pass+0x10>)
20000ca2:	62da      	str	r2, [r3, #44]	; 0x2c
20000ca4:	4770      	bx	lr
20000ca6:	bf00      	nop
20000ca8:	200022c0 	.word	0x200022c0

20000cac <check_array_range_fail>:
20000cac:	2816      	cmp	r0, #22
20000cae:	bf94      	ite	ls
20000cb0:	2295      	movls	r2, #149	; 0x95
20000cb2:	2297      	movhi	r2, #151	; 0x97
20000cb4:	4b01      	ldr	r3, [pc, #4]	; (20000cbc <check_array_range_fail+0x10>)
20000cb6:	62da      	str	r2, [r3, #44]	; 0x2c
20000cb8:	4770      	bx	lr
20000cba:	bf00      	nop
20000cbc:	200022c0 	.word	0x200022c0

20000cc0 <check_bits_range_pass>:
20000cc0:	280f      	cmp	r0, #15
20000cc2:	bf94      	ite	ls
20000cc4:	229d      	movls	r2, #157	; 0x9d
20000cc6:	22a3      	movhi	r2, #163	; 0xa3
20000cc8:	4b01      	ldr	r3, [pc, #4]	; (20000cd0 <check_bits_range_pass+0x10>)
20000cca:	62da      	str	r2, [r3, #44]	; 0x2c
20000ccc:	4770      	bx	lr
20000cce:	bf00      	nop
20000cd0:	200022c0 	.word	0x200022c0

20000cd4 <check_bits_range_fail>:
20000cd4:	280f      	cmp	r0, #15
20000cd6:	bf94      	ite	ls
20000cd8:	22a7      	movls	r2, #167	; 0xa7
20000cda:	22ad      	movhi	r2, #173	; 0xad
20000cdc:	4b01      	ldr	r3, [pc, #4]	; (20000ce4 <check_bits_range_fail+0x10>)
20000cde:	62da      	str	r2, [r3, #44]	; 0x2c
20000ce0:	4770      	bx	lr
20000ce2:	bf00      	nop
20000ce4:	200022c0 	.word	0x200022c0

20000ce8 <check_mskd_range_pass>:
20000ce8:	281f      	cmp	r0, #31
20000cea:	bf94      	ite	ls
20000cec:	22b3      	movls	r2, #179	; 0xb3
20000cee:	22b5      	movhi	r2, #181	; 0xb5
20000cf0:	4b01      	ldr	r3, [pc, #4]	; (20000cf8 <check_mskd_range_pass+0x10>)
20000cf2:	62da      	str	r2, [r3, #44]	; 0x2c
20000cf4:	4770      	bx	lr
20000cf6:	bf00      	nop
20000cf8:	200022c0 	.word	0x200022c0

20000cfc <check_mskd_range_fail>:
20000cfc:	281f      	cmp	r0, #31
20000cfe:	bf94      	ite	ls
20000d00:	22bf      	movls	r2, #191	; 0xbf
20000d02:	22c1      	movhi	r2, #193	; 0xc1
20000d04:	4b01      	ldr	r3, [pc, #4]	; (20000d0c <check_mskd_range_fail+0x10>)
20000d06:	62da      	str	r2, [r3, #44]	; 0x2c
20000d08:	4770      	bx	lr
20000d0a:	bf00      	nop
20000d0c:	200022c0 	.word	0x200022c0

20000d10 <bits_extract_ne>:
20000d10:	2220      	movs	r2, #32
20000d12:	4b04      	ldr	r3, [pc, #16]	; (20000d24 <bits_extract_ne+0x14>)
20000d14:	605a      	str	r2, [r3, #4]
20000d16:	685a      	ldr	r2, [r3, #4]
20000d18:	2a20      	cmp	r2, #32
20000d1a:	bf14      	ite	ne
20000d1c:	2202      	movne	r2, #2
20000d1e:	2204      	moveq	r2, #4
20000d20:	605a      	str	r2, [r3, #4]
20000d22:	4770      	bx	lr
20000d24:	20002480 	.word	0x20002480

20000d28 <mskd_extract_geq>:
20000d28:	f04f 52b0 	mov.w	r2, #369098752	; 0x16000000
20000d2c:	4b05      	ldr	r3, [pc, #20]	; (20000d44 <mskd_extract_geq+0x1c>)
20000d2e:	605a      	str	r2, [r3, #4]
20000d30:	685b      	ldr	r3, [r3, #4]
20000d32:	f003 5378 	and.w	r3, r3, #1040187392	; 0x3e000000
20000d36:	4293      	cmp	r3, r2
20000d38:	bf2c      	ite	cs
20000d3a:	2220      	movcs	r2, #32
20000d3c:	2240      	movcc	r2, #64	; 0x40
20000d3e:	4b02      	ldr	r3, [pc, #8]	; (20000d48 <mskd_extract_geq+0x20>)
20000d40:	605a      	str	r2, [r3, #4]
20000d42:	4770      	bx	lr
20000d44:	200023e0 	.word	0x200023e0
20000d48:	20002480 	.word	0x20002480

20000d4c <shifted_val>:
20000d4c:	b410      	push	{r4}
20000d4e:	f04f 5438 	mov.w	r4, #771751936	; 0x2e000000
20000d52:	4b04      	ldr	r3, [pc, #16]	; (20000d64 <shifted_val+0x18>)
20000d54:	4a04      	ldr	r2, [pc, #16]	; (20000d68 <shifted_val+0x1c>)
20000d56:	605c      	str	r4, [r3, #4]
20000d58:	685b      	ldr	r3, [r3, #4]
20000d5a:	bc10      	pop	{r4}
20000d5c:	4018      	ands	r0, r3
20000d5e:	40c8      	lsrs	r0, r1
20000d60:	62d0      	str	r0, [r2, #44]	; 0x2c
20000d62:	4770      	bx	lr
20000d64:	200023e0 	.word	0x200023e0
20000d68:	200022c0 	.word	0x200022c0

20000d6c <call_shifted_const_val>:
20000d6c:	2119      	movs	r1, #25
20000d6e:	f04f 5078 	mov.w	r0, #1040187392	; 0x3e000000
20000d72:	f7ff bfeb 	b.w	20000d4c <shifted_val>
20000d76:	bf00      	nop

20000d78 <call_shifted_var_val>:
20000d78:	2119      	movs	r1, #25
20000d7a:	f04f 5078 	mov.w	r0, #1040187392	; 0x3e000000
20000d7e:	f7ff bfe5 	b.w	20000d4c <shifted_val>
20000d82:	bf00      	nop

20000d84 <call_shifted_global_val>:
20000d84:	2119      	movs	r1, #25
20000d86:	f04f 5078 	mov.w	r0, #1040187392	; 0x3e000000
20000d8a:	f7ff bfdf 	b.w	20000d4c <shifted_val>
20000d8e:	bf00      	nop

20000d90 <shifted_ref>:
20000d90:	f04f 5138 	mov.w	r1, #771751936	; 0x2e000000
20000d94:	4b05      	ldr	r3, [pc, #20]	; (20000dac <shifted_ref+0x1c>)
20000d96:	b410      	push	{r4}
20000d98:	6059      	str	r1, [r3, #4]
20000d9a:	6804      	ldr	r4, [r0, #0]
20000d9c:	685b      	ldr	r3, [r3, #4]
20000d9e:	6841      	ldr	r1, [r0, #4]
20000da0:	4023      	ands	r3, r4
20000da2:	4a03      	ldr	r2, [pc, #12]	; (20000db0 <shifted_ref+0x20>)
20000da4:	40cb      	lsrs	r3, r1
20000da6:	62d3      	str	r3, [r2, #44]	; 0x2c
20000da8:	bc10      	pop	{r4}
20000daa:	4770      	bx	lr
20000dac:	200023e0 	.word	0x200023e0
20000db0:	200022c0 	.word	0x200022c0

20000db4 <call_shifted_const_ref>:
20000db4:	b500      	push	{lr}
20000db6:	4b06      	ldr	r3, [pc, #24]	; (20000dd0 <call_shifted_const_ref+0x1c>)
20000db8:	b082      	sub	sp, #8
20000dba:	4668      	mov	r0, sp
20000dbc:	f103 0310 	add.w	r3, r3, #16
20000dc0:	cb0c      	ldmia	r3, {r2, r3}
20000dc2:	e88d 000c 	stmia.w	sp, {r2, r3}
20000dc6:	f7ff ffe3 	bl	20000d90 <shifted_ref>
20000dca:	b002      	add	sp, #8
20000dcc:	f85d fb04 	ldr.w	pc, [sp], #4
20000dd0:	20001678 	.word	0x20001678

20000dd4 <call_shifted_var_ref>:
20000dd4:	b500      	push	{lr}
20000dd6:	4b06      	ldr	r3, [pc, #24]	; (20000df0 <call_shifted_var_ref+0x1c>)
20000dd8:	b082      	sub	sp, #8
20000dda:	4668      	mov	r0, sp
20000ddc:	f103 0310 	add.w	r3, r3, #16
20000de0:	cb0c      	ldmia	r3, {r2, r3}
20000de2:	e88d 000c 	stmia.w	sp, {r2, r3}
20000de6:	f7ff ffd3 	bl	20000d90 <shifted_ref>
20000dea:	b002      	add	sp, #8
20000dec:	f85d fb04 	ldr.w	pc, [sp], #4
20000df0:	20001678 	.word	0x20001678

20000df4 <call_shifted_global_ref>:
20000df4:	b500      	push	{lr}
20000df6:	4b06      	ldr	r3, [pc, #24]	; (20000e10 <call_shifted_global_ref+0x1c>)
20000df8:	b082      	sub	sp, #8
20000dfa:	4668      	mov	r0, sp
20000dfc:	f103 0310 	add.w	r3, r3, #16
20000e00:	cb0c      	ldmia	r3, {r2, r3}
20000e02:	e88d 000c 	stmia.w	sp, {r2, r3}
20000e06:	f7ff ffc3 	bl	20000d90 <shifted_ref>
20000e0a:	b002      	add	sp, #8
20000e0c:	f85d fb04 	ldr.w	pc, [sp], #4
20000e10:	20001678 	.word	0x20001678

20000e14 <copy_bits_val>:
20000e14:	0643      	lsls	r3, r0, #25
20000e16:	bf4c      	ite	mi
20000e18:	2202      	movmi	r2, #2
20000e1a:	2204      	movpl	r2, #4
20000e1c:	4b01      	ldr	r3, [pc, #4]	; (20000e24 <copy_bits_val+0x10>)
20000e1e:	605a      	str	r2, [r3, #4]
20000e20:	4770      	bx	lr
20000e22:	bf00      	nop
20000e24:	20002480 	.word	0x20002480

20000e28 <call_copy_bits_val>:
20000e28:	2240      	movs	r2, #64	; 0x40
20000e2a:	4b02      	ldr	r3, [pc, #8]	; (20000e34 <call_copy_bits_val+0xc>)
20000e2c:	605a      	str	r2, [r3, #4]
20000e2e:	6858      	ldr	r0, [r3, #4]
20000e30:	f7ff bff0 	b.w	20000e14 <copy_bits_val>
20000e34:	20002480 	.word	0x20002480

20000e38 <copy_bits_ref>:
20000e38:	6803      	ldr	r3, [r0, #0]
20000e3a:	065b      	lsls	r3, r3, #25
20000e3c:	bf4c      	ite	mi
20000e3e:	2202      	movmi	r2, #2
20000e40:	2204      	movpl	r2, #4
20000e42:	4b01      	ldr	r3, [pc, #4]	; (20000e48 <copy_bits_ref+0x10>)
20000e44:	605a      	str	r2, [r3, #4]
20000e46:	4770      	bx	lr
20000e48:	20002480 	.word	0x20002480

20000e4c <call_copy_bits_ref>:
20000e4c:	2240      	movs	r2, #64	; 0x40
20000e4e:	b500      	push	{lr}
20000e50:	4b05      	ldr	r3, [pc, #20]	; (20000e68 <call_copy_bits_ref+0x1c>)
20000e52:	b081      	sub	sp, #4
20000e54:	605a      	str	r2, [r3, #4]
20000e56:	685b      	ldr	r3, [r3, #4]
20000e58:	4668      	mov	r0, sp
20000e5a:	9300      	str	r3, [sp, #0]
20000e5c:	f7ff ffec 	bl	20000e38 <copy_bits_ref>
20000e60:	b001      	add	sp, #4
20000e62:	f85d fb04 	ldr.w	pc, [sp], #4
20000e66:	bf00      	nop
20000e68:	20002480 	.word	0x20002480

20000e6c <run>:
20000e6c:	b570      	push	{r4, r5, r6, lr}
20000e6e:	4cd2      	ldr	r4, [pc, #840]	; (200011b8 <run+0x34c>)
20000e70:	2200      	movs	r2, #0
20000e72:	4621      	mov	r1, r4
20000e74:	48d1      	ldr	r0, [pc, #836]	; (200011bc <run+0x350>)
20000e76:	f000 fb3d 	bl	200014f4 <do_test>
20000e7a:	4621      	mov	r1, r4
20000e7c:	2201      	movs	r2, #1
20000e7e:	48d0      	ldr	r0, [pc, #832]	; (200011c0 <run+0x354>)
20000e80:	f000 fb38 	bl	200014f4 <do_test>
20000e84:	4621      	mov	r1, r4
20000e86:	2202      	movs	r2, #2
20000e88:	48ce      	ldr	r0, [pc, #824]	; (200011c4 <run+0x358>)
20000e8a:	f000 fb33 	bl	200014f4 <do_test>
20000e8e:	4621      	mov	r1, r4
20000e90:	2203      	movs	r2, #3
20000e92:	48cd      	ldr	r0, [pc, #820]	; (200011c8 <run+0x35c>)
20000e94:	f000 fb2e 	bl	200014f4 <do_test>
20000e98:	4621      	mov	r1, r4
20000e9a:	2204      	movs	r2, #4
20000e9c:	48cb      	ldr	r0, [pc, #812]	; (200011cc <run+0x360>)
20000e9e:	f000 fb29 	bl	200014f4 <do_test>
20000ea2:	4621      	mov	r1, r4
20000ea4:	2205      	movs	r2, #5
20000ea6:	48ca      	ldr	r0, [pc, #808]	; (200011d0 <run+0x364>)
20000ea8:	f000 fb24 	bl	200014f4 <do_test>
20000eac:	4621      	mov	r1, r4
20000eae:	2206      	movs	r2, #6
20000eb0:	48c8      	ldr	r0, [pc, #800]	; (200011d4 <run+0x368>)
20000eb2:	f000 fb1f 	bl	200014f4 <do_test>
20000eb6:	4621      	mov	r1, r4
20000eb8:	2207      	movs	r2, #7
20000eba:	48c7      	ldr	r0, [pc, #796]	; (200011d8 <run+0x36c>)
20000ebc:	f000 fb1a 	bl	200014f4 <do_test>
20000ec0:	4621      	mov	r1, r4
20000ec2:	2208      	movs	r2, #8
20000ec4:	48c5      	ldr	r0, [pc, #788]	; (200011dc <run+0x370>)
20000ec6:	f000 fb15 	bl	200014f4 <do_test>
20000eca:	4621      	mov	r1, r4
20000ecc:	2209      	movs	r2, #9
20000ece:	48c4      	ldr	r0, [pc, #784]	; (200011e0 <run+0x374>)
20000ed0:	f000 fb10 	bl	200014f4 <do_test>
20000ed4:	4621      	mov	r1, r4
20000ed6:	220a      	movs	r2, #10
20000ed8:	48c2      	ldr	r0, [pc, #776]	; (200011e4 <run+0x378>)
20000eda:	f000 fb0b 	bl	200014f4 <do_test>
20000ede:	4621      	mov	r1, r4
20000ee0:	220b      	movs	r2, #11
20000ee2:	48c1      	ldr	r0, [pc, #772]	; (200011e8 <run+0x37c>)
20000ee4:	f000 fb06 	bl	200014f4 <do_test>
20000ee8:	4621      	mov	r1, r4
20000eea:	220c      	movs	r2, #12
20000eec:	48bf      	ldr	r0, [pc, #764]	; (200011ec <run+0x380>)
20000eee:	f000 fb01 	bl	200014f4 <do_test>
20000ef2:	4621      	mov	r1, r4
20000ef4:	220d      	movs	r2, #13
20000ef6:	48be      	ldr	r0, [pc, #760]	; (200011f0 <run+0x384>)
20000ef8:	f000 fafc 	bl	200014f4 <do_test>
20000efc:	4621      	mov	r1, r4
20000efe:	220e      	movs	r2, #14
20000f00:	48bc      	ldr	r0, [pc, #752]	; (200011f4 <run+0x388>)
20000f02:	f000 faf7 	bl	200014f4 <do_test>
20000f06:	4621      	mov	r1, r4
20000f08:	220f      	movs	r2, #15
20000f0a:	48bb      	ldr	r0, [pc, #748]	; (200011f8 <run+0x38c>)
20000f0c:	f000 faf2 	bl	200014f4 <do_test>
20000f10:	4621      	mov	r1, r4
20000f12:	2210      	movs	r2, #16
20000f14:	48b9      	ldr	r0, [pc, #740]	; (200011fc <run+0x390>)
20000f16:	f000 faed 	bl	200014f4 <do_test>
20000f1a:	4621      	mov	r1, r4
20000f1c:	2211      	movs	r2, #17
20000f1e:	48b8      	ldr	r0, [pc, #736]	; (20001200 <run+0x394>)
20000f20:	f000 fae8 	bl	200014f4 <do_test>
20000f24:	4621      	mov	r1, r4
20000f26:	2212      	movs	r2, #18
20000f28:	48b6      	ldr	r0, [pc, #728]	; (20001204 <run+0x398>)
20000f2a:	f000 fae3 	bl	200014f4 <do_test>
20000f2e:	4621      	mov	r1, r4
20000f30:	2213      	movs	r2, #19
20000f32:	48b5      	ldr	r0, [pc, #724]	; (20001208 <run+0x39c>)
20000f34:	f000 fade 	bl	200014f4 <do_test>
20000f38:	4621      	mov	r1, r4
20000f3a:	2214      	movs	r2, #20
20000f3c:	48b3      	ldr	r0, [pc, #716]	; (2000120c <run+0x3a0>)
20000f3e:	f000 fad9 	bl	200014f4 <do_test>
20000f42:	4621      	mov	r1, r4
20000f44:	2215      	movs	r2, #21
20000f46:	48b2      	ldr	r0, [pc, #712]	; (20001210 <run+0x3a4>)
20000f48:	f000 fad4 	bl	200014f4 <do_test>
20000f4c:	4621      	mov	r1, r4
20000f4e:	2216      	movs	r2, #22
20000f50:	48b0      	ldr	r0, [pc, #704]	; (20001214 <run+0x3a8>)
20000f52:	f000 facf 	bl	200014f4 <do_test>
20000f56:	4621      	mov	r1, r4
20000f58:	2217      	movs	r2, #23
20000f5a:	48af      	ldr	r0, [pc, #700]	; (20001218 <run+0x3ac>)
20000f5c:	f000 faca 	bl	200014f4 <do_test>
20000f60:	4621      	mov	r1, r4
20000f62:	2218      	movs	r2, #24
20000f64:	48ad      	ldr	r0, [pc, #692]	; (2000121c <run+0x3b0>)
20000f66:	f000 fac5 	bl	200014f4 <do_test>
20000f6a:	4621      	mov	r1, r4
20000f6c:	2219      	movs	r2, #25
20000f6e:	48ac      	ldr	r0, [pc, #688]	; (20001220 <run+0x3b4>)
20000f70:	f000 fac0 	bl	200014f4 <do_test>
20000f74:	4621      	mov	r1, r4
20000f76:	221a      	movs	r2, #26
20000f78:	48aa      	ldr	r0, [pc, #680]	; (20001224 <run+0x3b8>)
20000f7a:	f000 fabb 	bl	200014f4 <do_test>
20000f7e:	4621      	mov	r1, r4
20000f80:	221b      	movs	r2, #27
20000f82:	48a9      	ldr	r0, [pc, #676]	; (20001228 <run+0x3bc>)
20000f84:	f000 fab6 	bl	200014f4 <do_test>
20000f88:	4621      	mov	r1, r4
20000f8a:	221c      	movs	r2, #28
20000f8c:	48a7      	ldr	r0, [pc, #668]	; (2000122c <run+0x3c0>)
20000f8e:	f000 fab1 	bl	200014f4 <do_test>
20000f92:	4621      	mov	r1, r4
20000f94:	221d      	movs	r2, #29
20000f96:	48a6      	ldr	r0, [pc, #664]	; (20001230 <run+0x3c4>)
20000f98:	f000 faac 	bl	200014f4 <do_test>
20000f9c:	4621      	mov	r1, r4
20000f9e:	221e      	movs	r2, #30
20000fa0:	48a4      	ldr	r0, [pc, #656]	; (20001234 <run+0x3c8>)
20000fa2:	f000 faa7 	bl	200014f4 <do_test>
20000fa6:	4621      	mov	r1, r4
20000fa8:	221f      	movs	r2, #31
20000faa:	48a3      	ldr	r0, [pc, #652]	; (20001238 <run+0x3cc>)
20000fac:	f000 faa2 	bl	200014f4 <do_test>
20000fb0:	4621      	mov	r1, r4
20000fb2:	2220      	movs	r2, #32
20000fb4:	48a1      	ldr	r0, [pc, #644]	; (2000123c <run+0x3d0>)
20000fb6:	f000 fa9d 	bl	200014f4 <do_test>
20000fba:	4621      	mov	r1, r4
20000fbc:	2221      	movs	r2, #33	; 0x21
20000fbe:	48a0      	ldr	r0, [pc, #640]	; (20001240 <run+0x3d4>)
20000fc0:	f000 fa98 	bl	200014f4 <do_test>
20000fc4:	4621      	mov	r1, r4
20000fc6:	2222      	movs	r2, #34	; 0x22
20000fc8:	489e      	ldr	r0, [pc, #632]	; (20001244 <run+0x3d8>)
20000fca:	4e9f      	ldr	r6, [pc, #636]	; (20001248 <run+0x3dc>)
20000fcc:	f000 fa92 	bl	200014f4 <do_test>
20000fd0:	4621      	mov	r1, r4
20000fd2:	2223      	movs	r2, #35	; 0x23
20000fd4:	489d      	ldr	r0, [pc, #628]	; (2000124c <run+0x3e0>)
20000fd6:	f000 fa8d 	bl	200014f4 <do_test>
20000fda:	4621      	mov	r1, r4
20000fdc:	2224      	movs	r2, #36	; 0x24
20000fde:	489c      	ldr	r0, [pc, #624]	; (20001250 <run+0x3e4>)
20000fe0:	f000 fa88 	bl	200014f4 <do_test>
20000fe4:	4631      	mov	r1, r6
20000fe6:	2225      	movs	r2, #37	; 0x25
20000fe8:	489a      	ldr	r0, [pc, #616]	; (20001254 <run+0x3e8>)
20000fea:	f000 fa83 	bl	200014f4 <do_test>
20000fee:	4631      	mov	r1, r6
20000ff0:	2226      	movs	r2, #38	; 0x26
20000ff2:	4899      	ldr	r0, [pc, #612]	; (20001258 <run+0x3ec>)
20000ff4:	f000 fa7e 	bl	200014f4 <do_test>
20000ff8:	4631      	mov	r1, r6
20000ffa:	2227      	movs	r2, #39	; 0x27
20000ffc:	4897      	ldr	r0, [pc, #604]	; (2000125c <run+0x3f0>)
20000ffe:	f000 fa79 	bl	200014f4 <do_test>
20001002:	4621      	mov	r1, r4
20001004:	2228      	movs	r2, #40	; 0x28
20001006:	4896      	ldr	r0, [pc, #600]	; (20001260 <run+0x3f4>)
20001008:	f000 fa74 	bl	200014f4 <do_test>
2000100c:	4621      	mov	r1, r4
2000100e:	2229      	movs	r2, #41	; 0x29
20001010:	4894      	ldr	r0, [pc, #592]	; (20001264 <run+0x3f8>)
20001012:	f000 fa6f 	bl	200014f4 <do_test>
20001016:	4621      	mov	r1, r4
20001018:	222a      	movs	r2, #42	; 0x2a
2000101a:	4893      	ldr	r0, [pc, #588]	; (20001268 <run+0x3fc>)
2000101c:	f000 fa6a 	bl	200014f4 <do_test>
20001020:	4621      	mov	r1, r4
20001022:	222b      	movs	r2, #43	; 0x2b
20001024:	4891      	ldr	r0, [pc, #580]	; (2000126c <run+0x400>)
20001026:	f000 fa65 	bl	200014f4 <do_test>
2000102a:	4621      	mov	r1, r4
2000102c:	222c      	movs	r2, #44	; 0x2c
2000102e:	4890      	ldr	r0, [pc, #576]	; (20001270 <run+0x404>)
20001030:	f000 fa60 	bl	200014f4 <do_test>
20001034:	222d      	movs	r2, #45	; 0x2d
20001036:	498f      	ldr	r1, [pc, #572]	; (20001274 <run+0x408>)
20001038:	488f      	ldr	r0, [pc, #572]	; (20001278 <run+0x40c>)
2000103a:	f000 fa5b 	bl	200014f4 <do_test>
2000103e:	4621      	mov	r1, r4
20001040:	222e      	movs	r2, #46	; 0x2e
20001042:	488e      	ldr	r0, [pc, #568]	; (2000127c <run+0x410>)
20001044:	f000 fa56 	bl	200014f4 <do_test>
20001048:	4621      	mov	r1, r4
2000104a:	222f      	movs	r2, #47	; 0x2f
2000104c:	488c      	ldr	r0, [pc, #560]	; (20001280 <run+0x414>)
2000104e:	f000 fa51 	bl	200014f4 <do_test>
20001052:	4621      	mov	r1, r4
20001054:	2230      	movs	r2, #48	; 0x30
20001056:	488b      	ldr	r0, [pc, #556]	; (20001284 <run+0x418>)
20001058:	f000 fa4c 	bl	200014f4 <do_test>
2000105c:	4621      	mov	r1, r4
2000105e:	2231      	movs	r2, #49	; 0x31
20001060:	4889      	ldr	r0, [pc, #548]	; (20001288 <run+0x41c>)
20001062:	f000 fa47 	bl	200014f4 <do_test>
20001066:	4621      	mov	r1, r4
20001068:	2232      	movs	r2, #50	; 0x32
2000106a:	4888      	ldr	r0, [pc, #544]	; (2000128c <run+0x420>)
2000106c:	f000 fa42 	bl	200014f4 <do_test>
20001070:	4621      	mov	r1, r4
20001072:	2233      	movs	r2, #51	; 0x33
20001074:	4886      	ldr	r0, [pc, #536]	; (20001290 <run+0x424>)
20001076:	f000 fa3d 	bl	200014f4 <do_test>
2000107a:	4621      	mov	r1, r4
2000107c:	2234      	movs	r2, #52	; 0x34
2000107e:	4885      	ldr	r0, [pc, #532]	; (20001294 <run+0x428>)
20001080:	f000 fa38 	bl	200014f4 <do_test>
20001084:	4621      	mov	r1, r4
20001086:	2235      	movs	r2, #53	; 0x35
20001088:	4883      	ldr	r0, [pc, #524]	; (20001298 <run+0x42c>)
2000108a:	f000 fa33 	bl	200014f4 <do_test>
2000108e:	4621      	mov	r1, r4
20001090:	2236      	movs	r2, #54	; 0x36
20001092:	4882      	ldr	r0, [pc, #520]	; (2000129c <run+0x430>)
20001094:	f000 fa2e 	bl	200014f4 <do_test>
20001098:	4621      	mov	r1, r4
2000109a:	2237      	movs	r2, #55	; 0x37
2000109c:	4880      	ldr	r0, [pc, #512]	; (200012a0 <run+0x434>)
2000109e:	f000 fa29 	bl	200014f4 <do_test>
200010a2:	4621      	mov	r1, r4
200010a4:	2238      	movs	r2, #56	; 0x38
200010a6:	487f      	ldr	r0, [pc, #508]	; (200012a4 <run+0x438>)
200010a8:	f000 fa24 	bl	200014f4 <do_test>
200010ac:	4621      	mov	r1, r4
200010ae:	2239      	movs	r2, #57	; 0x39
200010b0:	487d      	ldr	r0, [pc, #500]	; (200012a8 <run+0x43c>)
200010b2:	f000 fa1f 	bl	200014f4 <do_test>
200010b6:	4621      	mov	r1, r4
200010b8:	223a      	movs	r2, #58	; 0x3a
200010ba:	487c      	ldr	r0, [pc, #496]	; (200012ac <run+0x440>)
200010bc:	f000 fa1a 	bl	200014f4 <do_test>
200010c0:	4621      	mov	r1, r4
200010c2:	223b      	movs	r2, #59	; 0x3b
200010c4:	487a      	ldr	r0, [pc, #488]	; (200012b0 <run+0x444>)
200010c6:	f000 fa15 	bl	200014f4 <do_test>
200010ca:	4621      	mov	r1, r4
200010cc:	223c      	movs	r2, #60	; 0x3c
200010ce:	4879      	ldr	r0, [pc, #484]	; (200012b4 <run+0x448>)
200010d0:	f000 fa10 	bl	200014f4 <do_test>
200010d4:	4621      	mov	r1, r4
200010d6:	223d      	movs	r2, #61	; 0x3d
200010d8:	4877      	ldr	r0, [pc, #476]	; (200012b8 <run+0x44c>)
200010da:	f000 fa0b 	bl	200014f4 <do_test>
200010de:	4621      	mov	r1, r4
200010e0:	223e      	movs	r2, #62	; 0x3e
200010e2:	4876      	ldr	r0, [pc, #472]	; (200012bc <run+0x450>)
200010e4:	f000 fa06 	bl	200014f4 <do_test>
200010e8:	4621      	mov	r1, r4
200010ea:	223f      	movs	r2, #63	; 0x3f
200010ec:	4874      	ldr	r0, [pc, #464]	; (200012c0 <run+0x454>)
200010ee:	f000 fa01 	bl	200014f4 <do_test>
200010f2:	4631      	mov	r1, r6
200010f4:	2240      	movs	r2, #64	; 0x40
200010f6:	4873      	ldr	r0, [pc, #460]	; (200012c4 <run+0x458>)
200010f8:	f000 f9fc 	bl	200014f4 <do_test>
200010fc:	4631      	mov	r1, r6
200010fe:	2241      	movs	r2, #65	; 0x41
20001100:	4871      	ldr	r0, [pc, #452]	; (200012c8 <run+0x45c>)
20001102:	4d72      	ldr	r5, [pc, #456]	; (200012cc <run+0x460>)
20001104:	f000 f9f6 	bl	200014f4 <do_test>
20001108:	4631      	mov	r1, r6
2000110a:	2242      	movs	r2, #66	; 0x42
2000110c:	4870      	ldr	r0, [pc, #448]	; (200012d0 <run+0x464>)
2000110e:	f000 f9f1 	bl	200014f4 <do_test>
20001112:	4621      	mov	r1, r4
20001114:	2243      	movs	r2, #67	; 0x43
20001116:	486f      	ldr	r0, [pc, #444]	; (200012d4 <run+0x468>)
20001118:	f000 f9ec 	bl	200014f4 <do_test>
2000111c:	4629      	mov	r1, r5
2000111e:	2244      	movs	r2, #68	; 0x44
20001120:	486d      	ldr	r0, [pc, #436]	; (200012d8 <run+0x46c>)
20001122:	f000 f9e7 	bl	200014f4 <do_test>
20001126:	4629      	mov	r1, r5
20001128:	2245      	movs	r2, #69	; 0x45
2000112a:	486c      	ldr	r0, [pc, #432]	; (200012dc <run+0x470>)
2000112c:	f000 f9e2 	bl	200014f4 <do_test>
20001130:	4621      	mov	r1, r4
20001132:	2246      	movs	r2, #70	; 0x46
20001134:	486a      	ldr	r0, [pc, #424]	; (200012e0 <run+0x474>)
20001136:	f000 f9dd 	bl	200014f4 <do_test>
2000113a:	4621      	mov	r1, r4
2000113c:	2247      	movs	r2, #71	; 0x47
2000113e:	4869      	ldr	r0, [pc, #420]	; (200012e4 <run+0x478>)
20001140:	f000 f9d8 	bl	200014f4 <do_test>
20001144:	4629      	mov	r1, r5
20001146:	2248      	movs	r2, #72	; 0x48
20001148:	4867      	ldr	r0, [pc, #412]	; (200012e8 <run+0x47c>)
2000114a:	f000 f9d3 	bl	200014f4 <do_test>
2000114e:	4629      	mov	r1, r5
20001150:	2249      	movs	r2, #73	; 0x49
20001152:	4866      	ldr	r0, [pc, #408]	; (200012ec <run+0x480>)
20001154:	f000 f9ce 	bl	200014f4 <do_test>
20001158:	4621      	mov	r1, r4
2000115a:	224a      	movs	r2, #74	; 0x4a
2000115c:	4864      	ldr	r0, [pc, #400]	; (200012f0 <run+0x484>)
2000115e:	f000 f9c9 	bl	200014f4 <do_test>
20001162:	4621      	mov	r1, r4
20001164:	224b      	movs	r2, #75	; 0x4b
20001166:	4863      	ldr	r0, [pc, #396]	; (200012f4 <run+0x488>)
20001168:	f000 f9c4 	bl	200014f4 <do_test>
2000116c:	4621      	mov	r1, r4
2000116e:	224c      	movs	r2, #76	; 0x4c
20001170:	4861      	ldr	r0, [pc, #388]	; (200012f8 <run+0x48c>)
20001172:	f000 f9bf 	bl	200014f4 <do_test>
20001176:	4621      	mov	r1, r4
20001178:	224d      	movs	r2, #77	; 0x4d
2000117a:	4860      	ldr	r0, [pc, #384]	; (200012fc <run+0x490>)
2000117c:	f000 f9ba 	bl	200014f4 <do_test>
20001180:	4e5f      	ldr	r6, [pc, #380]	; (20001300 <run+0x494>)
20001182:	4621      	mov	r1, r4
20001184:	224e      	movs	r2, #78	; 0x4e
20001186:	485f      	ldr	r0, [pc, #380]	; (20001304 <run+0x498>)
20001188:	f000 f9b4 	bl	200014f4 <do_test>
2000118c:	4621      	mov	r1, r4
2000118e:	224f      	movs	r2, #79	; 0x4f
20001190:	485d      	ldr	r0, [pc, #372]	; (20001308 <run+0x49c>)
20001192:	f000 f9af 	bl	200014f4 <do_test>
20001196:	4621      	mov	r1, r4
20001198:	4630      	mov	r0, r6
2000119a:	2250      	movs	r2, #80	; 0x50
2000119c:	f000 f9aa 	bl	200014f4 <do_test>
200011a0:	4630      	mov	r0, r6
200011a2:	4621      	mov	r1, r4
200011a4:	2251      	movs	r2, #81	; 0x51
200011a6:	f000 f9a5 	bl	200014f4 <do_test>
200011aa:	4621      	mov	r1, r4
200011ac:	2252      	movs	r2, #82	; 0x52
200011ae:	4857      	ldr	r0, [pc, #348]	; (2000130c <run+0x4a0>)
200011b0:	f000 f9a0 	bl	200014f4 <do_test>
200011b4:	e0ac      	b.n	20001310 <run+0x4a4>
200011b6:	bf00      	nop
200011b8:	20002484 	.word	0x20002484
200011bc:	200000ed 	.word	0x200000ed
200011c0:	200000f9 	.word	0x200000f9
200011c4:	20000105 	.word	0x20000105
200011c8:	20000115 	.word	0x20000115
200011cc:	20000125 	.word	0x20000125
200011d0:	20000135 	.word	0x20000135
200011d4:	20000145 	.word	0x20000145
200011d8:	20000155 	.word	0x20000155
200011dc:	20000165 	.word	0x20000165
200011e0:	20000175 	.word	0x20000175
200011e4:	20000185 	.word	0x20000185
200011e8:	20000191 	.word	0x20000191
200011ec:	2000019d 	.word	0x2000019d
200011f0:	200001a9 	.word	0x200001a9
200011f4:	200001b5 	.word	0x200001b5
200011f8:	200001c5 	.word	0x200001c5
200011fc:	200001d5 	.word	0x200001d5
20001200:	200001e5 	.word	0x200001e5
20001204:	200001f5 	.word	0x200001f5
20001208:	20000209 	.word	0x20000209
2000120c:	2000021d 	.word	0x2000021d
20001210:	2000022d 	.word	0x2000022d
20001214:	2000023d 	.word	0x2000023d
20001218:	20000255 	.word	0x20000255
2000121c:	2000026d 	.word	0x2000026d
20001220:	20000279 	.word	0x20000279
20001224:	20000285 	.word	0x20000285
20001228:	20000295 	.word	0x20000295
2000122c:	200002a5 	.word	0x200002a5
20001230:	200002b1 	.word	0x200002b1
20001234:	200002bd 	.word	0x200002bd
20001238:	200002c9 	.word	0x200002c9
2000123c:	200002d5 	.word	0x200002d5
20001240:	200002e5 	.word	0x200002e5
20001244:	200002f9 	.word	0x200002f9
20001248:	200023e4 	.word	0x200023e4
2000124c:	20000321 	.word	0x20000321
20001250:	2000033d 	.word	0x2000033d
20001254:	20000361 	.word	0x20000361
20001258:	20000379 	.word	0x20000379
2000125c:	2000039d 	.word	0x2000039d
20001260:	200003c1 	.word	0x200003c1
20001264:	200003f1 	.word	0x200003f1
20001268:	2000041d 	.word	0x2000041d
2000126c:	20000441 	.word	0x20000441
20001270:	20000459 	.word	0x20000459
20001274:	20002360 	.word	0x20002360
20001278:	2000046d 	.word	0x2000046d
2000127c:	200008b1 	.word	0x200008b1
20001280:	200008bd 	.word	0x200008bd
20001284:	200008ed 	.word	0x200008ed
20001288:	20000901 	.word	0x20000901
2000128c:	20000885 	.word	0x20000885
20001290:	20000891 	.word	0x20000891
20001294:	20000959 	.word	0x20000959
20001298:	20000975 	.word	0x20000975
2000129c:	200009c1 	.word	0x200009c1
200012a0:	200009d5 	.word	0x200009d5
200012a4:	200009e9 	.word	0x200009e9
200012a8:	20000a01 	.word	0x20000a01
200012ac:	20000a29 	.word	0x20000a29
200012b0:	20000a55 	.word	0x20000a55
200012b4:	20000a6d 	.word	0x20000a6d
200012b8:	20000a89 	.word	0x20000a89
200012bc:	20000aad 	.word	0x20000aad
200012c0:	20000ae9 	.word	0x20000ae9
200012c4:	20000b15 	.word	0x20000b15
200012c8:	20000b41 	.word	0x20000b41
200012cc:	200022ec 	.word	0x200022ec
200012d0:	20000b8d 	.word	0x20000b8d
200012d4:	20000bb9 	.word	0x20000bb9
200012d8:	20000861 	.word	0x20000861
200012dc:	20000c19 	.word	0x20000c19
200012e0:	20000815 	.word	0x20000815
200012e4:	20000c91 	.word	0x20000c91
200012e8:	20000499 	.word	0x20000499
200012ec:	200004b5 	.word	0x200004b5
200012f0:	200004d1 	.word	0x200004d1
200012f4:	200004f9 	.word	0x200004f9
200012f8:	20000531 	.word	0x20000531
200012fc:	20000559 	.word	0x20000559
20001300:	200005a9 	.word	0x200005a9
20001304:	20000591 	.word	0x20000591
20001308:	2000059d 	.word	0x2000059d
2000130c:	200005c1 	.word	0x200005c1
20001310:	4e53      	ldr	r6, [pc, #332]	; (20001460 <run+0x5f4>)
20001312:	4621      	mov	r1, r4
20001314:	2253      	movs	r2, #83	; 0x53
20001316:	4853      	ldr	r0, [pc, #332]	; (20001464 <run+0x5f8>)
20001318:	f000 f8ec 	bl	200014f4 <do_test>
2000131c:	4621      	mov	r1, r4
2000131e:	2254      	movs	r2, #84	; 0x54
20001320:	4851      	ldr	r0, [pc, #324]	; (20001468 <run+0x5fc>)
20001322:	f000 f8e7 	bl	200014f4 <do_test>
20001326:	4621      	mov	r1, r4
20001328:	4630      	mov	r0, r6
2000132a:	2255      	movs	r2, #85	; 0x55
2000132c:	f000 f8e2 	bl	200014f4 <do_test>
20001330:	4621      	mov	r1, r4
20001332:	2256      	movs	r2, #86	; 0x56
20001334:	484d      	ldr	r0, [pc, #308]	; (2000146c <run+0x600>)
20001336:	f000 f8dd 	bl	200014f4 <do_test>
2000133a:	4630      	mov	r0, r6
2000133c:	4621      	mov	r1, r4
2000133e:	2257      	movs	r2, #87	; 0x57
20001340:	f000 f8d8 	bl	200014f4 <do_test>
20001344:	4621      	mov	r1, r4
20001346:	2258      	movs	r2, #88	; 0x58
20001348:	4849      	ldr	r0, [pc, #292]	; (20001470 <run+0x604>)
2000134a:	f000 f8d3 	bl	200014f4 <do_test>
2000134e:	4621      	mov	r1, r4
20001350:	2259      	movs	r2, #89	; 0x59
20001352:	4848      	ldr	r0, [pc, #288]	; (20001474 <run+0x608>)
20001354:	f000 f8ce 	bl	200014f4 <do_test>
20001358:	4629      	mov	r1, r5
2000135a:	225a      	movs	r2, #90	; 0x5a
2000135c:	4846      	ldr	r0, [pc, #280]	; (20001478 <run+0x60c>)
2000135e:	f000 f8c9 	bl	200014f4 <do_test>
20001362:	4629      	mov	r1, r5
20001364:	225b      	movs	r2, #91	; 0x5b
20001366:	4845      	ldr	r0, [pc, #276]	; (2000147c <run+0x610>)
20001368:	f000 f8c4 	bl	200014f4 <do_test>
2000136c:	4621      	mov	r1, r4
2000136e:	225c      	movs	r2, #92	; 0x5c
20001370:	4843      	ldr	r0, [pc, #268]	; (20001480 <run+0x614>)
20001372:	f000 f8bf 	bl	200014f4 <do_test>
20001376:	4629      	mov	r1, r5
20001378:	225d      	movs	r2, #93	; 0x5d
2000137a:	4842      	ldr	r0, [pc, #264]	; (20001484 <run+0x618>)
2000137c:	f000 f8ba 	bl	200014f4 <do_test>
20001380:	4629      	mov	r1, r5
20001382:	225e      	movs	r2, #94	; 0x5e
20001384:	4840      	ldr	r0, [pc, #256]	; (20001488 <run+0x61c>)
20001386:	f000 f8b5 	bl	200014f4 <do_test>
2000138a:	4621      	mov	r1, r4
2000138c:	225f      	movs	r2, #95	; 0x5f
2000138e:	483f      	ldr	r0, [pc, #252]	; (2000148c <run+0x620>)
20001390:	f000 f8b0 	bl	200014f4 <do_test>
20001394:	4621      	mov	r1, r4
20001396:	2260      	movs	r2, #96	; 0x60
20001398:	483d      	ldr	r0, [pc, #244]	; (20001490 <run+0x624>)
2000139a:	f000 f8ab 	bl	200014f4 <do_test>
2000139e:	4621      	mov	r1, r4
200013a0:	2261      	movs	r2, #97	; 0x61
200013a2:	483c      	ldr	r0, [pc, #240]	; (20001494 <run+0x628>)
200013a4:	f000 f8a6 	bl	200014f4 <do_test>
200013a8:	4621      	mov	r1, r4
200013aa:	2262      	movs	r2, #98	; 0x62
200013ac:	483a      	ldr	r0, [pc, #232]	; (20001498 <run+0x62c>)
200013ae:	f000 f8a1 	bl	200014f4 <do_test>
200013b2:	4629      	mov	r1, r5
200013b4:	2263      	movs	r2, #99	; 0x63
200013b6:	4839      	ldr	r0, [pc, #228]	; (2000149c <run+0x630>)
200013b8:	f000 f89c 	bl	200014f4 <do_test>
200013bc:	4629      	mov	r1, r5
200013be:	2264      	movs	r2, #100	; 0x64
200013c0:	4837      	ldr	r0, [pc, #220]	; (200014a0 <run+0x634>)
200013c2:	f000 f897 	bl	200014f4 <do_test>
200013c6:	4629      	mov	r1, r5
200013c8:	2265      	movs	r2, #101	; 0x65
200013ca:	4836      	ldr	r0, [pc, #216]	; (200014a4 <run+0x638>)
200013cc:	f000 f892 	bl	200014f4 <do_test>
200013d0:	4629      	mov	r1, r5
200013d2:	2266      	movs	r2, #102	; 0x66
200013d4:	4834      	ldr	r0, [pc, #208]	; (200014a8 <run+0x63c>)
200013d6:	f000 f88d 	bl	200014f4 <do_test>
200013da:	4629      	mov	r1, r5
200013dc:	2267      	movs	r2, #103	; 0x67
200013de:	4833      	ldr	r0, [pc, #204]	; (200014ac <run+0x640>)
200013e0:	f000 f888 	bl	200014f4 <do_test>
200013e4:	4629      	mov	r1, r5
200013e6:	2268      	movs	r2, #104	; 0x68
200013e8:	4831      	ldr	r0, [pc, #196]	; (200014b0 <run+0x644>)
200013ea:	f000 f883 	bl	200014f4 <do_test>
200013ee:	4621      	mov	r1, r4
200013f0:	2269      	movs	r2, #105	; 0x69
200013f2:	4830      	ldr	r0, [pc, #192]	; (200014b4 <run+0x648>)
200013f4:	f000 f87e 	bl	200014f4 <do_test>
200013f8:	4621      	mov	r1, r4
200013fa:	226a      	movs	r2, #106	; 0x6a
200013fc:	482e      	ldr	r0, [pc, #184]	; (200014b8 <run+0x64c>)
200013fe:	f000 f879 	bl	200014f4 <do_test>
20001402:	4621      	mov	r1, r4
20001404:	226b      	movs	r2, #107	; 0x6b
20001406:	482d      	ldr	r0, [pc, #180]	; (200014bc <run+0x650>)
20001408:	f000 f874 	bl	200014f4 <do_test>
2000140c:	4621      	mov	r1, r4
2000140e:	226c      	movs	r2, #108	; 0x6c
20001410:	482b      	ldr	r0, [pc, #172]	; (200014c0 <run+0x654>)
20001412:	f000 f86f 	bl	200014f4 <do_test>
20001416:	4621      	mov	r1, r4
20001418:	226d      	movs	r2, #109	; 0x6d
2000141a:	482a      	ldr	r0, [pc, #168]	; (200014c4 <run+0x658>)
2000141c:	f000 f86a 	bl	200014f4 <do_test>
20001420:	4621      	mov	r1, r4
20001422:	226e      	movs	r2, #110	; 0x6e
20001424:	4828      	ldr	r0, [pc, #160]	; (200014c8 <run+0x65c>)
20001426:	f000 f865 	bl	200014f4 <do_test>
2000142a:	4621      	mov	r1, r4
2000142c:	226f      	movs	r2, #111	; 0x6f
2000142e:	4827      	ldr	r0, [pc, #156]	; (200014cc <run+0x660>)
20001430:	f000 f860 	bl	200014f4 <do_test>
20001434:	4621      	mov	r1, r4
20001436:	2270      	movs	r2, #112	; 0x70
20001438:	4825      	ldr	r0, [pc, #148]	; (200014d0 <run+0x664>)
2000143a:	f000 f85b 	bl	200014f4 <do_test>
2000143e:	4621      	mov	r1, r4
20001440:	2271      	movs	r2, #113	; 0x71
20001442:	4824      	ldr	r0, [pc, #144]	; (200014d4 <run+0x668>)
20001444:	f000 f856 	bl	200014f4 <do_test>
20001448:	4621      	mov	r1, r4
2000144a:	2272      	movs	r2, #114	; 0x72
2000144c:	4822      	ldr	r0, [pc, #136]	; (200014d8 <run+0x66c>)
2000144e:	f000 f851 	bl	200014f4 <do_test>
20001452:	4621      	mov	r1, r4
20001454:	e8bd 4070 	ldmia.w	sp!, {r4, r5, r6, lr}
20001458:	2273      	movs	r2, #115	; 0x73
2000145a:	4820      	ldr	r0, [pc, #128]	; (200014dc <run+0x670>)
2000145c:	f000 b84a 	b.w	200014f4 <do_test>
20001460:	20000621 	.word	0x20000621
20001464:	200005dd 	.word	0x200005dd
20001468:	200005f9 	.word	0x200005f9
2000146c:	20000645 	.word	0x20000645
20001470:	2000066d 	.word	0x2000066d
20001474:	2000067d 	.word	0x2000067d
20001478:	20000691 	.word	0x20000691
2000147c:	2000069d 	.word	0x2000069d
20001480:	200006b9 	.word	0x200006b9
20001484:	2000086d 	.word	0x2000086d
20001488:	20000831 	.word	0x20000831
2000148c:	200008c9 	.word	0x200008c9
20001490:	20000915 	.word	0x20000915
20001494:	2000089d 	.word	0x2000089d
20001498:	20000995 	.word	0x20000995
2000149c:	20000d6d 	.word	0x20000d6d
200014a0:	20000d79 	.word	0x20000d79
200014a4:	20000d85 	.word	0x20000d85
200014a8:	20000db5 	.word	0x20000db5
200014ac:	20000dd5 	.word	0x20000dd5
200014b0:	20000df5 	.word	0x20000df5
200014b4:	200006c5 	.word	0x200006c5
200014b8:	200006dd 	.word	0x200006dd
200014bc:	200006f5 	.word	0x200006f5
200014c0:	20000719 	.word	0x20000719
200014c4:	2000073d 	.word	0x2000073d
200014c8:	20000765 	.word	0x20000765
200014cc:	20000789 	.word	0x20000789
200014d0:	200007b1 	.word	0x200007b1
200014d4:	200007d5 	.word	0x200007d5
200014d8:	20000e29 	.word	0x20000e29
200014dc:	20000e4d 	.word	0x20000e4d

200014e0 <memset>:
200014e0:	4402      	add	r2, r0
200014e2:	4290      	cmp	r0, r2
200014e4:	d205      	bcs.n	200014f2 <memset+0x12>
200014e6:	4603      	mov	r3, r0
200014e8:	b2c9      	uxtb	r1, r1
200014ea:	f803 1b01 	strb.w	r1, [r3], #1
200014ee:	429a      	cmp	r2, r3
200014f0:	d1fb      	bne.n	200014ea <memset+0xa>
200014f2:	4770      	bx	lr

200014f4 <do_test>:
200014f4:	2300      	movs	r3, #0
200014f6:	b5f0      	push	{r4, r5, r6, r7, lr}
200014f8:	460d      	mov	r5, r1
200014fa:	4614      	mov	r4, r2
200014fc:	600b      	str	r3, [r1, #0]
200014fe:	4607      	mov	r7, r0
20001500:	4780      	blx	r0
20001502:	f04f 33ff 	mov.w	r3, #4294967295	; 0xffffffff
20001506:	682a      	ldr	r2, [r5, #0]
20001508:	4e05      	ldr	r6, [pc, #20]	; (20001520 <do_test+0x2c>)
2000150a:	0064      	lsls	r4, r4, #1
2000150c:	f846 2024 	str.w	r2, [r6, r4, lsl #2]
20001510:	602b      	str	r3, [r5, #0]
20001512:	47b8      	blx	r7
20001514:	682b      	ldr	r3, [r5, #0]
20001516:	3401      	adds	r4, #1
20001518:	f846 3024 	str.w	r3, [r6, r4, lsl #2]
2000151c:	bdf0      	pop	{r4, r5, r6, r7, pc}
2000151e:	bf00      	nop
20001520:	20001694 	.word	0x20001694

20001524 <NMI_Handler>:
20001524:	e7fe      	b.n	20001524 <NMI_Handler>
20001526:	bf00      	nop

20001528 <HardFault_Handler>:
20001528:	e7fe      	b.n	20001528 <HardFault_Handler>
2000152a:	bf00      	nop

2000152c <MemManage_Handler>:
2000152c:	e7fe      	b.n	2000152c <MemManage_Handler>
2000152e:	bf00      	nop

20001530 <BusFault_Handler>:
20001530:	e7fe      	b.n	20001530 <BusFault_Handler>
20001532:	bf00      	nop

20001534 <UsageFault_Handler>:
20001534:	e7fe      	b.n	20001534 <UsageFault_Handler>
20001536:	bf00      	nop

20001538 <Reserved1_Handler>:
20001538:	e7fe      	b.n	20001538 <Reserved1_Handler>
2000153a:	bf00      	nop

2000153c <Reserved2_Handler>:
2000153c:	e7fe      	b.n	2000153c <Reserved2_Handler>
2000153e:	bf00      	nop

20001540 <Reserved3_Handler>:
20001540:	e7fe      	b.n	20001540 <Reserved3_Handler>
20001542:	bf00      	nop

20001544 <Reserved4_Handler>:
20001544:	e7fe      	b.n	20001544 <Reserved4_Handler>
20001546:	bf00      	nop

20001548 <SVCall_Handler>:
20001548:	e7fe      	b.n	20001548 <SVCall_Handler>
2000154a:	bf00      	nop

2000154c <Debug_Handler>:
2000154c:	e7fe      	b.n	2000154c <Debug_Handler>
2000154e:	bf00      	nop

20001550 <Reserved5_Handler>:
20001550:	e7fe      	b.n	20001550 <Reserved5_Handler>
20001552:	bf00      	nop

20001554 <PendSV_Handler>:
20001554:	e7fe      	b.n	20001554 <PendSV_Handler>
20001556:	bf00      	nop

20001558 <SysTick_Handler>:
20001558:	e7fe      	b.n	20001558 <SysTick_Handler>
2000155a:	bf00      	nop

2000155c <WWDG_IRQHandler>:
2000155c:	e7fe      	b.n	2000155c <WWDG_IRQHandler>
2000155e:	bf00      	nop

20001560 <PVD_IRQHandler>:
20001560:	e7fe      	b.n	20001560 <PVD_IRQHandler>
20001562:	bf00      	nop

20001564 <TAMPER_IRQHandler>:
20001564:	e7fe      	b.n	20001564 <TAMPER_IRQHandler>
20001566:	bf00      	nop

20001568 <RTC_IRQHandler>:
20001568:	e7fe      	b.n	20001568 <RTC_IRQHandler>
2000156a:	bf00      	nop

2000156c <FLASH_IRQHandler>:
2000156c:	e7fe      	b.n	2000156c <FLASH_IRQHandler>
2000156e:	bf00      	nop

20001570 <RCC_IRQHandler>:
20001570:	e7fe      	b.n	20001570 <RCC_IRQHandler>
20001572:	bf00      	nop

20001574 <EXTI0_IRQHandler>:
20001574:	e7fe      	b.n	20001574 <EXTI0_IRQHandler>
20001576:	bf00      	nop

20001578 <EXTI1_IRQHandler>:
20001578:	e7fe      	b.n	20001578 <EXTI1_IRQHandler>
2000157a:	bf00      	nop

2000157c <EXTI2_IRQHandler>:
2000157c:	e7fe      	b.n	2000157c <EXTI2_IRQHandler>
2000157e:	bf00      	nop

20001580 <EXTI3_IRQHandler>:
20001580:	e7fe      	b.n	20001580 <EXTI3_IRQHandler>
20001582:	bf00      	nop

20001584 <EXTI4_IRQHandler>:
20001584:	e7fe      	b.n	20001584 <EXTI4_IRQHandler>
20001586:	bf00      	nop

20001588 <DMA1_Channel1_IRQHandler>:
20001588:	e7fe      	b.n	20001588 <DMA1_Channel1_IRQHandler>
2000158a:	bf00      	nop

2000158c <DMA1_Channel2_IRQHandler>:
2000158c:	e7fe      	b.n	2000158c <DMA1_Channel2_IRQHandler>
2000158e:	bf00      	nop

20001590 <DMA1_Channel3_IRQHandler>:
20001590:	e7fe      	b.n	20001590 <DMA1_Channel3_IRQHandler>
20001592:	bf00      	nop

20001594 <DMA1_Channel4_IRQHandler>:
20001594:	e7fe      	b.n	20001594 <DMA1_Channel4_IRQHandler>
20001596:	bf00      	nop

20001598 <DMA1_Channel5_IRQHandler>:
20001598:	e7fe      	b.n	20001598 <DMA1_Channel5_IRQHandler>
2000159a:	bf00      	nop

2000159c <DMA1_Channel6_IRQHandler>:
2000159c:	e7fe      	b.n	2000159c <DMA1_Channel6_IRQHandler>
2000159e:	bf00      	nop

200015a0 <DMA1_Channel7_IRQHandler>:
200015a0:	e7fe      	b.n	200015a0 <DMA1_Channel7_IRQHandler>
200015a2:	bf00      	nop

200015a4 <ADC1_2_IRQHandler>:
200015a4:	e7fe      	b.n	200015a4 <ADC1_2_IRQHandler>
200015a6:	bf00      	nop

200015a8 <USB_HP_CAN1_TX_IRQHandle>:
200015a8:	e7fe      	b.n	200015a8 <USB_HP_CAN1_TX_IRQHandle>
200015aa:	bf00      	nop

200015ac <USB_LP_CAN1_RX0_IRQHandler>:
200015ac:	e7fe      	b.n	200015ac <USB_LP_CAN1_RX0_IRQHandler>
200015ae:	bf00      	nop

200015b0 <CAN1_RX1_IRQHandler>:
200015b0:	e7fe      	b.n	200015b0 <CAN1_RX1_IRQHandler>
200015b2:	bf00      	nop

200015b4 <CAN1_SCE_IRQHandler>:
200015b4:	e7fe      	b.n	200015b4 <CAN1_SCE_IRQHandler>
200015b6:	bf00      	nop

200015b8 <EXTI9_5_IRQHandler>:
200015b8:	e7fe      	b.n	200015b8 <EXTI9_5_IRQHandler>
200015ba:	bf00      	nop

200015bc <TIM1_BRK_IRQHandler>:
200015bc:	e7fe      	b.n	200015bc <TIM1_BRK_IRQHandler>
200015be:	bf00      	nop

200015c0 <TIM1_UP_IRQHandler>:
200015c0:	e7fe      	b.n	200015c0 <TIM1_UP_IRQHandler>
200015c2:	bf00      	nop

200015c4 <TIM1_TRG_COM_IRQHandler>:
200015c4:	e7fe      	b.n	200015c4 <TIM1_TRG_COM_IRQHandler>
200015c6:	bf00      	nop

200015c8 <TIM1_CC_IRQHandler>:
200015c8:	e7fe      	b.n	200015c8 <TIM1_CC_IRQHandler>
200015ca:	bf00      	nop

200015cc <TIM2_IRQHandler>:
200015cc:	e7fe      	b.n	200015cc <TIM2_IRQHandler>
200015ce:	bf00      	nop

200015d0 <TIM3_IRQHandler>:
200015d0:	e7fe      	b.n	200015d0 <TIM3_IRQHandler>
200015d2:	bf00      	nop

200015d4 <TIM4_IRQHandler>:
200015d4:	e7fe      	b.n	200015d4 <TIM4_IRQHandler>
200015d6:	bf00      	nop

200015d8 <I2C1_EV_IRQHandler>:
200015d8:	e7fe      	b.n	200015d8 <I2C1_EV_IRQHandler>
200015da:	bf00      	nop

200015dc <I2C1_ER_IRQHandler>:
200015dc:	e7fe      	b.n	200015dc <I2C1_ER_IRQHandler>
200015de:	bf00      	nop

200015e0 <I2C2_EV_IRQHandler>:
200015e0:	e7fe      	b.n	200015e0 <I2C2_EV_IRQHandler>
200015e2:	bf00      	nop

200015e4 <I2C2_ER_IRQHandler>:
200015e4:	e7fe      	b.n	200015e4 <I2C2_ER_IRQHandler>
200015e6:	bf00      	nop

200015e8 <SPI1_IRQHandler>:
200015e8:	e7fe      	b.n	200015e8 <SPI1_IRQHandler>
200015ea:	bf00      	nop

200015ec <SPI2_IRQHandler>:
200015ec:	e7fe      	b.n	200015ec <SPI2_IRQHandler>
200015ee:	bf00      	nop

200015f0 <USART1_IRQHandler>:
200015f0:	e7fe      	b.n	200015f0 <USART1_IRQHandler>
200015f2:	bf00      	nop

200015f4 <USART2_IRQHandler>:
200015f4:	e7fe      	b.n	200015f4 <USART2_IRQHandler>
200015f6:	bf00      	nop

200015f8 <USART3_IRQHandler>:
200015f8:	e7fe      	b.n	200015f8 <USART3_IRQHandler>
200015fa:	bf00      	nop

200015fc <EXTI15_10_IRQHandler>:
200015fc:	e7fe      	b.n	200015fc <EXTI15_10_IRQHandler>
200015fe:	bf00      	nop

20001600 <RTC_Alarm_IRQHandler>:
20001600:	e7fe      	b.n	20001600 <RTC_Alarm_IRQHandler>
20001602:	bf00      	nop

20001604 <USBWakeUp_IRQHandler>:
20001604:	e7fe      	b.n	20001604 <USBWakeUp_IRQHandler>
20001606:	bf00      	nop

20001608 <init>:
20001608:	4668      	mov	r0, sp
2000160a:	f020 0107 	bic.w	r1, r0, #7
2000160e:	468d      	mov	sp, r1
20001610:	4a08      	ldr	r2, [pc, #32]	; (20001634 <init+0x2c>)
20001612:	b501      	push	{r0, lr}
20001614:	4808      	ldr	r0, [pc, #32]	; (20001638 <init+0x30>)
20001616:	1a12      	subs	r2, r2, r0
20001618:	d002      	beq.n	20001620 <init+0x18>
2000161a:	2100      	movs	r1, #0
2000161c:	f7ff ff60 	bl	200014e0 <memset>
20001620:	4a06      	ldr	r2, [pc, #24]	; (2000163c <init+0x34>)
20001622:	4b07      	ldr	r3, [pc, #28]	; (20001640 <init+0x38>)
20001624:	609a      	str	r2, [r3, #8]
20001626:	f000 f80d 	bl	20001644 <main>
2000162a:	e8bd 4001 	ldmia.w	sp!, {r0, lr}
2000162e:	4685      	mov	sp, r0
20001630:	4770      	bx	lr
20001632:	bf00      	nop
20001634:	20001a38 	.word	0x20001a38
20001638:	20001690 	.word	0x20001690
2000163c:	20000000 	.word	0x20000000
20001640:	e000ed00 	.word	0xe000ed00

Disassembly of section .rodata:

20001678 <.rodata>:
20001678:	00000006 	.word	0x00000006
2000167c:	00000004 	.word	0x00000004
20001680:	00000006 	.word	0x00000006
20001684:	00000002 	.word	0x00000002
20001688:	3e000000 	.word	0x3e000000
2000168c:	00000019 	.word	0x00000019
