
bitfield.elf:     file format elf32-littlearm


Disassembly of section .text:

20020000 <INTERRUPT_VECTORS>:
20020000:	00 c0 07 20 4d 1e 02 20 65 1c 02 20 69 1c 02 20     ... M.. e.. i.. 
20020010:	6d 1c 02 20 71 1c 02 20 75 1c 02 20 79 1c 02 20     m.. q.. u.. y.. 
20020020:	7d 1c 02 20 81 1c 02 20 85 1c 02 20 89 1c 02 20     }.. ... ... ... 
20020030:	8d 1c 02 20 91 1c 02 20 95 1c 02 20 99 1c 02 20     ... ... ... ... 
20020040:	9d 1c 02 20 a1 1c 02 20 a5 1c 02 20 a9 1c 02 20     ... ... ... ... 
20020050:	ad 1c 02 20 b1 1c 02 20 b5 1c 02 20 b9 1c 02 20     ... ... ... ... 
20020060:	bd 1c 02 20 c1 1c 02 20 c5 1c 02 20 c9 1c 02 20     ... ... ... ... 
20020070:	cd 1c 02 20 d1 1c 02 20 d5 1c 02 20 d9 1c 02 20     ... ... ... ... 
20020080:	dd 1c 02 20 e1 1c 02 20 e5 1c 02 20 e9 1c 02 20     ... ... ... ... 
20020090:	ed 1c 02 20 f1 1c 02 20 f5 1c 02 20 f9 1c 02 20     ... ... ... ... 
200200a0:	fd 1c 02 20 01 1d 02 20 05 1d 02 20 09 1d 02 20     ... ... ... ... 
200200b0:	0d 1d 02 20 11 1d 02 20 15 1d 02 20 19 1d 02 20     ... ... ... ... 
200200c0:	1d 1d 02 20 21 1d 02 20 25 1d 02 20 29 1d 02 20     ... !.. %.. ).. 
200200d0:	2d 1d 02 20 31 1d 02 20 35 1d 02 20 39 1d 02 20     -.. 1.. 5.. 9.. 
200200e0:	3d 1d 02 20 41 1d 02 20 45 1d 02 20 49 1d 02 20     =.. A.. E.. I.. 
200200f0:	4d 1d 02 20 51 1d 02 20 55 1d 02 20 59 1d 02 20     M.. Q.. U.. Y.. 
20020100:	5d 1d 02 20 61 1d 02 20 65 1d 02 20 69 1d 02 20     ].. a.. e.. i.. 
20020110:	6d 1d 02 20 71 1d 02 20 75 1d 02 20 79 1d 02 20     m.. q.. u.. y.. 
20020120:	7d 1d 02 20 81 1d 02 20 85 1d 02 20 89 1d 02 20     }.. ... ... ... 
20020130:	8d 1d 02 20 91 1d 02 20 95 1d 02 20 99 1d 02 20     ... ... ... ... 
20020140:	9d 1d 02 20 a1 1d 02 20 a5 1d 02 20 a9 1d 02 20     ... ... ... ... 
20020150:	ad 1d 02 20 b1 1d 02 20 b5 1d 02 20 b9 1d 02 20     ... ... ... ... 
20020160:	bd 1d 02 20 c1 1d 02 20 c5 1d 02 20 c9 1d 02 20     ... ... ... ... 
20020170:	cd 1d 02 20 d1 1d 02 20 d5 1d 02 20 d9 1d 02 20     ... ... ... ... 
20020180:	dd 1d 02 20 e1 1d 02 20 e5 1d 02 20 e9 1d 02 20     ... ... ... ... 
20020190:	ed 1d 02 20 f1 1d 02 20 f5 1d 02 20 f9 1d 02 20     ... ... ... ... 
200201a0:	fd 1d 02 20 01 1e 02 20 05 1e 02 20 09 1e 02 20     ... ... ... ... 
200201b0:	0d 1e 02 20 11 1e 02 20 15 1e 02 20 19 1e 02 20     ... ... ... ... 
200201c0:	1d 1e 02 20 21 1e 02 20 25 1e 02 20 29 1e 02 20     ... !.. %.. ).. 
200201d0:	2d 1e 02 20 31 1e 02 20 35 1e 02 20 39 1e 02 20     -.. 1.. 5.. 9.. 
200201e0:	3d 1e 02 20 41 1e 02 20 45 1e 02 20 49 1e 02 20     =.. A.. E.. I.. 

200201f0 <zero_reg>:
200201f0:	4b01      	ldr	r3, [pc, #4]	; (200201f8 <zero_reg+0x8>)
200201f2:	2200      	movs	r2, #0
200201f4:	605a      	str	r2, [r3, #4]
200201f6:	4770      	bx	lr
200201f8:	200226c0 	.word	0x200226c0

200201fc <zero_array>:
200201fc:	4b01      	ldr	r3, [pc, #4]	; (20020204 <zero_array+0x8>)
200201fe:	2200      	movs	r2, #0
20020200:	62da      	str	r2, [r3, #44]	; 0x2c
20020202:	4770      	bx	lr
20020204:	20022500 	.word	0x20022500

20020208 <set_singl_bits_operator>:
20020208:	4a02      	ldr	r2, [pc, #8]	; (20020214 <set_singl_bits_operator+0xc>)
2002020a:	6853      	ldr	r3, [r2, #4]
2002020c:	f043 0340 	orr.w	r3, r3, #64	; 0x40
20020210:	6053      	str	r3, [r2, #4]
20020212:	4770      	bx	lr
20020214:	200226c0 	.word	0x200226c0

20020218 <set_singl_bits_method>:
20020218:	4a02      	ldr	r2, [pc, #8]	; (20020224 <set_singl_bits_method+0xc>)
2002021a:	6853      	ldr	r3, [r2, #4]
2002021c:	f043 0340 	orr.w	r3, r3, #64	; 0x40
20020220:	6053      	str	r3, [r2, #4]
20020222:	4770      	bx	lr
20020224:	200226c0 	.word	0x200226c0

20020228 <clr_singl_bits_operator>:
20020228:	4b02      	ldr	r3, [pc, #8]	; (20020234 <clr_singl_bits_operator+0xc>)
2002022a:	685a      	ldr	r2, [r3, #4]
2002022c:	f36f 1286 	bfc	r2, #6, #1
20020230:	605a      	str	r2, [r3, #4]
20020232:	4770      	bx	lr
20020234:	200226c0 	.word	0x200226c0

20020238 <clr_singl_bits_method>:
20020238:	4b02      	ldr	r3, [pc, #8]	; (20020244 <clr_singl_bits_method+0xc>)
2002023a:	685a      	ldr	r2, [r3, #4]
2002023c:	f36f 1286 	bfc	r2, #6, #1
20020240:	605a      	str	r2, [r3, #4]
20020242:	4770      	bx	lr
20020244:	200226c0 	.word	0x200226c0

20020248 <set_singl_mskd_operator>:
20020248:	4a05      	ldr	r2, [pc, #20]	; (20020260 <set_singl_mskd_operator+0x18>)
2002024a:	6853      	ldr	r3, [r2, #4]
2002024c:	6851      	ldr	r1, [r2, #4]
2002024e:	f3c3 0341 	ubfx	r3, r3, #1, #2
20020252:	f043 0301 	orr.w	r3, r3, #1
20020256:	f363 0142 	bfi	r1, r3, #1, #2
2002025a:	6051      	str	r1, [r2, #4]
2002025c:	4770      	bx	lr
2002025e:	bf00      	nop
20020260:	200226c0 	.word	0x200226c0

20020264 <set_singl_mskd_method>:
20020264:	4a05      	ldr	r2, [pc, #20]	; (2002027c <set_singl_mskd_method+0x18>)
20020266:	6853      	ldr	r3, [r2, #4]
20020268:	6851      	ldr	r1, [r2, #4]
2002026a:	f3c3 0341 	ubfx	r3, r3, #1, #2
2002026e:	f043 0301 	orr.w	r3, r3, #1
20020272:	f363 0142 	bfi	r1, r3, #1, #2
20020276:	6051      	str	r1, [r2, #4]
20020278:	4770      	bx	lr
2002027a:	bf00      	nop
2002027c:	200226c0 	.word	0x200226c0

20020280 <clr_singl_mskd_operator>:
20020280:	4a05      	ldr	r2, [pc, #20]	; (20020298 <clr_singl_mskd_operator+0x18>)
20020282:	6853      	ldr	r3, [r2, #4]
20020284:	6851      	ldr	r1, [r2, #4]
20020286:	f3c3 0341 	ubfx	r3, r3, #1, #2
2002028a:	f003 0302 	and.w	r3, r3, #2
2002028e:	f363 0142 	bfi	r1, r3, #1, #2
20020292:	6051      	str	r1, [r2, #4]
20020294:	4770      	bx	lr
20020296:	bf00      	nop
20020298:	200226c0 	.word	0x200226c0

2002029c <clr_singl_mskd_method>:
2002029c:	4a05      	ldr	r2, [pc, #20]	; (200202b4 <clr_singl_mskd_method+0x18>)
2002029e:	6853      	ldr	r3, [r2, #4]
200202a0:	6851      	ldr	r1, [r2, #4]
200202a2:	f3c3 0341 	ubfx	r3, r3, #1, #2
200202a6:	f003 0302 	and.w	r3, r3, #2
200202aa:	f363 0142 	bfi	r1, r3, #1, #2
200202ae:	6051      	str	r1, [r2, #4]
200202b0:	4770      	bx	lr
200202b2:	bf00      	nop
200202b4:	200226c0 	.word	0x200226c0

200202b8 <equ_singl_bits_operator>:
200202b8:	4b03      	ldr	r3, [pc, #12]	; (200202c8 <equ_singl_bits_operator+0x10>)
200202ba:	2200      	movs	r2, #0
200202bc:	605a      	str	r2, [r3, #4]
200202be:	685a      	ldr	r2, [r3, #4]
200202c0:	f042 0240 	orr.w	r2, r2, #64	; 0x40
200202c4:	605a      	str	r2, [r3, #4]
200202c6:	4770      	bx	lr
200202c8:	200226c0 	.word	0x200226c0

200202cc <equ_singl_bits_method>:
200202cc:	4b03      	ldr	r3, [pc, #12]	; (200202dc <equ_singl_bits_method+0x10>)
200202ce:	2200      	movs	r2, #0
200202d0:	605a      	str	r2, [r3, #4]
200202d2:	685a      	ldr	r2, [r3, #4]
200202d4:	f042 0240 	orr.w	r2, r2, #64	; 0x40
200202d8:	605a      	str	r2, [r3, #4]
200202da:	4770      	bx	lr
200202dc:	200226c0 	.word	0x200226c0

200202e0 <equ_singl_mskd_operator>:
200202e0:	4b04      	ldr	r3, [pc, #16]	; (200202f4 <equ_singl_mskd_operator+0x14>)
200202e2:	2200      	movs	r2, #0
200202e4:	2101      	movs	r1, #1
200202e6:	605a      	str	r2, [r3, #4]
200202e8:	685a      	ldr	r2, [r3, #4]
200202ea:	f361 0242 	bfi	r2, r1, #1, #2
200202ee:	605a      	str	r2, [r3, #4]
200202f0:	4770      	bx	lr
200202f2:	bf00      	nop
200202f4:	200226c0 	.word	0x200226c0

200202f8 <equ_singl_mskd_method>:
200202f8:	4b04      	ldr	r3, [pc, #16]	; (2002030c <equ_singl_mskd_method+0x14>)
200202fa:	2200      	movs	r2, #0
200202fc:	2101      	movs	r1, #1
200202fe:	605a      	str	r2, [r3, #4]
20020300:	685a      	ldr	r2, [r3, #4]
20020302:	f361 0242 	bfi	r2, r1, #1, #2
20020306:	605a      	str	r2, [r3, #4]
20020308:	4770      	bx	lr
2002030a:	bf00      	nop
2002030c:	200226c0 	.word	0x200226c0

20020310 <flp_singl_bits_operator>:
20020310:	4a05      	ldr	r2, [pc, #20]	; (20020328 <flp_singl_bits_operator+0x18>)
20020312:	6853      	ldr	r3, [r2, #4]
20020314:	6851      	ldr	r1, [r2, #4]
20020316:	f3c3 1380 	ubfx	r3, r3, #6, #1
2002031a:	f083 0301 	eor.w	r3, r3, #1
2002031e:	f363 1186 	bfi	r1, r3, #6, #1
20020322:	6051      	str	r1, [r2, #4]
20020324:	4770      	bx	lr
20020326:	bf00      	nop
20020328:	200226c0 	.word	0x200226c0

2002032c <flp_singl_bits_method>:
2002032c:	4a05      	ldr	r2, [pc, #20]	; (20020344 <flp_singl_bits_method+0x18>)
2002032e:	6853      	ldr	r3, [r2, #4]
20020330:	6851      	ldr	r1, [r2, #4]
20020332:	f3c3 1380 	ubfx	r3, r3, #6, #1
20020336:	f083 0301 	eor.w	r3, r3, #1
2002033a:	f363 1186 	bfi	r1, r3, #6, #1
2002033e:	6051      	str	r1, [r2, #4]
20020340:	4770      	bx	lr
20020342:	bf00      	nop
20020344:	200226c0 	.word	0x200226c0

20020348 <flp_singl_mskd_operator>:
20020348:	4a05      	ldr	r2, [pc, #20]	; (20020360 <flp_singl_mskd_operator+0x18>)
2002034a:	6853      	ldr	r3, [r2, #4]
2002034c:	6851      	ldr	r1, [r2, #4]
2002034e:	f3c3 0341 	ubfx	r3, r3, #1, #2
20020352:	f083 0301 	eor.w	r3, r3, #1
20020356:	f363 0142 	bfi	r1, r3, #1, #2
2002035a:	6051      	str	r1, [r2, #4]
2002035c:	4770      	bx	lr
2002035e:	bf00      	nop
20020360:	200226c0 	.word	0x200226c0

20020364 <flp_singl_mskd_method>:
20020364:	4a05      	ldr	r2, [pc, #20]	; (2002037c <flp_singl_mskd_method+0x18>)
20020366:	6853      	ldr	r3, [r2, #4]
20020368:	6851      	ldr	r1, [r2, #4]
2002036a:	f3c3 0341 	ubfx	r3, r3, #1, #2
2002036e:	f083 0301 	eor.w	r3, r3, #1
20020372:	f363 0142 	bfi	r1, r3, #1, #2
20020376:	6051      	str	r1, [r2, #4]
20020378:	4770      	bx	lr
2002037a:	bf00      	nop
2002037c:	200226c0 	.word	0x200226c0

20020380 <ins_singl_mskd_operator>:
20020380:	4b03      	ldr	r3, [pc, #12]	; (20020390 <ins_singl_mskd_operator+0x10>)
20020382:	2102      	movs	r1, #2
20020384:	685a      	ldr	r2, [r3, #4]
20020386:	f361 0242 	bfi	r2, r1, #1, #2
2002038a:	605a      	str	r2, [r3, #4]
2002038c:	4770      	bx	lr
2002038e:	bf00      	nop
20020390:	200226c0 	.word	0x200226c0

20020394 <ins_singl_mskd_method>:
20020394:	4b03      	ldr	r3, [pc, #12]	; (200203a4 <ins_singl_mskd_method+0x10>)
20020396:	2102      	movs	r1, #2
20020398:	685a      	ldr	r2, [r3, #4]
2002039a:	f361 0242 	bfi	r2, r1, #1, #2
2002039e:	605a      	str	r2, [r3, #4]
200203a0:	4770      	bx	lr
200203a2:	bf00      	nop
200203a4:	200226c0 	.word	0x200226c0

200203a8 <set_multi_bits_operator>:
200203a8:	4b04      	ldr	r3, [pc, #16]	; (200203bc <set_multi_bits_operator+0x14>)
200203aa:	685a      	ldr	r2, [r3, #4]
200203ac:	f042 0201 	orr.w	r2, r2, #1
200203b0:	605a      	str	r2, [r3, #4]
200203b2:	685a      	ldr	r2, [r3, #4]
200203b4:	f042 0220 	orr.w	r2, r2, #32
200203b8:	605a      	str	r2, [r3, #4]
200203ba:	4770      	bx	lr
200203bc:	200226c0 	.word	0x200226c0

200203c0 <set_multi_bits_method>:
200203c0:	4b04      	ldr	r3, [pc, #16]	; (200203d4 <set_multi_bits_method+0x14>)
200203c2:	685a      	ldr	r2, [r3, #4]
200203c4:	f042 0201 	orr.w	r2, r2, #1
200203c8:	605a      	str	r2, [r3, #4]
200203ca:	685a      	ldr	r2, [r3, #4]
200203cc:	f042 0220 	orr.w	r2, r2, #32
200203d0:	605a      	str	r2, [r3, #4]
200203d2:	4770      	bx	lr
200203d4:	200226c0 	.word	0x200226c0

200203d8 <ins_multi_mskd_operator>:
200203d8:	4b05      	ldr	r3, [pc, #20]	; (200203f0 <ins_multi_mskd_operator+0x18>)
200203da:	2003      	movs	r0, #3
200203dc:	2101      	movs	r1, #1
200203de:	685a      	ldr	r2, [r3, #4]
200203e0:	f360 12cb 	bfi	r2, r0, #7, #5
200203e4:	605a      	str	r2, [r3, #4]
200203e6:	685a      	ldr	r2, [r3, #4]
200203e8:	f361 0242 	bfi	r2, r1, #1, #2
200203ec:	605a      	str	r2, [r3, #4]
200203ee:	4770      	bx	lr
200203f0:	200226c0 	.word	0x200226c0

200203f4 <ins_multi_mskd_method>:
200203f4:	4b05      	ldr	r3, [pc, #20]	; (2002040c <ins_multi_mskd_method+0x18>)
200203f6:	2003      	movs	r0, #3
200203f8:	2101      	movs	r1, #1
200203fa:	685a      	ldr	r2, [r3, #4]
200203fc:	f360 12cb 	bfi	r2, r0, #7, #5
20020400:	605a      	str	r2, [r3, #4]
20020402:	685a      	ldr	r2, [r3, #4]
20020404:	f361 0242 	bfi	r2, r1, #1, #2
20020408:	605a      	str	r2, [r3, #4]
2002040a:	4770      	bx	lr
2002040c:	200226c0 	.word	0x200226c0

20020410 <equ_multi_bits_operator>:
20020410:	4b05      	ldr	r3, [pc, #20]	; (20020428 <equ_multi_bits_operator+0x18>)
20020412:	2200      	movs	r2, #0
20020414:	605a      	str	r2, [r3, #4]
20020416:	685a      	ldr	r2, [r3, #4]
20020418:	f042 0220 	orr.w	r2, r2, #32
2002041c:	605a      	str	r2, [r3, #4]
2002041e:	685a      	ldr	r2, [r3, #4]
20020420:	f042 0240 	orr.w	r2, r2, #64	; 0x40
20020424:	605a      	str	r2, [r3, #4]
20020426:	4770      	bx	lr
20020428:	200226c0 	.word	0x200226c0

2002042c <equ_multi_bits_method>:
2002042c:	4b05      	ldr	r3, [pc, #20]	; (20020444 <equ_multi_bits_method+0x18>)
2002042e:	2200      	movs	r2, #0
20020430:	605a      	str	r2, [r3, #4]
20020432:	685a      	ldr	r2, [r3, #4]
20020434:	f042 0220 	orr.w	r2, r2, #32
20020438:	605a      	str	r2, [r3, #4]
2002043a:	685a      	ldr	r2, [r3, #4]
2002043c:	f042 0240 	orr.w	r2, r2, #64	; 0x40
20020440:	605a      	str	r2, [r3, #4]
20020442:	4770      	bx	lr
20020444:	200226c0 	.word	0x200226c0

20020448 <equ_multi_mskd_operator>:
20020448:	4b06      	ldr	r3, [pc, #24]	; (20020464 <equ_multi_mskd_operator+0x1c>)
2002044a:	2200      	movs	r2, #0
2002044c:	2001      	movs	r0, #1
2002044e:	2106      	movs	r1, #6
20020450:	605a      	str	r2, [r3, #4]
20020452:	685a      	ldr	r2, [r3, #4]
20020454:	f360 02c4 	bfi	r2, r0, #3, #2
20020458:	605a      	str	r2, [r3, #4]
2002045a:	685a      	ldr	r2, [r3, #4]
2002045c:	f361 12cb 	bfi	r2, r1, #7, #5
20020460:	605a      	str	r2, [r3, #4]
20020462:	4770      	bx	lr
20020464:	200226c0 	.word	0x200226c0

20020468 <equ_multi_mskd_method>:
20020468:	4b06      	ldr	r3, [pc, #24]	; (20020484 <equ_multi_mskd_method+0x1c>)
2002046a:	2200      	movs	r2, #0
2002046c:	2001      	movs	r0, #1
2002046e:	2106      	movs	r1, #6
20020470:	605a      	str	r2, [r3, #4]
20020472:	685a      	ldr	r2, [r3, #4]
20020474:	f360 02c4 	bfi	r2, r0, #3, #2
20020478:	605a      	str	r2, [r3, #4]
2002047a:	685a      	ldr	r2, [r3, #4]
2002047c:	f361 12cb 	bfi	r2, r1, #7, #5
20020480:	605a      	str	r2, [r3, #4]
20020482:	4770      	bx	lr
20020484:	200226c0 	.word	0x200226c0

20020488 <equ_bits_mskd_operator>:
20020488:	4b06      	ldr	r3, [pc, #24]	; (200204a4 <equ_bits_mskd_operator+0x1c>)
2002048a:	2200      	movs	r2, #0
2002048c:	2101      	movs	r1, #1
2002048e:	605a      	str	r2, [r3, #4]
20020490:	685a      	ldr	r2, [r3, #4]
20020492:	f042 0220 	orr.w	r2, r2, #32
20020496:	605a      	str	r2, [r3, #4]
20020498:	685a      	ldr	r2, [r3, #4]
2002049a:	f361 0242 	bfi	r2, r1, #1, #2
2002049e:	605a      	str	r2, [r3, #4]
200204a0:	4770      	bx	lr
200204a2:	bf00      	nop
200204a4:	200226c0 	.word	0x200226c0

200204a8 <equ_bits_mskd_method>:
200204a8:	4b06      	ldr	r3, [pc, #24]	; (200204c4 <equ_bits_mskd_method+0x1c>)
200204aa:	2200      	movs	r2, #0
200204ac:	2101      	movs	r1, #1
200204ae:	605a      	str	r2, [r3, #4]
200204b0:	685a      	ldr	r2, [r3, #4]
200204b2:	f042 0220 	orr.w	r2, r2, #32
200204b6:	605a      	str	r2, [r3, #4]
200204b8:	685a      	ldr	r2, [r3, #4]
200204ba:	f361 0242 	bfi	r2, r1, #1, #2
200204be:	605a      	str	r2, [r3, #4]
200204c0:	4770      	bx	lr
200204c2:	bf00      	nop
200204c4:	200226c0 	.word	0x200226c0

200204c8 <equ_mskd_bits_operator>:
200204c8:	4b06      	ldr	r3, [pc, #24]	; (200204e4 <equ_mskd_bits_operator+0x1c>)
200204ca:	2200      	movs	r2, #0
200204cc:	2102      	movs	r1, #2
200204ce:	605a      	str	r2, [r3, #4]
200204d0:	685a      	ldr	r2, [r3, #4]
200204d2:	f361 0242 	bfi	r2, r1, #1, #2
200204d6:	605a      	str	r2, [r3, #4]
200204d8:	685a      	ldr	r2, [r3, #4]
200204da:	f042 0240 	orr.w	r2, r2, #64	; 0x40
200204de:	605a      	str	r2, [r3, #4]
200204e0:	4770      	bx	lr
200204e2:	bf00      	nop
200204e4:	200226c0 	.word	0x200226c0

200204e8 <equ_mskd_bits_method>:
200204e8:	4b06      	ldr	r3, [pc, #24]	; (20020504 <equ_mskd_bits_method+0x1c>)
200204ea:	2200      	movs	r2, #0
200204ec:	2102      	movs	r1, #2
200204ee:	605a      	str	r2, [r3, #4]
200204f0:	685a      	ldr	r2, [r3, #4]
200204f2:	f361 0242 	bfi	r2, r1, #1, #2
200204f6:	605a      	str	r2, [r3, #4]
200204f8:	685a      	ldr	r2, [r3, #4]
200204fa:	f042 0240 	orr.w	r2, r2, #64	; 0x40
200204fe:	605a      	str	r2, [r3, #4]
20020500:	4770      	bx	lr
20020502:	bf00      	nop
20020504:	200226c0 	.word	0x200226c0

20020508 <equ_bits_var>:
20020508:	4b06      	ldr	r3, [pc, #24]	; (20020524 <equ_bits_var+0x1c>)
2002050a:	2100      	movs	r1, #0
2002050c:	6059      	str	r1, [r3, #4]
2002050e:	685a      	ldr	r2, [r3, #4]
20020510:	f042 0240 	orr.w	r2, r2, #64	; 0x40
20020514:	605a      	str	r2, [r3, #4]
20020516:	6059      	str	r1, [r3, #4]
20020518:	685a      	ldr	r2, [r3, #4]
2002051a:	f042 0201 	orr.w	r2, r2, #1
2002051e:	605a      	str	r2, [r3, #4]
20020520:	4770      	bx	lr
20020522:	bf00      	nop
20020524:	200226c0 	.word	0x200226c0

20020528 <equ_mskd_var>:
20020528:	4b08      	ldr	r3, [pc, #32]	; (2002054c <equ_mskd_var+0x24>)
2002052a:	2200      	movs	r2, #0
2002052c:	2003      	movs	r0, #3
2002052e:	b410      	push	{r4}
20020530:	605a      	str	r2, [r3, #4]
20020532:	2401      	movs	r4, #1
20020534:	6859      	ldr	r1, [r3, #4]
20020536:	f364 0142 	bfi	r1, r4, #1, #2
2002053a:	6059      	str	r1, [r3, #4]
2002053c:	605a      	str	r2, [r3, #4]
2002053e:	685a      	ldr	r2, [r3, #4]
20020540:	f360 12cb 	bfi	r2, r0, #7, #5
20020544:	605a      	str	r2, [r3, #4]
20020546:	bc10      	pop	{r4}
20020548:	4770      	bx	lr
2002054a:	bf00      	nop
2002054c:	200226c0 	.word	0x200226c0

20020550 <cmp_equ_zero>:
20020550:	4a09      	ldr	r2, [pc, #36]	; (20020578 <cmp_equ_zero+0x28>)
20020552:	2100      	movs	r1, #0
20020554:	4b09      	ldr	r3, [pc, #36]	; (2002057c <cmp_equ_zero+0x2c>)
20020556:	6051      	str	r1, [r2, #4]
20020558:	6059      	str	r1, [r3, #4]
2002055a:	6852      	ldr	r2, [r2, #4]
2002055c:	b92a      	cbnz	r2, 2002056a <cmp_equ_zero+0x1a>
2002055e:	685a      	ldr	r2, [r3, #4]
20020560:	211d      	movs	r1, #29
20020562:	f361 625d 	bfi	r2, r1, #25, #5
20020566:	605a      	str	r2, [r3, #4]
20020568:	4770      	bx	lr
2002056a:	685a      	ldr	r2, [r3, #4]
2002056c:	2111      	movs	r1, #17
2002056e:	f361 625d 	bfi	r2, r1, #25, #5
20020572:	605a      	str	r2, [r3, #4]
20020574:	4770      	bx	lr
20020576:	bf00      	nop
20020578:	200226c0 	.word	0x200226c0
2002057c:	20022620 	.word	0x20022620

20020580 <cmp_neq_zero>:
20020580:	4b07      	ldr	r3, [pc, #28]	; (200205a0 <cmp_neq_zero+0x20>)
20020582:	2200      	movs	r2, #0
20020584:	605a      	str	r2, [r3, #4]
20020586:	685a      	ldr	r2, [r3, #4]
20020588:	b12a      	cbz	r2, 20020596 <cmp_neq_zero+0x16>
2002058a:	685a      	ldr	r2, [r3, #4]
2002058c:	2102      	movs	r1, #2
2002058e:	f361 0242 	bfi	r2, r1, #1, #2
20020592:	605a      	str	r2, [r3, #4]
20020594:	4770      	bx	lr
20020596:	685a      	ldr	r2, [r3, #4]
20020598:	f042 0220 	orr.w	r2, r2, #32
2002059c:	605a      	str	r2, [r3, #4]
2002059e:	4770      	bx	lr
200205a0:	200226c0 	.word	0x200226c0

200205a4 <cmp_equ_bits>:
200205a4:	4b09      	ldr	r3, [pc, #36]	; (200205cc <cmp_equ_bits+0x28>)
200205a6:	2200      	movs	r2, #0
200205a8:	605a      	str	r2, [r3, #4]
200205aa:	685a      	ldr	r2, [r3, #4]
200205ac:	f042 0240 	orr.w	r2, r2, #64	; 0x40
200205b0:	605a      	str	r2, [r3, #4]
200205b2:	685b      	ldr	r3, [r3, #4]
200205b4:	f013 0f40 	tst.w	r3, #64	; 0x40
200205b8:	4b05      	ldr	r3, [pc, #20]	; (200205d0 <cmp_equ_bits+0x2c>)
200205ba:	bf18      	it	ne
200205bc:	210b      	movne	r1, #11
200205be:	685a      	ldr	r2, [r3, #4]
200205c0:	bf08      	it	eq
200205c2:	210d      	moveq	r1, #13
200205c4:	f361 625d 	bfi	r2, r1, #25, #5
200205c8:	605a      	str	r2, [r3, #4]
200205ca:	4770      	bx	lr
200205cc:	200226c0 	.word	0x200226c0
200205d0:	20022620 	.word	0x20022620

200205d4 <cmp_neq_bits>:
200205d4:	4b0b      	ldr	r3, [pc, #44]	; (20020604 <cmp_neq_bits+0x30>)
200205d6:	2100      	movs	r1, #0
200205d8:	6059      	str	r1, [r3, #4]
200205da:	685a      	ldr	r2, [r3, #4]
200205dc:	f042 0240 	orr.w	r2, r2, #64	; 0x40
200205e0:	605a      	str	r2, [r3, #4]
200205e2:	685a      	ldr	r2, [r3, #4]
200205e4:	f3c2 1280 	ubfx	r2, r2, #6, #1
200205e8:	b932      	cbnz	r2, 200205f8 <cmp_neq_bits+0x24>
200205ea:	605a      	str	r2, [r3, #4]
200205ec:	2101      	movs	r1, #1
200205ee:	685a      	ldr	r2, [r3, #4]
200205f0:	f361 0242 	bfi	r2, r1, #1, #2
200205f4:	605a      	str	r2, [r3, #4]
200205f6:	4770      	bx	lr
200205f8:	6059      	str	r1, [r3, #4]
200205fa:	685a      	ldr	r2, [r3, #4]
200205fc:	f042 0220 	orr.w	r2, r2, #32
20020600:	605a      	str	r2, [r3, #4]
20020602:	4770      	bx	lr
20020604:	200226c0 	.word	0x200226c0

20020608 <cmp_equ_multi_bits>:
20020608:	4b10      	ldr	r3, [pc, #64]	; (2002064c <cmp_equ_multi_bits+0x44>)
2002060a:	2100      	movs	r1, #0
2002060c:	6059      	str	r1, [r3, #4]
2002060e:	685a      	ldr	r2, [r3, #4]
20020610:	f042 0220 	orr.w	r2, r2, #32
20020614:	605a      	str	r2, [r3, #4]
20020616:	685a      	ldr	r2, [r3, #4]
20020618:	f042 0240 	orr.w	r2, r2, #64	; 0x40
2002061c:	605a      	str	r2, [r3, #4]
2002061e:	685a      	ldr	r2, [r3, #4]
20020620:	0692      	lsls	r2, r2, #26
20020622:	d50a      	bpl.n	2002063a <cmp_equ_multi_bits+0x32>
20020624:	685b      	ldr	r3, [r3, #4]
20020626:	065b      	lsls	r3, r3, #25
20020628:	d507      	bpl.n	2002063a <cmp_equ_multi_bits+0x32>
2002062a:	4b09      	ldr	r3, [pc, #36]	; (20020650 <cmp_equ_multi_bits+0x48>)
2002062c:	2011      	movs	r0, #17
2002062e:	6059      	str	r1, [r3, #4]
20020630:	685a      	ldr	r2, [r3, #4]
20020632:	f360 625d 	bfi	r2, r0, #25, #5
20020636:	605a      	str	r2, [r3, #4]
20020638:	4770      	bx	lr
2002063a:	4b05      	ldr	r3, [pc, #20]	; (20020650 <cmp_equ_multi_bits+0x48>)
2002063c:	2200      	movs	r2, #0
2002063e:	2117      	movs	r1, #23
20020640:	605a      	str	r2, [r3, #4]
20020642:	685a      	ldr	r2, [r3, #4]
20020644:	f361 625d 	bfi	r2, r1, #25, #5
20020648:	605a      	str	r2, [r3, #4]
2002064a:	4770      	bx	lr
2002064c:	200226c0 	.word	0x200226c0
20020650:	20022620 	.word	0x20022620

20020654 <cmp_neq_multi_bits>:
20020654:	4b10      	ldr	r3, [pc, #64]	; (20020698 <cmp_neq_multi_bits+0x44>)
20020656:	2200      	movs	r2, #0
20020658:	605a      	str	r2, [r3, #4]
2002065a:	685a      	ldr	r2, [r3, #4]
2002065c:	f042 0220 	orr.w	r2, r2, #32
20020660:	605a      	str	r2, [r3, #4]
20020662:	685a      	ldr	r2, [r3, #4]
20020664:	f042 0240 	orr.w	r2, r2, #64	; 0x40
20020668:	605a      	str	r2, [r3, #4]
2002066a:	685a      	ldr	r2, [r3, #4]
2002066c:	0692      	lsls	r2, r2, #26
2002066e:	d40b      	bmi.n	20020688 <cmp_neq_multi_bits+0x34>
20020670:	685b      	ldr	r3, [r3, #4]
20020672:	f3c3 1380 	ubfx	r3, r3, #6, #1
20020676:	b93b      	cbnz	r3, 20020688 <cmp_neq_multi_bits+0x34>
20020678:	4a08      	ldr	r2, [pc, #32]	; (2002069c <cmp_neq_multi_bits+0x48>)
2002067a:	211d      	movs	r1, #29
2002067c:	6053      	str	r3, [r2, #4]
2002067e:	6853      	ldr	r3, [r2, #4]
20020680:	f361 635d 	bfi	r3, r1, #25, #5
20020684:	6053      	str	r3, [r2, #4]
20020686:	4770      	bx	lr
20020688:	4b04      	ldr	r3, [pc, #16]	; (2002069c <cmp_neq_multi_bits+0x48>)
2002068a:	2200      	movs	r2, #0
2002068c:	605a      	str	r2, [r3, #4]
2002068e:	685a      	ldr	r2, [r3, #4]
20020690:	f042 5278 	orr.w	r2, r2, #1040187392	; 0x3e000000
20020694:	605a      	str	r2, [r3, #4]
20020696:	4770      	bx	lr
20020698:	200226c0 	.word	0x200226c0
2002069c:	20022620 	.word	0x20022620

200206a0 <cmp_equ_mskd>:
200206a0:	4b0a      	ldr	r3, [pc, #40]	; (200206cc <cmp_equ_mskd+0x2c>)
200206a2:	2200      	movs	r2, #0
200206a4:	211d      	movs	r1, #29
200206a6:	605a      	str	r2, [r3, #4]
200206a8:	685a      	ldr	r2, [r3, #4]
200206aa:	f361 3210 	bfi	r2, r1, #12, #5
200206ae:	605a      	str	r2, [r3, #4]
200206b0:	685b      	ldr	r3, [r3, #4]
200206b2:	f3c3 3304 	ubfx	r3, r3, #12, #5
200206b6:	2b11      	cmp	r3, #17
200206b8:	4b05      	ldr	r3, [pc, #20]	; (200206d0 <cmp_equ_mskd+0x30>)
200206ba:	bf08      	it	eq
200206bc:	2107      	moveq	r1, #7
200206be:	685a      	ldr	r2, [r3, #4]
200206c0:	bf18      	it	ne
200206c2:	2111      	movne	r1, #17
200206c4:	f361 625d 	bfi	r2, r1, #25, #5
200206c8:	605a      	str	r2, [r3, #4]
200206ca:	4770      	bx	lr
200206cc:	200226c0 	.word	0x200226c0
200206d0:	20022620 	.word	0x20022620

200206d4 <cmp_neq_mskd>:
200206d4:	4b0b      	ldr	r3, [pc, #44]	; (20020704 <cmp_neq_mskd+0x30>)
200206d6:	2200      	movs	r2, #0
200206d8:	211d      	movs	r1, #29
200206da:	605a      	str	r2, [r3, #4]
200206dc:	685a      	ldr	r2, [r3, #4]
200206de:	f361 3210 	bfi	r2, r1, #12, #5
200206e2:	605a      	str	r2, [r3, #4]
200206e4:	685a      	ldr	r2, [r3, #4]
200206e6:	f3c2 3204 	ubfx	r2, r2, #12, #5
200206ea:	2a11      	cmp	r2, #17
200206ec:	685a      	ldr	r2, [r3, #4]
200206ee:	d004      	beq.n	200206fa <cmp_neq_mskd+0x26>
200206f0:	2102      	movs	r1, #2
200206f2:	f361 0242 	bfi	r2, r1, #1, #2
200206f6:	605a      	str	r2, [r3, #4]
200206f8:	4770      	bx	lr
200206fa:	f042 0240 	orr.w	r2, r2, #64	; 0x40
200206fe:	605a      	str	r2, [r3, #4]
20020700:	4770      	bx	lr
20020702:	bf00      	nop
20020704:	200226c0 	.word	0x200226c0

20020708 <cmp_equ_reg>:
20020708:	4b1b      	ldr	r3, [pc, #108]	; (20020778 <cmp_equ_reg+0x70>)
2002070a:	2200      	movs	r2, #0
2002070c:	2101      	movs	r1, #1
2002070e:	605a      	str	r2, [r3, #4]
20020710:	685a      	ldr	r2, [r3, #4]
20020712:	f042 0220 	orr.w	r2, r2, #32
20020716:	605a      	str	r2, [r3, #4]
20020718:	685a      	ldr	r2, [r3, #4]
2002071a:	f361 0242 	bfi	r2, r1, #1, #2
2002071e:	605a      	str	r2, [r3, #4]
20020720:	685a      	ldr	r2, [r3, #4]
20020722:	07d2      	lsls	r2, r2, #31
20020724:	d404      	bmi.n	20020730 <cmp_equ_reg+0x28>
20020726:	685a      	ldr	r2, [r3, #4]
20020728:	f3c2 0241 	ubfx	r2, r2, #1, #2
2002072c:	428a      	cmp	r2, r1
2002072e:	d008      	beq.n	20020742 <cmp_equ_reg+0x3a>
20020730:	4b12      	ldr	r3, [pc, #72]	; (2002077c <cmp_equ_reg+0x74>)
20020732:	2200      	movs	r2, #0
20020734:	2117      	movs	r1, #23
20020736:	605a      	str	r2, [r3, #4]
20020738:	685a      	ldr	r2, [r3, #4]
2002073a:	f361 625d 	bfi	r2, r1, #25, #5
2002073e:	605a      	str	r2, [r3, #4]
20020740:	4770      	bx	lr
20020742:	685a      	ldr	r2, [r3, #4]
20020744:	07d0      	lsls	r0, r2, #31
20020746:	d4f3      	bmi.n	20020730 <cmp_equ_reg+0x28>
20020748:	685a      	ldr	r2, [r3, #4]
2002074a:	0691      	lsls	r1, r2, #26
2002074c:	d5f0      	bpl.n	20020730 <cmp_equ_reg+0x28>
2002074e:	685a      	ldr	r2, [r3, #4]
20020750:	0652      	lsls	r2, r2, #25
20020752:	d4ed      	bmi.n	20020730 <cmp_equ_reg+0x28>
20020754:	685a      	ldr	r2, [r3, #4]
20020756:	f412 6f78 	tst.w	r2, #3968	; 0xf80
2002075a:	d1e9      	bne.n	20020730 <cmp_equ_reg+0x28>
2002075c:	685b      	ldr	r3, [r3, #4]
2002075e:	f3c3 3304 	ubfx	r3, r3, #12, #5
20020762:	2b00      	cmp	r3, #0
20020764:	d1e4      	bne.n	20020730 <cmp_equ_reg+0x28>
20020766:	4a05      	ldr	r2, [pc, #20]	; (2002077c <cmp_equ_reg+0x74>)
20020768:	2115      	movs	r1, #21
2002076a:	6053      	str	r3, [r2, #4]
2002076c:	6853      	ldr	r3, [r2, #4]
2002076e:	f361 635d 	bfi	r3, r1, #25, #5
20020772:	6053      	str	r3, [r2, #4]
20020774:	4770      	bx	lr
20020776:	bf00      	nop
20020778:	200226c0 	.word	0x200226c0
2002077c:	20022620 	.word	0x20022620

20020780 <cmp_neq_reg>:
20020780:	4b1a      	ldr	r3, [pc, #104]	; (200207ec <cmp_neq_reg+0x6c>)
20020782:	2200      	movs	r2, #0
20020784:	2101      	movs	r1, #1
20020786:	605a      	str	r2, [r3, #4]
20020788:	685a      	ldr	r2, [r3, #4]
2002078a:	f042 0220 	orr.w	r2, r2, #32
2002078e:	605a      	str	r2, [r3, #4]
20020790:	685a      	ldr	r2, [r3, #4]
20020792:	f361 0242 	bfi	r2, r1, #1, #2
20020796:	605a      	str	r2, [r3, #4]
20020798:	685a      	ldr	r2, [r3, #4]
2002079a:	07d2      	lsls	r2, r2, #31
2002079c:	d404      	bmi.n	200207a8 <cmp_neq_reg+0x28>
2002079e:	685a      	ldr	r2, [r3, #4]
200207a0:	f3c2 0241 	ubfx	r2, r2, #1, #2
200207a4:	428a      	cmp	r2, r1
200207a6:	d008      	beq.n	200207ba <cmp_neq_reg+0x3a>
200207a8:	4b10      	ldr	r3, [pc, #64]	; (200207ec <cmp_neq_reg+0x6c>)
200207aa:	2200      	movs	r2, #0
200207ac:	2101      	movs	r1, #1
200207ae:	605a      	str	r2, [r3, #4]
200207b0:	685a      	ldr	r2, [r3, #4]
200207b2:	f361 0242 	bfi	r2, r1, #1, #2
200207b6:	605a      	str	r2, [r3, #4]
200207b8:	4770      	bx	lr
200207ba:	685a      	ldr	r2, [r3, #4]
200207bc:	07d0      	lsls	r0, r2, #31
200207be:	d4f3      	bmi.n	200207a8 <cmp_neq_reg+0x28>
200207c0:	685a      	ldr	r2, [r3, #4]
200207c2:	0691      	lsls	r1, r2, #26
200207c4:	d5f0      	bpl.n	200207a8 <cmp_neq_reg+0x28>
200207c6:	685a      	ldr	r2, [r3, #4]
200207c8:	0652      	lsls	r2, r2, #25
200207ca:	d4ed      	bmi.n	200207a8 <cmp_neq_reg+0x28>
200207cc:	685a      	ldr	r2, [r3, #4]
200207ce:	f412 6f78 	tst.w	r2, #3968	; 0xf80
200207d2:	d1e9      	bne.n	200207a8 <cmp_neq_reg+0x28>
200207d4:	685a      	ldr	r2, [r3, #4]
200207d6:	f3c2 3204 	ubfx	r2, r2, #12, #5
200207da:	2a00      	cmp	r2, #0
200207dc:	d1e4      	bne.n	200207a8 <cmp_neq_reg+0x28>
200207de:	605a      	str	r2, [r3, #4]
200207e0:	685a      	ldr	r2, [r3, #4]
200207e2:	f042 0220 	orr.w	r2, r2, #32
200207e6:	605a      	str	r2, [r3, #4]
200207e8:	4770      	bx	lr
200207ea:	bf00      	nop
200207ec:	200226c0 	.word	0x200226c0

200207f0 <constexpr_bits_array>:
200207f0:	4b06      	ldr	r3, [pc, #24]	; (2002080c <constexpr_bits_array+0x1c>)
200207f2:	2200      	movs	r2, #0
200207f4:	2106      	movs	r1, #6
200207f6:	62d9      	str	r1, [r3, #44]	; 0x2c
200207f8:	f8c3 20a0 	str.w	r2, [r3, #160]	; 0xa0
200207fc:	f8d3 20a0 	ldr.w	r2, [r3, #160]	; 0xa0
20020800:	f442 5200 	orr.w	r2, r2, #8192	; 0x2000
20020804:	f8c3 20a0 	str.w	r2, [r3, #160]	; 0xa0
20020808:	4770      	bx	lr
2002080a:	bf00      	nop
2002080c:	20022500 	.word	0x20022500

20020810 <runtime_bits_array>:
20020810:	b081      	sub	sp, #4
20020812:	2303      	movs	r3, #3
20020814:	4a04      	ldr	r2, [pc, #16]	; (20020828 <runtime_bits_array+0x18>)
20020816:	2121      	movs	r1, #33	; 0x21
20020818:	9300      	str	r3, [sp, #0]
2002081a:	9b00      	ldr	r3, [sp, #0]
2002081c:	3308      	adds	r3, #8
2002081e:	f842 1023 	str.w	r1, [r2, r3, lsl #2]
20020822:	b001      	add	sp, #4
20020824:	4770      	bx	lr
20020826:	bf00      	nop
20020828:	20022500 	.word	0x20022500

2002082c <prescaler_low>:
2002082c:	4b05      	ldr	r3, [pc, #20]	; (20020844 <prescaler_low+0x18>)
2002082e:	2077      	movs	r0, #119	; 0x77
20020830:	4905      	ldr	r1, [pc, #20]	; (20020848 <prescaler_low+0x1c>)
20020832:	685a      	ldr	r2, [r3, #4]
20020834:	f360 0206 	bfi	r2, r0, #0, #7
20020838:	605a      	str	r2, [r3, #4]
2002083a:	685b      	ldr	r3, [r3, #4]
2002083c:	f003 037f 	and.w	r3, r3, #127	; 0x7f
20020840:	62cb      	str	r3, [r1, #44]	; 0x2c
20020842:	4770      	bx	lr
20020844:	20022620 	.word	0x20022620
20020848:	20022500 	.word	0x20022500

2002084c <prescaler_high>:
2002084c:	4b05      	ldr	r3, [pc, #20]	; (20020864 <prescaler_high+0x18>)
2002084e:	201d      	movs	r0, #29
20020850:	4905      	ldr	r1, [pc, #20]	; (20020868 <prescaler_high+0x1c>)
20020852:	685a      	ldr	r2, [r3, #4]
20020854:	f360 625d 	bfi	r2, r0, #25, #5
20020858:	605a      	str	r2, [r3, #4]
2002085a:	685b      	ldr	r3, [r3, #4]
2002085c:	f3c3 6344 	ubfx	r3, r3, #25, #5
20020860:	62cb      	str	r3, [r1, #44]	; 0x2c
20020862:	4770      	bx	lr
20020864:	20022620 	.word	0x20022620
20020868:	20022500 	.word	0x20022500

2002086c <reg_mskd_lss>:
2002086c:	4a0b      	ldr	r2, [pc, #44]	; (2002089c <reg_mskd_lss+0x30>)
2002086e:	2000      	movs	r0, #0
20020870:	4b0b      	ldr	r3, [pc, #44]	; (200208a0 <reg_mskd_lss+0x34>)
20020872:	b410      	push	{r4}
20020874:	241b      	movs	r4, #27
20020876:	6851      	ldr	r1, [r2, #4]
20020878:	f364 615d 	bfi	r1, r4, #25, #5
2002087c:	6051      	str	r1, [r2, #4]
2002087e:	6058      	str	r0, [r3, #4]
20020880:	6852      	ldr	r2, [r2, #4]
20020882:	f3c2 6244 	ubfx	r2, r2, #25, #5
20020886:	42a2      	cmp	r2, r4
20020888:	685a      	ldr	r2, [r3, #4]
2002088a:	bf94      	ite	ls
2002088c:	2101      	movls	r1, #1
2002088e:	2102      	movhi	r1, #2
20020890:	f361 0242 	bfi	r2, r1, #1, #2
20020894:	605a      	str	r2, [r3, #4]
20020896:	bc10      	pop	{r4}
20020898:	4770      	bx	lr
2002089a:	bf00      	nop
2002089c:	20022620 	.word	0x20022620
200208a0:	200226c0 	.word	0x200226c0

200208a4 <reg_mskd_leq>:
200208a4:	4b11      	ldr	r3, [pc, #68]	; (200208ec <reg_mskd_leq+0x48>)
200208a6:	2000      	movs	r0, #0
200208a8:	4911      	ldr	r1, [pc, #68]	; (200208f0 <reg_mskd_leq+0x4c>)
200208aa:	b410      	push	{r4}
200208ac:	2417      	movs	r4, #23
200208ae:	685a      	ldr	r2, [r3, #4]
200208b0:	f364 625d 	bfi	r2, r4, #25, #5
200208b4:	605a      	str	r2, [r3, #4]
200208b6:	6048      	str	r0, [r1, #4]
200208b8:	685a      	ldr	r2, [r3, #4]
200208ba:	f3c2 6244 	ubfx	r2, r2, #25, #5
200208be:	42a2      	cmp	r2, r4
200208c0:	d804      	bhi.n	200208cc <reg_mskd_leq+0x28>
200208c2:	685b      	ldr	r3, [r3, #4]
200208c4:	f3c3 6344 	ubfx	r3, r3, #25, #5
200208c8:	2b18      	cmp	r3, #24
200208ca:	d907      	bls.n	200208dc <reg_mskd_leq+0x38>
200208cc:	4b08      	ldr	r3, [pc, #32]	; (200208f0 <reg_mskd_leq+0x4c>)
200208ce:	2102      	movs	r1, #2
200208d0:	685a      	ldr	r2, [r3, #4]
200208d2:	f361 0242 	bfi	r2, r1, #1, #2
200208d6:	605a      	str	r2, [r3, #4]
200208d8:	bc10      	pop	{r4}
200208da:	4770      	bx	lr
200208dc:	684b      	ldr	r3, [r1, #4]
200208de:	2201      	movs	r2, #1
200208e0:	f362 0342 	bfi	r3, r2, #1, #2
200208e4:	604b      	str	r3, [r1, #4]
200208e6:	bc10      	pop	{r4}
200208e8:	4770      	bx	lr
200208ea:	bf00      	nop
200208ec:	20022620 	.word	0x20022620
200208f0:	200226c0 	.word	0x200226c0

200208f4 <reg_mskd_gtr>:
200208f4:	4a0b      	ldr	r2, [pc, #44]	; (20020924 <reg_mskd_gtr+0x30>)
200208f6:	2000      	movs	r0, #0
200208f8:	4b0b      	ldr	r3, [pc, #44]	; (20020928 <reg_mskd_gtr+0x34>)
200208fa:	b410      	push	{r4}
200208fc:	2413      	movs	r4, #19
200208fe:	6851      	ldr	r1, [r2, #4]
20020900:	f364 615d 	bfi	r1, r4, #25, #5
20020904:	6051      	str	r1, [r2, #4]
20020906:	6058      	str	r0, [r3, #4]
20020908:	6852      	ldr	r2, [r2, #4]
2002090a:	f3c2 6244 	ubfx	r2, r2, #25, #5
2002090e:	2a12      	cmp	r2, #18
20020910:	685a      	ldr	r2, [r3, #4]
20020912:	bf8c      	ite	hi
20020914:	2101      	movhi	r1, #1
20020916:	2102      	movls	r1, #2
20020918:	f361 0242 	bfi	r2, r1, #1, #2
2002091c:	605a      	str	r2, [r3, #4]
2002091e:	bc10      	pop	{r4}
20020920:	4770      	bx	lr
20020922:	bf00      	nop
20020924:	20022620 	.word	0x20022620
20020928:	200226c0 	.word	0x200226c0

2002092c <reg_mskd_geq>:
2002092c:	4b11      	ldr	r3, [pc, #68]	; (20020974 <reg_mskd_geq+0x48>)
2002092e:	2000      	movs	r0, #0
20020930:	4911      	ldr	r1, [pc, #68]	; (20020978 <reg_mskd_geq+0x4c>)
20020932:	b410      	push	{r4}
20020934:	2411      	movs	r4, #17
20020936:	685a      	ldr	r2, [r3, #4]
20020938:	f364 625d 	bfi	r2, r4, #25, #5
2002093c:	605a      	str	r2, [r3, #4]
2002093e:	6048      	str	r0, [r1, #4]
20020940:	685a      	ldr	r2, [r3, #4]
20020942:	f3c2 6244 	ubfx	r2, r2, #25, #5
20020946:	2a0f      	cmp	r2, #15
20020948:	d904      	bls.n	20020954 <reg_mskd_geq+0x28>
2002094a:	685b      	ldr	r3, [r3, #4]
2002094c:	f3c3 6344 	ubfx	r3, r3, #25, #5
20020950:	2b10      	cmp	r3, #16
20020952:	d807      	bhi.n	20020964 <reg_mskd_geq+0x38>
20020954:	4b08      	ldr	r3, [pc, #32]	; (20020978 <reg_mskd_geq+0x4c>)
20020956:	2102      	movs	r1, #2
20020958:	685a      	ldr	r2, [r3, #4]
2002095a:	f361 0242 	bfi	r2, r1, #1, #2
2002095e:	605a      	str	r2, [r3, #4]
20020960:	bc10      	pop	{r4}
20020962:	4770      	bx	lr
20020964:	684b      	ldr	r3, [r1, #4]
20020966:	2201      	movs	r2, #1
20020968:	f362 0342 	bfi	r3, r2, #1, #2
2002096c:	604b      	str	r3, [r1, #4]
2002096e:	bc10      	pop	{r4}
20020970:	4770      	bx	lr
20020972:	bf00      	nop
20020974:	20022620 	.word	0x20022620
20020978:	200226c0 	.word	0x200226c0

2002097c <pos_cmp_eq>:
2002097c:	4b04      	ldr	r3, [pc, #16]	; (20020990 <pos_cmp_eq+0x14>)
2002097e:	2200      	movs	r2, #0
20020980:	2101      	movs	r1, #1
20020982:	605a      	str	r2, [r3, #4]
20020984:	685a      	ldr	r2, [r3, #4]
20020986:	f361 0242 	bfi	r2, r1, #1, #2
2002098a:	605a      	str	r2, [r3, #4]
2002098c:	4770      	bx	lr
2002098e:	bf00      	nop
20020990:	200226c0 	.word	0x200226c0

20020994 <pos_cmp_ne>:
20020994:	4b04      	ldr	r3, [pc, #16]	; (200209a8 <pos_cmp_ne+0x14>)
20020996:	2200      	movs	r2, #0
20020998:	2101      	movs	r1, #1
2002099a:	605a      	str	r2, [r3, #4]
2002099c:	685a      	ldr	r2, [r3, #4]
2002099e:	f361 0242 	bfi	r2, r1, #1, #2
200209a2:	605a      	str	r2, [r3, #4]
200209a4:	4770      	bx	lr
200209a6:	bf00      	nop
200209a8:	200226c0 	.word	0x200226c0

200209ac <bits_extract_eq>:
200209ac:	4b08      	ldr	r3, [pc, #32]	; (200209d0 <bits_extract_eq+0x24>)
200209ae:	2100      	movs	r1, #0
200209b0:	685a      	ldr	r2, [r3, #4]
200209b2:	f042 0240 	orr.w	r2, r2, #64	; 0x40
200209b6:	605a      	str	r2, [r3, #4]
200209b8:	685a      	ldr	r2, [r3, #4]
200209ba:	6059      	str	r1, [r3, #4]
200209bc:	f012 0f40 	tst.w	r2, #64	; 0x40
200209c0:	685a      	ldr	r2, [r3, #4]
200209c2:	bf14      	ite	ne
200209c4:	2101      	movne	r1, #1
200209c6:	2102      	moveq	r1, #2
200209c8:	f361 0242 	bfi	r2, r1, #1, #2
200209cc:	605a      	str	r2, [r3, #4]
200209ce:	4770      	bx	lr
200209d0:	200226c0 	.word	0x200226c0

200209d4 <mskd_extract_eq>:
200209d4:	4b09      	ldr	r3, [pc, #36]	; (200209fc <mskd_extract_eq+0x28>)
200209d6:	2001      	movs	r0, #1
200209d8:	2100      	movs	r1, #0
200209da:	685a      	ldr	r2, [r3, #4]
200209dc:	f360 0242 	bfi	r2, r0, #1, #2
200209e0:	605a      	str	r2, [r3, #4]
200209e2:	685a      	ldr	r2, [r3, #4]
200209e4:	6059      	str	r1, [r3, #4]
200209e6:	f3c2 0241 	ubfx	r2, r2, #1, #2
200209ea:	4282      	cmp	r2, r0
200209ec:	685a      	ldr	r2, [r3, #4]
200209ee:	bf0c      	ite	eq
200209f0:	f042 0220 	orreq.w	r2, r2, #32
200209f4:	f042 0240 	orrne.w	r2, r2, #64	; 0x40
200209f8:	605a      	str	r2, [r3, #4]
200209fa:	4770      	bx	lr
200209fc:	200226c0 	.word	0x200226c0

20020a00 <mskd_extract_ne>:
20020a00:	4b0a      	ldr	r3, [pc, #40]	; (20020a2c <mskd_extract_ne+0x2c>)
20020a02:	2100      	movs	r1, #0
20020a04:	2002      	movs	r0, #2
20020a06:	6059      	str	r1, [r3, #4]
20020a08:	685a      	ldr	r2, [r3, #4]
20020a0a:	f360 0242 	bfi	r2, r0, #1, #2
20020a0e:	605a      	str	r2, [r3, #4]
20020a10:	685a      	ldr	r2, [r3, #4]
20020a12:	6059      	str	r1, [r3, #4]
20020a14:	f3c2 0241 	ubfx	r2, r2, #1, #2
20020a18:	4282      	cmp	r2, r0
20020a1a:	685a      	ldr	r2, [r3, #4]
20020a1c:	bf14      	ite	ne
20020a1e:	f042 0220 	orrne.w	r2, r2, #32
20020a22:	f042 0240 	orreq.w	r2, r2, #64	; 0x40
20020a26:	605a      	str	r2, [r3, #4]
20020a28:	4770      	bx	lr
20020a2a:	bf00      	nop
20020a2c:	200226c0 	.word	0x200226c0

20020a30 <mskd_extract_lss>:
20020a30:	4b0b      	ldr	r3, [pc, #44]	; (20020a60 <mskd_extract_lss+0x30>)
20020a32:	2100      	movs	r1, #0
20020a34:	4a0b      	ldr	r2, [pc, #44]	; (20020a64 <mskd_extract_lss+0x34>)
20020a36:	b410      	push	{r4}
20020a38:	6059      	str	r1, [r3, #4]
20020a3a:	240b      	movs	r4, #11
20020a3c:	6858      	ldr	r0, [r3, #4]
20020a3e:	f364 605d 	bfi	r0, r4, #25, #5
20020a42:	6058      	str	r0, [r3, #4]
20020a44:	685b      	ldr	r3, [r3, #4]
20020a46:	6051      	str	r1, [r2, #4]
20020a48:	f3c3 6344 	ubfx	r3, r3, #25, #5
20020a4c:	42a3      	cmp	r3, r4
20020a4e:	6853      	ldr	r3, [r2, #4]
20020a50:	bf94      	ite	ls
20020a52:	f043 0320 	orrls.w	r3, r3, #32
20020a56:	f043 0340 	orrhi.w	r3, r3, #64	; 0x40
20020a5a:	6053      	str	r3, [r2, #4]
20020a5c:	bc10      	pop	{r4}
20020a5e:	4770      	bx	lr
20020a60:	20022620 	.word	0x20022620
20020a64:	200226c0 	.word	0x200226c0

20020a68 <mskd_extract_leq>:
20020a68:	4b0f      	ldr	r3, [pc, #60]	; (20020aa8 <mskd_extract_leq+0x40>)
20020a6a:	2200      	movs	r2, #0
20020a6c:	480f      	ldr	r0, [pc, #60]	; (20020aac <mskd_extract_leq+0x44>)
20020a6e:	b410      	push	{r4}
20020a70:	605a      	str	r2, [r3, #4]
20020a72:	2417      	movs	r4, #23
20020a74:	6859      	ldr	r1, [r3, #4]
20020a76:	f364 615d 	bfi	r1, r4, #25, #5
20020a7a:	6059      	str	r1, [r3, #4]
20020a7c:	685b      	ldr	r3, [r3, #4]
20020a7e:	6042      	str	r2, [r0, #4]
20020a80:	f3c3 6244 	ubfx	r2, r3, #25, #5
20020a84:	42a2      	cmp	r2, r4
20020a86:	d801      	bhi.n	20020a8c <mskd_extract_leq+0x24>
20020a88:	2a18      	cmp	r2, #24
20020a8a:	d906      	bls.n	20020a9a <mskd_extract_leq+0x32>
20020a8c:	4a07      	ldr	r2, [pc, #28]	; (20020aac <mskd_extract_leq+0x44>)
20020a8e:	6853      	ldr	r3, [r2, #4]
20020a90:	f043 0340 	orr.w	r3, r3, #64	; 0x40
20020a94:	6053      	str	r3, [r2, #4]
20020a96:	bc10      	pop	{r4}
20020a98:	4770      	bx	lr
20020a9a:	6843      	ldr	r3, [r0, #4]
20020a9c:	f043 0320 	orr.w	r3, r3, #32
20020aa0:	6043      	str	r3, [r0, #4]
20020aa2:	bc10      	pop	{r4}
20020aa4:	4770      	bx	lr
20020aa6:	bf00      	nop
20020aa8:	20022620 	.word	0x20022620
20020aac:	200226c0 	.word	0x200226c0

20020ab0 <mskd_extract_gtr>:
20020ab0:	4b0b      	ldr	r3, [pc, #44]	; (20020ae0 <mskd_extract_gtr+0x30>)
20020ab2:	2100      	movs	r1, #0
20020ab4:	4a0b      	ldr	r2, [pc, #44]	; (20020ae4 <mskd_extract_gtr+0x34>)
20020ab6:	b410      	push	{r4}
20020ab8:	6059      	str	r1, [r3, #4]
20020aba:	2413      	movs	r4, #19
20020abc:	6858      	ldr	r0, [r3, #4]
20020abe:	f364 605d 	bfi	r0, r4, #25, #5
20020ac2:	6058      	str	r0, [r3, #4]
20020ac4:	685b      	ldr	r3, [r3, #4]
20020ac6:	6051      	str	r1, [r2, #4]
20020ac8:	f3c3 6344 	ubfx	r3, r3, #25, #5
20020acc:	2b12      	cmp	r3, #18
20020ace:	6853      	ldr	r3, [r2, #4]
20020ad0:	bf8c      	ite	hi
20020ad2:	f043 0320 	orrhi.w	r3, r3, #32
20020ad6:	f043 0340 	orrls.w	r3, r3, #64	; 0x40
20020ada:	6053      	str	r3, [r2, #4]
20020adc:	bc10      	pop	{r4}
20020ade:	4770      	bx	lr
20020ae0:	20022620 	.word	0x20022620
20020ae4:	200226c0 	.word	0x200226c0

20020ae8 <set_bits_global>:
20020ae8:	4a02      	ldr	r2, [pc, #8]	; (20020af4 <set_bits_global+0xc>)
20020aea:	6853      	ldr	r3, [r2, #4]
20020aec:	f043 0340 	orr.w	r3, r3, #64	; 0x40
20020af0:	6053      	str	r3, [r2, #4]
20020af2:	4770      	bx	lr
20020af4:	200226c0 	.word	0x200226c0

20020af8 <ins_mskd_global>:
20020af8:	4b03      	ldr	r3, [pc, #12]	; (20020b08 <ins_mskd_global+0x10>)
20020afa:	2101      	movs	r1, #1
20020afc:	685a      	ldr	r2, [r3, #4]
20020afe:	f361 0242 	bfi	r2, r1, #1, #2
20020b02:	605a      	str	r2, [r3, #4]
20020b04:	4770      	bx	lr
20020b06:	bf00      	nop
20020b08:	200226c0 	.word	0x200226c0

20020b0c <assign_array_global>:
20020b0c:	4b01      	ldr	r3, [pc, #4]	; (20020b14 <assign_array_global+0x8>)
20020b0e:	22bd      	movs	r2, #189	; 0xbd
20020b10:	601a      	str	r2, [r3, #0]
20020b12:	4770      	bx	lr
20020b14:	2002252c 	.word	0x2002252c

20020b18 <shifted_global>:
20020b18:	4b05      	ldr	r3, [pc, #20]	; (20020b30 <shifted_global+0x18>)
20020b1a:	2017      	movs	r0, #23
20020b1c:	4905      	ldr	r1, [pc, #20]	; (20020b34 <shifted_global+0x1c>)
20020b1e:	685a      	ldr	r2, [r3, #4]
20020b20:	f360 625d 	bfi	r2, r0, #25, #5
20020b24:	605a      	str	r2, [r3, #4]
20020b26:	685b      	ldr	r3, [r3, #4]
20020b28:	f3c3 6344 	ubfx	r3, r3, #25, #5
20020b2c:	62cb      	str	r3, [r1, #44]	; 0x2c
20020b2e:	4770      	bx	lr
20020b30:	20022620 	.word	0x20022620
20020b34:	20022500 	.word	0x20022500

20020b38 <assign_register_global>:
20020b38:	4b04      	ldr	r3, [pc, #16]	; (20020b4c <assign_register_global+0x14>)
20020b3a:	2200      	movs	r2, #0
20020b3c:	2102      	movs	r1, #2
20020b3e:	605a      	str	r2, [r3, #4]
20020b40:	685a      	ldr	r2, [r3, #4]
20020b42:	f361 0242 	bfi	r2, r1, #1, #2
20020b46:	605a      	str	r2, [r3, #4]
20020b48:	4770      	bx	lr
20020b4a:	bf00      	nop
20020b4c:	200226c0 	.word	0x200226c0

20020b50 <copy_bits_equ>:
20020b50:	4b0b      	ldr	r3, [pc, #44]	; (20020b80 <copy_bits_equ+0x30>)
20020b52:	2100      	movs	r1, #0
20020b54:	6059      	str	r1, [r3, #4]
20020b56:	685a      	ldr	r2, [r3, #4]
20020b58:	f042 0240 	orr.w	r2, r2, #64	; 0x40
20020b5c:	605a      	str	r2, [r3, #4]
20020b5e:	685a      	ldr	r2, [r3, #4]
20020b60:	6059      	str	r1, [r3, #4]
20020b62:	f3c2 1280 	ubfx	r2, r2, #6, #1
20020b66:	b92a      	cbnz	r2, 20020b74 <copy_bits_equ+0x24>
20020b68:	685a      	ldr	r2, [r3, #4]
20020b6a:	2102      	movs	r1, #2
20020b6c:	f361 0242 	bfi	r2, r1, #1, #2
20020b70:	605a      	str	r2, [r3, #4]
20020b72:	4770      	bx	lr
20020b74:	6859      	ldr	r1, [r3, #4]
20020b76:	f362 0142 	bfi	r1, r2, #1, #2
20020b7a:	6059      	str	r1, [r3, #4]
20020b7c:	4770      	bx	lr
20020b7e:	bf00      	nop
20020b80:	200226c0 	.word	0x200226c0

20020b84 <copy_bits_neq>:
20020b84:	4b09      	ldr	r3, [pc, #36]	; (20020bac <copy_bits_neq+0x28>)
20020b86:	2100      	movs	r1, #0
20020b88:	6059      	str	r1, [r3, #4]
20020b8a:	685a      	ldr	r2, [r3, #4]
20020b8c:	f042 0240 	orr.w	r2, r2, #64	; 0x40
20020b90:	605a      	str	r2, [r3, #4]
20020b92:	685a      	ldr	r2, [r3, #4]
20020b94:	6059      	str	r1, [r3, #4]
20020b96:	f012 0f40 	tst.w	r2, #64	; 0x40
20020b9a:	685a      	ldr	r2, [r3, #4]
20020b9c:	bf0c      	ite	eq
20020b9e:	2101      	moveq	r1, #1
20020ba0:	2102      	movne	r1, #2
20020ba2:	f361 0242 	bfi	r2, r1, #1, #2
20020ba6:	605a      	str	r2, [r3, #4]
20020ba8:	4770      	bx	lr
20020baa:	bf00      	nop
20020bac:	200226c0 	.word	0x200226c0

20020bb0 <copy_mskd_equ>:
20020bb0:	2100      	movs	r1, #0
20020bb2:	4b0b      	ldr	r3, [pc, #44]	; (20020be0 <copy_mskd_equ+0x30>)
20020bb4:	4a0b      	ldr	r2, [pc, #44]	; (20020be4 <copy_mskd_equ+0x34>)
20020bb6:	b410      	push	{r4}
20020bb8:	6059      	str	r1, [r3, #4]
20020bba:	240b      	movs	r4, #11
20020bbc:	6858      	ldr	r0, [r3, #4]
20020bbe:	f364 605d 	bfi	r0, r4, #25, #5
20020bc2:	6058      	str	r0, [r3, #4]
20020bc4:	685b      	ldr	r3, [r3, #4]
20020bc6:	6051      	str	r1, [r2, #4]
20020bc8:	f3c3 6344 	ubfx	r3, r3, #25, #5
20020bcc:	42a3      	cmp	r3, r4
20020bce:	6853      	ldr	r3, [r2, #4]
20020bd0:	bf0c      	ite	eq
20020bd2:	2101      	moveq	r1, #1
20020bd4:	2102      	movne	r1, #2
20020bd6:	f361 0342 	bfi	r3, r1, #1, #2
20020bda:	6053      	str	r3, [r2, #4]
20020bdc:	bc10      	pop	{r4}
20020bde:	4770      	bx	lr
20020be0:	20022620 	.word	0x20022620
20020be4:	200226c0 	.word	0x200226c0

20020be8 <copy_mskd_neq>:
20020be8:	2100      	movs	r1, #0
20020bea:	4b0b      	ldr	r3, [pc, #44]	; (20020c18 <copy_mskd_neq+0x30>)
20020bec:	4a0b      	ldr	r2, [pc, #44]	; (20020c1c <copy_mskd_neq+0x34>)
20020bee:	b410      	push	{r4}
20020bf0:	6059      	str	r1, [r3, #4]
20020bf2:	240d      	movs	r4, #13
20020bf4:	6858      	ldr	r0, [r3, #4]
20020bf6:	f364 605d 	bfi	r0, r4, #25, #5
20020bfa:	6058      	str	r0, [r3, #4]
20020bfc:	685b      	ldr	r3, [r3, #4]
20020bfe:	6051      	str	r1, [r2, #4]
20020c00:	f3c3 6344 	ubfx	r3, r3, #25, #5
20020c04:	42a3      	cmp	r3, r4
20020c06:	6853      	ldr	r3, [r2, #4]
20020c08:	bf14      	ite	ne
20020c0a:	2101      	movne	r1, #1
20020c0c:	2102      	moveq	r1, #2
20020c0e:	f361 0342 	bfi	r3, r1, #1, #2
20020c12:	6053      	str	r3, [r2, #4]
20020c14:	bc10      	pop	{r4}
20020c16:	4770      	bx	lr
20020c18:	20022620 	.word	0x20022620
20020c1c:	200226c0 	.word	0x200226c0

20020c20 <copy_mskd_lss>:
20020c20:	2100      	movs	r1, #0
20020c22:	4b0b      	ldr	r3, [pc, #44]	; (20020c50 <copy_mskd_lss+0x30>)
20020c24:	4a0b      	ldr	r2, [pc, #44]	; (20020c54 <copy_mskd_lss+0x34>)
20020c26:	b410      	push	{r4}
20020c28:	6059      	str	r1, [r3, #4]
20020c2a:	241b      	movs	r4, #27
20020c2c:	6858      	ldr	r0, [r3, #4]
20020c2e:	f364 605d 	bfi	r0, r4, #25, #5
20020c32:	6058      	str	r0, [r3, #4]
20020c34:	685b      	ldr	r3, [r3, #4]
20020c36:	6051      	str	r1, [r2, #4]
20020c38:	f3c3 6344 	ubfx	r3, r3, #25, #5
20020c3c:	42a3      	cmp	r3, r4
20020c3e:	6853      	ldr	r3, [r2, #4]
20020c40:	bf94      	ite	ls
20020c42:	2101      	movls	r1, #1
20020c44:	2102      	movhi	r1, #2
20020c46:	f361 0342 	bfi	r3, r1, #1, #2
20020c4a:	6053      	str	r3, [r2, #4]
20020c4c:	bc10      	pop	{r4}
20020c4e:	4770      	bx	lr
20020c50:	20022620 	.word	0x20022620
20020c54:	200226c0 	.word	0x200226c0

20020c58 <copy_mskd_leq>:
20020c58:	2100      	movs	r1, #0
20020c5a:	4b0b      	ldr	r3, [pc, #44]	; (20020c88 <copy_mskd_leq+0x30>)
20020c5c:	4a0b      	ldr	r2, [pc, #44]	; (20020c8c <copy_mskd_leq+0x34>)
20020c5e:	b410      	push	{r4}
20020c60:	6059      	str	r1, [r3, #4]
20020c62:	2417      	movs	r4, #23
20020c64:	6858      	ldr	r0, [r3, #4]
20020c66:	f364 605d 	bfi	r0, r4, #25, #5
20020c6a:	6058      	str	r0, [r3, #4]
20020c6c:	685b      	ldr	r3, [r3, #4]
20020c6e:	6051      	str	r1, [r2, #4]
20020c70:	f3c3 6344 	ubfx	r3, r3, #25, #5
20020c74:	42a3      	cmp	r3, r4
20020c76:	6853      	ldr	r3, [r2, #4]
20020c78:	bf94      	ite	ls
20020c7a:	2101      	movls	r1, #1
20020c7c:	2102      	movhi	r1, #2
20020c7e:	f361 0342 	bfi	r3, r1, #1, #2
20020c82:	6053      	str	r3, [r2, #4]
20020c84:	bc10      	pop	{r4}
20020c86:	4770      	bx	lr
20020c88:	20022620 	.word	0x20022620
20020c8c:	200226c0 	.word	0x200226c0

20020c90 <copy_mskd_gtr>:
20020c90:	2100      	movs	r1, #0
20020c92:	4b0b      	ldr	r3, [pc, #44]	; (20020cc0 <copy_mskd_gtr+0x30>)
20020c94:	4a0b      	ldr	r2, [pc, #44]	; (20020cc4 <copy_mskd_gtr+0x34>)
20020c96:	b410      	push	{r4}
20020c98:	6059      	str	r1, [r3, #4]
20020c9a:	2413      	movs	r4, #19
20020c9c:	6858      	ldr	r0, [r3, #4]
20020c9e:	f364 605d 	bfi	r0, r4, #25, #5
20020ca2:	6058      	str	r0, [r3, #4]
20020ca4:	685b      	ldr	r3, [r3, #4]
20020ca6:	6051      	str	r1, [r2, #4]
20020ca8:	f3c3 6344 	ubfx	r3, r3, #25, #5
20020cac:	2b12      	cmp	r3, #18
20020cae:	6853      	ldr	r3, [r2, #4]
20020cb0:	bf8c      	ite	hi
20020cb2:	2101      	movhi	r1, #1
20020cb4:	2102      	movls	r1, #2
20020cb6:	f361 0342 	bfi	r3, r1, #1, #2
20020cba:	6053      	str	r3, [r2, #4]
20020cbc:	bc10      	pop	{r4}
20020cbe:	4770      	bx	lr
20020cc0:	20022620 	.word	0x20022620
20020cc4:	200226c0 	.word	0x200226c0

20020cc8 <copy_mskd_geq>:
20020cc8:	2100      	movs	r1, #0
20020cca:	4b0b      	ldr	r3, [pc, #44]	; (20020cf8 <copy_mskd_geq+0x30>)
20020ccc:	4a0b      	ldr	r2, [pc, #44]	; (20020cfc <copy_mskd_geq+0x34>)
20020cce:	b410      	push	{r4}
20020cd0:	6059      	str	r1, [r3, #4]
20020cd2:	2411      	movs	r4, #17
20020cd4:	6858      	ldr	r0, [r3, #4]
20020cd6:	f364 605d 	bfi	r0, r4, #25, #5
20020cda:	6058      	str	r0, [r3, #4]
20020cdc:	685b      	ldr	r3, [r3, #4]
20020cde:	6051      	str	r1, [r2, #4]
20020ce0:	f3c3 6344 	ubfx	r3, r3, #25, #5
20020ce4:	2b10      	cmp	r3, #16
20020ce6:	6853      	ldr	r3, [r2, #4]
20020ce8:	bf8c      	ite	hi
20020cea:	2101      	movhi	r1, #1
20020cec:	2102      	movls	r1, #2
20020cee:	f361 0342 	bfi	r3, r1, #1, #2
20020cf2:	6053      	str	r3, [r2, #4]
20020cf4:	bc10      	pop	{r4}
20020cf6:	4770      	bx	lr
20020cf8:	20022620 	.word	0x20022620
20020cfc:	200226c0 	.word	0x200226c0

20020d00 <copy_shifted>:
20020d00:	2100      	movs	r1, #0
20020d02:	4b0b      	ldr	r3, [pc, #44]	; (20020d30 <copy_shifted+0x30>)
20020d04:	4a0b      	ldr	r2, [pc, #44]	; (20020d34 <copy_shifted+0x34>)
20020d06:	b410      	push	{r4}
20020d08:	6059      	str	r1, [r3, #4]
20020d0a:	240b      	movs	r4, #11
20020d0c:	6858      	ldr	r0, [r3, #4]
20020d0e:	f364 605d 	bfi	r0, r4, #25, #5
20020d12:	6058      	str	r0, [r3, #4]
20020d14:	685b      	ldr	r3, [r3, #4]
20020d16:	6051      	str	r1, [r2, #4]
20020d18:	f3c3 6344 	ubfx	r3, r3, #25, #5
20020d1c:	42a3      	cmp	r3, r4
20020d1e:	6853      	ldr	r3, [r2, #4]
20020d20:	bf0c      	ite	eq
20020d22:	2101      	moveq	r1, #1
20020d24:	2102      	movne	r1, #2
20020d26:	f361 0342 	bfi	r3, r1, #1, #2
20020d2a:	6053      	str	r3, [r2, #4]
20020d2c:	bc10      	pop	{r4}
20020d2e:	4770      	bx	lr
20020d30:	20022620 	.word	0x20022620
20020d34:	200226c0 	.word	0x200226c0

20020d38 <bits_val>:
20020d38:	2803      	cmp	r0, #3
20020d3a:	d003      	beq.n	20020d44 <bits_val+0xc>
20020d3c:	2804      	cmp	r0, #4
20020d3e:	d019      	beq.n	20020d74 <bits_val+0x3c>
20020d40:	b160      	cbz	r0, 20020d5c <bits_val+0x24>
20020d42:	4770      	bx	lr
20020d44:	4b11      	ldr	r3, [pc, #68]	; (20020d8c <bits_val+0x54>)
20020d46:	f001 0101 	and.w	r1, r1, #1
20020d4a:	685a      	ldr	r2, [r3, #4]
20020d4c:	f361 1245 	bfi	r2, r1, #5, #1
20020d50:	605a      	str	r2, [r3, #4]
20020d52:	685a      	ldr	r2, [r3, #4]
20020d54:	f361 1245 	bfi	r2, r1, #5, #1
20020d58:	605a      	str	r2, [r3, #4]
20020d5a:	4770      	bx	lr
20020d5c:	4b0b      	ldr	r3, [pc, #44]	; (20020d8c <bits_val+0x54>)
20020d5e:	f001 0101 	and.w	r1, r1, #1
20020d62:	685a      	ldr	r2, [r3, #4]
20020d64:	f361 0200 	bfi	r2, r1, #0, #1
20020d68:	605a      	str	r2, [r3, #4]
20020d6a:	685a      	ldr	r2, [r3, #4]
20020d6c:	f361 0200 	bfi	r2, r1, #0, #1
20020d70:	605a      	str	r2, [r3, #4]
20020d72:	4770      	bx	lr
20020d74:	4b05      	ldr	r3, [pc, #20]	; (20020d8c <bits_val+0x54>)
20020d76:	f001 0101 	and.w	r1, r1, #1
20020d7a:	685a      	ldr	r2, [r3, #4]
20020d7c:	f361 1286 	bfi	r2, r1, #6, #1
20020d80:	605a      	str	r2, [r3, #4]
20020d82:	685a      	ldr	r2, [r3, #4]
20020d84:	f361 1286 	bfi	r2, r1, #6, #1
20020d88:	605a      	str	r2, [r3, #4]
20020d8a:	4770      	bx	lr
20020d8c:	200226c0 	.word	0x200226c0

20020d90 <call_bits_val_const>:
20020d90:	2101      	movs	r1, #1
20020d92:	2004      	movs	r0, #4
20020d94:	f7ff bfd0 	b.w	20020d38 <bits_val>

20020d98 <call_bits_val_var>:
20020d98:	2101      	movs	r1, #1
20020d9a:	2004      	movs	r0, #4
20020d9c:	f7ff bfcc 	b.w	20020d38 <bits_val>

20020da0 <call_bits_val_global>:
20020da0:	2101      	movs	r1, #1
20020da2:	2004      	movs	r0, #4
20020da4:	f7ff bfc8 	b.w	20020d38 <bits_val>

20020da8 <bits_ref>:
20020da8:	6803      	ldr	r3, [r0, #0]
20020daa:	2b03      	cmp	r3, #3
20020dac:	d003      	beq.n	20020db6 <bits_ref+0xe>
20020dae:	2b04      	cmp	r3, #4
20020db0:	d019      	beq.n	20020de6 <bits_ref+0x3e>
20020db2:	b163      	cbz	r3, 20020dce <bits_ref+0x26>
20020db4:	4770      	bx	lr
20020db6:	4b12      	ldr	r3, [pc, #72]	; (20020e00 <bits_ref+0x58>)
20020db8:	6808      	ldr	r0, [r1, #0]
20020dba:	685a      	ldr	r2, [r3, #4]
20020dbc:	f360 1245 	bfi	r2, r0, #5, #1
20020dc0:	605a      	str	r2, [r3, #4]
20020dc2:	6809      	ldr	r1, [r1, #0]
20020dc4:	685a      	ldr	r2, [r3, #4]
20020dc6:	f361 1245 	bfi	r2, r1, #5, #1
20020dca:	605a      	str	r2, [r3, #4]
20020dcc:	4770      	bx	lr
20020dce:	4b0c      	ldr	r3, [pc, #48]	; (20020e00 <bits_ref+0x58>)
20020dd0:	6808      	ldr	r0, [r1, #0]
20020dd2:	685a      	ldr	r2, [r3, #4]
20020dd4:	f360 0200 	bfi	r2, r0, #0, #1
20020dd8:	605a      	str	r2, [r3, #4]
20020dda:	6809      	ldr	r1, [r1, #0]
20020ddc:	685a      	ldr	r2, [r3, #4]
20020dde:	f361 0200 	bfi	r2, r1, #0, #1
20020de2:	605a      	str	r2, [r3, #4]
20020de4:	4770      	bx	lr
20020de6:	4b06      	ldr	r3, [pc, #24]	; (20020e00 <bits_ref+0x58>)
20020de8:	6808      	ldr	r0, [r1, #0]
20020dea:	685a      	ldr	r2, [r3, #4]
20020dec:	f360 1286 	bfi	r2, r0, #6, #1
20020df0:	605a      	str	r2, [r3, #4]
20020df2:	6809      	ldr	r1, [r1, #0]
20020df4:	685a      	ldr	r2, [r3, #4]
20020df6:	f361 1286 	bfi	r2, r1, #6, #1
20020dfa:	605a      	str	r2, [r3, #4]
20020dfc:	4770      	bx	lr
20020dfe:	bf00      	nop
20020e00:	200226c0 	.word	0x200226c0

20020e04 <call_bits_ref_const>:
20020e04:	b500      	push	{lr}
20020e06:	b082      	sub	sp, #8
20020e08:	2200      	movs	r2, #0
20020e0a:	2301      	movs	r3, #1
20020e0c:	a901      	add	r1, sp, #4
20020e0e:	4668      	mov	r0, sp
20020e10:	e88d 000c 	stmia.w	sp, {r2, r3}
20020e14:	f7ff ffc8 	bl	20020da8 <bits_ref>
20020e18:	b002      	add	sp, #8
20020e1a:	f85d fb04 	ldr.w	pc, [sp], #4
20020e1e:	bf00      	nop

20020e20 <call_bits_ref_var>:
20020e20:	b500      	push	{lr}
20020e22:	b082      	sub	sp, #8
20020e24:	2200      	movs	r2, #0
20020e26:	2301      	movs	r3, #1
20020e28:	a901      	add	r1, sp, #4
20020e2a:	4668      	mov	r0, sp
20020e2c:	e88d 000c 	stmia.w	sp, {r2, r3}
20020e30:	f7ff ffba 	bl	20020da8 <bits_ref>
20020e34:	b002      	add	sp, #8
20020e36:	f85d fb04 	ldr.w	pc, [sp], #4
20020e3a:	bf00      	nop

20020e3c <call_bits_ref_global>:
20020e3c:	b500      	push	{lr}
20020e3e:	2204      	movs	r2, #4
20020e40:	b082      	sub	sp, #8
20020e42:	2301      	movs	r3, #1
20020e44:	eb0d 0102 	add.w	r1, sp, r2
20020e48:	4668      	mov	r0, sp
20020e4a:	e88d 000c 	stmia.w	sp, {r2, r3}
20020e4e:	f7ff ffab 	bl	20020da8 <bits_ref>
20020e52:	b002      	add	sp, #8
20020e54:	f85d fb04 	ldr.w	pc, [sp], #4

20020e58 <mskd_val>:
20020e58:	2806      	cmp	r0, #6
20020e5a:	d810      	bhi.n	20020e7e <mskd_val+0x26>
20020e5c:	e8df f000 	tbb	[pc, r0]
20020e60:	1c104034 	.word	0x1c104034
20020e64:	2810      	.short	0x2810
20020e66:	04          	.byte	0x04
20020e67:	00          	.byte	0x00
20020e68:	4b23      	ldr	r3, [pc, #140]	; (20020ef8 <mskd_val+0xa0>)
20020e6a:	f001 011f 	and.w	r1, r1, #31
20020e6e:	685a      	ldr	r2, [r3, #4]
20020e70:	f361 3210 	bfi	r2, r1, #12, #5
20020e74:	605a      	str	r2, [r3, #4]
20020e76:	685a      	ldr	r2, [r3, #4]
20020e78:	f361 3210 	bfi	r2, r1, #12, #5
20020e7c:	605a      	str	r2, [r3, #4]
20020e7e:	4770      	bx	lr
20020e80:	4b1d      	ldr	r3, [pc, #116]	; (20020ef8 <mskd_val+0xa0>)
20020e82:	f001 0103 	and.w	r1, r1, #3
20020e86:	685a      	ldr	r2, [r3, #4]
20020e88:	f361 02c4 	bfi	r2, r1, #3, #2
20020e8c:	605a      	str	r2, [r3, #4]
20020e8e:	685a      	ldr	r2, [r3, #4]
20020e90:	f361 02c4 	bfi	r2, r1, #3, #2
20020e94:	605a      	str	r2, [r3, #4]
20020e96:	4770      	bx	lr
20020e98:	4b17      	ldr	r3, [pc, #92]	; (20020ef8 <mskd_val+0xa0>)
20020e9a:	f001 0101 	and.w	r1, r1, #1
20020e9e:	685a      	ldr	r2, [r3, #4]
20020ea0:	f361 1245 	bfi	r2, r1, #5, #1
20020ea4:	605a      	str	r2, [r3, #4]
20020ea6:	685a      	ldr	r2, [r3, #4]
20020ea8:	f361 1245 	bfi	r2, r1, #5, #1
20020eac:	605a      	str	r2, [r3, #4]
20020eae:	4770      	bx	lr
20020eb0:	4b11      	ldr	r3, [pc, #68]	; (20020ef8 <mskd_val+0xa0>)
20020eb2:	f001 011f 	and.w	r1, r1, #31
20020eb6:	685a      	ldr	r2, [r3, #4]
20020eb8:	f361 12cb 	bfi	r2, r1, #7, #5
20020ebc:	605a      	str	r2, [r3, #4]
20020ebe:	685a      	ldr	r2, [r3, #4]
20020ec0:	f361 12cb 	bfi	r2, r1, #7, #5
20020ec4:	605a      	str	r2, [r3, #4]
20020ec6:	4770      	bx	lr
20020ec8:	4b0b      	ldr	r3, [pc, #44]	; (20020ef8 <mskd_val+0xa0>)
20020eca:	f001 0101 	and.w	r1, r1, #1
20020ece:	685a      	ldr	r2, [r3, #4]
20020ed0:	f361 0200 	bfi	r2, r1, #0, #1
20020ed4:	605a      	str	r2, [r3, #4]
20020ed6:	685a      	ldr	r2, [r3, #4]
20020ed8:	f361 0200 	bfi	r2, r1, #0, #1
20020edc:	605a      	str	r2, [r3, #4]
20020ede:	4770      	bx	lr
20020ee0:	4b05      	ldr	r3, [pc, #20]	; (20020ef8 <mskd_val+0xa0>)
20020ee2:	f001 0103 	and.w	r1, r1, #3
20020ee6:	685a      	ldr	r2, [r3, #4]
20020ee8:	f361 0242 	bfi	r2, r1, #1, #2
20020eec:	605a      	str	r2, [r3, #4]
20020eee:	685a      	ldr	r2, [r3, #4]
20020ef0:	f361 0242 	bfi	r2, r1, #1, #2
20020ef4:	605a      	str	r2, [r3, #4]
20020ef6:	4770      	bx	lr
20020ef8:	200226c0 	.word	0x200226c0

20020efc <call_mskd_val_const>:
20020efc:	2101      	movs	r1, #1
20020efe:	b500      	push	{lr}
20020f00:	4608      	mov	r0, r1
20020f02:	f7ff ffa9 	bl	20020e58 <mskd_val>
20020f06:	2101      	movs	r1, #1
20020f08:	f85d eb04 	ldr.w	lr, [sp], #4
20020f0c:	4608      	mov	r0, r1
20020f0e:	f7ff bfa3 	b.w	20020e58 <mskd_val>
20020f12:	bf00      	nop

20020f14 <call_mskd_val_var>:
20020f14:	2101      	movs	r1, #1
20020f16:	b500      	push	{lr}
20020f18:	4608      	mov	r0, r1
20020f1a:	f7ff ff9d 	bl	20020e58 <mskd_val>
20020f1e:	2101      	movs	r1, #1
20020f20:	f85d eb04 	ldr.w	lr, [sp], #4
20020f24:	4608      	mov	r0, r1
20020f26:	f7ff bf97 	b.w	20020e58 <mskd_val>
20020f2a:	bf00      	nop

20020f2c <call_mskd_val_global>:
20020f2c:	2101      	movs	r1, #1
20020f2e:	4608      	mov	r0, r1
20020f30:	f7ff bf92 	b.w	20020e58 <mskd_val>

20020f34 <mskd_ref>:
20020f34:	6803      	ldr	r3, [r0, #0]
20020f36:	2b06      	cmp	r3, #6
20020f38:	d810      	bhi.n	20020f5c <mskd_ref+0x28>
20020f3a:	e8df f003 	tbb	[pc, r3]
20020f3e:	4034      	.short	0x4034
20020f40:	28101c10 	.word	0x28101c10
20020f44:	04          	.byte	0x04
20020f45:	00          	.byte	0x00
20020f46:	4b24      	ldr	r3, [pc, #144]	; (20020fd8 <mskd_ref+0xa4>)
20020f48:	6808      	ldr	r0, [r1, #0]
20020f4a:	685a      	ldr	r2, [r3, #4]
20020f4c:	f360 3210 	bfi	r2, r0, #12, #5
20020f50:	605a      	str	r2, [r3, #4]
20020f52:	6809      	ldr	r1, [r1, #0]
20020f54:	685a      	ldr	r2, [r3, #4]
20020f56:	f361 3210 	bfi	r2, r1, #12, #5
20020f5a:	605a      	str	r2, [r3, #4]
20020f5c:	4770      	bx	lr
20020f5e:	4b1e      	ldr	r3, [pc, #120]	; (20020fd8 <mskd_ref+0xa4>)
20020f60:	6808      	ldr	r0, [r1, #0]
20020f62:	685a      	ldr	r2, [r3, #4]
20020f64:	f360 02c4 	bfi	r2, r0, #3, #2
20020f68:	605a      	str	r2, [r3, #4]
20020f6a:	6809      	ldr	r1, [r1, #0]
20020f6c:	685a      	ldr	r2, [r3, #4]
20020f6e:	f361 02c4 	bfi	r2, r1, #3, #2
20020f72:	605a      	str	r2, [r3, #4]
20020f74:	4770      	bx	lr
20020f76:	4b18      	ldr	r3, [pc, #96]	; (20020fd8 <mskd_ref+0xa4>)
20020f78:	6808      	ldr	r0, [r1, #0]
20020f7a:	685a      	ldr	r2, [r3, #4]
20020f7c:	f360 1245 	bfi	r2, r0, #5, #1
20020f80:	605a      	str	r2, [r3, #4]
20020f82:	6809      	ldr	r1, [r1, #0]
20020f84:	685a      	ldr	r2, [r3, #4]
20020f86:	f361 1245 	bfi	r2, r1, #5, #1
20020f8a:	605a      	str	r2, [r3, #4]
20020f8c:	4770      	bx	lr
20020f8e:	4b12      	ldr	r3, [pc, #72]	; (20020fd8 <mskd_ref+0xa4>)
20020f90:	6808      	ldr	r0, [r1, #0]
20020f92:	685a      	ldr	r2, [r3, #4]
20020f94:	f360 12cb 	bfi	r2, r0, #7, #5
20020f98:	605a      	str	r2, [r3, #4]
20020f9a:	6809      	ldr	r1, [r1, #0]
20020f9c:	685a      	ldr	r2, [r3, #4]
20020f9e:	f361 12cb 	bfi	r2, r1, #7, #5
20020fa2:	605a      	str	r2, [r3, #4]
20020fa4:	4770      	bx	lr
20020fa6:	4b0c      	ldr	r3, [pc, #48]	; (20020fd8 <mskd_ref+0xa4>)
20020fa8:	6808      	ldr	r0, [r1, #0]
20020faa:	685a      	ldr	r2, [r3, #4]
20020fac:	f360 0200 	bfi	r2, r0, #0, #1
20020fb0:	605a      	str	r2, [r3, #4]
20020fb2:	6809      	ldr	r1, [r1, #0]
20020fb4:	685a      	ldr	r2, [r3, #4]
20020fb6:	f361 0200 	bfi	r2, r1, #0, #1
20020fba:	605a      	str	r2, [r3, #4]
20020fbc:	4770      	bx	lr
20020fbe:	4b06      	ldr	r3, [pc, #24]	; (20020fd8 <mskd_ref+0xa4>)
20020fc0:	6808      	ldr	r0, [r1, #0]
20020fc2:	685a      	ldr	r2, [r3, #4]
20020fc4:	f360 0242 	bfi	r2, r0, #1, #2
20020fc8:	605a      	str	r2, [r3, #4]
20020fca:	6809      	ldr	r1, [r1, #0]
20020fcc:	685a      	ldr	r2, [r3, #4]
20020fce:	f361 0242 	bfi	r2, r1, #1, #2
20020fd2:	605a      	str	r2, [r3, #4]
20020fd4:	4770      	bx	lr
20020fd6:	bf00      	nop
20020fd8:	200226c0 	.word	0x200226c0

20020fdc <call_mskd_ref_const>:
20020fdc:	b500      	push	{lr}
20020fde:	b082      	sub	sp, #8
20020fe0:	2201      	movs	r2, #1
20020fe2:	2302      	movs	r3, #2
20020fe4:	a901      	add	r1, sp, #4
20020fe6:	4668      	mov	r0, sp
20020fe8:	e88d 000c 	stmia.w	sp, {r2, r3}
20020fec:	f7ff ffa2 	bl	20020f34 <mskd_ref>
20020ff0:	b002      	add	sp, #8
20020ff2:	f85d fb04 	ldr.w	pc, [sp], #4
20020ff6:	bf00      	nop

20020ff8 <call_mskd_ref_var>:
20020ff8:	b500      	push	{lr}
20020ffa:	b082      	sub	sp, #8
20020ffc:	2301      	movs	r3, #1
20020ffe:	a901      	add	r1, sp, #4
20021000:	4668      	mov	r0, sp
20021002:	9300      	str	r3, [sp, #0]
20021004:	9301      	str	r3, [sp, #4]
20021006:	f7ff ff95 	bl	20020f34 <mskd_ref>
2002100a:	b002      	add	sp, #8
2002100c:	f85d fb04 	ldr.w	pc, [sp], #4

20021010 <call_mskd_ref_global>:
20021010:	b500      	push	{lr}
20021012:	b082      	sub	sp, #8
20021014:	2301      	movs	r3, #1
20021016:	a901      	add	r1, sp, #4
20021018:	4668      	mov	r0, sp
2002101a:	9300      	str	r3, [sp, #0]
2002101c:	9301      	str	r3, [sp, #4]
2002101e:	f7ff ff89 	bl	20020f34 <mskd_ref>
20021022:	b002      	add	sp, #8
20021024:	f85d fb04 	ldr.w	pc, [sp], #4

20021028 <periph_bits>:
20021028:	6843      	ldr	r3, [r0, #4]
2002102a:	f043 0340 	orr.w	r3, r3, #64	; 0x40
2002102e:	6043      	str	r3, [r0, #4]
20021030:	4770      	bx	lr
20021032:	bf00      	nop

20021034 <call_periph_bits>:
20021034:	4801      	ldr	r0, [pc, #4]	; (2002103c <call_periph_bits+0x8>)
20021036:	f7ff bff7 	b.w	20021028 <periph_bits>
2002103a:	bf00      	nop
2002103c:	200226c0 	.word	0x200226c0

20021040 <periph_bits_val>:
20021040:	2904      	cmp	r1, #4
20021042:	d103      	bne.n	2002104c <periph_bits_val+0xc>
20021044:	6843      	ldr	r3, [r0, #4]
20021046:	f043 0340 	orr.w	r3, r3, #64	; 0x40
2002104a:	6043      	str	r3, [r0, #4]
2002104c:	4770      	bx	lr
2002104e:	bf00      	nop

20021050 <call_periph_bits_val>:
20021050:	2104      	movs	r1, #4
20021052:	4801      	ldr	r0, [pc, #4]	; (20021058 <call_periph_bits_val+0x8>)
20021054:	f7ff bff4 	b.w	20021040 <periph_bits_val>
20021058:	200226c0 	.word	0x200226c0

2002105c <reg_bits_val>:
2002105c:	2904      	cmp	r1, #4
2002105e:	d103      	bne.n	20021068 <reg_bits_val+0xc>
20021060:	6803      	ldr	r3, [r0, #0]
20021062:	f043 0340 	orr.w	r3, r3, #64	; 0x40
20021066:	6003      	str	r3, [r0, #0]
20021068:	4770      	bx	lr
2002106a:	bf00      	nop

2002106c <call_reg_bits_val>:
2002106c:	2104      	movs	r1, #4
2002106e:	4801      	ldr	r0, [pc, #4]	; (20021074 <call_reg_bits_val+0x8>)
20021070:	f7ff bff4 	b.w	2002105c <reg_bits_val>
20021074:	200226c4 	.word	0x200226c4

20021078 <periph_bits_ref>:
20021078:	680b      	ldr	r3, [r1, #0]
2002107a:	2b04      	cmp	r3, #4
2002107c:	d103      	bne.n	20021086 <periph_bits_ref+0xe>
2002107e:	6843      	ldr	r3, [r0, #4]
20021080:	f043 0340 	orr.w	r3, r3, #64	; 0x40
20021084:	6043      	str	r3, [r0, #4]
20021086:	4770      	bx	lr

20021088 <call_periph_bits_ref>:
20021088:	b500      	push	{lr}
2002108a:	b081      	sub	sp, #4
2002108c:	2304      	movs	r3, #4
2002108e:	4804      	ldr	r0, [pc, #16]	; (200210a0 <call_periph_bits_ref+0x18>)
20021090:	4669      	mov	r1, sp
20021092:	9300      	str	r3, [sp, #0]
20021094:	f7ff fff0 	bl	20021078 <periph_bits_ref>
20021098:	b001      	add	sp, #4
2002109a:	f85d fb04 	ldr.w	pc, [sp], #4
2002109e:	bf00      	nop
200210a0:	200226c0 	.word	0x200226c0

200210a4 <reg_bits_ref>:
200210a4:	680b      	ldr	r3, [r1, #0]
200210a6:	2b04      	cmp	r3, #4
200210a8:	d103      	bne.n	200210b2 <reg_bits_ref+0xe>
200210aa:	6803      	ldr	r3, [r0, #0]
200210ac:	f043 0340 	orr.w	r3, r3, #64	; 0x40
200210b0:	6003      	str	r3, [r0, #0]
200210b2:	4770      	bx	lr

200210b4 <call_reg_bits_ref>:
200210b4:	b500      	push	{lr}
200210b6:	b081      	sub	sp, #4
200210b8:	2304      	movs	r3, #4
200210ba:	4804      	ldr	r0, [pc, #16]	; (200210cc <call_reg_bits_ref+0x18>)
200210bc:	4669      	mov	r1, sp
200210be:	9300      	str	r3, [sp, #0]
200210c0:	f7ff fff0 	bl	200210a4 <reg_bits_ref>
200210c4:	b001      	add	sp, #4
200210c6:	f85d fb04 	ldr.w	pc, [sp], #4
200210ca:	bf00      	nop
200210cc:	200226c4 	.word	0x200226c4

200210d0 <periph_mskd>:
200210d0:	6843      	ldr	r3, [r0, #4]
200210d2:	2201      	movs	r2, #1
200210d4:	f362 0342 	bfi	r3, r2, #1, #2
200210d8:	6043      	str	r3, [r0, #4]
200210da:	4770      	bx	lr

200210dc <call_periph_mskd>:
200210dc:	4801      	ldr	r0, [pc, #4]	; (200210e4 <call_periph_mskd+0x8>)
200210de:	f7ff bff7 	b.w	200210d0 <periph_mskd>
200210e2:	bf00      	nop
200210e4:	200226c0 	.word	0x200226c0

200210e8 <periph_mskd_val>:
200210e8:	2901      	cmp	r1, #1
200210ea:	d103      	bne.n	200210f4 <periph_mskd_val+0xc>
200210ec:	6843      	ldr	r3, [r0, #4]
200210ee:	f361 0342 	bfi	r3, r1, #1, #2
200210f2:	6043      	str	r3, [r0, #4]
200210f4:	4770      	bx	lr
200210f6:	bf00      	nop

200210f8 <call_periph_mskd_val>:
200210f8:	2101      	movs	r1, #1
200210fa:	4801      	ldr	r0, [pc, #4]	; (20021100 <call_periph_mskd_val+0x8>)
200210fc:	f7ff bff4 	b.w	200210e8 <periph_mskd_val>
20021100:	200226c0 	.word	0x200226c0

20021104 <reg_mskd_val>:
20021104:	2901      	cmp	r1, #1
20021106:	d103      	bne.n	20021110 <reg_mskd_val+0xc>
20021108:	6803      	ldr	r3, [r0, #0]
2002110a:	f361 0342 	bfi	r3, r1, #1, #2
2002110e:	6003      	str	r3, [r0, #0]
20021110:	4770      	bx	lr
20021112:	bf00      	nop

20021114 <call_reg_mskd_val>:
20021114:	2101      	movs	r1, #1
20021116:	4801      	ldr	r0, [pc, #4]	; (2002111c <call_reg_mskd_val+0x8>)
20021118:	f7ff bff4 	b.w	20021104 <reg_mskd_val>
2002111c:	200226c4 	.word	0x200226c4

20021120 <periph_mskd_ref>:
20021120:	680b      	ldr	r3, [r1, #0]
20021122:	2b01      	cmp	r3, #1
20021124:	d103      	bne.n	2002112e <periph_mskd_ref+0xe>
20021126:	6842      	ldr	r2, [r0, #4]
20021128:	f363 0242 	bfi	r2, r3, #1, #2
2002112c:	6042      	str	r2, [r0, #4]
2002112e:	4770      	bx	lr

20021130 <call_periph_mskd_ref>:
20021130:	b500      	push	{lr}
20021132:	b081      	sub	sp, #4
20021134:	2301      	movs	r3, #1
20021136:	4804      	ldr	r0, [pc, #16]	; (20021148 <call_periph_mskd_ref+0x18>)
20021138:	4669      	mov	r1, sp
2002113a:	9300      	str	r3, [sp, #0]
2002113c:	f7ff fff0 	bl	20021120 <periph_mskd_ref>
20021140:	b001      	add	sp, #4
20021142:	f85d fb04 	ldr.w	pc, [sp], #4
20021146:	bf00      	nop
20021148:	200226c0 	.word	0x200226c0

2002114c <reg_mskd_ref>:
2002114c:	680b      	ldr	r3, [r1, #0]
2002114e:	2b01      	cmp	r3, #1
20021150:	d103      	bne.n	2002115a <reg_mskd_ref+0xe>
20021152:	6802      	ldr	r2, [r0, #0]
20021154:	f363 0242 	bfi	r2, r3, #1, #2
20021158:	6002      	str	r2, [r0, #0]
2002115a:	4770      	bx	lr

2002115c <call_reg_mskd_ref>:
2002115c:	b500      	push	{lr}
2002115e:	b081      	sub	sp, #4
20021160:	2301      	movs	r3, #1
20021162:	4804      	ldr	r0, [pc, #16]	; (20021174 <call_reg_mskd_ref+0x18>)
20021164:	4669      	mov	r1, sp
20021166:	9300      	str	r3, [sp, #0]
20021168:	f7ff fff0 	bl	2002114c <reg_mskd_ref>
2002116c:	b001      	add	sp, #4
2002116e:	f85d fb04 	ldr.w	pc, [sp], #4
20021172:	bf00      	nop
20021174:	200226c4 	.word	0x200226c4

20021178 <return_bits>:
20021178:	2001      	movs	r0, #1
2002117a:	4770      	bx	lr

2002117c <call_return_bits>:
2002117c:	b500      	push	{lr}
2002117e:	f7ff fffb 	bl	20021178 <return_bits>
20021182:	4b08      	ldr	r3, [pc, #32]	; (200211a4 <call_return_bits+0x28>)
20021184:	2200      	movs	r2, #0
20021186:	2801      	cmp	r0, #1
20021188:	605a      	str	r2, [r3, #4]
2002118a:	685a      	ldr	r2, [r3, #4]
2002118c:	d004      	beq.n	20021198 <call_return_bits+0x1c>
2002118e:	f042 5278 	orr.w	r2, r2, #1040187392	; 0x3e000000
20021192:	605a      	str	r2, [r3, #4]
20021194:	f85d fb04 	ldr.w	pc, [sp], #4
20021198:	2115      	movs	r1, #21
2002119a:	f361 625d 	bfi	r2, r1, #25, #5
2002119e:	605a      	str	r2, [r3, #4]
200211a0:	f85d fb04 	ldr.w	pc, [sp], #4
200211a4:	20022620 	.word	0x20022620

200211a8 <return_mskd>:
200211a8:	2202      	movs	r2, #2
200211aa:	2301      	movs	r3, #1
200211ac:	6002      	str	r2, [r0, #0]
200211ae:	600b      	str	r3, [r1, #0]
200211b0:	4770      	bx	lr
200211b2:	bf00      	nop

200211b4 <call_return_mskd>:
200211b4:	b500      	push	{lr}
200211b6:	b082      	sub	sp, #8
200211b8:	a901      	add	r1, sp, #4
200211ba:	4668      	mov	r0, sp
200211bc:	f7ff fff4 	bl	200211a8 <return_mskd>
200211c0:	9a00      	ldr	r2, [sp, #0]
200211c2:	4b0c      	ldr	r3, [pc, #48]	; (200211f4 <call_return_mskd+0x40>)
200211c4:	2100      	movs	r1, #0
200211c6:	2a02      	cmp	r2, #2
200211c8:	6059      	str	r1, [r3, #4]
200211ca:	d008      	beq.n	200211de <call_return_mskd+0x2a>
200211cc:	4b09      	ldr	r3, [pc, #36]	; (200211f4 <call_return_mskd+0x40>)
200211ce:	2113      	movs	r1, #19
200211d0:	685a      	ldr	r2, [r3, #4]
200211d2:	f361 625d 	bfi	r2, r1, #25, #5
200211d6:	605a      	str	r2, [r3, #4]
200211d8:	b002      	add	sp, #8
200211da:	f85d fb04 	ldr.w	pc, [sp], #4
200211de:	9a01      	ldr	r2, [sp, #4]
200211e0:	2a01      	cmp	r2, #1
200211e2:	d1f3      	bne.n	200211cc <call_return_mskd+0x18>
200211e4:	685a      	ldr	r2, [r3, #4]
200211e6:	2111      	movs	r1, #17
200211e8:	f361 625d 	bfi	r2, r1, #25, #5
200211ec:	605a      	str	r2, [r3, #4]
200211ee:	b002      	add	sp, #8
200211f0:	f85d fb04 	ldr.w	pc, [sp], #4
200211f4:	20022620 	.word	0x20022620

200211f8 <return_reg>:
200211f8:	4b04      	ldr	r3, [pc, #16]	; (2002120c <return_reg+0x14>)
200211fa:	2200      	movs	r2, #0
200211fc:	4804      	ldr	r0, [pc, #16]	; (20021210 <return_reg+0x18>)
200211fe:	605a      	str	r2, [r3, #4]
20021200:	685a      	ldr	r2, [r3, #4]
20021202:	f042 0240 	orr.w	r2, r2, #64	; 0x40
20021206:	605a      	str	r2, [r3, #4]
20021208:	4770      	bx	lr
2002120a:	bf00      	nop
2002120c:	200226c0 	.word	0x200226c0
20021210:	200226c4 	.word	0x200226c4

20021214 <call_return_reg>:
20021214:	b500      	push	{lr}
20021216:	f7ff ffef 	bl	200211f8 <return_reg>
2002121a:	4b07      	ldr	r3, [pc, #28]	; (20021238 <call_return_reg+0x24>)
2002121c:	2200      	movs	r2, #0
2002121e:	605a      	str	r2, [r3, #4]
20021220:	6802      	ldr	r2, [r0, #0]
20021222:	f012 0f40 	tst.w	r2, #64	; 0x40
20021226:	685a      	ldr	r2, [r3, #4]
20021228:	bf14      	ite	ne
2002122a:	210f      	movne	r1, #15
2002122c:	2117      	moveq	r1, #23
2002122e:	f361 625d 	bfi	r2, r1, #25, #5
20021232:	605a      	str	r2, [r3, #4]
20021234:	f85d fb04 	ldr.w	pc, [sp], #4
20021238:	20022620 	.word	0x20022620

2002123c <return_periph>:
2002123c:	4b04      	ldr	r3, [pc, #16]	; (20021250 <return_periph+0x14>)
2002123e:	2200      	movs	r2, #0
20021240:	605a      	str	r2, [r3, #4]
20021242:	4618      	mov	r0, r3
20021244:	685a      	ldr	r2, [r3, #4]
20021246:	f042 0240 	orr.w	r2, r2, #64	; 0x40
2002124a:	605a      	str	r2, [r3, #4]
2002124c:	4770      	bx	lr
2002124e:	bf00      	nop
20021250:	200226c0 	.word	0x200226c0

20021254 <call_return_periph>:
20021254:	b500      	push	{lr}
20021256:	f7ff fff1 	bl	2002123c <return_periph>
2002125a:	6843      	ldr	r3, [r0, #4]
2002125c:	f013 0f40 	tst.w	r3, #64	; 0x40
20021260:	4b05      	ldr	r3, [pc, #20]	; (20021278 <call_return_periph+0x24>)
20021262:	bf18      	it	ne
20021264:	2113      	movne	r1, #19
20021266:	685a      	ldr	r2, [r3, #4]
20021268:	bf08      	it	eq
2002126a:	2115      	moveq	r1, #21
2002126c:	f361 625d 	bfi	r2, r1, #25, #5
20021270:	605a      	str	r2, [r3, #4]
20021272:	f85d fb04 	ldr.w	pc, [sp], #4
20021276:	bf00      	nop
20021278:	20022620 	.word	0x20022620

2002127c <pos_val>:
2002127c:	2803      	cmp	r0, #3
2002127e:	4b05      	ldr	r3, [pc, #20]	; (20021294 <pos_val+0x18>)
20021280:	d005      	beq.n	2002128e <pos_val+0x12>
20021282:	2804      	cmp	r0, #4
20021284:	bf0c      	ite	eq
20021286:	2244      	moveq	r2, #68	; 0x44
20021288:	2255      	movne	r2, #85	; 0x55
2002128a:	62da      	str	r2, [r3, #44]	; 0x2c
2002128c:	4770      	bx	lr
2002128e:	2233      	movs	r2, #51	; 0x33
20021290:	62da      	str	r2, [r3, #44]	; 0x2c
20021292:	4770      	bx	lr
20021294:	20022500 	.word	0x20022500

20021298 <call_pos_val>:
20021298:	b500      	push	{lr}
2002129a:	2003      	movs	r0, #3
2002129c:	f7ff ffee 	bl	2002127c <pos_val>
200212a0:	2004      	movs	r0, #4
200212a2:	f85d eb04 	ldr.w	lr, [sp], #4
200212a6:	f7ff bfe9 	b.w	2002127c <pos_val>
200212aa:	bf00      	nop

200212ac <call_pos_val_global>:
200212ac:	2004      	movs	r0, #4
200212ae:	f7ff bfe5 	b.w	2002127c <pos_val>
200212b2:	bf00      	nop

200212b4 <pos_ref>:
200212b4:	6803      	ldr	r3, [r0, #0]
200212b6:	2b03      	cmp	r3, #3
200212b8:	d006      	beq.n	200212c8 <pos_ref+0x14>
200212ba:	2b04      	cmp	r3, #4
200212bc:	4b04      	ldr	r3, [pc, #16]	; (200212d0 <pos_ref+0x1c>)
200212be:	bf0c      	ite	eq
200212c0:	2277      	moveq	r2, #119	; 0x77
200212c2:	2288      	movne	r2, #136	; 0x88
200212c4:	62da      	str	r2, [r3, #44]	; 0x2c
200212c6:	4770      	bx	lr
200212c8:	4b01      	ldr	r3, [pc, #4]	; (200212d0 <pos_ref+0x1c>)
200212ca:	2266      	movs	r2, #102	; 0x66
200212cc:	62da      	str	r2, [r3, #44]	; 0x2c
200212ce:	4770      	bx	lr
200212d0:	20022500 	.word	0x20022500

200212d4 <call_pos_ref>:
200212d4:	b500      	push	{lr}
200212d6:	b081      	sub	sp, #4
200212d8:	2303      	movs	r3, #3
200212da:	4668      	mov	r0, sp
200212dc:	9300      	str	r3, [sp, #0]
200212de:	f7ff ffe9 	bl	200212b4 <pos_ref>
200212e2:	4668      	mov	r0, sp
200212e4:	f7ff ffe6 	bl	200212b4 <pos_ref>
200212e8:	b001      	add	sp, #4
200212ea:	f85d fb04 	ldr.w	pc, [sp], #4
200212ee:	bf00      	nop

200212f0 <call_pos_ref_global>:
200212f0:	b500      	push	{lr}
200212f2:	b081      	sub	sp, #4
200212f4:	2304      	movs	r3, #4
200212f6:	4668      	mov	r0, sp
200212f8:	9300      	str	r3, [sp, #0]
200212fa:	f7ff ffdb 	bl	200212b4 <pos_ref>
200212fe:	b001      	add	sp, #4
20021300:	f85d fb04 	ldr.w	pc, [sp], #4

20021304 <runtime_range_val>:
20021304:	4b02      	ldr	r3, [pc, #8]	; (20021310 <runtime_range_val+0xc>)
20021306:	685a      	ldr	r2, [r3, #4]
20021308:	f360 3210 	bfi	r2, r0, #12, #5
2002130c:	605a      	str	r2, [r3, #4]
2002130e:	4770      	bx	lr
20021310:	200226c0 	.word	0x200226c0

20021314 <call_range_val>:
20021314:	b2c0      	uxtb	r0, r0
20021316:	f7ff bff5 	b.w	20021304 <runtime_range_val>
2002131a:	bf00      	nop

2002131c <call_range_val_port>:
2002131c:	201f      	movs	r0, #31
2002131e:	f7ff bff9 	b.w	20021314 <call_range_val>
20021322:	bf00      	nop

20021324 <runtime_range_ref>:
20021324:	4b03      	ldr	r3, [pc, #12]	; (20021334 <runtime_range_ref+0x10>)
20021326:	6801      	ldr	r1, [r0, #0]
20021328:	685a      	ldr	r2, [r3, #4]
2002132a:	f361 3210 	bfi	r2, r1, #12, #5
2002132e:	605a      	str	r2, [r3, #4]
20021330:	4770      	bx	lr
20021332:	bf00      	nop
20021334:	200226c0 	.word	0x200226c0

20021338 <call_range_ref>:
20021338:	b500      	push	{lr}
2002133a:	b081      	sub	sp, #4
2002133c:	9000      	str	r0, [sp, #0]
2002133e:	4668      	mov	r0, sp
20021340:	f7ff fff0 	bl	20021324 <runtime_range_ref>
20021344:	b001      	add	sp, #4
20021346:	f85d fb04 	ldr.w	pc, [sp], #4
2002134a:	bf00      	nop

2002134c <call_range_ref_port>:
2002134c:	200c      	movs	r0, #12
2002134e:	f7ff bff3 	b.w	20021338 <call_range_ref>
20021352:	bf00      	nop

20021354 <check_array_range_pass>:
20021354:	2816      	cmp	r0, #22
20021356:	4b03      	ldr	r3, [pc, #12]	; (20021364 <check_array_range_pass+0x10>)
20021358:	bf94      	ite	ls
2002135a:	227f      	movls	r2, #127	; 0x7f
2002135c:	2283      	movhi	r2, #131	; 0x83
2002135e:	62da      	str	r2, [r3, #44]	; 0x2c
20021360:	4770      	bx	lr
20021362:	bf00      	nop
20021364:	20022500 	.word	0x20022500

20021368 <check_array_range_fail>:
20021368:	2816      	cmp	r0, #22
2002136a:	4b03      	ldr	r3, [pc, #12]	; (20021378 <check_array_range_fail+0x10>)
2002136c:	bf94      	ite	ls
2002136e:	2295      	movls	r2, #149	; 0x95
20021370:	2297      	movhi	r2, #151	; 0x97
20021372:	62da      	str	r2, [r3, #44]	; 0x2c
20021374:	4770      	bx	lr
20021376:	bf00      	nop
20021378:	20022500 	.word	0x20022500

2002137c <check_bits_range_pass>:
2002137c:	280f      	cmp	r0, #15
2002137e:	4b03      	ldr	r3, [pc, #12]	; (2002138c <check_bits_range_pass+0x10>)
20021380:	bf94      	ite	ls
20021382:	229d      	movls	r2, #157	; 0x9d
20021384:	22a3      	movhi	r2, #163	; 0xa3
20021386:	62da      	str	r2, [r3, #44]	; 0x2c
20021388:	4770      	bx	lr
2002138a:	bf00      	nop
2002138c:	20022500 	.word	0x20022500

20021390 <check_bits_range_fail>:
20021390:	280f      	cmp	r0, #15
20021392:	4b03      	ldr	r3, [pc, #12]	; (200213a0 <check_bits_range_fail+0x10>)
20021394:	bf94      	ite	ls
20021396:	22a7      	movls	r2, #167	; 0xa7
20021398:	22ad      	movhi	r2, #173	; 0xad
2002139a:	62da      	str	r2, [r3, #44]	; 0x2c
2002139c:	4770      	bx	lr
2002139e:	bf00      	nop
200213a0:	20022500 	.word	0x20022500

200213a4 <check_mskd_range_pass>:
200213a4:	281f      	cmp	r0, #31
200213a6:	4b03      	ldr	r3, [pc, #12]	; (200213b4 <check_mskd_range_pass+0x10>)
200213a8:	bf94      	ite	ls
200213aa:	22b3      	movls	r2, #179	; 0xb3
200213ac:	22b5      	movhi	r2, #181	; 0xb5
200213ae:	62da      	str	r2, [r3, #44]	; 0x2c
200213b0:	4770      	bx	lr
200213b2:	bf00      	nop
200213b4:	20022500 	.word	0x20022500

200213b8 <check_mskd_range_fail>:
200213b8:	281f      	cmp	r0, #31
200213ba:	4b03      	ldr	r3, [pc, #12]	; (200213c8 <check_mskd_range_fail+0x10>)
200213bc:	bf94      	ite	ls
200213be:	22bf      	movls	r2, #191	; 0xbf
200213c0:	22c1      	movhi	r2, #193	; 0xc1
200213c2:	62da      	str	r2, [r3, #44]	; 0x2c
200213c4:	4770      	bx	lr
200213c6:	bf00      	nop
200213c8:	20022500 	.word	0x20022500

200213cc <bits_extract_ne>:
200213cc:	4b08      	ldr	r3, [pc, #32]	; (200213f0 <bits_extract_ne+0x24>)
200213ce:	2100      	movs	r1, #0
200213d0:	685a      	ldr	r2, [r3, #4]
200213d2:	f042 0220 	orr.w	r2, r2, #32
200213d6:	605a      	str	r2, [r3, #4]
200213d8:	685a      	ldr	r2, [r3, #4]
200213da:	6059      	str	r1, [r3, #4]
200213dc:	f012 0f20 	tst.w	r2, #32
200213e0:	685a      	ldr	r2, [r3, #4]
200213e2:	bf0c      	ite	eq
200213e4:	2101      	moveq	r1, #1
200213e6:	2102      	movne	r1, #2
200213e8:	f361 0242 	bfi	r2, r1, #1, #2
200213ec:	605a      	str	r2, [r3, #4]
200213ee:	4770      	bx	lr
200213f0:	200226c0 	.word	0x200226c0

200213f4 <mskd_extract_geq>:
200213f4:	4b0f      	ldr	r3, [pc, #60]	; (20021434 <mskd_extract_geq+0x40>)
200213f6:	2200      	movs	r2, #0
200213f8:	480f      	ldr	r0, [pc, #60]	; (20021438 <mskd_extract_geq+0x44>)
200213fa:	b410      	push	{r4}
200213fc:	605a      	str	r2, [r3, #4]
200213fe:	240b      	movs	r4, #11
20021400:	6859      	ldr	r1, [r3, #4]
20021402:	f364 615d 	bfi	r1, r4, #25, #5
20021406:	6059      	str	r1, [r3, #4]
20021408:	685b      	ldr	r3, [r3, #4]
2002140a:	6042      	str	r2, [r0, #4]
2002140c:	f3c3 6244 	ubfx	r2, r3, #25, #5
20021410:	2a09      	cmp	r2, #9
20021412:	d901      	bls.n	20021418 <mskd_extract_geq+0x24>
20021414:	2a0a      	cmp	r2, #10
20021416:	d806      	bhi.n	20021426 <mskd_extract_geq+0x32>
20021418:	4a07      	ldr	r2, [pc, #28]	; (20021438 <mskd_extract_geq+0x44>)
2002141a:	6853      	ldr	r3, [r2, #4]
2002141c:	f043 0340 	orr.w	r3, r3, #64	; 0x40
20021420:	6053      	str	r3, [r2, #4]
20021422:	bc10      	pop	{r4}
20021424:	4770      	bx	lr
20021426:	6843      	ldr	r3, [r0, #4]
20021428:	f043 0320 	orr.w	r3, r3, #32
2002142c:	6043      	str	r3, [r0, #4]
2002142e:	bc10      	pop	{r4}
20021430:	4770      	bx	lr
20021432:	bf00      	nop
20021434:	20022620 	.word	0x20022620
20021438:	200226c0 	.word	0x200226c0

2002143c <shifted_val>:
2002143c:	4b07      	ldr	r3, [pc, #28]	; (2002145c <shifted_val+0x20>)
2002143e:	2200      	movs	r2, #0
20021440:	2117      	movs	r1, #23
20021442:	2801      	cmp	r0, #1
20021444:	605a      	str	r2, [r3, #4]
20021446:	685a      	ldr	r2, [r3, #4]
20021448:	f361 625d 	bfi	r2, r1, #25, #5
2002144c:	605a      	str	r2, [r3, #4]
2002144e:	d104      	bne.n	2002145a <shifted_val+0x1e>
20021450:	685b      	ldr	r3, [r3, #4]
20021452:	4a03      	ldr	r2, [pc, #12]	; (20021460 <shifted_val+0x24>)
20021454:	f3c3 6344 	ubfx	r3, r3, #25, #5
20021458:	62d3      	str	r3, [r2, #44]	; 0x2c
2002145a:	4770      	bx	lr
2002145c:	20022620 	.word	0x20022620
20021460:	20022500 	.word	0x20022500

20021464 <call_shifted_const_val>:
20021464:	2001      	movs	r0, #1
20021466:	f7ff bfe9 	b.w	2002143c <shifted_val>
2002146a:	bf00      	nop

2002146c <call_shifted_var_val>:
2002146c:	2001      	movs	r0, #1
2002146e:	f7ff bfe5 	b.w	2002143c <shifted_val>
20021472:	bf00      	nop

20021474 <call_shifted_global_val>:
20021474:	2001      	movs	r0, #1
20021476:	f7ff bfe1 	b.w	2002143c <shifted_val>
2002147a:	bf00      	nop

2002147c <shifted_ref>:
2002147c:	4b08      	ldr	r3, [pc, #32]	; (200214a0 <shifted_ref+0x24>)
2002147e:	2200      	movs	r2, #0
20021480:	2117      	movs	r1, #23
20021482:	605a      	str	r2, [r3, #4]
20021484:	685a      	ldr	r2, [r3, #4]
20021486:	f361 625d 	bfi	r2, r1, #25, #5
2002148a:	605a      	str	r2, [r3, #4]
2002148c:	6802      	ldr	r2, [r0, #0]
2002148e:	2a01      	cmp	r2, #1
20021490:	d104      	bne.n	2002149c <shifted_ref+0x20>
20021492:	685b      	ldr	r3, [r3, #4]
20021494:	4a03      	ldr	r2, [pc, #12]	; (200214a4 <shifted_ref+0x28>)
20021496:	f3c3 6344 	ubfx	r3, r3, #25, #5
2002149a:	62d3      	str	r3, [r2, #44]	; 0x2c
2002149c:	4770      	bx	lr
2002149e:	bf00      	nop
200214a0:	20022620 	.word	0x20022620
200214a4:	20022500 	.word	0x20022500

200214a8 <call_shifted_const_ref>:
200214a8:	b500      	push	{lr}
200214aa:	b081      	sub	sp, #4
200214ac:	2301      	movs	r3, #1
200214ae:	4668      	mov	r0, sp
200214b0:	9300      	str	r3, [sp, #0]
200214b2:	f7ff ffe3 	bl	2002147c <shifted_ref>
200214b6:	b001      	add	sp, #4
200214b8:	f85d fb04 	ldr.w	pc, [sp], #4

200214bc <call_shifted_var_ref>:
200214bc:	b500      	push	{lr}
200214be:	b081      	sub	sp, #4
200214c0:	2301      	movs	r3, #1
200214c2:	4668      	mov	r0, sp
200214c4:	9300      	str	r3, [sp, #0]
200214c6:	f7ff ffd9 	bl	2002147c <shifted_ref>
200214ca:	b001      	add	sp, #4
200214cc:	f85d fb04 	ldr.w	pc, [sp], #4

200214d0 <call_shifted_global_ref>:
200214d0:	b500      	push	{lr}
200214d2:	b081      	sub	sp, #4
200214d4:	2301      	movs	r3, #1
200214d6:	4668      	mov	r0, sp
200214d8:	9300      	str	r3, [sp, #0]
200214da:	f7ff ffcf 	bl	2002147c <shifted_ref>
200214de:	b001      	add	sp, #4
200214e0:	f85d fb04 	ldr.w	pc, [sp], #4

200214e4 <copy_bits_val>:
200214e4:	4b07      	ldr	r3, [pc, #28]	; (20021504 <copy_bits_val+0x20>)
200214e6:	2200      	movs	r2, #0
200214e8:	2801      	cmp	r0, #1
200214ea:	605a      	str	r2, [r3, #4]
200214ec:	685a      	ldr	r2, [r3, #4]
200214ee:	d004      	beq.n	200214fa <copy_bits_val+0x16>
200214f0:	2102      	movs	r1, #2
200214f2:	f361 0242 	bfi	r2, r1, #1, #2
200214f6:	605a      	str	r2, [r3, #4]
200214f8:	4770      	bx	lr
200214fa:	f360 0242 	bfi	r2, r0, #1, #2
200214fe:	605a      	str	r2, [r3, #4]
20021500:	4770      	bx	lr
20021502:	bf00      	nop
20021504:	200226c0 	.word	0x200226c0

20021508 <call_copy_bits_val>:
20021508:	4b05      	ldr	r3, [pc, #20]	; (20021520 <call_copy_bits_val+0x18>)
2002150a:	2200      	movs	r2, #0
2002150c:	605a      	str	r2, [r3, #4]
2002150e:	685a      	ldr	r2, [r3, #4]
20021510:	f042 0240 	orr.w	r2, r2, #64	; 0x40
20021514:	605a      	str	r2, [r3, #4]
20021516:	6858      	ldr	r0, [r3, #4]
20021518:	f3c0 1080 	ubfx	r0, r0, #6, #1
2002151c:	f7ff bfe2 	b.w	200214e4 <copy_bits_val>
20021520:	200226c0 	.word	0x200226c0

20021524 <copy_bits_ref>:
20021524:	2200      	movs	r2, #0
20021526:	4b08      	ldr	r3, [pc, #32]	; (20021548 <copy_bits_ref+0x24>)
20021528:	605a      	str	r2, [r3, #4]
2002152a:	6802      	ldr	r2, [r0, #0]
2002152c:	2a01      	cmp	r2, #1
2002152e:	d005      	beq.n	2002153c <copy_bits_ref+0x18>
20021530:	685a      	ldr	r2, [r3, #4]
20021532:	2102      	movs	r1, #2
20021534:	f361 0242 	bfi	r2, r1, #1, #2
20021538:	605a      	str	r2, [r3, #4]
2002153a:	4770      	bx	lr
2002153c:	6859      	ldr	r1, [r3, #4]
2002153e:	f362 0142 	bfi	r1, r2, #1, #2
20021542:	6059      	str	r1, [r3, #4]
20021544:	4770      	bx	lr
20021546:	bf00      	nop
20021548:	200226c0 	.word	0x200226c0

2002154c <call_copy_bits_ref>:
2002154c:	4b09      	ldr	r3, [pc, #36]	; (20021574 <call_copy_bits_ref+0x28>)
2002154e:	2200      	movs	r2, #0
20021550:	b500      	push	{lr}
20021552:	605a      	str	r2, [r3, #4]
20021554:	b081      	sub	sp, #4
20021556:	685a      	ldr	r2, [r3, #4]
20021558:	4668      	mov	r0, sp
2002155a:	f042 0240 	orr.w	r2, r2, #64	; 0x40
2002155e:	605a      	str	r2, [r3, #4]
20021560:	685b      	ldr	r3, [r3, #4]
20021562:	f3c3 1380 	ubfx	r3, r3, #6, #1
20021566:	9300      	str	r3, [sp, #0]
20021568:	f7ff ffdc 	bl	20021524 <copy_bits_ref>
2002156c:	b001      	add	sp, #4
2002156e:	f85d fb04 	ldr.w	pc, [sp], #4
20021572:	bf00      	nop
20021574:	200226c0 	.word	0x200226c0

20021578 <run>:
20021578:	b570      	push	{r4, r5, r6, lr}
2002157a:	4cd3      	ldr	r4, [pc, #844]	; (200218c8 <run+0x350>)
2002157c:	2200      	movs	r2, #0
2002157e:	48d3      	ldr	r0, [pc, #844]	; (200218cc <run+0x354>)
20021580:	4621      	mov	r1, r4
20021582:	4ed3      	ldr	r6, [pc, #844]	; (200218d0 <run+0x358>)
20021584:	f000 fb3a 	bl	20021bfc <do_test>
20021588:	4621      	mov	r1, r4
2002158a:	2201      	movs	r2, #1
2002158c:	48d1      	ldr	r0, [pc, #836]	; (200218d4 <run+0x35c>)
2002158e:	f000 fb35 	bl	20021bfc <do_test>
20021592:	4621      	mov	r1, r4
20021594:	2202      	movs	r2, #2
20021596:	48d0      	ldr	r0, [pc, #832]	; (200218d8 <run+0x360>)
20021598:	f000 fb30 	bl	20021bfc <do_test>
2002159c:	4621      	mov	r1, r4
2002159e:	2203      	movs	r2, #3
200215a0:	48ce      	ldr	r0, [pc, #824]	; (200218dc <run+0x364>)
200215a2:	f000 fb2b 	bl	20021bfc <do_test>
200215a6:	4621      	mov	r1, r4
200215a8:	2204      	movs	r2, #4
200215aa:	48cd      	ldr	r0, [pc, #820]	; (200218e0 <run+0x368>)
200215ac:	f000 fb26 	bl	20021bfc <do_test>
200215b0:	4621      	mov	r1, r4
200215b2:	2205      	movs	r2, #5
200215b4:	48cb      	ldr	r0, [pc, #812]	; (200218e4 <run+0x36c>)
200215b6:	f000 fb21 	bl	20021bfc <do_test>
200215ba:	4621      	mov	r1, r4
200215bc:	2206      	movs	r2, #6
200215be:	48ca      	ldr	r0, [pc, #808]	; (200218e8 <run+0x370>)
200215c0:	f000 fb1c 	bl	20021bfc <do_test>
200215c4:	4621      	mov	r1, r4
200215c6:	2207      	movs	r2, #7
200215c8:	48c8      	ldr	r0, [pc, #800]	; (200218ec <run+0x374>)
200215ca:	f000 fb17 	bl	20021bfc <do_test>
200215ce:	4621      	mov	r1, r4
200215d0:	2208      	movs	r2, #8
200215d2:	48c7      	ldr	r0, [pc, #796]	; (200218f0 <run+0x378>)
200215d4:	f000 fb12 	bl	20021bfc <do_test>
200215d8:	4621      	mov	r1, r4
200215da:	2209      	movs	r2, #9
200215dc:	48c5      	ldr	r0, [pc, #788]	; (200218f4 <run+0x37c>)
200215de:	f000 fb0d 	bl	20021bfc <do_test>
200215e2:	4621      	mov	r1, r4
200215e4:	220a      	movs	r2, #10
200215e6:	48c4      	ldr	r0, [pc, #784]	; (200218f8 <run+0x380>)
200215e8:	f000 fb08 	bl	20021bfc <do_test>
200215ec:	4621      	mov	r1, r4
200215ee:	220b      	movs	r2, #11
200215f0:	48c2      	ldr	r0, [pc, #776]	; (200218fc <run+0x384>)
200215f2:	f000 fb03 	bl	20021bfc <do_test>
200215f6:	4621      	mov	r1, r4
200215f8:	220c      	movs	r2, #12
200215fa:	48c1      	ldr	r0, [pc, #772]	; (20021900 <run+0x388>)
200215fc:	f000 fafe 	bl	20021bfc <do_test>
20021600:	4621      	mov	r1, r4
20021602:	220d      	movs	r2, #13
20021604:	48bf      	ldr	r0, [pc, #764]	; (20021904 <run+0x38c>)
20021606:	f000 faf9 	bl	20021bfc <do_test>
2002160a:	4621      	mov	r1, r4
2002160c:	220e      	movs	r2, #14
2002160e:	48be      	ldr	r0, [pc, #760]	; (20021908 <run+0x390>)
20021610:	f000 faf4 	bl	20021bfc <do_test>
20021614:	4621      	mov	r1, r4
20021616:	220f      	movs	r2, #15
20021618:	48bc      	ldr	r0, [pc, #752]	; (2002190c <run+0x394>)
2002161a:	f000 faef 	bl	20021bfc <do_test>
2002161e:	4621      	mov	r1, r4
20021620:	2210      	movs	r2, #16
20021622:	48bb      	ldr	r0, [pc, #748]	; (20021910 <run+0x398>)
20021624:	f000 faea 	bl	20021bfc <do_test>
20021628:	4621      	mov	r1, r4
2002162a:	2211      	movs	r2, #17
2002162c:	48b9      	ldr	r0, [pc, #740]	; (20021914 <run+0x39c>)
2002162e:	f000 fae5 	bl	20021bfc <do_test>
20021632:	4621      	mov	r1, r4
20021634:	2212      	movs	r2, #18
20021636:	48b8      	ldr	r0, [pc, #736]	; (20021918 <run+0x3a0>)
20021638:	f000 fae0 	bl	20021bfc <do_test>
2002163c:	4621      	mov	r1, r4
2002163e:	2213      	movs	r2, #19
20021640:	48b6      	ldr	r0, [pc, #728]	; (2002191c <run+0x3a4>)
20021642:	f000 fadb 	bl	20021bfc <do_test>
20021646:	4621      	mov	r1, r4
20021648:	2214      	movs	r2, #20
2002164a:	48b5      	ldr	r0, [pc, #724]	; (20021920 <run+0x3a8>)
2002164c:	f000 fad6 	bl	20021bfc <do_test>
20021650:	4621      	mov	r1, r4
20021652:	2215      	movs	r2, #21
20021654:	48b3      	ldr	r0, [pc, #716]	; (20021924 <run+0x3ac>)
20021656:	f000 fad1 	bl	20021bfc <do_test>
2002165a:	4621      	mov	r1, r4
2002165c:	2216      	movs	r2, #22
2002165e:	48b2      	ldr	r0, [pc, #712]	; (20021928 <run+0x3b0>)
20021660:	f000 facc 	bl	20021bfc <do_test>
20021664:	4621      	mov	r1, r4
20021666:	2217      	movs	r2, #23
20021668:	48b0      	ldr	r0, [pc, #704]	; (2002192c <run+0x3b4>)
2002166a:	f000 fac7 	bl	20021bfc <do_test>
2002166e:	4621      	mov	r1, r4
20021670:	2218      	movs	r2, #24
20021672:	48af      	ldr	r0, [pc, #700]	; (20021930 <run+0x3b8>)
20021674:	f000 fac2 	bl	20021bfc <do_test>
20021678:	4621      	mov	r1, r4
2002167a:	2219      	movs	r2, #25
2002167c:	48ad      	ldr	r0, [pc, #692]	; (20021934 <run+0x3bc>)
2002167e:	f000 fabd 	bl	20021bfc <do_test>
20021682:	4621      	mov	r1, r4
20021684:	221a      	movs	r2, #26
20021686:	48ac      	ldr	r0, [pc, #688]	; (20021938 <run+0x3c0>)
20021688:	f000 fab8 	bl	20021bfc <do_test>
2002168c:	4621      	mov	r1, r4
2002168e:	221b      	movs	r2, #27
20021690:	48aa      	ldr	r0, [pc, #680]	; (2002193c <run+0x3c4>)
20021692:	f000 fab3 	bl	20021bfc <do_test>
20021696:	4621      	mov	r1, r4
20021698:	221c      	movs	r2, #28
2002169a:	48a9      	ldr	r0, [pc, #676]	; (20021940 <run+0x3c8>)
2002169c:	f000 faae 	bl	20021bfc <do_test>
200216a0:	4621      	mov	r1, r4
200216a2:	221d      	movs	r2, #29
200216a4:	48a7      	ldr	r0, [pc, #668]	; (20021944 <run+0x3cc>)
200216a6:	f000 faa9 	bl	20021bfc <do_test>
200216aa:	4621      	mov	r1, r4
200216ac:	221e      	movs	r2, #30
200216ae:	48a6      	ldr	r0, [pc, #664]	; (20021948 <run+0x3d0>)
200216b0:	f000 faa4 	bl	20021bfc <do_test>
200216b4:	4621      	mov	r1, r4
200216b6:	221f      	movs	r2, #31
200216b8:	48a4      	ldr	r0, [pc, #656]	; (2002194c <run+0x3d4>)
200216ba:	f000 fa9f 	bl	20021bfc <do_test>
200216be:	4621      	mov	r1, r4
200216c0:	2220      	movs	r2, #32
200216c2:	48a3      	ldr	r0, [pc, #652]	; (20021950 <run+0x3d8>)
200216c4:	f000 fa9a 	bl	20021bfc <do_test>
200216c8:	4621      	mov	r1, r4
200216ca:	2221      	movs	r2, #33	; 0x21
200216cc:	48a1      	ldr	r0, [pc, #644]	; (20021954 <run+0x3dc>)
200216ce:	f000 fa95 	bl	20021bfc <do_test>
200216d2:	4621      	mov	r1, r4
200216d4:	2222      	movs	r2, #34	; 0x22
200216d6:	48a0      	ldr	r0, [pc, #640]	; (20021958 <run+0x3e0>)
200216d8:	f000 fa90 	bl	20021bfc <do_test>
200216dc:	4621      	mov	r1, r4
200216de:	2223      	movs	r2, #35	; 0x23
200216e0:	489e      	ldr	r0, [pc, #632]	; (2002195c <run+0x3e4>)
200216e2:	f000 fa8b 	bl	20021bfc <do_test>
200216e6:	4621      	mov	r1, r4
200216e8:	2224      	movs	r2, #36	; 0x24
200216ea:	489d      	ldr	r0, [pc, #628]	; (20021960 <run+0x3e8>)
200216ec:	f000 fa86 	bl	20021bfc <do_test>
200216f0:	4631      	mov	r1, r6
200216f2:	2225      	movs	r2, #37	; 0x25
200216f4:	489b      	ldr	r0, [pc, #620]	; (20021964 <run+0x3ec>)
200216f6:	f000 fa81 	bl	20021bfc <do_test>
200216fa:	4631      	mov	r1, r6
200216fc:	2226      	movs	r2, #38	; 0x26
200216fe:	489a      	ldr	r0, [pc, #616]	; (20021968 <run+0x3f0>)
20021700:	f000 fa7c 	bl	20021bfc <do_test>
20021704:	4631      	mov	r1, r6
20021706:	2227      	movs	r2, #39	; 0x27
20021708:	4898      	ldr	r0, [pc, #608]	; (2002196c <run+0x3f4>)
2002170a:	f000 fa77 	bl	20021bfc <do_test>
2002170e:	4621      	mov	r1, r4
20021710:	2228      	movs	r2, #40	; 0x28
20021712:	4897      	ldr	r0, [pc, #604]	; (20021970 <run+0x3f8>)
20021714:	f000 fa72 	bl	20021bfc <do_test>
20021718:	4621      	mov	r1, r4
2002171a:	2229      	movs	r2, #41	; 0x29
2002171c:	4895      	ldr	r0, [pc, #596]	; (20021974 <run+0x3fc>)
2002171e:	f000 fa6d 	bl	20021bfc <do_test>
20021722:	4621      	mov	r1, r4
20021724:	222a      	movs	r2, #42	; 0x2a
20021726:	4894      	ldr	r0, [pc, #592]	; (20021978 <run+0x400>)
20021728:	4d94      	ldr	r5, [pc, #592]	; (2002197c <run+0x404>)
2002172a:	f000 fa67 	bl	20021bfc <do_test>
2002172e:	4621      	mov	r1, r4
20021730:	222b      	movs	r2, #43	; 0x2b
20021732:	4893      	ldr	r0, [pc, #588]	; (20021980 <run+0x408>)
20021734:	f000 fa62 	bl	20021bfc <do_test>
20021738:	4621      	mov	r1, r4
2002173a:	222c      	movs	r2, #44	; 0x2c
2002173c:	4891      	ldr	r0, [pc, #580]	; (20021984 <run+0x40c>)
2002173e:	f000 fa5d 	bl	20021bfc <do_test>
20021742:	4629      	mov	r1, r5
20021744:	222d      	movs	r2, #45	; 0x2d
20021746:	4890      	ldr	r0, [pc, #576]	; (20021988 <run+0x410>)
20021748:	f000 fa58 	bl	20021bfc <do_test>
2002174c:	4621      	mov	r1, r4
2002174e:	222e      	movs	r2, #46	; 0x2e
20021750:	488e      	ldr	r0, [pc, #568]	; (2002198c <run+0x414>)
20021752:	f000 fa53 	bl	20021bfc <do_test>
20021756:	4621      	mov	r1, r4
20021758:	222f      	movs	r2, #47	; 0x2f
2002175a:	488d      	ldr	r0, [pc, #564]	; (20021990 <run+0x418>)
2002175c:	f000 fa4e 	bl	20021bfc <do_test>
20021760:	4621      	mov	r1, r4
20021762:	2230      	movs	r2, #48	; 0x30
20021764:	488b      	ldr	r0, [pc, #556]	; (20021994 <run+0x41c>)
20021766:	f000 fa49 	bl	20021bfc <do_test>
2002176a:	4621      	mov	r1, r4
2002176c:	2231      	movs	r2, #49	; 0x31
2002176e:	488a      	ldr	r0, [pc, #552]	; (20021998 <run+0x420>)
20021770:	f000 fa44 	bl	20021bfc <do_test>
20021774:	4621      	mov	r1, r4
20021776:	2232      	movs	r2, #50	; 0x32
20021778:	4888      	ldr	r0, [pc, #544]	; (2002199c <run+0x424>)
2002177a:	f000 fa3f 	bl	20021bfc <do_test>
2002177e:	4621      	mov	r1, r4
20021780:	2233      	movs	r2, #51	; 0x33
20021782:	4887      	ldr	r0, [pc, #540]	; (200219a0 <run+0x428>)
20021784:	f000 fa3a 	bl	20021bfc <do_test>
20021788:	4621      	mov	r1, r4
2002178a:	2234      	movs	r2, #52	; 0x34
2002178c:	4885      	ldr	r0, [pc, #532]	; (200219a4 <run+0x42c>)
2002178e:	f000 fa35 	bl	20021bfc <do_test>
20021792:	4621      	mov	r1, r4
20021794:	2235      	movs	r2, #53	; 0x35
20021796:	4884      	ldr	r0, [pc, #528]	; (200219a8 <run+0x430>)
20021798:	f000 fa30 	bl	20021bfc <do_test>
2002179c:	4621      	mov	r1, r4
2002179e:	2236      	movs	r2, #54	; 0x36
200217a0:	4882      	ldr	r0, [pc, #520]	; (200219ac <run+0x434>)
200217a2:	f000 fa2b 	bl	20021bfc <do_test>
200217a6:	4621      	mov	r1, r4
200217a8:	2237      	movs	r2, #55	; 0x37
200217aa:	4881      	ldr	r0, [pc, #516]	; (200219b0 <run+0x438>)
200217ac:	f000 fa26 	bl	20021bfc <do_test>
200217b0:	4621      	mov	r1, r4
200217b2:	2238      	movs	r2, #56	; 0x38
200217b4:	487f      	ldr	r0, [pc, #508]	; (200219b4 <run+0x43c>)
200217b6:	f000 fa21 	bl	20021bfc <do_test>
200217ba:	4621      	mov	r1, r4
200217bc:	2239      	movs	r2, #57	; 0x39
200217be:	487e      	ldr	r0, [pc, #504]	; (200219b8 <run+0x440>)
200217c0:	f000 fa1c 	bl	20021bfc <do_test>
200217c4:	4621      	mov	r1, r4
200217c6:	223a      	movs	r2, #58	; 0x3a
200217c8:	487c      	ldr	r0, [pc, #496]	; (200219bc <run+0x444>)
200217ca:	f000 fa17 	bl	20021bfc <do_test>
200217ce:	4621      	mov	r1, r4
200217d0:	223b      	movs	r2, #59	; 0x3b
200217d2:	487b      	ldr	r0, [pc, #492]	; (200219c0 <run+0x448>)
200217d4:	f000 fa12 	bl	20021bfc <do_test>
200217d8:	4621      	mov	r1, r4
200217da:	223c      	movs	r2, #60	; 0x3c
200217dc:	4879      	ldr	r0, [pc, #484]	; (200219c4 <run+0x44c>)
200217de:	f000 fa0d 	bl	20021bfc <do_test>
200217e2:	4621      	mov	r1, r4
200217e4:	223d      	movs	r2, #61	; 0x3d
200217e6:	4878      	ldr	r0, [pc, #480]	; (200219c8 <run+0x450>)
200217e8:	f000 fa08 	bl	20021bfc <do_test>
200217ec:	4621      	mov	r1, r4
200217ee:	223e      	movs	r2, #62	; 0x3e
200217f0:	4876      	ldr	r0, [pc, #472]	; (200219cc <run+0x454>)
200217f2:	f000 fa03 	bl	20021bfc <do_test>
200217f6:	4621      	mov	r1, r4
200217f8:	223f      	movs	r2, #63	; 0x3f
200217fa:	4875      	ldr	r0, [pc, #468]	; (200219d0 <run+0x458>)
200217fc:	f000 f9fe 	bl	20021bfc <do_test>
20021800:	4631      	mov	r1, r6
20021802:	2240      	movs	r2, #64	; 0x40
20021804:	4873      	ldr	r0, [pc, #460]	; (200219d4 <run+0x45c>)
20021806:	f000 f9f9 	bl	20021bfc <do_test>
2002180a:	4631      	mov	r1, r6
2002180c:	2241      	movs	r2, #65	; 0x41
2002180e:	4872      	ldr	r0, [pc, #456]	; (200219d8 <run+0x460>)
20021810:	f000 f9f4 	bl	20021bfc <do_test>
20021814:	4631      	mov	r1, r6
20021816:	2242      	movs	r2, #66	; 0x42
20021818:	4870      	ldr	r0, [pc, #448]	; (200219dc <run+0x464>)
2002181a:	f000 f9ef 	bl	20021bfc <do_test>
2002181e:	4621      	mov	r1, r4
20021820:	2243      	movs	r2, #67	; 0x43
20021822:	486f      	ldr	r0, [pc, #444]	; (200219e0 <run+0x468>)
20021824:	f000 f9ea 	bl	20021bfc <do_test>
20021828:	4629      	mov	r1, r5
2002182a:	2244      	movs	r2, #68	; 0x44
2002182c:	486d      	ldr	r0, [pc, #436]	; (200219e4 <run+0x46c>)
2002182e:	f000 f9e5 	bl	20021bfc <do_test>
20021832:	4629      	mov	r1, r5
20021834:	2245      	movs	r2, #69	; 0x45
20021836:	486c      	ldr	r0, [pc, #432]	; (200219e8 <run+0x470>)
20021838:	f000 f9e0 	bl	20021bfc <do_test>
2002183c:	4621      	mov	r1, r4
2002183e:	2246      	movs	r2, #70	; 0x46
20021840:	486a      	ldr	r0, [pc, #424]	; (200219ec <run+0x474>)
20021842:	f000 f9db 	bl	20021bfc <do_test>
20021846:	4621      	mov	r1, r4
20021848:	2247      	movs	r2, #71	; 0x47
2002184a:	4869      	ldr	r0, [pc, #420]	; (200219f0 <run+0x478>)
2002184c:	f000 f9d6 	bl	20021bfc <do_test>
20021850:	4629      	mov	r1, r5
20021852:	2248      	movs	r2, #72	; 0x48
20021854:	4867      	ldr	r0, [pc, #412]	; (200219f4 <run+0x47c>)
20021856:	f000 f9d1 	bl	20021bfc <do_test>
2002185a:	4629      	mov	r1, r5
2002185c:	2249      	movs	r2, #73	; 0x49
2002185e:	4866      	ldr	r0, [pc, #408]	; (200219f8 <run+0x480>)
20021860:	f000 f9cc 	bl	20021bfc <do_test>
20021864:	4621      	mov	r1, r4
20021866:	224a      	movs	r2, #74	; 0x4a
20021868:	4864      	ldr	r0, [pc, #400]	; (200219fc <run+0x484>)
2002186a:	f000 f9c7 	bl	20021bfc <do_test>
2002186e:	4621      	mov	r1, r4
20021870:	224b      	movs	r2, #75	; 0x4b
20021872:	4863      	ldr	r0, [pc, #396]	; (20021a00 <run+0x488>)
20021874:	f000 f9c2 	bl	20021bfc <do_test>
20021878:	4621      	mov	r1, r4
2002187a:	224c      	movs	r2, #76	; 0x4c
2002187c:	4861      	ldr	r0, [pc, #388]	; (20021a04 <run+0x48c>)
2002187e:	f000 f9bd 	bl	20021bfc <do_test>
20021882:	4621      	mov	r1, r4
20021884:	224d      	movs	r2, #77	; 0x4d
20021886:	4860      	ldr	r0, [pc, #384]	; (20021a08 <run+0x490>)
20021888:	f000 f9b8 	bl	20021bfc <do_test>
2002188c:	4e5f      	ldr	r6, [pc, #380]	; (20021a0c <run+0x494>)
2002188e:	4621      	mov	r1, r4
20021890:	224e      	movs	r2, #78	; 0x4e
20021892:	485f      	ldr	r0, [pc, #380]	; (20021a10 <run+0x498>)
20021894:	f000 f9b2 	bl	20021bfc <do_test>
20021898:	4621      	mov	r1, r4
2002189a:	224f      	movs	r2, #79	; 0x4f
2002189c:	485d      	ldr	r0, [pc, #372]	; (20021a14 <run+0x49c>)
2002189e:	f000 f9ad 	bl	20021bfc <do_test>
200218a2:	4621      	mov	r1, r4
200218a4:	4630      	mov	r0, r6
200218a6:	2250      	movs	r2, #80	; 0x50
200218a8:	f000 f9a8 	bl	20021bfc <do_test>
200218ac:	4630      	mov	r0, r6
200218ae:	4621      	mov	r1, r4
200218b0:	2251      	movs	r2, #81	; 0x51
200218b2:	f000 f9a3 	bl	20021bfc <do_test>
200218b6:	4621      	mov	r1, r4
200218b8:	2252      	movs	r2, #82	; 0x52
200218ba:	4857      	ldr	r0, [pc, #348]	; (20021a18 <run+0x4a0>)
200218bc:	f000 f99e 	bl	20021bfc <do_test>
200218c0:	4e56      	ldr	r6, [pc, #344]	; (20021a1c <run+0x4a4>)
200218c2:	4621      	mov	r1, r4
200218c4:	2253      	movs	r2, #83	; 0x53
200218c6:	e0ab      	b.n	20021a20 <run+0x4a8>
200218c8:	200226c4 	.word	0x200226c4
200218cc:	200201f1 	.word	0x200201f1
200218d0:	20022624 	.word	0x20022624
200218d4:	200201fd 	.word	0x200201fd
200218d8:	20020209 	.word	0x20020209
200218dc:	20020219 	.word	0x20020219
200218e0:	20020229 	.word	0x20020229
200218e4:	20020239 	.word	0x20020239
200218e8:	20020249 	.word	0x20020249
200218ec:	20020265 	.word	0x20020265
200218f0:	20020281 	.word	0x20020281
200218f4:	2002029d 	.word	0x2002029d
200218f8:	200202b9 	.word	0x200202b9
200218fc:	200202cd 	.word	0x200202cd
20021900:	200202e1 	.word	0x200202e1
20021904:	200202f9 	.word	0x200202f9
20021908:	20020311 	.word	0x20020311
2002190c:	2002032d 	.word	0x2002032d
20021910:	20020349 	.word	0x20020349
20021914:	20020365 	.word	0x20020365
20021918:	20020381 	.word	0x20020381
2002191c:	20020395 	.word	0x20020395
20021920:	200203a9 	.word	0x200203a9
20021924:	200203c1 	.word	0x200203c1
20021928:	200203d9 	.word	0x200203d9
2002192c:	200203f5 	.word	0x200203f5
20021930:	20020411 	.word	0x20020411
20021934:	2002042d 	.word	0x2002042d
20021938:	20020449 	.word	0x20020449
2002193c:	20020469 	.word	0x20020469
20021940:	20020489 	.word	0x20020489
20021944:	200204a9 	.word	0x200204a9
20021948:	200204c9 	.word	0x200204c9
2002194c:	200204e9 	.word	0x200204e9
20021950:	20020509 	.word	0x20020509
20021954:	20020529 	.word	0x20020529
20021958:	20020551 	.word	0x20020551
2002195c:	20020581 	.word	0x20020581
20021960:	200205a5 	.word	0x200205a5
20021964:	200205d5 	.word	0x200205d5
20021968:	20020609 	.word	0x20020609
2002196c:	20020655 	.word	0x20020655
20021970:	200206a1 	.word	0x200206a1
20021974:	200206d5 	.word	0x200206d5
20021978:	20020709 	.word	0x20020709
2002197c:	2002252c 	.word	0x2002252c
20021980:	20020781 	.word	0x20020781
20021984:	200207f1 	.word	0x200207f1
20021988:	20020811 	.word	0x20020811
2002198c:	20020d91 	.word	0x20020d91
20021990:	20020d99 	.word	0x20020d99
20021994:	20020e05 	.word	0x20020e05
20021998:	20020e21 	.word	0x20020e21
2002199c:	20020efd 	.word	0x20020efd
200219a0:	20020f15 	.word	0x20020f15
200219a4:	20020fdd 	.word	0x20020fdd
200219a8:	20020ff9 	.word	0x20020ff9
200219ac:	20021035 	.word	0x20021035
200219b0:	20021051 	.word	0x20021051
200219b4:	2002106d 	.word	0x2002106d
200219b8:	20021089 	.word	0x20021089
200219bc:	200210b5 	.word	0x200210b5
200219c0:	200210dd 	.word	0x200210dd
200219c4:	200210f9 	.word	0x200210f9
200219c8:	20021115 	.word	0x20021115
200219cc:	20021131 	.word	0x20021131
200219d0:	2002115d 	.word	0x2002115d
200219d4:	2002117d 	.word	0x2002117d
200219d8:	200211b5 	.word	0x200211b5
200219dc:	20021215 	.word	0x20021215
200219e0:	20021255 	.word	0x20021255
200219e4:	20021299 	.word	0x20021299
200219e8:	200212d5 	.word	0x200212d5
200219ec:	2002131d 	.word	0x2002131d
200219f0:	2002134d 	.word	0x2002134d
200219f4:	2002082d 	.word	0x2002082d
200219f8:	2002084d 	.word	0x2002084d
200219fc:	2002086d 	.word	0x2002086d
20021a00:	200208a5 	.word	0x200208a5
20021a04:	200208f5 	.word	0x200208f5
20021a08:	2002092d 	.word	0x2002092d
20021a0c:	200209ad 	.word	0x200209ad
20021a10:	2002097d 	.word	0x2002097d
20021a14:	20020995 	.word	0x20020995
20021a18:	200209d5 	.word	0x200209d5
20021a1c:	20020a69 	.word	0x20020a69
20021a20:	4852      	ldr	r0, [pc, #328]	; (20021b6c <run+0x5f4>)
20021a22:	f000 f8eb 	bl	20021bfc <do_test>
20021a26:	4621      	mov	r1, r4
20021a28:	2254      	movs	r2, #84	; 0x54
20021a2a:	4851      	ldr	r0, [pc, #324]	; (20021b70 <run+0x5f8>)
20021a2c:	f000 f8e6 	bl	20021bfc <do_test>
20021a30:	4621      	mov	r1, r4
20021a32:	4630      	mov	r0, r6
20021a34:	2255      	movs	r2, #85	; 0x55
20021a36:	f000 f8e1 	bl	20021bfc <do_test>
20021a3a:	4621      	mov	r1, r4
20021a3c:	2256      	movs	r2, #86	; 0x56
20021a3e:	484d      	ldr	r0, [pc, #308]	; (20021b74 <run+0x5fc>)
20021a40:	f000 f8dc 	bl	20021bfc <do_test>
20021a44:	4630      	mov	r0, r6
20021a46:	4621      	mov	r1, r4
20021a48:	2257      	movs	r2, #87	; 0x57
20021a4a:	f000 f8d7 	bl	20021bfc <do_test>
20021a4e:	4621      	mov	r1, r4
20021a50:	2258      	movs	r2, #88	; 0x58
20021a52:	4849      	ldr	r0, [pc, #292]	; (20021b78 <run+0x600>)
20021a54:	f000 f8d2 	bl	20021bfc <do_test>
20021a58:	4621      	mov	r1, r4
20021a5a:	2259      	movs	r2, #89	; 0x59
20021a5c:	4847      	ldr	r0, [pc, #284]	; (20021b7c <run+0x604>)
20021a5e:	f000 f8cd 	bl	20021bfc <do_test>
20021a62:	4629      	mov	r1, r5
20021a64:	225a      	movs	r2, #90	; 0x5a
20021a66:	4846      	ldr	r0, [pc, #280]	; (20021b80 <run+0x608>)
20021a68:	f000 f8c8 	bl	20021bfc <do_test>
20021a6c:	4629      	mov	r1, r5
20021a6e:	225b      	movs	r2, #91	; 0x5b
20021a70:	4844      	ldr	r0, [pc, #272]	; (20021b84 <run+0x60c>)
20021a72:	f000 f8c3 	bl	20021bfc <do_test>
20021a76:	4621      	mov	r1, r4
20021a78:	225c      	movs	r2, #92	; 0x5c
20021a7a:	4843      	ldr	r0, [pc, #268]	; (20021b88 <run+0x610>)
20021a7c:	f000 f8be 	bl	20021bfc <do_test>
20021a80:	4629      	mov	r1, r5
20021a82:	225d      	movs	r2, #93	; 0x5d
20021a84:	4841      	ldr	r0, [pc, #260]	; (20021b8c <run+0x614>)
20021a86:	f000 f8b9 	bl	20021bfc <do_test>
20021a8a:	4629      	mov	r1, r5
20021a8c:	225e      	movs	r2, #94	; 0x5e
20021a8e:	4840      	ldr	r0, [pc, #256]	; (20021b90 <run+0x618>)
20021a90:	f000 f8b4 	bl	20021bfc <do_test>
20021a94:	4621      	mov	r1, r4
20021a96:	225f      	movs	r2, #95	; 0x5f
20021a98:	483e      	ldr	r0, [pc, #248]	; (20021b94 <run+0x61c>)
20021a9a:	f000 f8af 	bl	20021bfc <do_test>
20021a9e:	4621      	mov	r1, r4
20021aa0:	2260      	movs	r2, #96	; 0x60
20021aa2:	483d      	ldr	r0, [pc, #244]	; (20021b98 <run+0x620>)
20021aa4:	f000 f8aa 	bl	20021bfc <do_test>
20021aa8:	4621      	mov	r1, r4
20021aaa:	2261      	movs	r2, #97	; 0x61
20021aac:	483b      	ldr	r0, [pc, #236]	; (20021b9c <run+0x624>)
20021aae:	f000 f8a5 	bl	20021bfc <do_test>
20021ab2:	4621      	mov	r1, r4
20021ab4:	2262      	movs	r2, #98	; 0x62
20021ab6:	483a      	ldr	r0, [pc, #232]	; (20021ba0 <run+0x628>)
20021ab8:	f000 f8a0 	bl	20021bfc <do_test>
20021abc:	4629      	mov	r1, r5
20021abe:	2263      	movs	r2, #99	; 0x63
20021ac0:	4838      	ldr	r0, [pc, #224]	; (20021ba4 <run+0x62c>)
20021ac2:	f000 f89b 	bl	20021bfc <do_test>
20021ac6:	4629      	mov	r1, r5
20021ac8:	2264      	movs	r2, #100	; 0x64
20021aca:	4837      	ldr	r0, [pc, #220]	; (20021ba8 <run+0x630>)
20021acc:	f000 f896 	bl	20021bfc <do_test>
20021ad0:	4629      	mov	r1, r5
20021ad2:	2265      	movs	r2, #101	; 0x65
20021ad4:	4835      	ldr	r0, [pc, #212]	; (20021bac <run+0x634>)
20021ad6:	f000 f891 	bl	20021bfc <do_test>
20021ada:	4629      	mov	r1, r5
20021adc:	2266      	movs	r2, #102	; 0x66
20021ade:	4834      	ldr	r0, [pc, #208]	; (20021bb0 <run+0x638>)
20021ae0:	f000 f88c 	bl	20021bfc <do_test>
20021ae4:	4629      	mov	r1, r5
20021ae6:	2267      	movs	r2, #103	; 0x67
20021ae8:	4832      	ldr	r0, [pc, #200]	; (20021bb4 <run+0x63c>)
20021aea:	f000 f887 	bl	20021bfc <do_test>
20021aee:	4629      	mov	r1, r5
20021af0:	2268      	movs	r2, #104	; 0x68
20021af2:	4831      	ldr	r0, [pc, #196]	; (20021bb8 <run+0x640>)
20021af4:	f000 f882 	bl	20021bfc <do_test>
20021af8:	4621      	mov	r1, r4
20021afa:	2269      	movs	r2, #105	; 0x69
20021afc:	482f      	ldr	r0, [pc, #188]	; (20021bbc <run+0x644>)
20021afe:	f000 f87d 	bl	20021bfc <do_test>
20021b02:	4621      	mov	r1, r4
20021b04:	226a      	movs	r2, #106	; 0x6a
20021b06:	482e      	ldr	r0, [pc, #184]	; (20021bc0 <run+0x648>)
20021b08:	f000 f878 	bl	20021bfc <do_test>
20021b0c:	4621      	mov	r1, r4
20021b0e:	226b      	movs	r2, #107	; 0x6b
20021b10:	482c      	ldr	r0, [pc, #176]	; (20021bc4 <run+0x64c>)
20021b12:	f000 f873 	bl	20021bfc <do_test>
20021b16:	4621      	mov	r1, r4
20021b18:	226c      	movs	r2, #108	; 0x6c
20021b1a:	482b      	ldr	r0, [pc, #172]	; (20021bc8 <run+0x650>)
20021b1c:	f000 f86e 	bl	20021bfc <do_test>
20021b20:	4621      	mov	r1, r4
20021b22:	226d      	movs	r2, #109	; 0x6d
20021b24:	4829      	ldr	r0, [pc, #164]	; (20021bcc <run+0x654>)
20021b26:	f000 f869 	bl	20021bfc <do_test>
20021b2a:	4621      	mov	r1, r4
20021b2c:	226e      	movs	r2, #110	; 0x6e
20021b2e:	4828      	ldr	r0, [pc, #160]	; (20021bd0 <run+0x658>)
20021b30:	f000 f864 	bl	20021bfc <do_test>
20021b34:	4621      	mov	r1, r4
20021b36:	226f      	movs	r2, #111	; 0x6f
20021b38:	4826      	ldr	r0, [pc, #152]	; (20021bd4 <run+0x65c>)
20021b3a:	f000 f85f 	bl	20021bfc <do_test>
20021b3e:	4621      	mov	r1, r4
20021b40:	2270      	movs	r2, #112	; 0x70
20021b42:	4825      	ldr	r0, [pc, #148]	; (20021bd8 <run+0x660>)
20021b44:	f000 f85a 	bl	20021bfc <do_test>
20021b48:	4621      	mov	r1, r4
20021b4a:	2271      	movs	r2, #113	; 0x71
20021b4c:	4823      	ldr	r0, [pc, #140]	; (20021bdc <run+0x664>)
20021b4e:	f000 f855 	bl	20021bfc <do_test>
20021b52:	4621      	mov	r1, r4
20021b54:	2272      	movs	r2, #114	; 0x72
20021b56:	4822      	ldr	r0, [pc, #136]	; (20021be0 <run+0x668>)
20021b58:	f000 f850 	bl	20021bfc <do_test>
20021b5c:	4621      	mov	r1, r4
20021b5e:	2273      	movs	r2, #115	; 0x73
20021b60:	4820      	ldr	r0, [pc, #128]	; (20021be4 <run+0x66c>)
20021b62:	e8bd 4070 	ldmia.w	sp!, {r4, r5, r6, lr}
20021b66:	f000 b849 	b.w	20021bfc <do_test>
20021b6a:	bf00      	nop
20021b6c:	20020a01 	.word	0x20020a01
20021b70:	20020a31 	.word	0x20020a31
20021b74:	20020ab1 	.word	0x20020ab1
20021b78:	20020ae9 	.word	0x20020ae9
20021b7c:	20020af9 	.word	0x20020af9
20021b80:	20020b0d 	.word	0x20020b0d
20021b84:	20020b19 	.word	0x20020b19
20021b88:	20020b39 	.word	0x20020b39
20021b8c:	200212ad 	.word	0x200212ad
20021b90:	200212f1 	.word	0x200212f1
20021b94:	20020da1 	.word	0x20020da1
20021b98:	20020e3d 	.word	0x20020e3d
20021b9c:	20020f2d 	.word	0x20020f2d
20021ba0:	20021011 	.word	0x20021011
20021ba4:	20021465 	.word	0x20021465
20021ba8:	2002146d 	.word	0x2002146d
20021bac:	20021475 	.word	0x20021475
20021bb0:	200214a9 	.word	0x200214a9
20021bb4:	200214bd 	.word	0x200214bd
20021bb8:	200214d1 	.word	0x200214d1
20021bbc:	20020b51 	.word	0x20020b51
20021bc0:	20020b85 	.word	0x20020b85
20021bc4:	20020bb1 	.word	0x20020bb1
20021bc8:	20020be9 	.word	0x20020be9
20021bcc:	20020c21 	.word	0x20020c21
20021bd0:	20020c59 	.word	0x20020c59
20021bd4:	20020c91 	.word	0x20020c91
20021bd8:	20020cc9 	.word	0x20020cc9
20021bdc:	20020d01 	.word	0x20020d01
20021be0:	20021509 	.word	0x20021509
20021be4:	2002154d 	.word	0x2002154d

20021be8 <memset>:
20021be8:	4402      	add	r2, r0
20021bea:	4290      	cmp	r0, r2
20021bec:	d205      	bcs.n	20021bfa <memset+0x12>
20021bee:	b2c9      	uxtb	r1, r1
20021bf0:	4603      	mov	r3, r0
20021bf2:	f803 1b01 	strb.w	r1, [r3], #1
20021bf6:	429a      	cmp	r2, r3
20021bf8:	d1fb      	bne.n	20021bf2 <memset+0xa>
20021bfa:	4770      	bx	lr

20021bfc <do_test>:
20021bfc:	e92d 43f0 	stmdb	sp!, {r4, r5, r6, r7, r8, r9, lr}
20021c00:	2300      	movs	r3, #0
20021c02:	4c15      	ldr	r4, [pc, #84]	; (20021c58 <do_test+0x5c>)
20021c04:	2705      	movs	r7, #5
20021c06:	f06f 457f 	mvn.w	r5, #4278190080	; 0xff000000
20021c0a:	6023      	str	r3, [r4, #0]
20021c0c:	4681      	mov	r9, r0
20021c0e:	60a3      	str	r3, [r4, #8]
20021c10:	460e      	mov	r6, r1
20021c12:	6027      	str	r7, [r4, #0]
20021c14:	6065      	str	r5, [r4, #4]
20021c16:	68a3      	ldr	r3, [r4, #8]
20021c18:	b91b      	cbnz	r3, 20021c22 <do_test+0x26>
20021c1a:	bf00      	nop
20021c1c:	68a3      	ldr	r3, [r4, #8]
20021c1e:	2b00      	cmp	r3, #0
20021c20:	d0fb      	beq.n	20021c1a <do_test+0x1e>
20021c22:	2300      	movs	r3, #0
20021c24:	4f0c      	ldr	r7, [pc, #48]	; (20021c58 <do_test+0x5c>)
20021c26:	0054      	lsls	r4, r2, #1
20021c28:	f8df 8034 	ldr.w	r8, [pc, #52]	; 20021c60 <do_test+0x64>
20021c2c:	68bd      	ldr	r5, [r7, #8]
20021c2e:	6033      	str	r3, [r6, #0]
20021c30:	47c8      	blx	r9
20021c32:	6832      	ldr	r2, [r6, #0]
20021c34:	f04f 33ff 	mov.w	r3, #4294967295	; 0xffffffff
20021c38:	f848 2024 	str.w	r2, [r8, r4, lsl #2]
20021c3c:	3401      	adds	r4, #1
20021c3e:	6033      	str	r3, [r6, #0]
20021c40:	47c8      	blx	r9
20021c42:	4b06      	ldr	r3, [pc, #24]	; (20021c5c <do_test+0x60>)
20021c44:	6831      	ldr	r1, [r6, #0]
20021c46:	681a      	ldr	r2, [r3, #0]
20021c48:	f848 1024 	str.w	r1, [r8, r4, lsl #2]
20021c4c:	4415      	add	r5, r2
20021c4e:	68ba      	ldr	r2, [r7, #8]
20021c50:	1aad      	subs	r5, r5, r2
20021c52:	601d      	str	r5, [r3, #0]
20021c54:	e8bd 83f0 	ldmia.w	sp!, {r4, r5, r6, r7, r8, r9, pc}
20021c58:	e000e010 	.word	0xe000e010
20021c5c:	20021e84 	.word	0x20021e84
20021c60:	20021e88 	.word	0x20021e88

20021c64 <NMI_IRQ_Handler>:
20021c64:	e7fe      	b.n	20021c64 <NMI_IRQ_Handler>
20021c66:	bf00      	nop

20021c68 <HardFault_IRQ_Handler>:
20021c68:	e7fe      	b.n	20021c68 <HardFault_IRQ_Handler>
20021c6a:	bf00      	nop

20021c6c <MemManage_IRQ_Handler>:
20021c6c:	e7fe      	b.n	20021c6c <MemManage_IRQ_Handler>
20021c6e:	bf00      	nop

20021c70 <BusFault_IRQ_Handler>:
20021c70:	e7fe      	b.n	20021c70 <BusFault_IRQ_Handler>
20021c72:	bf00      	nop

20021c74 <UsageFault_IRQ_Handler>:
20021c74:	e7fe      	b.n	20021c74 <UsageFault_IRQ_Handler>
20021c76:	bf00      	nop

20021c78 <Reserved1_IRQ_Handler>:
20021c78:	e7fe      	b.n	20021c78 <Reserved1_IRQ_Handler>
20021c7a:	bf00      	nop

20021c7c <Reserved2_IRQ_Handler>:
20021c7c:	e7fe      	b.n	20021c7c <Reserved2_IRQ_Handler>
20021c7e:	bf00      	nop

20021c80 <Reserved3_IRQ_Handler>:
20021c80:	e7fe      	b.n	20021c80 <Reserved3_IRQ_Handler>
20021c82:	bf00      	nop

20021c84 <Reserved4_IRQ_Handler>:
20021c84:	e7fe      	b.n	20021c84 <Reserved4_IRQ_Handler>
20021c86:	bf00      	nop

20021c88 <SVCall_IRQ_Handler>:
20021c88:	e7fe      	b.n	20021c88 <SVCall_IRQ_Handler>
20021c8a:	bf00      	nop

20021c8c <Debug_IRQ_Handler>:
20021c8c:	e7fe      	b.n	20021c8c <Debug_IRQ_Handler>
20021c8e:	bf00      	nop

20021c90 <Reserved5_IRQ_Handler>:
20021c90:	e7fe      	b.n	20021c90 <Reserved5_IRQ_Handler>
20021c92:	bf00      	nop

20021c94 <PendSV_IRQ_Handler>:
20021c94:	e7fe      	b.n	20021c94 <PendSV_IRQ_Handler>
20021c96:	bf00      	nop

20021c98 <SysTick_IRQ_Handler>:
20021c98:	e7fe      	b.n	20021c98 <SysTick_IRQ_Handler>
20021c9a:	bf00      	nop

20021c9c <WWDG_IRQ_Handler>:
20021c9c:	e7fe      	b.n	20021c9c <WWDG_IRQ_Handler>
20021c9e:	bf00      	nop

20021ca0 <PVD_IRQ_Handler>:
20021ca0:	e7fe      	b.n	20021ca0 <PVD_IRQ_Handler>
20021ca2:	bf00      	nop

20021ca4 <TAMP_STAMP_IRQ_Handler>:
20021ca4:	e7fe      	b.n	20021ca4 <TAMP_STAMP_IRQ_Handler>
20021ca6:	bf00      	nop

20021ca8 <RTC_WKUP_IRQ_Handler>:
20021ca8:	e7fe      	b.n	20021ca8 <RTC_WKUP_IRQ_Handler>
20021caa:	bf00      	nop

20021cac <FLASH_IRQ_Handler>:
20021cac:	e7fe      	b.n	20021cac <FLASH_IRQ_Handler>
20021cae:	bf00      	nop

20021cb0 <RCC_IRQ_Handler>:
20021cb0:	e7fe      	b.n	20021cb0 <RCC_IRQ_Handler>
20021cb2:	bf00      	nop

20021cb4 <EXTI0_IRQ_Handler>:
20021cb4:	e7fe      	b.n	20021cb4 <EXTI0_IRQ_Handler>
20021cb6:	bf00      	nop

20021cb8 <EXTI1_IRQ_Handler>:
20021cb8:	e7fe      	b.n	20021cb8 <EXTI1_IRQ_Handler>
20021cba:	bf00      	nop

20021cbc <EXTI2_IRQ_Handler>:
20021cbc:	e7fe      	b.n	20021cbc <EXTI2_IRQ_Handler>
20021cbe:	bf00      	nop

20021cc0 <EXTI3_IRQ_Handler>:
20021cc0:	e7fe      	b.n	20021cc0 <EXTI3_IRQ_Handler>
20021cc2:	bf00      	nop

20021cc4 <EXTI4_IRQ_Handler>:
20021cc4:	e7fe      	b.n	20021cc4 <EXTI4_IRQ_Handler>
20021cc6:	bf00      	nop

20021cc8 <DMA1_Stream0_IRQ_Handler>:
20021cc8:	e7fe      	b.n	20021cc8 <DMA1_Stream0_IRQ_Handler>
20021cca:	bf00      	nop

20021ccc <DMA1_Stream1_IRQ_Handler>:
20021ccc:	e7fe      	b.n	20021ccc <DMA1_Stream1_IRQ_Handler>
20021cce:	bf00      	nop

20021cd0 <DMA1_Stream2_IRQ_Handler>:
20021cd0:	e7fe      	b.n	20021cd0 <DMA1_Stream2_IRQ_Handler>
20021cd2:	bf00      	nop

20021cd4 <DMA1_Stream3_IRQ_Handler>:
20021cd4:	e7fe      	b.n	20021cd4 <DMA1_Stream3_IRQ_Handler>
20021cd6:	bf00      	nop

20021cd8 <DMA1_Stream4_IRQ_Handler>:
20021cd8:	e7fe      	b.n	20021cd8 <DMA1_Stream4_IRQ_Handler>
20021cda:	bf00      	nop

20021cdc <DMA1_Stream5_IRQ_Handler>:
20021cdc:	e7fe      	b.n	20021cdc <DMA1_Stream5_IRQ_Handler>
20021cde:	bf00      	nop

20021ce0 <DMA1_Stream6_IRQ_Handler>:
20021ce0:	e7fe      	b.n	20021ce0 <DMA1_Stream6_IRQ_Handler>
20021ce2:	bf00      	nop

20021ce4 <ADC_IRQ_Handler>:
20021ce4:	e7fe      	b.n	20021ce4 <ADC_IRQ_Handler>
20021ce6:	bf00      	nop

20021ce8 <CAN1_TX_IRQ_Handler>:
20021ce8:	e7fe      	b.n	20021ce8 <CAN1_TX_IRQ_Handler>
20021cea:	bf00      	nop

20021cec <CAN1_RX0_IRQ_Handler>:
20021cec:	e7fe      	b.n	20021cec <CAN1_RX0_IRQ_Handler>
20021cee:	bf00      	nop

20021cf0 <CAN1_RX1_IRQ_Handler>:
20021cf0:	e7fe      	b.n	20021cf0 <CAN1_RX1_IRQ_Handler>
20021cf2:	bf00      	nop

20021cf4 <CAN1_SCE_IRQ_Handler>:
20021cf4:	e7fe      	b.n	20021cf4 <CAN1_SCE_IRQ_Handler>
20021cf6:	bf00      	nop

20021cf8 <EXTI9_5_IRQ_Handler>:
20021cf8:	e7fe      	b.n	20021cf8 <EXTI9_5_IRQ_Handler>
20021cfa:	bf00      	nop

20021cfc <TIM1_BRK_TIM9_IRQ_Handler>:
20021cfc:	e7fe      	b.n	20021cfc <TIM1_BRK_TIM9_IRQ_Handler>
20021cfe:	bf00      	nop

20021d00 <TIM1_UP_TIM10_IRQ_Handler>:
20021d00:	e7fe      	b.n	20021d00 <TIM1_UP_TIM10_IRQ_Handler>
20021d02:	bf00      	nop

20021d04 <TIM1_TRG_COM_TIM11_IRQ_Handler>:
20021d04:	e7fe      	b.n	20021d04 <TIM1_TRG_COM_TIM11_IRQ_Handler>
20021d06:	bf00      	nop

20021d08 <TIM1_CC_IRQ_Handler>:
20021d08:	e7fe      	b.n	20021d08 <TIM1_CC_IRQ_Handler>
20021d0a:	bf00      	nop

20021d0c <TIM2_IRQ_Handler>:
20021d0c:	e7fe      	b.n	20021d0c <TIM2_IRQ_Handler>
20021d0e:	bf00      	nop

20021d10 <TIM3_IRQ_Handler>:
20021d10:	e7fe      	b.n	20021d10 <TIM3_IRQ_Handler>
20021d12:	bf00      	nop

20021d14 <TIM4_IRQ_Handler>:
20021d14:	e7fe      	b.n	20021d14 <TIM4_IRQ_Handler>
20021d16:	bf00      	nop

20021d18 <I2C1_EV_IRQ_Handler>:
20021d18:	e7fe      	b.n	20021d18 <I2C1_EV_IRQ_Handler>
20021d1a:	bf00      	nop

20021d1c <I2C1_ER_IRQ_Handler>:
20021d1c:	e7fe      	b.n	20021d1c <I2C1_ER_IRQ_Handler>
20021d1e:	bf00      	nop

20021d20 <I2C2_EV_IRQ_Handler>:
20021d20:	e7fe      	b.n	20021d20 <I2C2_EV_IRQ_Handler>
20021d22:	bf00      	nop

20021d24 <I2C2_ER_IRQ_Handler>:
20021d24:	e7fe      	b.n	20021d24 <I2C2_ER_IRQ_Handler>
20021d26:	bf00      	nop

20021d28 <SPI1_IRQ_Handler>:
20021d28:	e7fe      	b.n	20021d28 <SPI1_IRQ_Handler>
20021d2a:	bf00      	nop

20021d2c <SPI2_IRQ_Handler>:
20021d2c:	e7fe      	b.n	20021d2c <SPI2_IRQ_Handler>
20021d2e:	bf00      	nop

20021d30 <USART1_IRQ_Handler>:
20021d30:	e7fe      	b.n	20021d30 <USART1_IRQ_Handler>
20021d32:	bf00      	nop

20021d34 <USART2_IRQ_Handler>:
20021d34:	e7fe      	b.n	20021d34 <USART2_IRQ_Handler>
20021d36:	bf00      	nop

20021d38 <USART3_IRQ_Handler>:
20021d38:	e7fe      	b.n	20021d38 <USART3_IRQ_Handler>
20021d3a:	bf00      	nop

20021d3c <EXTI15_10_IRQ_Handler>:
20021d3c:	e7fe      	b.n	20021d3c <EXTI15_10_IRQ_Handler>
20021d3e:	bf00      	nop

20021d40 <RTC_Alarm_IRQ_Handler>:
20021d40:	e7fe      	b.n	20021d40 <RTC_Alarm_IRQ_Handler>
20021d42:	bf00      	nop

20021d44 <OTG_FS_WKUP_IRQ_Handler>:
20021d44:	e7fe      	b.n	20021d44 <OTG_FS_WKUP_IRQ_Handler>
20021d46:	bf00      	nop

20021d48 <TIM8_BRK_TIM12_IRQ_Handler>:
20021d48:	e7fe      	b.n	20021d48 <TIM8_BRK_TIM12_IRQ_Handler>
20021d4a:	bf00      	nop

20021d4c <TIM8_UP_TIM13_IRQ_Handler>:
20021d4c:	e7fe      	b.n	20021d4c <TIM8_UP_TIM13_IRQ_Handler>
20021d4e:	bf00      	nop

20021d50 <TIM8_TRG_COM_TIM14_IRQ_Handler>:
20021d50:	e7fe      	b.n	20021d50 <TIM8_TRG_COM_TIM14_IRQ_Handler>
20021d52:	bf00      	nop

20021d54 <TIM8_CC_IRQ_Handler>:
20021d54:	e7fe      	b.n	20021d54 <TIM8_CC_IRQ_Handler>
20021d56:	bf00      	nop

20021d58 <DMA1_Stream7_IRQ_Handler>:
20021d58:	e7fe      	b.n	20021d58 <DMA1_Stream7_IRQ_Handler>
20021d5a:	bf00      	nop

20021d5c <FMC_IRQ_Handler>:
20021d5c:	e7fe      	b.n	20021d5c <FMC_IRQ_Handler>
20021d5e:	bf00      	nop

20021d60 <SDMMC1_IRQ_Handler>:
20021d60:	e7fe      	b.n	20021d60 <SDMMC1_IRQ_Handler>
20021d62:	bf00      	nop

20021d64 <TIM5_IRQ_Handler>:
20021d64:	e7fe      	b.n	20021d64 <TIM5_IRQ_Handler>
20021d66:	bf00      	nop

20021d68 <SPI3_IRQ_Handler>:
20021d68:	e7fe      	b.n	20021d68 <SPI3_IRQ_Handler>
20021d6a:	bf00      	nop

20021d6c <UART4_IRQ_Handler>:
20021d6c:	e7fe      	b.n	20021d6c <UART4_IRQ_Handler>
20021d6e:	bf00      	nop

20021d70 <UART5_IRQ_Handler>:
20021d70:	e7fe      	b.n	20021d70 <UART5_IRQ_Handler>
20021d72:	bf00      	nop

20021d74 <TIM6_DAC_IRQ_Handler>:
20021d74:	e7fe      	b.n	20021d74 <TIM6_DAC_IRQ_Handler>
20021d76:	bf00      	nop

20021d78 <TIM7_IRQ_Handler>:
20021d78:	e7fe      	b.n	20021d78 <TIM7_IRQ_Handler>
20021d7a:	bf00      	nop

20021d7c <DMA2_Stream0_IRQ_Handler>:
20021d7c:	e7fe      	b.n	20021d7c <DMA2_Stream0_IRQ_Handler>
20021d7e:	bf00      	nop

20021d80 <DMA2_Stream1_IRQ_Handler>:
20021d80:	e7fe      	b.n	20021d80 <DMA2_Stream1_IRQ_Handler>
20021d82:	bf00      	nop

20021d84 <DMA2_Stream2_IRQ_Handler>:
20021d84:	e7fe      	b.n	20021d84 <DMA2_Stream2_IRQ_Handler>
20021d86:	bf00      	nop

20021d88 <DMA2_Stream3_IRQ_Handler>:
20021d88:	e7fe      	b.n	20021d88 <DMA2_Stream3_IRQ_Handler>
20021d8a:	bf00      	nop

20021d8c <DMA2_Stream4_IRQ_Handler>:
20021d8c:	e7fe      	b.n	20021d8c <DMA2_Stream4_IRQ_Handler>
20021d8e:	bf00      	nop

20021d90 <ETH_IRQ_Handler>:
20021d90:	e7fe      	b.n	20021d90 <ETH_IRQ_Handler>
20021d92:	bf00      	nop

20021d94 <ETH_WKUP_IRQ_Handler>:
20021d94:	e7fe      	b.n	20021d94 <ETH_WKUP_IRQ_Handler>
20021d96:	bf00      	nop

20021d98 <CAN2_TX_IRQ_Handler>:
20021d98:	e7fe      	b.n	20021d98 <CAN2_TX_IRQ_Handler>
20021d9a:	bf00      	nop

20021d9c <CAN2_RX0_IRQ_Handler>:
20021d9c:	e7fe      	b.n	20021d9c <CAN2_RX0_IRQ_Handler>
20021d9e:	bf00      	nop

20021da0 <CAN2_RX1_IRQ_Handler>:
20021da0:	e7fe      	b.n	20021da0 <CAN2_RX1_IRQ_Handler>
20021da2:	bf00      	nop

20021da4 <CAN2_SCE_IRQ_Handler>:
20021da4:	e7fe      	b.n	20021da4 <CAN2_SCE_IRQ_Handler>
20021da6:	bf00      	nop

20021da8 <OTG_FS_IRQ_Handler>:
20021da8:	e7fe      	b.n	20021da8 <OTG_FS_IRQ_Handler>
20021daa:	bf00      	nop

20021dac <DMA2_Stream5_IRQ_Handler>:
20021dac:	e7fe      	b.n	20021dac <DMA2_Stream5_IRQ_Handler>
20021dae:	bf00      	nop

20021db0 <DMA2_Stream6_IRQ_Handler>:
20021db0:	e7fe      	b.n	20021db0 <DMA2_Stream6_IRQ_Handler>
20021db2:	bf00      	nop

20021db4 <DMA2_Stream7_IRQ_Handler>:
20021db4:	e7fe      	b.n	20021db4 <DMA2_Stream7_IRQ_Handler>
20021db6:	bf00      	nop

20021db8 <USART6_IRQ_Handler>:
20021db8:	e7fe      	b.n	20021db8 <USART6_IRQ_Handler>
20021dba:	bf00      	nop

20021dbc <I2C3_EV_IRQ_Handler>:
20021dbc:	e7fe      	b.n	20021dbc <I2C3_EV_IRQ_Handler>
20021dbe:	bf00      	nop

20021dc0 <I2C3_ER_IRQ_Handler>:
20021dc0:	e7fe      	b.n	20021dc0 <I2C3_ER_IRQ_Handler>
20021dc2:	bf00      	nop

20021dc4 <OTG_HS_EP1_OUT_IRQ_Handler>:
20021dc4:	e7fe      	b.n	20021dc4 <OTG_HS_EP1_OUT_IRQ_Handler>
20021dc6:	bf00      	nop

20021dc8 <OTG_HS_EP1_IN_IRQ_Handler>:
20021dc8:	e7fe      	b.n	20021dc8 <OTG_HS_EP1_IN_IRQ_Handler>
20021dca:	bf00      	nop

20021dcc <OTG_HS_WKUP_IRQ_Handler>:
20021dcc:	e7fe      	b.n	20021dcc <OTG_HS_WKUP_IRQ_Handler>
20021dce:	bf00      	nop

20021dd0 <OTG_HS_IRQ_Handler>:
20021dd0:	e7fe      	b.n	20021dd0 <OTG_HS_IRQ_Handler>
20021dd2:	bf00      	nop

20021dd4 <DCMI_IRQ_Handler>:
20021dd4:	e7fe      	b.n	20021dd4 <DCMI_IRQ_Handler>
20021dd6:	bf00      	nop

20021dd8 <RNG_IRQ_Handler>:
20021dd8:	e7fe      	b.n	20021dd8 <RNG_IRQ_Handler>
20021dda:	bf00      	nop

20021ddc <FPU_IRQ_Handler>:
20021ddc:	e7fe      	b.n	20021ddc <FPU_IRQ_Handler>
20021dde:	bf00      	nop

20021de0 <UART7_IRQ_Handler>:
20021de0:	e7fe      	b.n	20021de0 <UART7_IRQ_Handler>
20021de2:	bf00      	nop

20021de4 <UART8_IRQ_Handler>:
20021de4:	e7fe      	b.n	20021de4 <UART8_IRQ_Handler>
20021de6:	bf00      	nop

20021de8 <SPI4_IRQ_Handler>:
20021de8:	e7fe      	b.n	20021de8 <SPI4_IRQ_Handler>
20021dea:	bf00      	nop

20021dec <SPI5_IRQ_Handler>:
20021dec:	e7fe      	b.n	20021dec <SPI5_IRQ_Handler>
20021dee:	bf00      	nop

20021df0 <SPI6_IRQ_Handler>:
20021df0:	e7fe      	b.n	20021df0 <SPI6_IRQ_Handler>
20021df2:	bf00      	nop

20021df4 <SAI1_IRQ_Handler>:
20021df4:	e7fe      	b.n	20021df4 <SAI1_IRQ_Handler>
20021df6:	bf00      	nop

20021df8 <LTDC_IRQ_Handler>:
20021df8:	e7fe      	b.n	20021df8 <LTDC_IRQ_Handler>
20021dfa:	bf00      	nop

20021dfc <LTDC_ER_IRQ_Handler>:
20021dfc:	e7fe      	b.n	20021dfc <LTDC_ER_IRQ_Handler>
20021dfe:	bf00      	nop

20021e00 <DMA2D_IRQ_Handler>:
20021e00:	e7fe      	b.n	20021e00 <DMA2D_IRQ_Handler>
20021e02:	bf00      	nop

20021e04 <SAI2_IRQ_Handler>:
20021e04:	e7fe      	b.n	20021e04 <SAI2_IRQ_Handler>
20021e06:	bf00      	nop

20021e08 <QUADSPI_IRQ_Handler>:
20021e08:	e7fe      	b.n	20021e08 <QUADSPI_IRQ_Handler>
20021e0a:	bf00      	nop

20021e0c <LPTIM1_IRQ_Handler>:
20021e0c:	e7fe      	b.n	20021e0c <LPTIM1_IRQ_Handler>
20021e0e:	bf00      	nop

20021e10 <CEC_IRQ_Handler>:
20021e10:	e7fe      	b.n	20021e10 <CEC_IRQ_Handler>
20021e12:	bf00      	nop

20021e14 <I2C4_EV_IRQ_Handler>:
20021e14:	e7fe      	b.n	20021e14 <I2C4_EV_IRQ_Handler>
20021e16:	bf00      	nop

20021e18 <I2C4_ER_IRQ_Handler>:
20021e18:	e7fe      	b.n	20021e18 <I2C4_ER_IRQ_Handler>
20021e1a:	bf00      	nop

20021e1c <SPDIF_RX_IRQ_Handler>:
20021e1c:	e7fe      	b.n	20021e1c <SPDIF_RX_IRQ_Handler>
20021e1e:	bf00      	nop

20021e20 <DFSDM1_FLT0_IRQ_Handler>:
20021e20:	e7fe      	b.n	20021e20 <DFSDM1_FLT0_IRQ_Handler>
20021e22:	bf00      	nop

20021e24 <DFSDM1_FLT1_IRQ_Handler>:
20021e24:	e7fe      	b.n	20021e24 <DFSDM1_FLT1_IRQ_Handler>
20021e26:	bf00      	nop

20021e28 <DFSDM1_FLT2_IRQ_Handler>:
20021e28:	e7fe      	b.n	20021e28 <DFSDM1_FLT2_IRQ_Handler>
20021e2a:	bf00      	nop

20021e2c <DFSDM1_FLT3_IRQ_Handler>:
20021e2c:	e7fe      	b.n	20021e2c <DFSDM1_FLT3_IRQ_Handler>
20021e2e:	bf00      	nop

20021e30 <SDMMC2_IRQ_Handler>:
20021e30:	e7fe      	b.n	20021e30 <SDMMC2_IRQ_Handler>
20021e32:	bf00      	nop

20021e34 <CAN3_TX_IRQ_Handler>:
20021e34:	e7fe      	b.n	20021e34 <CAN3_TX_IRQ_Handler>
20021e36:	bf00      	nop

20021e38 <CAN3_RX0_IRQ_Handler>:
20021e38:	e7fe      	b.n	20021e38 <CAN3_RX0_IRQ_Handler>
20021e3a:	bf00      	nop

20021e3c <CAN3_RX1_IRQ_Handler>:
20021e3c:	e7fe      	b.n	20021e3c <CAN3_RX1_IRQ_Handler>
20021e3e:	bf00      	nop

20021e40 <CAN3_SCE_IRQ_Handler>:
20021e40:	e7fe      	b.n	20021e40 <CAN3_SCE_IRQ_Handler>
20021e42:	bf00      	nop

20021e44 <JPEG_IRQ_Handler>:
20021e44:	e7fe      	b.n	20021e44 <JPEG_IRQ_Handler>
20021e46:	bf00      	nop

20021e48 <MDIOS_IRQ_Handler>:
20021e48:	e7fe      	b.n	20021e48 <MDIOS_IRQ_Handler>
20021e4a:	bf00      	nop

20021e4c <init>:
20021e4c:	4a06      	ldr	r2, [pc, #24]	; (20021e68 <init+0x1c>)
20021e4e:	4b07      	ldr	r3, [pc, #28]	; (20021e6c <init+0x20>)
20021e50:	429a      	cmp	r2, r3
20021e52:	d004      	beq.n	20021e5e <init+0x12>
20021e54:	2100      	movs	r1, #0
20021e56:	f803 1b01 	strb.w	r1, [r3], #1
20021e5a:	4293      	cmp	r3, r2
20021e5c:	d1fb      	bne.n	20021e56 <init+0xa>
20021e5e:	4a04      	ldr	r2, [pc, #16]	; (20021e70 <init+0x24>)
20021e60:	4b04      	ldr	r3, [pc, #16]	; (20021e74 <init+0x28>)
20021e62:	609a      	str	r2, [r3, #8]
20021e64:	f000 b808 	b.w	20021e78 <main>
20021e68:	20022228 	.word	0x20022228
20021e6c:	20021e84 	.word	0x20021e84
20021e70:	20020000 	.word	0x20020000
20021e74:	e000ed00 	.word	0xe000ed00

Disassembly of section .bss:

20021e84 <elapsed_time>:
20021e84:	00000000                                ....

20021e88 <results>:
	...
