
regbits.elf:     file format elf32-littlearm


Disassembly of section .text:

20020000 <INTERRUPT_VECTORS>:
20020000:	00 c0 07 20 71 17 02 20 89 15 02 20 8d 15 02 20     ... q.. ... ... 
20020010:	91 15 02 20 95 15 02 20 99 15 02 20 9d 15 02 20     ... ... ... ... 
20020020:	a1 15 02 20 a5 15 02 20 a9 15 02 20 ad 15 02 20     ... ... ... ... 
20020030:	b1 15 02 20 b5 15 02 20 b9 15 02 20 bd 15 02 20     ... ... ... ... 
20020040:	c1 15 02 20 c5 15 02 20 c9 15 02 20 cd 15 02 20     ... ... ... ... 
20020050:	d1 15 02 20 d5 15 02 20 d9 15 02 20 dd 15 02 20     ... ... ... ... 
20020060:	e1 15 02 20 e5 15 02 20 e9 15 02 20 ed 15 02 20     ... ... ... ... 
20020070:	f1 15 02 20 f5 15 02 20 f9 15 02 20 fd 15 02 20     ... ... ... ... 
20020080:	01 16 02 20 05 16 02 20 09 16 02 20 0d 16 02 20     ... ... ... ... 
20020090:	11 16 02 20 15 16 02 20 19 16 02 20 1d 16 02 20     ... ... ... ... 
200200a0:	21 16 02 20 25 16 02 20 29 16 02 20 2d 16 02 20     !.. %.. ).. -.. 
200200b0:	31 16 02 20 35 16 02 20 39 16 02 20 3d 16 02 20     1.. 5.. 9.. =.. 
200200c0:	41 16 02 20 45 16 02 20 49 16 02 20 4d 16 02 20     A.. E.. I.. M.. 
200200d0:	51 16 02 20 55 16 02 20 59 16 02 20 5d 16 02 20     Q.. U.. Y.. ].. 
200200e0:	61 16 02 20 65 16 02 20 69 16 02 20 6d 16 02 20     a.. e.. i.. m.. 
200200f0:	71 16 02 20 75 16 02 20 79 16 02 20 7d 16 02 20     q.. u.. y.. }.. 
20020100:	81 16 02 20 85 16 02 20 89 16 02 20 8d 16 02 20     ... ... ... ... 
20020110:	91 16 02 20 95 16 02 20 99 16 02 20 9d 16 02 20     ... ... ... ... 
20020120:	a1 16 02 20 a5 16 02 20 a9 16 02 20 ad 16 02 20     ... ... ... ... 
20020130:	b1 16 02 20 b5 16 02 20 b9 16 02 20 bd 16 02 20     ... ... ... ... 
20020140:	c1 16 02 20 c5 16 02 20 c9 16 02 20 cd 16 02 20     ... ... ... ... 
20020150:	d1 16 02 20 d5 16 02 20 d9 16 02 20 dd 16 02 20     ... ... ... ... 
20020160:	e1 16 02 20 e5 16 02 20 e9 16 02 20 ed 16 02 20     ... ... ... ... 
20020170:	f1 16 02 20 f5 16 02 20 f9 16 02 20 fd 16 02 20     ... ... ... ... 
20020180:	01 17 02 20 05 17 02 20 09 17 02 20 0d 17 02 20     ... ... ... ... 
20020190:	11 17 02 20 15 17 02 20 19 17 02 20 1d 17 02 20     ... ... ... ... 
200201a0:	21 17 02 20 25 17 02 20 29 17 02 20 2d 17 02 20     !.. %.. ).. -.. 
200201b0:	31 17 02 20 35 17 02 20 39 17 02 20 3d 17 02 20     1.. 5.. 9.. =.. 
200201c0:	41 17 02 20 45 17 02 20 49 17 02 20 4d 17 02 20     A.. E.. I.. M.. 
200201d0:	51 17 02 20 55 17 02 20 59 17 02 20 5d 17 02 20     Q.. U.. Y.. ].. 
200201e0:	61 17 02 20 65 17 02 20 69 17 02 20 6d 17 02 20     a.. e.. i.. m.. 

200201f0 <zero_reg()>:
200201f0:	4b01      	ldr	r3, [pc, #4]	; (200201f8 <zero_reg()+0x8>)
200201f2:	2200      	movs	r2, #0
200201f4:	605a      	str	r2, [r3, #4]
200201f6:	4770      	bx	lr
200201f8:	200226c0 	.word	0x200226c0

200201fc <zero_array()>:
200201fc:	4b01      	ldr	r3, [pc, #4]	; (20020204 <zero_array()+0x8>)
200201fe:	2200      	movs	r2, #0
20020200:	62da      	str	r2, [r3, #44]	; 0x2c
20020202:	4770      	bx	lr
20020204:	20022500 	.word	0x20022500

20020208 <set_singl_bits_operator()>:
20020208:	4a02      	ldr	r2, [pc, #8]	; (20020214 <set_singl_bits_operator()+0xc>)
2002020a:	6853      	ldr	r3, [r2, #4]
2002020c:	f043 0340 	orr.w	r3, r3, #64	; 0x40
20020210:	6053      	str	r3, [r2, #4]
20020212:	4770      	bx	lr
20020214:	200226c0 	.word	0x200226c0

20020218 <set_singl_bits_method()>:
20020218:	4a02      	ldr	r2, [pc, #8]	; (20020224 <set_singl_bits_method()+0xc>)
2002021a:	6853      	ldr	r3, [r2, #4]
2002021c:	f043 0340 	orr.w	r3, r3, #64	; 0x40
20020220:	6053      	str	r3, [r2, #4]
20020222:	4770      	bx	lr
20020224:	200226c0 	.word	0x200226c0

20020228 <clr_singl_bits_operator()>:
20020228:	4a02      	ldr	r2, [pc, #8]	; (20020234 <clr_singl_bits_operator()+0xc>)
2002022a:	6853      	ldr	r3, [r2, #4]
2002022c:	f023 0340 	bic.w	r3, r3, #64	; 0x40
20020230:	6053      	str	r3, [r2, #4]
20020232:	4770      	bx	lr
20020234:	200226c0 	.word	0x200226c0

20020238 <clr_singl_bits_method()>:
20020238:	4a02      	ldr	r2, [pc, #8]	; (20020244 <clr_singl_bits_method()+0xc>)
2002023a:	6853      	ldr	r3, [r2, #4]
2002023c:	f023 0340 	bic.w	r3, r3, #64	; 0x40
20020240:	6053      	str	r3, [r2, #4]
20020242:	4770      	bx	lr
20020244:	200226c0 	.word	0x200226c0

20020248 <set_singl_mskd_operator()>:
20020248:	4a02      	ldr	r2, [pc, #8]	; (20020254 <set_singl_mskd_operator()+0xc>)
2002024a:	6853      	ldr	r3, [r2, #4]
2002024c:	f043 0302 	orr.w	r3, r3, #2
20020250:	6053      	str	r3, [r2, #4]
20020252:	4770      	bx	lr
20020254:	200226c0 	.word	0x200226c0

20020258 <set_singl_mskd_method()>:
20020258:	4a02      	ldr	r2, [pc, #8]	; (20020264 <set_singl_mskd_method()+0xc>)
2002025a:	6853      	ldr	r3, [r2, #4]
2002025c:	f043 0302 	orr.w	r3, r3, #2
20020260:	6053      	str	r3, [r2, #4]
20020262:	4770      	bx	lr
20020264:	200226c0 	.word	0x200226c0

20020268 <clr_singl_mskd_operator()>:
20020268:	4a02      	ldr	r2, [pc, #8]	; (20020274 <clr_singl_mskd_operator()+0xc>)
2002026a:	6853      	ldr	r3, [r2, #4]
2002026c:	f023 0302 	bic.w	r3, r3, #2
20020270:	6053      	str	r3, [r2, #4]
20020272:	4770      	bx	lr
20020274:	200226c0 	.word	0x200226c0

20020278 <clr_singl_mskd_method()>:
20020278:	4a02      	ldr	r2, [pc, #8]	; (20020284 <clr_singl_mskd_method()+0xc>)
2002027a:	6853      	ldr	r3, [r2, #4]
2002027c:	f023 0302 	bic.w	r3, r3, #2
20020280:	6053      	str	r3, [r2, #4]
20020282:	4770      	bx	lr
20020284:	200226c0 	.word	0x200226c0

20020288 <equ_singl_bits_operator()>:
20020288:	4b01      	ldr	r3, [pc, #4]	; (20020290 <equ_singl_bits_operator()+0x8>)
2002028a:	2240      	movs	r2, #64	; 0x40
2002028c:	605a      	str	r2, [r3, #4]
2002028e:	4770      	bx	lr
20020290:	200226c0 	.word	0x200226c0

20020294 <equ_singl_bits_method()>:
20020294:	4b01      	ldr	r3, [pc, #4]	; (2002029c <equ_singl_bits_method()+0x8>)
20020296:	2240      	movs	r2, #64	; 0x40
20020298:	605a      	str	r2, [r3, #4]
2002029a:	4770      	bx	lr
2002029c:	200226c0 	.word	0x200226c0

200202a0 <equ_singl_mskd_operator()>:
200202a0:	4b01      	ldr	r3, [pc, #4]	; (200202a8 <equ_singl_mskd_operator()+0x8>)
200202a2:	2202      	movs	r2, #2
200202a4:	605a      	str	r2, [r3, #4]
200202a6:	4770      	bx	lr
200202a8:	200226c0 	.word	0x200226c0

200202ac <equ_singl_mskd_method()>:
200202ac:	4b01      	ldr	r3, [pc, #4]	; (200202b4 <equ_singl_mskd_method()+0x8>)
200202ae:	2202      	movs	r2, #2
200202b0:	605a      	str	r2, [r3, #4]
200202b2:	4770      	bx	lr
200202b4:	200226c0 	.word	0x200226c0

200202b8 <flp_singl_bits_operator()>:
200202b8:	4a02      	ldr	r2, [pc, #8]	; (200202c4 <flp_singl_bits_operator()+0xc>)
200202ba:	6853      	ldr	r3, [r2, #4]
200202bc:	f083 0340 	eor.w	r3, r3, #64	; 0x40
200202c0:	6053      	str	r3, [r2, #4]
200202c2:	4770      	bx	lr
200202c4:	200226c0 	.word	0x200226c0

200202c8 <flp_singl_bits_method()>:
200202c8:	4a02      	ldr	r2, [pc, #8]	; (200202d4 <flp_singl_bits_method()+0xc>)
200202ca:	6853      	ldr	r3, [r2, #4]
200202cc:	f083 0340 	eor.w	r3, r3, #64	; 0x40
200202d0:	6053      	str	r3, [r2, #4]
200202d2:	4770      	bx	lr
200202d4:	200226c0 	.word	0x200226c0

200202d8 <flp_singl_mskd_operator()>:
200202d8:	4a02      	ldr	r2, [pc, #8]	; (200202e4 <flp_singl_mskd_operator()+0xc>)
200202da:	6853      	ldr	r3, [r2, #4]
200202dc:	f083 0302 	eor.w	r3, r3, #2
200202e0:	6053      	str	r3, [r2, #4]
200202e2:	4770      	bx	lr
200202e4:	200226c0 	.word	0x200226c0

200202e8 <flp_singl_mskd_method()>:
200202e8:	4a02      	ldr	r2, [pc, #8]	; (200202f4 <flp_singl_mskd_method()+0xc>)
200202ea:	6853      	ldr	r3, [r2, #4]
200202ec:	f083 0302 	eor.w	r3, r3, #2
200202f0:	6053      	str	r3, [r2, #4]
200202f2:	4770      	bx	lr
200202f4:	200226c0 	.word	0x200226c0

200202f8 <ins_singl_mskd_operator()>:
200202f8:	4a03      	ldr	r2, [pc, #12]	; (20020308 <ins_singl_mskd_operator()+0x10>)
200202fa:	6853      	ldr	r3, [r2, #4]
200202fc:	f023 0306 	bic.w	r3, r3, #6
20020300:	f043 0304 	orr.w	r3, r3, #4
20020304:	6053      	str	r3, [r2, #4]
20020306:	4770      	bx	lr
20020308:	200226c0 	.word	0x200226c0

2002030c <ins_singl_mskd_method()>:
2002030c:	4a03      	ldr	r2, [pc, #12]	; (2002031c <ins_singl_mskd_method()+0x10>)
2002030e:	6853      	ldr	r3, [r2, #4]
20020310:	f023 0306 	bic.w	r3, r3, #6
20020314:	f043 0304 	orr.w	r3, r3, #4
20020318:	6053      	str	r3, [r2, #4]
2002031a:	4770      	bx	lr
2002031c:	200226c0 	.word	0x200226c0

20020320 <set_multi_bits_operator()>:
20020320:	4a02      	ldr	r2, [pc, #8]	; (2002032c <set_multi_bits_operator()+0xc>)
20020322:	6853      	ldr	r3, [r2, #4]
20020324:	f043 0321 	orr.w	r3, r3, #33	; 0x21
20020328:	6053      	str	r3, [r2, #4]
2002032a:	4770      	bx	lr
2002032c:	200226c0 	.word	0x200226c0

20020330 <set_multi_bits_method()>:
20020330:	4a02      	ldr	r2, [pc, #8]	; (2002033c <set_multi_bits_method()+0xc>)
20020332:	6853      	ldr	r3, [r2, #4]
20020334:	f043 0321 	orr.w	r3, r3, #33	; 0x21
20020338:	6053      	str	r3, [r2, #4]
2002033a:	4770      	bx	lr
2002033c:	200226c0 	.word	0x200226c0

20020340 <ins_multi_mskd_operator()>:
20020340:	4a03      	ldr	r2, [pc, #12]	; (20020350 <ins_multi_mskd_operator()+0x10>)
20020342:	4b04      	ldr	r3, [pc, #16]	; (20020354 <ins_multi_mskd_operator()+0x14>)
20020344:	6851      	ldr	r1, [r2, #4]
20020346:	400b      	ands	r3, r1
20020348:	f443 73c1 	orr.w	r3, r3, #386	; 0x182
2002034c:	6053      	str	r3, [r2, #4]
2002034e:	4770      	bx	lr
20020350:	200226c0 	.word	0x200226c0
20020354:	fffff079 	.word	0xfffff079

20020358 <ins_multi_mskd_method()>:
20020358:	4a03      	ldr	r2, [pc, #12]	; (20020368 <ins_multi_mskd_method()+0x10>)
2002035a:	4b04      	ldr	r3, [pc, #16]	; (2002036c <ins_multi_mskd_method()+0x14>)
2002035c:	6851      	ldr	r1, [r2, #4]
2002035e:	400b      	ands	r3, r1
20020360:	f443 73c1 	orr.w	r3, r3, #386	; 0x182
20020364:	6053      	str	r3, [r2, #4]
20020366:	4770      	bx	lr
20020368:	200226c0 	.word	0x200226c0
2002036c:	fffff079 	.word	0xfffff079

20020370 <equ_multi_bits_operator()>:
20020370:	4b01      	ldr	r3, [pc, #4]	; (20020378 <equ_multi_bits_operator()+0x8>)
20020372:	2260      	movs	r2, #96	; 0x60
20020374:	605a      	str	r2, [r3, #4]
20020376:	4770      	bx	lr
20020378:	200226c0 	.word	0x200226c0

2002037c <equ_multi_bits_method()>:
2002037c:	4b01      	ldr	r3, [pc, #4]	; (20020384 <equ_multi_bits_method()+0x8>)
2002037e:	2260      	movs	r2, #96	; 0x60
20020380:	605a      	str	r2, [r3, #4]
20020382:	4770      	bx	lr
20020384:	200226c0 	.word	0x200226c0

20020388 <equ_multi_mskd_operator()>:
20020388:	4b02      	ldr	r3, [pc, #8]	; (20020394 <equ_multi_mskd_operator()+0xc>)
2002038a:	f44f 7242 	mov.w	r2, #776	; 0x308
2002038e:	605a      	str	r2, [r3, #4]
20020390:	4770      	bx	lr
20020392:	bf00      	nop
20020394:	200226c0 	.word	0x200226c0

20020398 <equ_multi_mskd_method()>:
20020398:	4b02      	ldr	r3, [pc, #8]	; (200203a4 <equ_multi_mskd_method()+0xc>)
2002039a:	f44f 7242 	mov.w	r2, #776	; 0x308
2002039e:	605a      	str	r2, [r3, #4]
200203a0:	4770      	bx	lr
200203a2:	bf00      	nop
200203a4:	200226c0 	.word	0x200226c0

200203a8 <equ_bits_mskd_operator()>:
200203a8:	4b01      	ldr	r3, [pc, #4]	; (200203b0 <equ_bits_mskd_operator()+0x8>)
200203aa:	2222      	movs	r2, #34	; 0x22
200203ac:	605a      	str	r2, [r3, #4]
200203ae:	4770      	bx	lr
200203b0:	200226c0 	.word	0x200226c0

200203b4 <equ_bits_mskd_method()>:
200203b4:	4b01      	ldr	r3, [pc, #4]	; (200203bc <equ_bits_mskd_method()+0x8>)
200203b6:	2222      	movs	r2, #34	; 0x22
200203b8:	605a      	str	r2, [r3, #4]
200203ba:	4770      	bx	lr
200203bc:	200226c0 	.word	0x200226c0

200203c0 <equ_mskd_bits_operator()>:
200203c0:	4b01      	ldr	r3, [pc, #4]	; (200203c8 <equ_mskd_bits_operator()+0x8>)
200203c2:	2244      	movs	r2, #68	; 0x44
200203c4:	605a      	str	r2, [r3, #4]
200203c6:	4770      	bx	lr
200203c8:	200226c0 	.word	0x200226c0

200203cc <equ_mskd_bits_method()>:
200203cc:	4b01      	ldr	r3, [pc, #4]	; (200203d4 <equ_mskd_bits_method()+0x8>)
200203ce:	2244      	movs	r2, #68	; 0x44
200203d0:	605a      	str	r2, [r3, #4]
200203d2:	4770      	bx	lr
200203d4:	200226c0 	.word	0x200226c0

200203d8 <equ_bits_var()>:
200203d8:	4b02      	ldr	r3, [pc, #8]	; (200203e4 <equ_bits_var()+0xc>)
200203da:	2140      	movs	r1, #64	; 0x40
200203dc:	2201      	movs	r2, #1
200203de:	6059      	str	r1, [r3, #4]
200203e0:	605a      	str	r2, [r3, #4]
200203e2:	4770      	bx	lr
200203e4:	200226c0 	.word	0x200226c0

200203e8 <equ_mskd_var()>:
200203e8:	4b03      	ldr	r3, [pc, #12]	; (200203f8 <equ_mskd_var()+0x10>)
200203ea:	2102      	movs	r1, #2
200203ec:	f44f 72c0 	mov.w	r2, #384	; 0x180
200203f0:	6059      	str	r1, [r3, #4]
200203f2:	605a      	str	r2, [r3, #4]
200203f4:	4770      	bx	lr
200203f6:	bf00      	nop
200203f8:	200226c0 	.word	0x200226c0

200203fc <cmp_equ_zero()>:
200203fc:	4b07      	ldr	r3, [pc, #28]	; (2002041c <cmp_equ_zero()+0x20>)
200203fe:	2200      	movs	r2, #0
20020400:	605a      	str	r2, [r3, #4]
20020402:	685b      	ldr	r3, [r3, #4]
20020404:	b923      	cbnz	r3, 20020410 <cmp_equ_zero()+0x14>
20020406:	4b06      	ldr	r3, [pc, #24]	; (20020420 <cmp_equ_zero()+0x24>)
20020408:	f04f 5268 	mov.w	r2, #973078528	; 0x3a000000
2002040c:	605a      	str	r2, [r3, #4]
2002040e:	4770      	bx	lr
20020410:	4b03      	ldr	r3, [pc, #12]	; (20020420 <cmp_equ_zero()+0x24>)
20020412:	f04f 5208 	mov.w	r2, #570425344	; 0x22000000
20020416:	605a      	str	r2, [r3, #4]
20020418:	4770      	bx	lr
2002041a:	bf00      	nop
2002041c:	200226c0 	.word	0x200226c0
20020420:	20022620 	.word	0x20022620

20020424 <cmp_neq_zero()>:
20020424:	4b05      	ldr	r3, [pc, #20]	; (2002043c <cmp_neq_zero()+0x18>)
20020426:	2200      	movs	r2, #0
20020428:	605a      	str	r2, [r3, #4]
2002042a:	685a      	ldr	r2, [r3, #4]
2002042c:	b112      	cbz	r2, 20020434 <cmp_neq_zero()+0x10>
2002042e:	2204      	movs	r2, #4
20020430:	605a      	str	r2, [r3, #4]
20020432:	4770      	bx	lr
20020434:	2220      	movs	r2, #32
20020436:	605a      	str	r2, [r3, #4]
20020438:	4770      	bx	lr
2002043a:	bf00      	nop
2002043c:	200226c0 	.word	0x200226c0

20020440 <cmp_equ_bits()>:
20020440:	2240      	movs	r2, #64	; 0x40
20020442:	4b06      	ldr	r3, [pc, #24]	; (2002045c <cmp_equ_bits()+0x1c>)
20020444:	605a      	str	r2, [r3, #4]
20020446:	685b      	ldr	r3, [r3, #4]
20020448:	f013 0f40 	tst.w	r3, #64	; 0x40
2002044c:	4b04      	ldr	r3, [pc, #16]	; (20020460 <cmp_equ_bits()+0x20>)
2002044e:	bf14      	ite	ne
20020450:	f04f 52b0 	movne.w	r2, #369098752	; 0x16000000
20020454:	f04f 52d0 	moveq.w	r2, #436207616	; 0x1a000000
20020458:	605a      	str	r2, [r3, #4]
2002045a:	4770      	bx	lr
2002045c:	200226c0 	.word	0x200226c0
20020460:	20022620 	.word	0x20022620

20020464 <cmp_neq_bits()>:
20020464:	4b04      	ldr	r3, [pc, #16]	; (20020478 <cmp_neq_bits()+0x14>)
20020466:	2240      	movs	r2, #64	; 0x40
20020468:	605a      	str	r2, [r3, #4]
2002046a:	685a      	ldr	r2, [r3, #4]
2002046c:	0652      	lsls	r2, r2, #25
2002046e:	bf54      	ite	pl
20020470:	2202      	movpl	r2, #2
20020472:	2220      	movmi	r2, #32
20020474:	605a      	str	r2, [r3, #4]
20020476:	4770      	bx	lr
20020478:	200226c0 	.word	0x200226c0

2002047c <cmp_equ_multi_bits()>:
2002047c:	2260      	movs	r2, #96	; 0x60
2002047e:	4b06      	ldr	r3, [pc, #24]	; (20020498 <cmp_equ_multi_bits()+0x1c>)
20020480:	605a      	str	r2, [r3, #4]
20020482:	685b      	ldr	r3, [r3, #4]
20020484:	4013      	ands	r3, r2
20020486:	4293      	cmp	r3, r2
20020488:	4b04      	ldr	r3, [pc, #16]	; (2002049c <cmp_equ_multi_bits()+0x20>)
2002048a:	bf0c      	ite	eq
2002048c:	f04f 5208 	moveq.w	r2, #570425344	; 0x22000000
20020490:	f04f 5238 	movne.w	r2, #771751936	; 0x2e000000
20020494:	605a      	str	r2, [r3, #4]
20020496:	4770      	bx	lr
20020498:	200226c0 	.word	0x200226c0
2002049c:	20022620 	.word	0x20022620

200204a0 <cmp_neq_multi_bits()>:
200204a0:	2260      	movs	r2, #96	; 0x60
200204a2:	4b06      	ldr	r3, [pc, #24]	; (200204bc <cmp_neq_multi_bits()+0x1c>)
200204a4:	605a      	str	r2, [r3, #4]
200204a6:	685b      	ldr	r3, [r3, #4]
200204a8:	4013      	ands	r3, r2
200204aa:	4293      	cmp	r3, r2
200204ac:	4b04      	ldr	r3, [pc, #16]	; (200204c0 <cmp_neq_multi_bits()+0x20>)
200204ae:	bf14      	ite	ne
200204b0:	f04f 5268 	movne.w	r2, #973078528	; 0x3a000000
200204b4:	f04f 5278 	moveq.w	r2, #1040187392	; 0x3e000000
200204b8:	605a      	str	r2, [r3, #4]
200204ba:	4770      	bx	lr
200204bc:	200226c0 	.word	0x200226c0
200204c0:	20022620 	.word	0x20022620

200204c4 <cmp_equ_mskd()>:
200204c4:	4b09      	ldr	r3, [pc, #36]	; (200204ec <cmp_equ_mskd()+0x28>)
200204c6:	f44f 32e8 	mov.w	r2, #118784	; 0x1d000
200204ca:	605a      	str	r2, [r3, #4]
200204cc:	685b      	ldr	r3, [r3, #4]
200204ce:	4a08      	ldr	r2, [pc, #32]	; (200204f0 <cmp_equ_mskd()+0x2c>)
200204d0:	f403 33f8 	and.w	r3, r3, #126976	; 0x1f000
200204d4:	f5b3 3f88 	cmp.w	r3, #69632	; 0x11000
200204d8:	6853      	ldr	r3, [r2, #4]
200204da:	f023 5378 	bic.w	r3, r3, #1040187392	; 0x3e000000
200204de:	bf0c      	ite	eq
200204e0:	f043 6360 	orreq.w	r3, r3, #234881024	; 0xe000000
200204e4:	f043 5308 	orrne.w	r3, r3, #570425344	; 0x22000000
200204e8:	6053      	str	r3, [r2, #4]
200204ea:	4770      	bx	lr
200204ec:	200226c0 	.word	0x200226c0
200204f0:	20022620 	.word	0x20022620

200204f4 <cmp_neq_mskd()>:
200204f4:	4b0a      	ldr	r3, [pc, #40]	; (20020520 <cmp_neq_mskd()+0x2c>)
200204f6:	f44f 32e8 	mov.w	r2, #118784	; 0x1d000
200204fa:	605a      	str	r2, [r3, #4]
200204fc:	685a      	ldr	r2, [r3, #4]
200204fe:	f402 32f8 	and.w	r2, r2, #126976	; 0x1f000
20020502:	f5b2 3f88 	cmp.w	r2, #69632	; 0x11000
20020506:	685a      	ldr	r2, [r3, #4]
20020508:	d005      	beq.n	20020516 <cmp_neq_mskd()+0x22>
2002050a:	f022 0206 	bic.w	r2, r2, #6
2002050e:	f042 0204 	orr.w	r2, r2, #4
20020512:	605a      	str	r2, [r3, #4]
20020514:	4770      	bx	lr
20020516:	f042 0240 	orr.w	r2, r2, #64	; 0x40
2002051a:	605a      	str	r2, [r3, #4]
2002051c:	4770      	bx	lr
2002051e:	bf00      	nop
20020520:	200226c0 	.word	0x200226c0

20020524 <cmp_equ_reg()>:
20020524:	2222      	movs	r2, #34	; 0x22
20020526:	4b06      	ldr	r3, [pc, #24]	; (20020540 <cmp_equ_reg()+0x1c>)
20020528:	605a      	str	r2, [r3, #4]
2002052a:	685b      	ldr	r3, [r3, #4]
2002052c:	4293      	cmp	r3, r2
2002052e:	4b05      	ldr	r3, [pc, #20]	; (20020544 <cmp_equ_reg()+0x20>)
20020530:	bf0c      	ite	eq
20020532:	f04f 5228 	moveq.w	r2, #704643072	; 0x2a000000
20020536:	f04f 5238 	movne.w	r2, #771751936	; 0x2e000000
2002053a:	605a      	str	r2, [r3, #4]
2002053c:	4770      	bx	lr
2002053e:	bf00      	nop
20020540:	200226c0 	.word	0x200226c0
20020544:	20022620 	.word	0x20022620

20020548 <cmp_neq_reg()>:
20020548:	4b04      	ldr	r3, [pc, #16]	; (2002055c <cmp_neq_reg()+0x14>)
2002054a:	2222      	movs	r2, #34	; 0x22
2002054c:	605a      	str	r2, [r3, #4]
2002054e:	685a      	ldr	r2, [r3, #4]
20020550:	2a22      	cmp	r2, #34	; 0x22
20020552:	bf14      	ite	ne
20020554:	2202      	movne	r2, #2
20020556:	2220      	moveq	r2, #32
20020558:	605a      	str	r2, [r3, #4]
2002055a:	4770      	bx	lr
2002055c:	200226c0 	.word	0x200226c0

20020560 <constexpr_bits_array()>:
20020560:	4b03      	ldr	r3, [pc, #12]	; (20020570 <constexpr_bits_array()+0x10>)
20020562:	2106      	movs	r1, #6
20020564:	f44f 5200 	mov.w	r2, #8192	; 0x2000
20020568:	62d9      	str	r1, [r3, #44]	; 0x2c
2002056a:	f8c3 20a0 	str.w	r2, [r3, #160]	; 0xa0
2002056e:	4770      	bx	lr
20020570:	20022500 	.word	0x20022500

20020574 <runtime_bits_array()>:
20020574:	b081      	sub	sp, #4
20020576:	2203      	movs	r2, #3
20020578:	4b04      	ldr	r3, [pc, #16]	; (2002058c <runtime_bits_array()+0x18>)
2002057a:	2121      	movs	r1, #33	; 0x21
2002057c:	9200      	str	r2, [sp, #0]
2002057e:	9a00      	ldr	r2, [sp, #0]
20020580:	0092      	lsls	r2, r2, #2
20020582:	4413      	add	r3, r2
20020584:	6219      	str	r1, [r3, #32]
20020586:	b001      	add	sp, #4
20020588:	4770      	bx	lr
2002058a:	bf00      	nop
2002058c:	20022500 	.word	0x20022500

20020590 <prescaler_low()>:
20020590:	4b04      	ldr	r3, [pc, #16]	; (200205a4 <prescaler_low()+0x14>)
20020592:	2177      	movs	r1, #119	; 0x77
20020594:	4a04      	ldr	r2, [pc, #16]	; (200205a8 <prescaler_low()+0x18>)
20020596:	6059      	str	r1, [r3, #4]
20020598:	685b      	ldr	r3, [r3, #4]
2002059a:	f003 037f 	and.w	r3, r3, #127	; 0x7f
2002059e:	62d3      	str	r3, [r2, #44]	; 0x2c
200205a0:	4770      	bx	lr
200205a2:	bf00      	nop
200205a4:	20022620 	.word	0x20022620
200205a8:	20022500 	.word	0x20022500

200205ac <prescaler_high()>:
200205ac:	4b04      	ldr	r3, [pc, #16]	; (200205c0 <prescaler_high()+0x14>)
200205ae:	f04f 5168 	mov.w	r1, #973078528	; 0x3a000000
200205b2:	4a04      	ldr	r2, [pc, #16]	; (200205c4 <prescaler_high()+0x18>)
200205b4:	6059      	str	r1, [r3, #4]
200205b6:	685b      	ldr	r3, [r3, #4]
200205b8:	f3c3 6344 	ubfx	r3, r3, #25, #5
200205bc:	62d3      	str	r3, [r2, #44]	; 0x2c
200205be:	4770      	bx	lr
200205c0:	20022620 	.word	0x20022620
200205c4:	20022500 	.word	0x20022500

200205c8 <reg_mskd_lss()>:
200205c8:	f04f 5258 	mov.w	r2, #905969664	; 0x36000000
200205cc:	4b06      	ldr	r3, [pc, #24]	; (200205e8 <reg_mskd_lss()+0x20>)
200205ce:	605a      	str	r2, [r3, #4]
200205d0:	685b      	ldr	r3, [r3, #4]
200205d2:	f003 5378 	and.w	r3, r3, #1040187392	; 0x3e000000
200205d6:	f1b3 5f60 	cmp.w	r3, #939524096	; 0x38000000
200205da:	4b04      	ldr	r3, [pc, #16]	; (200205ec <reg_mskd_lss()+0x24>)
200205dc:	bf34      	ite	cc
200205de:	2202      	movcc	r2, #2
200205e0:	2204      	movcs	r2, #4
200205e2:	605a      	str	r2, [r3, #4]
200205e4:	4770      	bx	lr
200205e6:	bf00      	nop
200205e8:	20022620 	.word	0x20022620
200205ec:	200226c0 	.word	0x200226c0

200205f0 <reg_mskd_leq()>:
200205f0:	4a0b      	ldr	r2, [pc, #44]	; (20020620 <reg_mskd_leq()+0x30>)
200205f2:	f04f 5338 	mov.w	r3, #771751936	; 0x2e000000
200205f6:	6053      	str	r3, [r2, #4]
200205f8:	6853      	ldr	r3, [r2, #4]
200205fa:	f003 5378 	and.w	r3, r3, #1040187392	; 0x3e000000
200205fe:	f1b3 5f38 	cmp.w	r3, #771751936	; 0x2e000000
20020602:	d809      	bhi.n	20020618 <reg_mskd_leq()+0x28>
20020604:	6853      	ldr	r3, [r2, #4]
20020606:	f003 5378 	and.w	r3, r3, #1040187392	; 0x3e000000
2002060a:	f1b3 5f40 	cmp.w	r3, #805306368	; 0x30000000
2002060e:	d803      	bhi.n	20020618 <reg_mskd_leq()+0x28>
20020610:	4b04      	ldr	r3, [pc, #16]	; (20020624 <reg_mskd_leq()+0x34>)
20020612:	2202      	movs	r2, #2
20020614:	605a      	str	r2, [r3, #4]
20020616:	4770      	bx	lr
20020618:	4b02      	ldr	r3, [pc, #8]	; (20020624 <reg_mskd_leq()+0x34>)
2002061a:	2204      	movs	r2, #4
2002061c:	605a      	str	r2, [r3, #4]
2002061e:	4770      	bx	lr
20020620:	20022620 	.word	0x20022620
20020624:	200226c0 	.word	0x200226c0

20020628 <reg_mskd_gtr()>:
20020628:	f04f 5218 	mov.w	r2, #637534208	; 0x26000000
2002062c:	4b06      	ldr	r3, [pc, #24]	; (20020648 <reg_mskd_gtr()+0x20>)
2002062e:	605a      	str	r2, [r3, #4]
20020630:	685b      	ldr	r3, [r3, #4]
20020632:	f003 5378 	and.w	r3, r3, #1040187392	; 0x3e000000
20020636:	f1b3 5f10 	cmp.w	r3, #603979776	; 0x24000000
2002063a:	4b04      	ldr	r3, [pc, #16]	; (2002064c <reg_mskd_gtr()+0x24>)
2002063c:	bf8c      	ite	hi
2002063e:	2202      	movhi	r2, #2
20020640:	2204      	movls	r2, #4
20020642:	605a      	str	r2, [r3, #4]
20020644:	4770      	bx	lr
20020646:	bf00      	nop
20020648:	20022620 	.word	0x20022620
2002064c:	200226c0 	.word	0x200226c0

20020650 <reg_mskd_geq()>:
20020650:	4a0b      	ldr	r2, [pc, #44]	; (20020680 <reg_mskd_geq()+0x30>)
20020652:	f04f 5308 	mov.w	r3, #570425344	; 0x22000000
20020656:	6053      	str	r3, [r2, #4]
20020658:	6853      	ldr	r3, [r2, #4]
2002065a:	f003 5378 	and.w	r3, r3, #1040187392	; 0x3e000000
2002065e:	f1b3 5f00 	cmp.w	r3, #536870912	; 0x20000000
20020662:	d309      	bcc.n	20020678 <reg_mskd_geq()+0x28>
20020664:	6853      	ldr	r3, [r2, #4]
20020666:	f003 5378 	and.w	r3, r3, #1040187392	; 0x3e000000
2002066a:	f1b3 5f08 	cmp.w	r3, #570425344	; 0x22000000
2002066e:	d303      	bcc.n	20020678 <reg_mskd_geq()+0x28>
20020670:	4b04      	ldr	r3, [pc, #16]	; (20020684 <reg_mskd_geq()+0x34>)
20020672:	2202      	movs	r2, #2
20020674:	605a      	str	r2, [r3, #4]
20020676:	4770      	bx	lr
20020678:	4b02      	ldr	r3, [pc, #8]	; (20020684 <reg_mskd_geq()+0x34>)
2002067a:	2204      	movs	r2, #4
2002067c:	605a      	str	r2, [r3, #4]
2002067e:	4770      	bx	lr
20020680:	20022620 	.word	0x20022620
20020684:	200226c0 	.word	0x200226c0

20020688 <pos_cmp_eq()>:
20020688:	4b01      	ldr	r3, [pc, #4]	; (20020690 <pos_cmp_eq()+0x8>)
2002068a:	2202      	movs	r2, #2
2002068c:	605a      	str	r2, [r3, #4]
2002068e:	4770      	bx	lr
20020690:	200226c0 	.word	0x200226c0

20020694 <pos_cmp_ne()>:
20020694:	4b01      	ldr	r3, [pc, #4]	; (2002069c <pos_cmp_ne()+0x8>)
20020696:	2202      	movs	r2, #2
20020698:	605a      	str	r2, [r3, #4]
2002069a:	4770      	bx	lr
2002069c:	200226c0 	.word	0x200226c0

200206a0 <bits_extract_eq()>:
200206a0:	4b04      	ldr	r3, [pc, #16]	; (200206b4 <bits_extract_eq()+0x14>)
200206a2:	2240      	movs	r2, #64	; 0x40
200206a4:	605a      	str	r2, [r3, #4]
200206a6:	685a      	ldr	r2, [r3, #4]
200206a8:	2a40      	cmp	r2, #64	; 0x40
200206aa:	bf0c      	ite	eq
200206ac:	2202      	moveq	r2, #2
200206ae:	2204      	movne	r2, #4
200206b0:	605a      	str	r2, [r3, #4]
200206b2:	4770      	bx	lr
200206b4:	200226c0 	.word	0x200226c0

200206b8 <mskd_extract_eq()>:
200206b8:	4b04      	ldr	r3, [pc, #16]	; (200206cc <mskd_extract_eq()+0x14>)
200206ba:	2202      	movs	r2, #2
200206bc:	605a      	str	r2, [r3, #4]
200206be:	685a      	ldr	r2, [r3, #4]
200206c0:	2a02      	cmp	r2, #2
200206c2:	bf0c      	ite	eq
200206c4:	2220      	moveq	r2, #32
200206c6:	2240      	movne	r2, #64	; 0x40
200206c8:	605a      	str	r2, [r3, #4]
200206ca:	4770      	bx	lr
200206cc:	200226c0 	.word	0x200226c0

200206d0 <mskd_extract_ne()>:
200206d0:	4b04      	ldr	r3, [pc, #16]	; (200206e4 <mskd_extract_ne()+0x14>)
200206d2:	2204      	movs	r2, #4
200206d4:	605a      	str	r2, [r3, #4]
200206d6:	685a      	ldr	r2, [r3, #4]
200206d8:	2a04      	cmp	r2, #4
200206da:	bf0c      	ite	eq
200206dc:	2240      	moveq	r2, #64	; 0x40
200206de:	2220      	movne	r2, #32
200206e0:	605a      	str	r2, [r3, #4]
200206e2:	4770      	bx	lr
200206e4:	200226c0 	.word	0x200226c0

200206e8 <mskd_extract_lss()>:
200206e8:	f04f 52b0 	mov.w	r2, #369098752	; 0x16000000
200206ec:	4b05      	ldr	r3, [pc, #20]	; (20020704 <mskd_extract_lss()+0x1c>)
200206ee:	605a      	str	r2, [r3, #4]
200206f0:	685b      	ldr	r3, [r3, #4]
200206f2:	f1b3 5fc0 	cmp.w	r3, #402653184	; 0x18000000
200206f6:	4b04      	ldr	r3, [pc, #16]	; (20020708 <mskd_extract_lss()+0x20>)
200206f8:	bf34      	ite	cc
200206fa:	2220      	movcc	r2, #32
200206fc:	2240      	movcs	r2, #64	; 0x40
200206fe:	605a      	str	r2, [r3, #4]
20020700:	4770      	bx	lr
20020702:	bf00      	nop
20020704:	20022620 	.word	0x20022620
20020708:	200226c0 	.word	0x200226c0

2002070c <mskd_extract_leq()>:
2002070c:	f04f 5238 	mov.w	r2, #771751936	; 0x2e000000
20020710:	4b04      	ldr	r3, [pc, #16]	; (20020724 <mskd_extract_leq()+0x18>)
20020712:	605a      	str	r2, [r3, #4]
20020714:	685b      	ldr	r3, [r3, #4]
20020716:	4293      	cmp	r3, r2
20020718:	4b03      	ldr	r3, [pc, #12]	; (20020728 <mskd_extract_leq()+0x1c>)
2002071a:	bf94      	ite	ls
2002071c:	2220      	movls	r2, #32
2002071e:	2240      	movhi	r2, #64	; 0x40
20020720:	605a      	str	r2, [r3, #4]
20020722:	4770      	bx	lr
20020724:	20022620 	.word	0x20022620
20020728:	200226c0 	.word	0x200226c0

2002072c <mskd_extract_gtr()>:
2002072c:	f04f 5218 	mov.w	r2, #637534208	; 0x26000000
20020730:	4b05      	ldr	r3, [pc, #20]	; (20020748 <mskd_extract_gtr()+0x1c>)
20020732:	605a      	str	r2, [r3, #4]
20020734:	685b      	ldr	r3, [r3, #4]
20020736:	f1b3 5f10 	cmp.w	r3, #603979776	; 0x24000000
2002073a:	4b04      	ldr	r3, [pc, #16]	; (2002074c <mskd_extract_gtr()+0x20>)
2002073c:	bf8c      	ite	hi
2002073e:	2220      	movhi	r2, #32
20020740:	2240      	movls	r2, #64	; 0x40
20020742:	605a      	str	r2, [r3, #4]
20020744:	4770      	bx	lr
20020746:	bf00      	nop
20020748:	20022620 	.word	0x20022620
2002074c:	200226c0 	.word	0x200226c0

20020750 <set_bits_global()>:
20020750:	4a02      	ldr	r2, [pc, #8]	; (2002075c <set_bits_global()+0xc>)
20020752:	6853      	ldr	r3, [r2, #4]
20020754:	f043 0340 	orr.w	r3, r3, #64	; 0x40
20020758:	6053      	str	r3, [r2, #4]
2002075a:	4770      	bx	lr
2002075c:	200226c0 	.word	0x200226c0

20020760 <ins_mskd_global()>:
20020760:	4a03      	ldr	r2, [pc, #12]	; (20020770 <ins_mskd_global()+0x10>)
20020762:	6853      	ldr	r3, [r2, #4]
20020764:	f023 0306 	bic.w	r3, r3, #6
20020768:	f043 0302 	orr.w	r3, r3, #2
2002076c:	6053      	str	r3, [r2, #4]
2002076e:	4770      	bx	lr
20020770:	200226c0 	.word	0x200226c0

20020774 <assign_array_global()>:
20020774:	4b01      	ldr	r3, [pc, #4]	; (2002077c <assign_array_global()+0x8>)
20020776:	22bd      	movs	r2, #189	; 0xbd
20020778:	601a      	str	r2, [r3, #0]
2002077a:	4770      	bx	lr
2002077c:	2002252c 	.word	0x2002252c

20020780 <shifted_global()>:
20020780:	4b04      	ldr	r3, [pc, #16]	; (20020794 <shifted_global()+0x14>)
20020782:	f04f 5138 	mov.w	r1, #771751936	; 0x2e000000
20020786:	4a04      	ldr	r2, [pc, #16]	; (20020798 <shifted_global()+0x18>)
20020788:	6059      	str	r1, [r3, #4]
2002078a:	685b      	ldr	r3, [r3, #4]
2002078c:	f3c3 6344 	ubfx	r3, r3, #25, #5
20020790:	62d3      	str	r3, [r2, #44]	; 0x2c
20020792:	4770      	bx	lr
20020794:	20022620 	.word	0x20022620
20020798:	20022500 	.word	0x20022500

2002079c <assign_register_global()>:
2002079c:	4b01      	ldr	r3, [pc, #4]	; (200207a4 <assign_register_global()+0x8>)
2002079e:	2204      	movs	r2, #4
200207a0:	605a      	str	r2, [r3, #4]
200207a2:	4770      	bx	lr
200207a4:	200226c0 	.word	0x200226c0

200207a8 <copy_bits_equ()>:
200207a8:	4b04      	ldr	r3, [pc, #16]	; (200207bc <copy_bits_equ()+0x14>)
200207aa:	2240      	movs	r2, #64	; 0x40
200207ac:	605a      	str	r2, [r3, #4]
200207ae:	685a      	ldr	r2, [r3, #4]
200207b0:	0652      	lsls	r2, r2, #25
200207b2:	bf4c      	ite	mi
200207b4:	2202      	movmi	r2, #2
200207b6:	2204      	movpl	r2, #4
200207b8:	605a      	str	r2, [r3, #4]
200207ba:	4770      	bx	lr
200207bc:	200226c0 	.word	0x200226c0

200207c0 <copy_bits_neq()>:
200207c0:	4b04      	ldr	r3, [pc, #16]	; (200207d4 <copy_bits_neq()+0x14>)
200207c2:	2240      	movs	r2, #64	; 0x40
200207c4:	605a      	str	r2, [r3, #4]
200207c6:	685a      	ldr	r2, [r3, #4]
200207c8:	0652      	lsls	r2, r2, #25
200207ca:	bf54      	ite	pl
200207cc:	2202      	movpl	r2, #2
200207ce:	2204      	movmi	r2, #4
200207d0:	605a      	str	r2, [r3, #4]
200207d2:	4770      	bx	lr
200207d4:	200226c0 	.word	0x200226c0

200207d8 <copy_mskd_equ()>:
200207d8:	f04f 52b0 	mov.w	r2, #369098752	; 0x16000000
200207dc:	4b05      	ldr	r3, [pc, #20]	; (200207f4 <copy_mskd_equ()+0x1c>)
200207de:	605a      	str	r2, [r3, #4]
200207e0:	685b      	ldr	r3, [r3, #4]
200207e2:	f003 5378 	and.w	r3, r3, #1040187392	; 0x3e000000
200207e6:	4293      	cmp	r3, r2
200207e8:	4b03      	ldr	r3, [pc, #12]	; (200207f8 <copy_mskd_equ()+0x20>)
200207ea:	bf0c      	ite	eq
200207ec:	2202      	moveq	r2, #2
200207ee:	2204      	movne	r2, #4
200207f0:	605a      	str	r2, [r3, #4]
200207f2:	4770      	bx	lr
200207f4:	20022620 	.word	0x20022620
200207f8:	200226c0 	.word	0x200226c0

200207fc <copy_mskd_neq()>:
200207fc:	f04f 52d0 	mov.w	r2, #436207616	; 0x1a000000
20020800:	4b05      	ldr	r3, [pc, #20]	; (20020818 <copy_mskd_neq()+0x1c>)
20020802:	605a      	str	r2, [r3, #4]
20020804:	685b      	ldr	r3, [r3, #4]
20020806:	f003 5378 	and.w	r3, r3, #1040187392	; 0x3e000000
2002080a:	4293      	cmp	r3, r2
2002080c:	4b03      	ldr	r3, [pc, #12]	; (2002081c <copy_mskd_neq()+0x20>)
2002080e:	bf14      	ite	ne
20020810:	2202      	movne	r2, #2
20020812:	2204      	moveq	r2, #4
20020814:	605a      	str	r2, [r3, #4]
20020816:	4770      	bx	lr
20020818:	20022620 	.word	0x20022620
2002081c:	200226c0 	.word	0x200226c0

20020820 <copy_mskd_lss()>:
20020820:	f04f 5258 	mov.w	r2, #905969664	; 0x36000000
20020824:	4b06      	ldr	r3, [pc, #24]	; (20020840 <copy_mskd_lss()+0x20>)
20020826:	605a      	str	r2, [r3, #4]
20020828:	685b      	ldr	r3, [r3, #4]
2002082a:	f003 5378 	and.w	r3, r3, #1040187392	; 0x3e000000
2002082e:	f1b3 5f60 	cmp.w	r3, #939524096	; 0x38000000
20020832:	4b04      	ldr	r3, [pc, #16]	; (20020844 <copy_mskd_lss()+0x24>)
20020834:	bf34      	ite	cc
20020836:	2202      	movcc	r2, #2
20020838:	2204      	movcs	r2, #4
2002083a:	605a      	str	r2, [r3, #4]
2002083c:	4770      	bx	lr
2002083e:	bf00      	nop
20020840:	20022620 	.word	0x20022620
20020844:	200226c0 	.word	0x200226c0

20020848 <copy_mskd_leq()>:
20020848:	f04f 5238 	mov.w	r2, #771751936	; 0x2e000000
2002084c:	4b05      	ldr	r3, [pc, #20]	; (20020864 <copy_mskd_leq()+0x1c>)
2002084e:	605a      	str	r2, [r3, #4]
20020850:	685b      	ldr	r3, [r3, #4]
20020852:	f003 5378 	and.w	r3, r3, #1040187392	; 0x3e000000
20020856:	4293      	cmp	r3, r2
20020858:	4b03      	ldr	r3, [pc, #12]	; (20020868 <copy_mskd_leq()+0x20>)
2002085a:	bf94      	ite	ls
2002085c:	2202      	movls	r2, #2
2002085e:	2204      	movhi	r2, #4
20020860:	605a      	str	r2, [r3, #4]
20020862:	4770      	bx	lr
20020864:	20022620 	.word	0x20022620
20020868:	200226c0 	.word	0x200226c0

2002086c <copy_mskd_gtr()>:
2002086c:	f04f 5218 	mov.w	r2, #637534208	; 0x26000000
20020870:	4b06      	ldr	r3, [pc, #24]	; (2002088c <copy_mskd_gtr()+0x20>)
20020872:	605a      	str	r2, [r3, #4]
20020874:	685b      	ldr	r3, [r3, #4]
20020876:	f003 5378 	and.w	r3, r3, #1040187392	; 0x3e000000
2002087a:	f1b3 5f10 	cmp.w	r3, #603979776	; 0x24000000
2002087e:	4b04      	ldr	r3, [pc, #16]	; (20020890 <copy_mskd_gtr()+0x24>)
20020880:	bf8c      	ite	hi
20020882:	2202      	movhi	r2, #2
20020884:	2204      	movls	r2, #4
20020886:	605a      	str	r2, [r3, #4]
20020888:	4770      	bx	lr
2002088a:	bf00      	nop
2002088c:	20022620 	.word	0x20022620
20020890:	200226c0 	.word	0x200226c0

20020894 <copy_mskd_geq()>:
20020894:	f04f 5208 	mov.w	r2, #570425344	; 0x22000000
20020898:	4b05      	ldr	r3, [pc, #20]	; (200208b0 <copy_mskd_geq()+0x1c>)
2002089a:	605a      	str	r2, [r3, #4]
2002089c:	685b      	ldr	r3, [r3, #4]
2002089e:	f003 5378 	and.w	r3, r3, #1040187392	; 0x3e000000
200208a2:	4293      	cmp	r3, r2
200208a4:	4b03      	ldr	r3, [pc, #12]	; (200208b4 <copy_mskd_geq()+0x20>)
200208a6:	bf2c      	ite	cs
200208a8:	2202      	movcs	r2, #2
200208aa:	2204      	movcc	r2, #4
200208ac:	605a      	str	r2, [r3, #4]
200208ae:	4770      	bx	lr
200208b0:	20022620 	.word	0x20022620
200208b4:	200226c0 	.word	0x200226c0

200208b8 <copy_shifted()>:
200208b8:	f04f 52b0 	mov.w	r2, #369098752	; 0x16000000
200208bc:	4b05      	ldr	r3, [pc, #20]	; (200208d4 <copy_shifted()+0x1c>)
200208be:	605a      	str	r2, [r3, #4]
200208c0:	685b      	ldr	r3, [r3, #4]
200208c2:	f3c3 6344 	ubfx	r3, r3, #25, #5
200208c6:	2b0b      	cmp	r3, #11
200208c8:	4b03      	ldr	r3, [pc, #12]	; (200208d8 <copy_shifted()+0x20>)
200208ca:	bf0c      	ite	eq
200208cc:	2202      	moveq	r2, #2
200208ce:	2204      	movne	r2, #4
200208d0:	605a      	str	r2, [r3, #4]
200208d2:	4770      	bx	lr
200208d4:	20022620 	.word	0x20022620
200208d8:	200226c0 	.word	0x200226c0

200208dc <bits_val(regbits::Bits<unsigned long, mcu::Serial::Config>)>:
200208dc:	4a02      	ldr	r2, [pc, #8]	; (200208e8 <bits_val(regbits::Bits<unsigned long, mcu::Serial::Config>)+0xc>)
200208de:	6853      	ldr	r3, [r2, #4]
200208e0:	4318      	orrs	r0, r3
200208e2:	6050      	str	r0, [r2, #4]
200208e4:	4770      	bx	lr
200208e6:	bf00      	nop
200208e8:	200226c0 	.word	0x200226c0

200208ec <call_bits_val_var()>:
200208ec:	2040      	movs	r0, #64	; 0x40
200208ee:	f7ff bff5 	b.w	200208dc <bits_val(regbits::Bits<unsigned long, mcu::Serial::Config>)>
200208f2:	bf00      	nop

200208f4 <call_bits_val_const()>:
200208f4:	2040      	movs	r0, #64	; 0x40
200208f6:	f7ff bff1 	b.w	200208dc <bits_val(regbits::Bits<unsigned long, mcu::Serial::Config>)>
200208fa:	bf00      	nop

200208fc <call_bits_val_global()>:
200208fc:	2040      	movs	r0, #64	; 0x40
200208fe:	f7ff bfed 	b.w	200208dc <bits_val(regbits::Bits<unsigned long, mcu::Serial::Config>)>
20020902:	bf00      	nop

20020904 <bits_ref(regbits::Bits<unsigned long, mcu::Serial::Config> const&)>:
20020904:	4a02      	ldr	r2, [pc, #8]	; (20020910 <bits_ref(regbits::Bits<unsigned long, mcu::Serial::Config> const&)+0xc>)
20020906:	6801      	ldr	r1, [r0, #0]
20020908:	6853      	ldr	r3, [r2, #4]
2002090a:	430b      	orrs	r3, r1
2002090c:	6053      	str	r3, [r2, #4]
2002090e:	4770      	bx	lr
20020910:	200226c0 	.word	0x200226c0

20020914 <call_bits_ref_var()>:
20020914:	b500      	push	{lr}
20020916:	b081      	sub	sp, #4
20020918:	2301      	movs	r3, #1
2002091a:	4668      	mov	r0, sp
2002091c:	9300      	str	r3, [sp, #0]
2002091e:	f7ff fff1 	bl	20020904 <bits_ref(regbits::Bits<unsigned long, mcu::Serial::Config> const&)>
20020922:	b001      	add	sp, #4
20020924:	f85d fb04 	ldr.w	pc, [sp], #4

20020928 <call_bits_ref_const()>:
20020928:	b500      	push	{lr}
2002092a:	b081      	sub	sp, #4
2002092c:	2301      	movs	r3, #1
2002092e:	4668      	mov	r0, sp
20020930:	9300      	str	r3, [sp, #0]
20020932:	f7ff ffe7 	bl	20020904 <bits_ref(regbits::Bits<unsigned long, mcu::Serial::Config> const&)>
20020936:	b001      	add	sp, #4
20020938:	f85d fb04 	ldr.w	pc, [sp], #4

2002093c <call_bits_ref_global()>:
2002093c:	b500      	push	{lr}
2002093e:	b081      	sub	sp, #4
20020940:	2340      	movs	r3, #64	; 0x40
20020942:	4668      	mov	r0, sp
20020944:	9300      	str	r3, [sp, #0]
20020946:	f7ff ffdd 	bl	20020904 <bits_ref(regbits::Bits<unsigned long, mcu::Serial::Config> const&)>
2002094a:	b001      	add	sp, #4
2002094c:	f85d fb04 	ldr.w	pc, [sp], #4

20020950 <mskd_val(regbits::Mskd<unsigned long, mcu::Serial::Config>)>:
20020950:	4a03      	ldr	r2, [pc, #12]	; (20020960 <mskd_val(regbits::Mskd<unsigned long, mcu::Serial::Config>)+0x10>)
20020952:	6853      	ldr	r3, [r2, #4]
20020954:	ea23 0000 	bic.w	r0, r3, r0
20020958:	4308      	orrs	r0, r1
2002095a:	6050      	str	r0, [r2, #4]
2002095c:	4770      	bx	lr
2002095e:	bf00      	nop
20020960:	200226c0 	.word	0x200226c0

20020964 <call_mskd_val_var()>:
20020964:	2006      	movs	r0, #6
20020966:	2102      	movs	r1, #2
20020968:	f7ff bff2 	b.w	20020950 <mskd_val(regbits::Mskd<unsigned long, mcu::Serial::Config>)>

2002096c <call_mskd_val_const()>:
2002096c:	2006      	movs	r0, #6
2002096e:	2102      	movs	r1, #2
20020970:	f7ff bfee 	b.w	20020950 <mskd_val(regbits::Mskd<unsigned long, mcu::Serial::Config>)>

20020974 <call_mskd_val_global()>:
20020974:	2006      	movs	r0, #6
20020976:	2102      	movs	r1, #2
20020978:	f7ff bfea 	b.w	20020950 <mskd_val(regbits::Mskd<unsigned long, mcu::Serial::Config>)>

2002097c <mskd_ref(regbits::Mskd<unsigned long, mcu::Serial::Config> const&)>:
2002097c:	4a05      	ldr	r2, [pc, #20]	; (20020994 <mskd_ref(regbits::Mskd<unsigned long, mcu::Serial::Config> const&)+0x18>)
2002097e:	6841      	ldr	r1, [r0, #4]
20020980:	6853      	ldr	r3, [r2, #4]
20020982:	b410      	push	{r4}
20020984:	6804      	ldr	r4, [r0, #0]
20020986:	ea23 0304 	bic.w	r3, r3, r4
2002098a:	bc10      	pop	{r4}
2002098c:	430b      	orrs	r3, r1
2002098e:	6053      	str	r3, [r2, #4]
20020990:	4770      	bx	lr
20020992:	bf00      	nop
20020994:	200226c0 	.word	0x200226c0

20020998 <call_mskd_ref_var()>:
20020998:	b500      	push	{lr}
2002099a:	4b05      	ldr	r3, [pc, #20]	; (200209b0 <call_mskd_ref_var()+0x18>)
2002099c:	b082      	sub	sp, #8
2002099e:	cb0c      	ldmia	r3, {r2, r3}
200209a0:	4668      	mov	r0, sp
200209a2:	e88d 000c 	stmia.w	sp, {r2, r3}
200209a6:	f7ff ffe9 	bl	2002097c <mskd_ref(regbits::Mskd<unsigned long, mcu::Serial::Config> const&)>
200209aa:	b002      	add	sp, #8
200209ac:	f85d fb04 	ldr.w	pc, [sp], #4
200209b0:	200217a8 	.word	0x200217a8

200209b4 <call_mskd_ref_const()>:
200209b4:	b500      	push	{lr}
200209b6:	b082      	sub	sp, #8
200209b8:	2206      	movs	r2, #6
200209ba:	2304      	movs	r3, #4
200209bc:	4668      	mov	r0, sp
200209be:	e88d 000c 	stmia.w	sp, {r2, r3}
200209c2:	f7ff ffdb 	bl	2002097c <mskd_ref(regbits::Mskd<unsigned long, mcu::Serial::Config> const&)>
200209c6:	b002      	add	sp, #8
200209c8:	f85d fb04 	ldr.w	pc, [sp], #4

200209cc <call_mskd_ref_global()>:
200209cc:	b500      	push	{lr}
200209ce:	b082      	sub	sp, #8
200209d0:	2206      	movs	r2, #6
200209d2:	2302      	movs	r3, #2
200209d4:	4668      	mov	r0, sp
200209d6:	e88d 000c 	stmia.w	sp, {r2, r3}
200209da:	f7ff ffcf 	bl	2002097c <mskd_ref(regbits::Mskd<unsigned long, mcu::Serial::Config> const&)>
200209de:	b002      	add	sp, #8
200209e0:	f85d fb04 	ldr.w	pc, [sp], #4

200209e4 <periph_bits(mcu::Serial volatile*)>:
200209e4:	6843      	ldr	r3, [r0, #4]
200209e6:	f043 0340 	orr.w	r3, r3, #64	; 0x40
200209ea:	6043      	str	r3, [r0, #4]
200209ec:	4770      	bx	lr
200209ee:	bf00      	nop

200209f0 <call_periph_bits()>:
200209f0:	4801      	ldr	r0, [pc, #4]	; (200209f8 <call_periph_bits()+0x8>)
200209f2:	f7ff bff7 	b.w	200209e4 <periph_bits(mcu::Serial volatile*)>
200209f6:	bf00      	nop
200209f8:	200226c0 	.word	0x200226c0

200209fc <periph_bits_val(mcu::Serial volatile*, regbits::Bits<unsigned long, mcu::Serial::Config>)>:
200209fc:	6843      	ldr	r3, [r0, #4]
200209fe:	4319      	orrs	r1, r3
20020a00:	6041      	str	r1, [r0, #4]
20020a02:	4770      	bx	lr

20020a04 <call_periph_bits_val()>:
20020a04:	2140      	movs	r1, #64	; 0x40
20020a06:	4801      	ldr	r0, [pc, #4]	; (20020a0c <call_periph_bits_val()+0x8>)
20020a08:	f7ff bff8 	b.w	200209fc <periph_bits_val(mcu::Serial volatile*, regbits::Bits<unsigned long, mcu::Serial::Config>)>
20020a0c:	200226c0 	.word	0x200226c0

20020a10 <reg_bits_val(regbits::Reg<unsigned long, mcu::Serial::Config> volatile&, regbits::Bits<unsigned long, mcu::Serial::Config>)>:
20020a10:	6803      	ldr	r3, [r0, #0]
20020a12:	4319      	orrs	r1, r3
20020a14:	6001      	str	r1, [r0, #0]
20020a16:	4770      	bx	lr

20020a18 <call_reg_bits_val()>:
20020a18:	2140      	movs	r1, #64	; 0x40
20020a1a:	4801      	ldr	r0, [pc, #4]	; (20020a20 <call_reg_bits_val()+0x8>)
20020a1c:	f7ff bff8 	b.w	20020a10 <reg_bits_val(regbits::Reg<unsigned long, mcu::Serial::Config> volatile&, regbits::Bits<unsigned long, mcu::Serial::Config>)>
20020a20:	200226c4 	.word	0x200226c4

20020a24 <periph_bits_ref(mcu::Serial volatile*, regbits::Bits<unsigned long, mcu::Serial::Config> const&)>:
20020a24:	680a      	ldr	r2, [r1, #0]
20020a26:	6843      	ldr	r3, [r0, #4]
20020a28:	4313      	orrs	r3, r2
20020a2a:	6043      	str	r3, [r0, #4]
20020a2c:	4770      	bx	lr
20020a2e:	bf00      	nop

20020a30 <call_periph_bits_ref()>:
20020a30:	b500      	push	{lr}
20020a32:	b081      	sub	sp, #4
20020a34:	2340      	movs	r3, #64	; 0x40
20020a36:	4804      	ldr	r0, [pc, #16]	; (20020a48 <call_periph_bits_ref()+0x18>)
20020a38:	4669      	mov	r1, sp
20020a3a:	9300      	str	r3, [sp, #0]
20020a3c:	f7ff fff2 	bl	20020a24 <periph_bits_ref(mcu::Serial volatile*, regbits::Bits<unsigned long, mcu::Serial::Config> const&)>
20020a40:	b001      	add	sp, #4
20020a42:	f85d fb04 	ldr.w	pc, [sp], #4
20020a46:	bf00      	nop
20020a48:	200226c0 	.word	0x200226c0

20020a4c <reg_bits_ref(regbits::Reg<unsigned long, mcu::Serial::Config> volatile&, regbits::Bits<unsigned long, mcu::Serial::Config> const&)>:
20020a4c:	680a      	ldr	r2, [r1, #0]
20020a4e:	6803      	ldr	r3, [r0, #0]
20020a50:	4313      	orrs	r3, r2
20020a52:	6003      	str	r3, [r0, #0]
20020a54:	4770      	bx	lr
20020a56:	bf00      	nop

20020a58 <call_reg_bits_ref()>:
20020a58:	b500      	push	{lr}
20020a5a:	b081      	sub	sp, #4
20020a5c:	2340      	movs	r3, #64	; 0x40
20020a5e:	4804      	ldr	r0, [pc, #16]	; (20020a70 <call_reg_bits_ref()+0x18>)
20020a60:	4669      	mov	r1, sp
20020a62:	9300      	str	r3, [sp, #0]
20020a64:	f7ff fff2 	bl	20020a4c <reg_bits_ref(regbits::Reg<unsigned long, mcu::Serial::Config> volatile&, regbits::Bits<unsigned long, mcu::Serial::Config> const&)>
20020a68:	b001      	add	sp, #4
20020a6a:	f85d fb04 	ldr.w	pc, [sp], #4
20020a6e:	bf00      	nop
20020a70:	200226c4 	.word	0x200226c4

20020a74 <periph_mskd(mcu::Serial volatile*)>:
20020a74:	6843      	ldr	r3, [r0, #4]
20020a76:	f023 0306 	bic.w	r3, r3, #6
20020a7a:	f043 0302 	orr.w	r3, r3, #2
20020a7e:	6043      	str	r3, [r0, #4]
20020a80:	4770      	bx	lr
20020a82:	bf00      	nop

20020a84 <call_periph_mskd()>:
20020a84:	4801      	ldr	r0, [pc, #4]	; (20020a8c <call_periph_mskd()+0x8>)
20020a86:	f7ff bff5 	b.w	20020a74 <periph_mskd(mcu::Serial volatile*)>
20020a8a:	bf00      	nop
20020a8c:	200226c0 	.word	0x200226c0

20020a90 <periph_mskd_val(mcu::Serial volatile*, regbits::Mskd<unsigned long, mcu::Serial::Config>)>:
20020a90:	6843      	ldr	r3, [r0, #4]
20020a92:	ea23 0101 	bic.w	r1, r3, r1
20020a96:	4311      	orrs	r1, r2
20020a98:	6041      	str	r1, [r0, #4]
20020a9a:	4770      	bx	lr

20020a9c <call_periph_mskd_val()>:
20020a9c:	2106      	movs	r1, #6
20020a9e:	2202      	movs	r2, #2
20020aa0:	4801      	ldr	r0, [pc, #4]	; (20020aa8 <call_periph_mskd_val()+0xc>)
20020aa2:	f7ff bff5 	b.w	20020a90 <periph_mskd_val(mcu::Serial volatile*, regbits::Mskd<unsigned long, mcu::Serial::Config>)>
20020aa6:	bf00      	nop
20020aa8:	200226c0 	.word	0x200226c0

20020aac <reg_mskd_val(regbits::Reg<unsigned long, mcu::Serial::Config> volatile&, regbits::Mskd<unsigned long, mcu::Serial::Config>)>:
20020aac:	6803      	ldr	r3, [r0, #0]
20020aae:	ea23 0101 	bic.w	r1, r3, r1
20020ab2:	4311      	orrs	r1, r2
20020ab4:	6001      	str	r1, [r0, #0]
20020ab6:	4770      	bx	lr

20020ab8 <call_reg_mskd_val()>:
20020ab8:	2106      	movs	r1, #6
20020aba:	2202      	movs	r2, #2
20020abc:	4801      	ldr	r0, [pc, #4]	; (20020ac4 <call_reg_mskd_val()+0xc>)
20020abe:	f7ff bff5 	b.w	20020aac <reg_mskd_val(regbits::Reg<unsigned long, mcu::Serial::Config> volatile&, regbits::Mskd<unsigned long, mcu::Serial::Config>)>
20020ac2:	bf00      	nop
20020ac4:	200226c4 	.word	0x200226c4

20020ac8 <periph_mskd_ref(mcu::Serial volatile*, regbits::Mskd<unsigned long, mcu::Serial::Config>)>:
20020ac8:	6843      	ldr	r3, [r0, #4]
20020aca:	ea23 0101 	bic.w	r1, r3, r1
20020ace:	4311      	orrs	r1, r2
20020ad0:	6041      	str	r1, [r0, #4]
20020ad2:	4770      	bx	lr

20020ad4 <call_periph_mskd_ref()>:
20020ad4:	2106      	movs	r1, #6
20020ad6:	2202      	movs	r2, #2
20020ad8:	4801      	ldr	r0, [pc, #4]	; (20020ae0 <call_periph_mskd_ref()+0xc>)
20020ada:	f7ff bff5 	b.w	20020ac8 <periph_mskd_ref(mcu::Serial volatile*, regbits::Mskd<unsigned long, mcu::Serial::Config>)>
20020ade:	bf00      	nop
20020ae0:	200226c0 	.word	0x200226c0

20020ae4 <reg_mskd_ref(regbits::Reg<unsigned long, mcu::Serial::Config> volatile&, regbits::Mskd<unsigned long, mcu::Serial::Config>)>:
20020ae4:	6803      	ldr	r3, [r0, #0]
20020ae6:	ea23 0101 	bic.w	r1, r3, r1
20020aea:	4311      	orrs	r1, r2
20020aec:	6001      	str	r1, [r0, #0]
20020aee:	4770      	bx	lr

20020af0 <call_reg_mskd_ref()>:
20020af0:	2106      	movs	r1, #6
20020af2:	2202      	movs	r2, #2
20020af4:	4801      	ldr	r0, [pc, #4]	; (20020afc <call_reg_mskd_ref()+0xc>)
20020af6:	f7ff bff5 	b.w	20020ae4 <reg_mskd_ref(regbits::Reg<unsigned long, mcu::Serial::Config> volatile&, regbits::Mskd<unsigned long, mcu::Serial::Config>)>
20020afa:	bf00      	nop
20020afc:	200226c4 	.word	0x200226c4

20020b00 <return_bits()>:
20020b00:	2020      	movs	r0, #32
20020b02:	4770      	bx	lr

20020b04 <call_return_bits()>:
20020b04:	b500      	push	{lr}
20020b06:	f7ff fffb 	bl	20020b00 <return_bits()>
20020b0a:	2820      	cmp	r0, #32
20020b0c:	4b04      	ldr	r3, [pc, #16]	; (20020b20 <call_return_bits()+0x1c>)
20020b0e:	bf0c      	ite	eq
20020b10:	f04f 5228 	moveq.w	r2, #704643072	; 0x2a000000
20020b14:	f04f 62c0 	movne.w	r2, #100663296	; 0x6000000
20020b18:	605a      	str	r2, [r3, #4]
20020b1a:	f85d fb04 	ldr.w	pc, [sp], #4
20020b1e:	bf00      	nop
20020b20:	20022620 	.word	0x20022620

20020b24 <return_mskd()>:
20020b24:	2118      	movs	r1, #24
20020b26:	2208      	movs	r2, #8
20020b28:	e880 0006 	stmia.w	r0, {r1, r2}
20020b2c:	4770      	bx	lr
20020b2e:	bf00      	nop

20020b30 <call_return_mskd()>:
20020b30:	b500      	push	{lr}
20020b32:	b082      	sub	sp, #8
20020b34:	4668      	mov	r0, sp
20020b36:	f7ff fff5 	bl	20020b24 <return_mskd()>
20020b3a:	9b00      	ldr	r3, [sp, #0]
20020b3c:	9a01      	ldr	r2, [sp, #4]
20020b3e:	2b18      	cmp	r3, #24
20020b40:	4b07      	ldr	r3, [pc, #28]	; (20020b60 <call_return_mskd()+0x30>)
20020b42:	d005      	beq.n	20020b50 <call_return_mskd()+0x20>
20020b44:	f04f 5218 	mov.w	r2, #637534208	; 0x26000000
20020b48:	605a      	str	r2, [r3, #4]
20020b4a:	b002      	add	sp, #8
20020b4c:	f85d fb04 	ldr.w	pc, [sp], #4
20020b50:	2a08      	cmp	r2, #8
20020b52:	d1f7      	bne.n	20020b44 <call_return_mskd()+0x14>
20020b54:	f04f 5208 	mov.w	r2, #570425344	; 0x22000000
20020b58:	605a      	str	r2, [r3, #4]
20020b5a:	b002      	add	sp, #8
20020b5c:	f85d fb04 	ldr.w	pc, [sp], #4
20020b60:	20022620 	.word	0x20022620

20020b64 <return_reg()>:
20020b64:	4b02      	ldr	r3, [pc, #8]	; (20020b70 <return_reg()+0xc>)
20020b66:	2240      	movs	r2, #64	; 0x40
20020b68:	4802      	ldr	r0, [pc, #8]	; (20020b74 <return_reg()+0x10>)
20020b6a:	605a      	str	r2, [r3, #4]
20020b6c:	4770      	bx	lr
20020b6e:	bf00      	nop
20020b70:	200226c0 	.word	0x200226c0
20020b74:	200226c4 	.word	0x200226c4

20020b78 <call_return_reg()>:
20020b78:	b500      	push	{lr}
20020b7a:	f7ff fff3 	bl	20020b64 <return_reg()>
20020b7e:	6803      	ldr	r3, [r0, #0]
20020b80:	2b40      	cmp	r3, #64	; 0x40
20020b82:	4b04      	ldr	r3, [pc, #16]	; (20020b94 <call_return_reg()+0x1c>)
20020b84:	bf0c      	ite	eq
20020b86:	f04f 52f0 	moveq.w	r2, #503316480	; 0x1e000000
20020b8a:	f04f 5238 	movne.w	r2, #771751936	; 0x2e000000
20020b8e:	605a      	str	r2, [r3, #4]
20020b90:	f85d fb04 	ldr.w	pc, [sp], #4
20020b94:	20022620 	.word	0x20022620

20020b98 <return_periph()>:
20020b98:	4b02      	ldr	r3, [pc, #8]	; (20020ba4 <return_periph()+0xc>)
20020b9a:	2240      	movs	r2, #64	; 0x40
20020b9c:	4618      	mov	r0, r3
20020b9e:	605a      	str	r2, [r3, #4]
20020ba0:	4770      	bx	lr
20020ba2:	bf00      	nop
20020ba4:	200226c0 	.word	0x200226c0

20020ba8 <call_return_periph()>:
20020ba8:	b500      	push	{lr}
20020baa:	f7ff fff5 	bl	20020b98 <return_periph()>
20020bae:	6843      	ldr	r3, [r0, #4]
20020bb0:	2b40      	cmp	r3, #64	; 0x40
20020bb2:	4b04      	ldr	r3, [pc, #16]	; (20020bc4 <call_return_periph()+0x1c>)
20020bb4:	bf0c      	ite	eq
20020bb6:	f04f 5218 	moveq.w	r2, #637534208	; 0x26000000
20020bba:	f04f 5228 	movne.w	r2, #704643072	; 0x2a000000
20020bbe:	605a      	str	r2, [r3, #4]
20020bc0:	f85d fb04 	ldr.w	pc, [sp], #4
20020bc4:	20022620 	.word	0x20022620

20020bc8 <pos_val(regbits::Pos<unsigned long, mcu::Serial::Config>)>:
20020bc8:	2805      	cmp	r0, #5
20020bca:	4b05      	ldr	r3, [pc, #20]	; (20020be0 <pos_val(regbits::Pos<unsigned long, mcu::Serial::Config>)+0x18>)
20020bcc:	d005      	beq.n	20020bda <pos_val(regbits::Pos<unsigned long, mcu::Serial::Config>)+0x12>
20020bce:	2806      	cmp	r0, #6
20020bd0:	bf0c      	ite	eq
20020bd2:	2244      	moveq	r2, #68	; 0x44
20020bd4:	2255      	movne	r2, #85	; 0x55
20020bd6:	62da      	str	r2, [r3, #44]	; 0x2c
20020bd8:	4770      	bx	lr
20020bda:	2233      	movs	r2, #51	; 0x33
20020bdc:	62da      	str	r2, [r3, #44]	; 0x2c
20020bde:	4770      	bx	lr
20020be0:	20022500 	.word	0x20022500

20020be4 <call_pos_val()>:
20020be4:	b500      	push	{lr}
20020be6:	2005      	movs	r0, #5
20020be8:	f7ff ffee 	bl	20020bc8 <pos_val(regbits::Pos<unsigned long, mcu::Serial::Config>)>
20020bec:	2006      	movs	r0, #6
20020bee:	f85d eb04 	ldr.w	lr, [sp], #4
20020bf2:	f7ff bfe9 	b.w	20020bc8 <pos_val(regbits::Pos<unsigned long, mcu::Serial::Config>)>
20020bf6:	bf00      	nop

20020bf8 <call_pos_val_global()>:
20020bf8:	2006      	movs	r0, #6
20020bfa:	f7ff bfe5 	b.w	20020bc8 <pos_val(regbits::Pos<unsigned long, mcu::Serial::Config>)>
20020bfe:	bf00      	nop

20020c00 <pos_ref(regbits::Pos<unsigned long, mcu::Serial::Config> const&)>:
20020c00:	6803      	ldr	r3, [r0, #0]
20020c02:	2b05      	cmp	r3, #5
20020c04:	d006      	beq.n	20020c14 <pos_ref(regbits::Pos<unsigned long, mcu::Serial::Config> const&)+0x14>
20020c06:	2b06      	cmp	r3, #6
20020c08:	4b04      	ldr	r3, [pc, #16]	; (20020c1c <pos_ref(regbits::Pos<unsigned long, mcu::Serial::Config> const&)+0x1c>)
20020c0a:	bf0c      	ite	eq
20020c0c:	2277      	moveq	r2, #119	; 0x77
20020c0e:	2288      	movne	r2, #136	; 0x88
20020c10:	62da      	str	r2, [r3, #44]	; 0x2c
20020c12:	4770      	bx	lr
20020c14:	4b01      	ldr	r3, [pc, #4]	; (20020c1c <pos_ref(regbits::Pos<unsigned long, mcu::Serial::Config> const&)+0x1c>)
20020c16:	2266      	movs	r2, #102	; 0x66
20020c18:	62da      	str	r2, [r3, #44]	; 0x2c
20020c1a:	4770      	bx	lr
20020c1c:	20022500 	.word	0x20022500

20020c20 <call_pos_ref()>:
20020c20:	b500      	push	{lr}
20020c22:	b081      	sub	sp, #4
20020c24:	2105      	movs	r1, #5
20020c26:	4668      	mov	r0, sp
20020c28:	9100      	str	r1, [sp, #0]
20020c2a:	f7ff ffe9 	bl	20020c00 <pos_ref(regbits::Pos<unsigned long, mcu::Serial::Config> const&)>
20020c2e:	4668      	mov	r0, sp
20020c30:	9100      	str	r1, [sp, #0]
20020c32:	f7ff ffe5 	bl	20020c00 <pos_ref(regbits::Pos<unsigned long, mcu::Serial::Config> const&)>
20020c36:	b001      	add	sp, #4
20020c38:	f85d fb04 	ldr.w	pc, [sp], #4

20020c3c <call_pos_ref_global()>:
20020c3c:	b500      	push	{lr}
20020c3e:	b081      	sub	sp, #4
20020c40:	2306      	movs	r3, #6
20020c42:	4668      	mov	r0, sp
20020c44:	9300      	str	r3, [sp, #0]
20020c46:	f7ff ffdb 	bl	20020c00 <pos_ref(regbits::Pos<unsigned long, mcu::Serial::Config> const&)>
20020c4a:	b001      	add	sp, #4
20020c4c:	f85d fb04 	ldr.w	pc, [sp], #4

20020c50 <runtime_range_val(regbits::Mskd<unsigned long, mcu::Serial::Config>)>:
20020c50:	4a03      	ldr	r2, [pc, #12]	; (20020c60 <runtime_range_val(regbits::Mskd<unsigned long, mcu::Serial::Config>)+0x10>)
20020c52:	6853      	ldr	r3, [r2, #4]
20020c54:	ea23 0000 	bic.w	r0, r3, r0
20020c58:	4308      	orrs	r0, r1
20020c5a:	6050      	str	r0, [r2, #4]
20020c5c:	4770      	bx	lr
20020c5e:	bf00      	nop
20020c60:	200226c0 	.word	0x200226c0

20020c64 <call_range_val(unsigned int)>:
20020c64:	0301      	lsls	r1, r0, #12
20020c66:	f44f 30f8 	mov.w	r0, #126976	; 0x1f000
20020c6a:	f7ff bff1 	b.w	20020c50 <runtime_range_val(regbits::Mskd<unsigned long, mcu::Serial::Config>)>
20020c6e:	bf00      	nop

20020c70 <call_range_val_port()>:
20020c70:	201f      	movs	r0, #31
20020c72:	f7ff bff7 	b.w	20020c64 <call_range_val(unsigned int)>
20020c76:	bf00      	nop

20020c78 <runtime_range_ref(regbits::Mskd<unsigned long, mcu::Serial::Config>)>:
20020c78:	4a03      	ldr	r2, [pc, #12]	; (20020c88 <runtime_range_ref(regbits::Mskd<unsigned long, mcu::Serial::Config>)+0x10>)
20020c7a:	6853      	ldr	r3, [r2, #4]
20020c7c:	ea23 0000 	bic.w	r0, r3, r0
20020c80:	4308      	orrs	r0, r1
20020c82:	6050      	str	r0, [r2, #4]
20020c84:	4770      	bx	lr
20020c86:	bf00      	nop
20020c88:	200226c0 	.word	0x200226c0

20020c8c <call_range_ref(unsigned int)>:
20020c8c:	0301      	lsls	r1, r0, #12
20020c8e:	f44f 30f8 	mov.w	r0, #126976	; 0x1f000
20020c92:	f7ff bff1 	b.w	20020c78 <runtime_range_ref(regbits::Mskd<unsigned long, mcu::Serial::Config>)>
20020c96:	bf00      	nop

20020c98 <call_range_ref_port()>:
20020c98:	200c      	movs	r0, #12
20020c9a:	f7ff bff7 	b.w	20020c8c <call_range_ref(unsigned int)>
20020c9e:	bf00      	nop

20020ca0 <check_array_range_pass(unsigned int)>:
20020ca0:	2816      	cmp	r0, #22
20020ca2:	4b03      	ldr	r3, [pc, #12]	; (20020cb0 <check_array_range_pass(unsigned int)+0x10>)
20020ca4:	bf94      	ite	ls
20020ca6:	227f      	movls	r2, #127	; 0x7f
20020ca8:	2283      	movhi	r2, #131	; 0x83
20020caa:	62da      	str	r2, [r3, #44]	; 0x2c
20020cac:	4770      	bx	lr
20020cae:	bf00      	nop
20020cb0:	20022500 	.word	0x20022500

20020cb4 <check_array_range_fail(unsigned int)>:
20020cb4:	2816      	cmp	r0, #22
20020cb6:	4b03      	ldr	r3, [pc, #12]	; (20020cc4 <check_array_range_fail(unsigned int)+0x10>)
20020cb8:	bf94      	ite	ls
20020cba:	2295      	movls	r2, #149	; 0x95
20020cbc:	2297      	movhi	r2, #151	; 0x97
20020cbe:	62da      	str	r2, [r3, #44]	; 0x2c
20020cc0:	4770      	bx	lr
20020cc2:	bf00      	nop
20020cc4:	20022500 	.word	0x20022500

20020cc8 <check_bits_range_pass(unsigned int)>:
20020cc8:	280f      	cmp	r0, #15
20020cca:	4b03      	ldr	r3, [pc, #12]	; (20020cd8 <check_bits_range_pass(unsigned int)+0x10>)
20020ccc:	bf94      	ite	ls
20020cce:	229d      	movls	r2, #157	; 0x9d
20020cd0:	22a3      	movhi	r2, #163	; 0xa3
20020cd2:	62da      	str	r2, [r3, #44]	; 0x2c
20020cd4:	4770      	bx	lr
20020cd6:	bf00      	nop
20020cd8:	20022500 	.word	0x20022500

20020cdc <check_bits_range_fail(unsigned int)>:
20020cdc:	280f      	cmp	r0, #15
20020cde:	4b03      	ldr	r3, [pc, #12]	; (20020cec <check_bits_range_fail(unsigned int)+0x10>)
20020ce0:	bf94      	ite	ls
20020ce2:	22a7      	movls	r2, #167	; 0xa7
20020ce4:	22ad      	movhi	r2, #173	; 0xad
20020ce6:	62da      	str	r2, [r3, #44]	; 0x2c
20020ce8:	4770      	bx	lr
20020cea:	bf00      	nop
20020cec:	20022500 	.word	0x20022500

20020cf0 <check_mskd_range_pass(unsigned int)>:
20020cf0:	281f      	cmp	r0, #31
20020cf2:	4b03      	ldr	r3, [pc, #12]	; (20020d00 <check_mskd_range_pass(unsigned int)+0x10>)
20020cf4:	bf94      	ite	ls
20020cf6:	22b3      	movls	r2, #179	; 0xb3
20020cf8:	22b5      	movhi	r2, #181	; 0xb5
20020cfa:	62da      	str	r2, [r3, #44]	; 0x2c
20020cfc:	4770      	bx	lr
20020cfe:	bf00      	nop
20020d00:	20022500 	.word	0x20022500

20020d04 <check_mskd_range_fail(unsigned int)>:
20020d04:	281f      	cmp	r0, #31
20020d06:	4b03      	ldr	r3, [pc, #12]	; (20020d14 <check_mskd_range_fail(unsigned int)+0x10>)
20020d08:	bf94      	ite	ls
20020d0a:	22bf      	movls	r2, #191	; 0xbf
20020d0c:	22c1      	movhi	r2, #193	; 0xc1
20020d0e:	62da      	str	r2, [r3, #44]	; 0x2c
20020d10:	4770      	bx	lr
20020d12:	bf00      	nop
20020d14:	20022500 	.word	0x20022500

20020d18 <bits_extract_ne()>:
20020d18:	4b04      	ldr	r3, [pc, #16]	; (20020d2c <bits_extract_ne()+0x14>)
20020d1a:	2220      	movs	r2, #32
20020d1c:	605a      	str	r2, [r3, #4]
20020d1e:	685a      	ldr	r2, [r3, #4]
20020d20:	2a20      	cmp	r2, #32
20020d22:	bf14      	ite	ne
20020d24:	2202      	movne	r2, #2
20020d26:	2204      	moveq	r2, #4
20020d28:	605a      	str	r2, [r3, #4]
20020d2a:	4770      	bx	lr
20020d2c:	200226c0 	.word	0x200226c0

20020d30 <mskd_extract_geq()>:
20020d30:	f04f 52b0 	mov.w	r2, #369098752	; 0x16000000
20020d34:	4b04      	ldr	r3, [pc, #16]	; (20020d48 <mskd_extract_geq()+0x18>)
20020d36:	605a      	str	r2, [r3, #4]
20020d38:	685b      	ldr	r3, [r3, #4]
20020d3a:	4293      	cmp	r3, r2
20020d3c:	4b03      	ldr	r3, [pc, #12]	; (20020d4c <mskd_extract_geq()+0x1c>)
20020d3e:	bf2c      	ite	cs
20020d40:	2220      	movcs	r2, #32
20020d42:	2240      	movcc	r2, #64	; 0x40
20020d44:	605a      	str	r2, [r3, #4]
20020d46:	4770      	bx	lr
20020d48:	20022620 	.word	0x20022620
20020d4c:	200226c0 	.word	0x200226c0

20020d50 <shifted_val(regbits::Shft<unsigned long, mcu::Timer::Prescale>)>:
20020d50:	b410      	push	{r4}
20020d52:	4b05      	ldr	r3, [pc, #20]	; (20020d68 <shifted_val(regbits::Shft<unsigned long, mcu::Timer::Prescale>)+0x18>)
20020d54:	f04f 5438 	mov.w	r4, #771751936	; 0x2e000000
20020d58:	4a04      	ldr	r2, [pc, #16]	; (20020d6c <shifted_val(regbits::Shft<unsigned long, mcu::Timer::Prescale>)+0x1c>)
20020d5a:	605c      	str	r4, [r3, #4]
20020d5c:	685b      	ldr	r3, [r3, #4]
20020d5e:	bc10      	pop	{r4}
20020d60:	4018      	ands	r0, r3
20020d62:	40c8      	lsrs	r0, r1
20020d64:	62d0      	str	r0, [r2, #44]	; 0x2c
20020d66:	4770      	bx	lr
20020d68:	20022620 	.word	0x20022620
20020d6c:	20022500 	.word	0x20022500

20020d70 <call_shifted_const_val()>:
20020d70:	f04f 5078 	mov.w	r0, #1040187392	; 0x3e000000
20020d74:	2119      	movs	r1, #25
20020d76:	f7ff bfeb 	b.w	20020d50 <shifted_val(regbits::Shft<unsigned long, mcu::Timer::Prescale>)>
20020d7a:	bf00      	nop

20020d7c <call_shifted_var_val()>:
20020d7c:	f04f 5078 	mov.w	r0, #1040187392	; 0x3e000000
20020d80:	2119      	movs	r1, #25
20020d82:	f7ff bfe5 	b.w	20020d50 <shifted_val(regbits::Shft<unsigned long, mcu::Timer::Prescale>)>
20020d86:	bf00      	nop

20020d88 <call_shifted_global_val()>:
20020d88:	f04f 5078 	mov.w	r0, #1040187392	; 0x3e000000
20020d8c:	2119      	movs	r1, #25
20020d8e:	f7ff bfdf 	b.w	20020d50 <shifted_val(regbits::Shft<unsigned long, mcu::Timer::Prescale>)>
20020d92:	bf00      	nop

20020d94 <shifted_ref(regbits::Shft<unsigned long, mcu::Timer::Prescale> const&)>:
20020d94:	4b06      	ldr	r3, [pc, #24]	; (20020db0 <shifted_ref(regbits::Shft<unsigned long, mcu::Timer::Prescale> const&)+0x1c>)
20020d96:	f04f 5138 	mov.w	r1, #771751936	; 0x2e000000
20020d9a:	4a06      	ldr	r2, [pc, #24]	; (20020db4 <shifted_ref(regbits::Shft<unsigned long, mcu::Timer::Prescale> const&)+0x20>)
20020d9c:	b410      	push	{r4}
20020d9e:	6059      	str	r1, [r3, #4]
20020da0:	6804      	ldr	r4, [r0, #0]
20020da2:	685b      	ldr	r3, [r3, #4]
20020da4:	6841      	ldr	r1, [r0, #4]
20020da6:	4023      	ands	r3, r4
20020da8:	bc10      	pop	{r4}
20020daa:	40cb      	lsrs	r3, r1
20020dac:	62d3      	str	r3, [r2, #44]	; 0x2c
20020dae:	4770      	bx	lr
20020db0:	20022620 	.word	0x20022620
20020db4:	20022500 	.word	0x20022500

20020db8 <call_shifted_const_ref()>:
20020db8:	b500      	push	{lr}
20020dba:	4b06      	ldr	r3, [pc, #24]	; (20020dd4 <call_shifted_const_ref()+0x1c>)
20020dbc:	b082      	sub	sp, #8
20020dbe:	f103 0308 	add.w	r3, r3, #8
20020dc2:	cb0c      	ldmia	r3, {r2, r3}
20020dc4:	4668      	mov	r0, sp
20020dc6:	e88d 000c 	stmia.w	sp, {r2, r3}
20020dca:	f7ff ffe3 	bl	20020d94 <shifted_ref(regbits::Shft<unsigned long, mcu::Timer::Prescale> const&)>
20020dce:	b002      	add	sp, #8
20020dd0:	f85d fb04 	ldr.w	pc, [sp], #4
20020dd4:	200217a8 	.word	0x200217a8

20020dd8 <call_shifted_var_ref()>:
20020dd8:	b500      	push	{lr}
20020dda:	4b06      	ldr	r3, [pc, #24]	; (20020df4 <call_shifted_var_ref()+0x1c>)
20020ddc:	b082      	sub	sp, #8
20020dde:	f103 0310 	add.w	r3, r3, #16
20020de2:	cb0c      	ldmia	r3, {r2, r3}
20020de4:	4668      	mov	r0, sp
20020de6:	e88d 000c 	stmia.w	sp, {r2, r3}
20020dea:	f7ff ffd3 	bl	20020d94 <shifted_ref(regbits::Shft<unsigned long, mcu::Timer::Prescale> const&)>
20020dee:	b002      	add	sp, #8
20020df0:	f85d fb04 	ldr.w	pc, [sp], #4
20020df4:	200217a8 	.word	0x200217a8

20020df8 <call_shifted_global_ref()>:
20020df8:	b500      	push	{lr}
20020dfa:	4b06      	ldr	r3, [pc, #24]	; (20020e14 <call_shifted_global_ref()+0x1c>)
20020dfc:	b082      	sub	sp, #8
20020dfe:	f103 0308 	add.w	r3, r3, #8
20020e02:	cb0c      	ldmia	r3, {r2, r3}
20020e04:	4668      	mov	r0, sp
20020e06:	e88d 000c 	stmia.w	sp, {r2, r3}
20020e0a:	f7ff ffc3 	bl	20020d94 <shifted_ref(regbits::Shft<unsigned long, mcu::Timer::Prescale> const&)>
20020e0e:	b002      	add	sp, #8
20020e10:	f85d fb04 	ldr.w	pc, [sp], #4
20020e14:	200217a8 	.word	0x200217a8

20020e18 <copy_bits_val(regbits::Reg<unsigned long, mcu::Serial::Config>)>:
20020e18:	0642      	lsls	r2, r0, #25
20020e1a:	4b03      	ldr	r3, [pc, #12]	; (20020e28 <copy_bits_val(regbits::Reg<unsigned long, mcu::Serial::Config>)+0x10>)
20020e1c:	bf4c      	ite	mi
20020e1e:	2202      	movmi	r2, #2
20020e20:	2204      	movpl	r2, #4
20020e22:	605a      	str	r2, [r3, #4]
20020e24:	4770      	bx	lr
20020e26:	bf00      	nop
20020e28:	200226c0 	.word	0x200226c0

20020e2c <call_copy_bits_val()>:
20020e2c:	4b02      	ldr	r3, [pc, #8]	; (20020e38 <call_copy_bits_val()+0xc>)
20020e2e:	2240      	movs	r2, #64	; 0x40
20020e30:	605a      	str	r2, [r3, #4]
20020e32:	6858      	ldr	r0, [r3, #4]
20020e34:	f7ff bff0 	b.w	20020e18 <copy_bits_val(regbits::Reg<unsigned long, mcu::Serial::Config>)>
20020e38:	200226c0 	.word	0x200226c0

20020e3c <copy_bits_ref(regbits::Reg<unsigned long, mcu::Serial::Config> const&)>:
20020e3c:	6803      	ldr	r3, [r0, #0]
20020e3e:	f013 0f40 	tst.w	r3, #64	; 0x40
20020e42:	4b03      	ldr	r3, [pc, #12]	; (20020e50 <copy_bits_ref(regbits::Reg<unsigned long, mcu::Serial::Config> const&)+0x14>)
20020e44:	bf14      	ite	ne
20020e46:	2202      	movne	r2, #2
20020e48:	2204      	moveq	r2, #4
20020e4a:	605a      	str	r2, [r3, #4]
20020e4c:	4770      	bx	lr
20020e4e:	bf00      	nop
20020e50:	200226c0 	.word	0x200226c0

20020e54 <call_copy_bits_ref()>:
20020e54:	b500      	push	{lr}
20020e56:	2240      	movs	r2, #64	; 0x40
20020e58:	b081      	sub	sp, #4
20020e5a:	4b05      	ldr	r3, [pc, #20]	; (20020e70 <call_copy_bits_ref()+0x1c>)
20020e5c:	4668      	mov	r0, sp
20020e5e:	605a      	str	r2, [r3, #4]
20020e60:	685b      	ldr	r3, [r3, #4]
20020e62:	9300      	str	r3, [sp, #0]
20020e64:	f7ff ffea 	bl	20020e3c <copy_bits_ref(regbits::Reg<unsigned long, mcu::Serial::Config> const&)>
20020e68:	b001      	add	sp, #4
20020e6a:	f85d fb04 	ldr.w	pc, [sp], #4
20020e6e:	bf00      	nop
20020e70:	200226c0 	.word	0x200226c0

20020e74 <run>:
20020e74:	b510      	push	{r4, lr}
20020e76:	4cb3      	ldr	r4, [pc, #716]	; (20021144 <run+0x2d0>)
20020e78:	7823      	ldrb	r3, [r4, #0]
20020e7a:	2b00      	cmp	r3, #0
20020e7c:	f000 82e2 	beq.w	20021444 <run+0x5d0>
20020e80:	68a1      	ldr	r1, [r4, #8]
20020e82:	7b23      	ldrb	r3, [r4, #12]
20020e84:	b91b      	cbnz	r3, 20020e8e <run+0x1a>
20020e86:	4ab0      	ldr	r2, [pc, #704]	; (20021148 <run+0x2d4>)
20020e88:	2301      	movs	r3, #1
20020e8a:	6162      	str	r2, [r4, #20]
20020e8c:	7323      	strb	r3, [r4, #12]
20020e8e:	7e23      	ldrb	r3, [r4, #24]
20020e90:	b91b      	cbnz	r3, 20020e9a <run+0x26>
20020e92:	4aae      	ldr	r2, [pc, #696]	; (2002114c <run+0x2d8>)
20020e94:	2301      	movs	r3, #1
20020e96:	6222      	str	r2, [r4, #32]
20020e98:	7623      	strb	r3, [r4, #24]
20020e9a:	2200      	movs	r2, #0
20020e9c:	48ac      	ldr	r0, [pc, #688]	; (20021150 <run+0x2dc>)
20020e9e:	f000 fb3f 	bl	20021520 <do_test>
20020ea2:	68a1      	ldr	r1, [r4, #8]
20020ea4:	2201      	movs	r2, #1
20020ea6:	48ab      	ldr	r0, [pc, #684]	; (20021154 <run+0x2e0>)
20020ea8:	f000 fb3a 	bl	20021520 <do_test>
20020eac:	68a1      	ldr	r1, [r4, #8]
20020eae:	2202      	movs	r2, #2
20020eb0:	48a9      	ldr	r0, [pc, #676]	; (20021158 <run+0x2e4>)
20020eb2:	f000 fb35 	bl	20021520 <do_test>
20020eb6:	68a1      	ldr	r1, [r4, #8]
20020eb8:	2203      	movs	r2, #3
20020eba:	48a8      	ldr	r0, [pc, #672]	; (2002115c <run+0x2e8>)
20020ebc:	f000 fb30 	bl	20021520 <do_test>
20020ec0:	68a1      	ldr	r1, [r4, #8]
20020ec2:	2204      	movs	r2, #4
20020ec4:	48a6      	ldr	r0, [pc, #664]	; (20021160 <run+0x2ec>)
20020ec6:	f000 fb2b 	bl	20021520 <do_test>
20020eca:	68a1      	ldr	r1, [r4, #8]
20020ecc:	2205      	movs	r2, #5
20020ece:	48a5      	ldr	r0, [pc, #660]	; (20021164 <run+0x2f0>)
20020ed0:	f000 fb26 	bl	20021520 <do_test>
20020ed4:	68a1      	ldr	r1, [r4, #8]
20020ed6:	2206      	movs	r2, #6
20020ed8:	48a3      	ldr	r0, [pc, #652]	; (20021168 <run+0x2f4>)
20020eda:	f000 fb21 	bl	20021520 <do_test>
20020ede:	68a1      	ldr	r1, [r4, #8]
20020ee0:	2207      	movs	r2, #7
20020ee2:	48a2      	ldr	r0, [pc, #648]	; (2002116c <run+0x2f8>)
20020ee4:	f000 fb1c 	bl	20021520 <do_test>
20020ee8:	68a1      	ldr	r1, [r4, #8]
20020eea:	2208      	movs	r2, #8
20020eec:	48a0      	ldr	r0, [pc, #640]	; (20021170 <run+0x2fc>)
20020eee:	f000 fb17 	bl	20021520 <do_test>
20020ef2:	68a1      	ldr	r1, [r4, #8]
20020ef4:	2209      	movs	r2, #9
20020ef6:	489f      	ldr	r0, [pc, #636]	; (20021174 <run+0x300>)
20020ef8:	f000 fb12 	bl	20021520 <do_test>
20020efc:	68a1      	ldr	r1, [r4, #8]
20020efe:	220a      	movs	r2, #10
20020f00:	489d      	ldr	r0, [pc, #628]	; (20021178 <run+0x304>)
20020f02:	f000 fb0d 	bl	20021520 <do_test>
20020f06:	68a1      	ldr	r1, [r4, #8]
20020f08:	220b      	movs	r2, #11
20020f0a:	489c      	ldr	r0, [pc, #624]	; (2002117c <run+0x308>)
20020f0c:	f000 fb08 	bl	20021520 <do_test>
20020f10:	68a1      	ldr	r1, [r4, #8]
20020f12:	220c      	movs	r2, #12
20020f14:	489a      	ldr	r0, [pc, #616]	; (20021180 <run+0x30c>)
20020f16:	f000 fb03 	bl	20021520 <do_test>
20020f1a:	68a1      	ldr	r1, [r4, #8]
20020f1c:	220d      	movs	r2, #13
20020f1e:	4899      	ldr	r0, [pc, #612]	; (20021184 <run+0x310>)
20020f20:	f000 fafe 	bl	20021520 <do_test>
20020f24:	68a1      	ldr	r1, [r4, #8]
20020f26:	220e      	movs	r2, #14
20020f28:	4897      	ldr	r0, [pc, #604]	; (20021188 <run+0x314>)
20020f2a:	f000 faf9 	bl	20021520 <do_test>
20020f2e:	68a1      	ldr	r1, [r4, #8]
20020f30:	220f      	movs	r2, #15
20020f32:	4896      	ldr	r0, [pc, #600]	; (2002118c <run+0x318>)
20020f34:	f000 faf4 	bl	20021520 <do_test>
20020f38:	68a1      	ldr	r1, [r4, #8]
20020f3a:	2210      	movs	r2, #16
20020f3c:	4894      	ldr	r0, [pc, #592]	; (20021190 <run+0x31c>)
20020f3e:	f000 faef 	bl	20021520 <do_test>
20020f42:	68a1      	ldr	r1, [r4, #8]
20020f44:	2211      	movs	r2, #17
20020f46:	4893      	ldr	r0, [pc, #588]	; (20021194 <run+0x320>)
20020f48:	f000 faea 	bl	20021520 <do_test>
20020f4c:	68a1      	ldr	r1, [r4, #8]
20020f4e:	2212      	movs	r2, #18
20020f50:	4891      	ldr	r0, [pc, #580]	; (20021198 <run+0x324>)
20020f52:	f000 fae5 	bl	20021520 <do_test>
20020f56:	68a1      	ldr	r1, [r4, #8]
20020f58:	2213      	movs	r2, #19
20020f5a:	4890      	ldr	r0, [pc, #576]	; (2002119c <run+0x328>)
20020f5c:	f000 fae0 	bl	20021520 <do_test>
20020f60:	68a1      	ldr	r1, [r4, #8]
20020f62:	2214      	movs	r2, #20
20020f64:	488e      	ldr	r0, [pc, #568]	; (200211a0 <run+0x32c>)
20020f66:	f000 fadb 	bl	20021520 <do_test>
20020f6a:	68a1      	ldr	r1, [r4, #8]
20020f6c:	2215      	movs	r2, #21
20020f6e:	488d      	ldr	r0, [pc, #564]	; (200211a4 <run+0x330>)
20020f70:	f000 fad6 	bl	20021520 <do_test>
20020f74:	68a1      	ldr	r1, [r4, #8]
20020f76:	2216      	movs	r2, #22
20020f78:	488b      	ldr	r0, [pc, #556]	; (200211a8 <run+0x334>)
20020f7a:	f000 fad1 	bl	20021520 <do_test>
20020f7e:	68a1      	ldr	r1, [r4, #8]
20020f80:	2217      	movs	r2, #23
20020f82:	488a      	ldr	r0, [pc, #552]	; (200211ac <run+0x338>)
20020f84:	f000 facc 	bl	20021520 <do_test>
20020f88:	68a1      	ldr	r1, [r4, #8]
20020f8a:	2218      	movs	r2, #24
20020f8c:	4888      	ldr	r0, [pc, #544]	; (200211b0 <run+0x33c>)
20020f8e:	f000 fac7 	bl	20021520 <do_test>
20020f92:	68a1      	ldr	r1, [r4, #8]
20020f94:	2219      	movs	r2, #25
20020f96:	4887      	ldr	r0, [pc, #540]	; (200211b4 <run+0x340>)
20020f98:	f000 fac2 	bl	20021520 <do_test>
20020f9c:	68a1      	ldr	r1, [r4, #8]
20020f9e:	221a      	movs	r2, #26
20020fa0:	4885      	ldr	r0, [pc, #532]	; (200211b8 <run+0x344>)
20020fa2:	f000 fabd 	bl	20021520 <do_test>
20020fa6:	68a1      	ldr	r1, [r4, #8]
20020fa8:	221b      	movs	r2, #27
20020faa:	4884      	ldr	r0, [pc, #528]	; (200211bc <run+0x348>)
20020fac:	f000 fab8 	bl	20021520 <do_test>
20020fb0:	68a1      	ldr	r1, [r4, #8]
20020fb2:	221c      	movs	r2, #28
20020fb4:	4882      	ldr	r0, [pc, #520]	; (200211c0 <run+0x34c>)
20020fb6:	f000 fab3 	bl	20021520 <do_test>
20020fba:	68a1      	ldr	r1, [r4, #8]
20020fbc:	221d      	movs	r2, #29
20020fbe:	4881      	ldr	r0, [pc, #516]	; (200211c4 <run+0x350>)
20020fc0:	f000 faae 	bl	20021520 <do_test>
20020fc4:	68a1      	ldr	r1, [r4, #8]
20020fc6:	221e      	movs	r2, #30
20020fc8:	487f      	ldr	r0, [pc, #508]	; (200211c8 <run+0x354>)
20020fca:	f000 faa9 	bl	20021520 <do_test>
20020fce:	68a1      	ldr	r1, [r4, #8]
20020fd0:	221f      	movs	r2, #31
20020fd2:	487e      	ldr	r0, [pc, #504]	; (200211cc <run+0x358>)
20020fd4:	f000 faa4 	bl	20021520 <do_test>
20020fd8:	68a1      	ldr	r1, [r4, #8]
20020fda:	2220      	movs	r2, #32
20020fdc:	487c      	ldr	r0, [pc, #496]	; (200211d0 <run+0x35c>)
20020fde:	f000 fa9f 	bl	20021520 <do_test>
20020fe2:	68a1      	ldr	r1, [r4, #8]
20020fe4:	2221      	movs	r2, #33	; 0x21
20020fe6:	487b      	ldr	r0, [pc, #492]	; (200211d4 <run+0x360>)
20020fe8:	f000 fa9a 	bl	20021520 <do_test>
20020fec:	68a1      	ldr	r1, [r4, #8]
20020fee:	2222      	movs	r2, #34	; 0x22
20020ff0:	4879      	ldr	r0, [pc, #484]	; (200211d8 <run+0x364>)
20020ff2:	f000 fa95 	bl	20021520 <do_test>
20020ff6:	68a1      	ldr	r1, [r4, #8]
20020ff8:	2223      	movs	r2, #35	; 0x23
20020ffa:	4878      	ldr	r0, [pc, #480]	; (200211dc <run+0x368>)
20020ffc:	f000 fa90 	bl	20021520 <do_test>
20021000:	68a1      	ldr	r1, [r4, #8]
20021002:	2224      	movs	r2, #36	; 0x24
20021004:	4876      	ldr	r0, [pc, #472]	; (200211e0 <run+0x36c>)
20021006:	f000 fa8b 	bl	20021520 <do_test>
2002100a:	6961      	ldr	r1, [r4, #20]
2002100c:	2225      	movs	r2, #37	; 0x25
2002100e:	4875      	ldr	r0, [pc, #468]	; (200211e4 <run+0x370>)
20021010:	f000 fa86 	bl	20021520 <do_test>
20021014:	6961      	ldr	r1, [r4, #20]
20021016:	2226      	movs	r2, #38	; 0x26
20021018:	4873      	ldr	r0, [pc, #460]	; (200211e8 <run+0x374>)
2002101a:	f000 fa81 	bl	20021520 <do_test>
2002101e:	6961      	ldr	r1, [r4, #20]
20021020:	2227      	movs	r2, #39	; 0x27
20021022:	4872      	ldr	r0, [pc, #456]	; (200211ec <run+0x378>)
20021024:	f000 fa7c 	bl	20021520 <do_test>
20021028:	68a1      	ldr	r1, [r4, #8]
2002102a:	2228      	movs	r2, #40	; 0x28
2002102c:	4870      	ldr	r0, [pc, #448]	; (200211f0 <run+0x37c>)
2002102e:	f000 fa77 	bl	20021520 <do_test>
20021032:	68a1      	ldr	r1, [r4, #8]
20021034:	2229      	movs	r2, #41	; 0x29
20021036:	486f      	ldr	r0, [pc, #444]	; (200211f4 <run+0x380>)
20021038:	f000 fa72 	bl	20021520 <do_test>
2002103c:	68a1      	ldr	r1, [r4, #8]
2002103e:	222a      	movs	r2, #42	; 0x2a
20021040:	486d      	ldr	r0, [pc, #436]	; (200211f8 <run+0x384>)
20021042:	f000 fa6d 	bl	20021520 <do_test>
20021046:	68a1      	ldr	r1, [r4, #8]
20021048:	222b      	movs	r2, #43	; 0x2b
2002104a:	486c      	ldr	r0, [pc, #432]	; (200211fc <run+0x388>)
2002104c:	f000 fa68 	bl	20021520 <do_test>
20021050:	68a1      	ldr	r1, [r4, #8]
20021052:	222c      	movs	r2, #44	; 0x2c
20021054:	486a      	ldr	r0, [pc, #424]	; (20021200 <run+0x38c>)
20021056:	f000 fa63 	bl	20021520 <do_test>
2002105a:	6a21      	ldr	r1, [r4, #32]
2002105c:	222d      	movs	r2, #45	; 0x2d
2002105e:	4869      	ldr	r0, [pc, #420]	; (20021204 <run+0x390>)
20021060:	f000 fa5e 	bl	20021520 <do_test>
20021064:	68a1      	ldr	r1, [r4, #8]
20021066:	222e      	movs	r2, #46	; 0x2e
20021068:	4867      	ldr	r0, [pc, #412]	; (20021208 <run+0x394>)
2002106a:	f000 fa59 	bl	20021520 <do_test>
2002106e:	68a1      	ldr	r1, [r4, #8]
20021070:	222f      	movs	r2, #47	; 0x2f
20021072:	4866      	ldr	r0, [pc, #408]	; (2002120c <run+0x398>)
20021074:	f000 fa54 	bl	20021520 <do_test>
20021078:	68a1      	ldr	r1, [r4, #8]
2002107a:	2230      	movs	r2, #48	; 0x30
2002107c:	4864      	ldr	r0, [pc, #400]	; (20021210 <run+0x39c>)
2002107e:	f000 fa4f 	bl	20021520 <do_test>
20021082:	68a1      	ldr	r1, [r4, #8]
20021084:	2231      	movs	r2, #49	; 0x31
20021086:	4863      	ldr	r0, [pc, #396]	; (20021214 <run+0x3a0>)
20021088:	f000 fa4a 	bl	20021520 <do_test>
2002108c:	68a1      	ldr	r1, [r4, #8]
2002108e:	2232      	movs	r2, #50	; 0x32
20021090:	4861      	ldr	r0, [pc, #388]	; (20021218 <run+0x3a4>)
20021092:	f000 fa45 	bl	20021520 <do_test>
20021096:	68a1      	ldr	r1, [r4, #8]
20021098:	2233      	movs	r2, #51	; 0x33
2002109a:	4860      	ldr	r0, [pc, #384]	; (2002121c <run+0x3a8>)
2002109c:	f000 fa40 	bl	20021520 <do_test>
200210a0:	68a1      	ldr	r1, [r4, #8]
200210a2:	2234      	movs	r2, #52	; 0x34
200210a4:	485e      	ldr	r0, [pc, #376]	; (20021220 <run+0x3ac>)
200210a6:	f000 fa3b 	bl	20021520 <do_test>
200210aa:	68a1      	ldr	r1, [r4, #8]
200210ac:	2235      	movs	r2, #53	; 0x35
200210ae:	485d      	ldr	r0, [pc, #372]	; (20021224 <run+0x3b0>)
200210b0:	f000 fa36 	bl	20021520 <do_test>
200210b4:	68a1      	ldr	r1, [r4, #8]
200210b6:	2236      	movs	r2, #54	; 0x36
200210b8:	485b      	ldr	r0, [pc, #364]	; (20021228 <run+0x3b4>)
200210ba:	f000 fa31 	bl	20021520 <do_test>
200210be:	68a1      	ldr	r1, [r4, #8]
200210c0:	2237      	movs	r2, #55	; 0x37
200210c2:	485a      	ldr	r0, [pc, #360]	; (2002122c <run+0x3b8>)
200210c4:	f000 fa2c 	bl	20021520 <do_test>
200210c8:	68a1      	ldr	r1, [r4, #8]
200210ca:	2238      	movs	r2, #56	; 0x38
200210cc:	4858      	ldr	r0, [pc, #352]	; (20021230 <run+0x3bc>)
200210ce:	f000 fa27 	bl	20021520 <do_test>
200210d2:	68a1      	ldr	r1, [r4, #8]
200210d4:	2239      	movs	r2, #57	; 0x39
200210d6:	4857      	ldr	r0, [pc, #348]	; (20021234 <run+0x3c0>)
200210d8:	f000 fa22 	bl	20021520 <do_test>
200210dc:	68a1      	ldr	r1, [r4, #8]
200210de:	223a      	movs	r2, #58	; 0x3a
200210e0:	4855      	ldr	r0, [pc, #340]	; (20021238 <run+0x3c4>)
200210e2:	f000 fa1d 	bl	20021520 <do_test>
200210e6:	68a1      	ldr	r1, [r4, #8]
200210e8:	223b      	movs	r2, #59	; 0x3b
200210ea:	4854      	ldr	r0, [pc, #336]	; (2002123c <run+0x3c8>)
200210ec:	f000 fa18 	bl	20021520 <do_test>
200210f0:	68a1      	ldr	r1, [r4, #8]
200210f2:	223c      	movs	r2, #60	; 0x3c
200210f4:	4852      	ldr	r0, [pc, #328]	; (20021240 <run+0x3cc>)
200210f6:	f000 fa13 	bl	20021520 <do_test>
200210fa:	68a1      	ldr	r1, [r4, #8]
200210fc:	223d      	movs	r2, #61	; 0x3d
200210fe:	4851      	ldr	r0, [pc, #324]	; (20021244 <run+0x3d0>)
20021100:	f000 fa0e 	bl	20021520 <do_test>
20021104:	68a1      	ldr	r1, [r4, #8]
20021106:	223e      	movs	r2, #62	; 0x3e
20021108:	484f      	ldr	r0, [pc, #316]	; (20021248 <run+0x3d4>)
2002110a:	f000 fa09 	bl	20021520 <do_test>
2002110e:	68a1      	ldr	r1, [r4, #8]
20021110:	223f      	movs	r2, #63	; 0x3f
20021112:	484e      	ldr	r0, [pc, #312]	; (2002124c <run+0x3d8>)
20021114:	f000 fa04 	bl	20021520 <do_test>
20021118:	6961      	ldr	r1, [r4, #20]
2002111a:	2240      	movs	r2, #64	; 0x40
2002111c:	484c      	ldr	r0, [pc, #304]	; (20021250 <run+0x3dc>)
2002111e:	f000 f9ff 	bl	20021520 <do_test>
20021122:	6961      	ldr	r1, [r4, #20]
20021124:	2241      	movs	r2, #65	; 0x41
20021126:	484b      	ldr	r0, [pc, #300]	; (20021254 <run+0x3e0>)
20021128:	f000 f9fa 	bl	20021520 <do_test>
2002112c:	6961      	ldr	r1, [r4, #20]
2002112e:	2242      	movs	r2, #66	; 0x42
20021130:	4849      	ldr	r0, [pc, #292]	; (20021258 <run+0x3e4>)
20021132:	f000 f9f5 	bl	20021520 <do_test>
20021136:	68a1      	ldr	r1, [r4, #8]
20021138:	2243      	movs	r2, #67	; 0x43
2002113a:	4848      	ldr	r0, [pc, #288]	; (2002125c <run+0x3e8>)
2002113c:	f000 f9f0 	bl	20021520 <do_test>
20021140:	e08e      	b.n	20021260 <run+0x3ec>
20021142:	bf00      	nop
20021144:	200217c0 	.word	0x200217c0
20021148:	20022624 	.word	0x20022624
2002114c:	2002252c 	.word	0x2002252c
20021150:	200201f1 	.word	0x200201f1
20021154:	200201fd 	.word	0x200201fd
20021158:	20020209 	.word	0x20020209
2002115c:	20020219 	.word	0x20020219
20021160:	20020229 	.word	0x20020229
20021164:	20020239 	.word	0x20020239
20021168:	20020249 	.word	0x20020249
2002116c:	20020259 	.word	0x20020259
20021170:	20020269 	.word	0x20020269
20021174:	20020279 	.word	0x20020279
20021178:	20020289 	.word	0x20020289
2002117c:	20020295 	.word	0x20020295
20021180:	200202a1 	.word	0x200202a1
20021184:	200202ad 	.word	0x200202ad
20021188:	200202b9 	.word	0x200202b9
2002118c:	200202c9 	.word	0x200202c9
20021190:	200202d9 	.word	0x200202d9
20021194:	200202e9 	.word	0x200202e9
20021198:	200202f9 	.word	0x200202f9
2002119c:	2002030d 	.word	0x2002030d
200211a0:	20020321 	.word	0x20020321
200211a4:	20020331 	.word	0x20020331
200211a8:	20020341 	.word	0x20020341
200211ac:	20020359 	.word	0x20020359
200211b0:	20020371 	.word	0x20020371
200211b4:	2002037d 	.word	0x2002037d
200211b8:	20020389 	.word	0x20020389
200211bc:	20020399 	.word	0x20020399
200211c0:	200203a9 	.word	0x200203a9
200211c4:	200203b5 	.word	0x200203b5
200211c8:	200203c1 	.word	0x200203c1
200211cc:	200203cd 	.word	0x200203cd
200211d0:	200203d9 	.word	0x200203d9
200211d4:	200203e9 	.word	0x200203e9
200211d8:	200203fd 	.word	0x200203fd
200211dc:	20020425 	.word	0x20020425
200211e0:	20020441 	.word	0x20020441
200211e4:	20020465 	.word	0x20020465
200211e8:	2002047d 	.word	0x2002047d
200211ec:	200204a1 	.word	0x200204a1
200211f0:	200204c5 	.word	0x200204c5
200211f4:	200204f5 	.word	0x200204f5
200211f8:	20020525 	.word	0x20020525
200211fc:	20020549 	.word	0x20020549
20021200:	20020561 	.word	0x20020561
20021204:	20020575 	.word	0x20020575
20021208:	200208f5 	.word	0x200208f5
2002120c:	200208ed 	.word	0x200208ed
20021210:	20020929 	.word	0x20020929
20021214:	20020915 	.word	0x20020915
20021218:	2002096d 	.word	0x2002096d
2002121c:	20020965 	.word	0x20020965
20021220:	200209b5 	.word	0x200209b5
20021224:	20020999 	.word	0x20020999
20021228:	200209f1 	.word	0x200209f1
2002122c:	20020a05 	.word	0x20020a05
20021230:	20020a19 	.word	0x20020a19
20021234:	20020a31 	.word	0x20020a31
20021238:	20020a59 	.word	0x20020a59
2002123c:	20020a85 	.word	0x20020a85
20021240:	20020a9d 	.word	0x20020a9d
20021244:	20020ab9 	.word	0x20020ab9
20021248:	20020ad5 	.word	0x20020ad5
2002124c:	20020af1 	.word	0x20020af1
20021250:	20020b05 	.word	0x20020b05
20021254:	20020b31 	.word	0x20020b31
20021258:	20020b79 	.word	0x20020b79
2002125c:	20020ba9 	.word	0x20020ba9
20021260:	6a21      	ldr	r1, [r4, #32]
20021262:	2244      	movs	r2, #68	; 0x44
20021264:	487a      	ldr	r0, [pc, #488]	; (20021450 <run+0x5dc>)
20021266:	f000 f95b 	bl	20021520 <do_test>
2002126a:	6a21      	ldr	r1, [r4, #32]
2002126c:	2245      	movs	r2, #69	; 0x45
2002126e:	4879      	ldr	r0, [pc, #484]	; (20021454 <run+0x5e0>)
20021270:	f000 f956 	bl	20021520 <do_test>
20021274:	68a1      	ldr	r1, [r4, #8]
20021276:	2246      	movs	r2, #70	; 0x46
20021278:	4877      	ldr	r0, [pc, #476]	; (20021458 <run+0x5e4>)
2002127a:	f000 f951 	bl	20021520 <do_test>
2002127e:	68a1      	ldr	r1, [r4, #8]
20021280:	2247      	movs	r2, #71	; 0x47
20021282:	4876      	ldr	r0, [pc, #472]	; (2002145c <run+0x5e8>)
20021284:	f000 f94c 	bl	20021520 <do_test>
20021288:	6a21      	ldr	r1, [r4, #32]
2002128a:	2248      	movs	r2, #72	; 0x48
2002128c:	4874      	ldr	r0, [pc, #464]	; (20021460 <run+0x5ec>)
2002128e:	f000 f947 	bl	20021520 <do_test>
20021292:	6a21      	ldr	r1, [r4, #32]
20021294:	2249      	movs	r2, #73	; 0x49
20021296:	4873      	ldr	r0, [pc, #460]	; (20021464 <run+0x5f0>)
20021298:	f000 f942 	bl	20021520 <do_test>
2002129c:	68a1      	ldr	r1, [r4, #8]
2002129e:	224a      	movs	r2, #74	; 0x4a
200212a0:	4871      	ldr	r0, [pc, #452]	; (20021468 <run+0x5f4>)
200212a2:	f000 f93d 	bl	20021520 <do_test>
200212a6:	68a1      	ldr	r1, [r4, #8]
200212a8:	224b      	movs	r2, #75	; 0x4b
200212aa:	4870      	ldr	r0, [pc, #448]	; (2002146c <run+0x5f8>)
200212ac:	f000 f938 	bl	20021520 <do_test>
200212b0:	68a1      	ldr	r1, [r4, #8]
200212b2:	224c      	movs	r2, #76	; 0x4c
200212b4:	486e      	ldr	r0, [pc, #440]	; (20021470 <run+0x5fc>)
200212b6:	f000 f933 	bl	20021520 <do_test>
200212ba:	68a1      	ldr	r1, [r4, #8]
200212bc:	224d      	movs	r2, #77	; 0x4d
200212be:	486d      	ldr	r0, [pc, #436]	; (20021474 <run+0x600>)
200212c0:	f000 f92e 	bl	20021520 <do_test>
200212c4:	68a1      	ldr	r1, [r4, #8]
200212c6:	224e      	movs	r2, #78	; 0x4e
200212c8:	486b      	ldr	r0, [pc, #428]	; (20021478 <run+0x604>)
200212ca:	f000 f929 	bl	20021520 <do_test>
200212ce:	68a1      	ldr	r1, [r4, #8]
200212d0:	224f      	movs	r2, #79	; 0x4f
200212d2:	486a      	ldr	r0, [pc, #424]	; (2002147c <run+0x608>)
200212d4:	f000 f924 	bl	20021520 <do_test>
200212d8:	68a1      	ldr	r1, [r4, #8]
200212da:	2250      	movs	r2, #80	; 0x50
200212dc:	4868      	ldr	r0, [pc, #416]	; (20021480 <run+0x60c>)
200212de:	f000 f91f 	bl	20021520 <do_test>
200212e2:	68a1      	ldr	r1, [r4, #8]
200212e4:	2251      	movs	r2, #81	; 0x51
200212e6:	4866      	ldr	r0, [pc, #408]	; (20021480 <run+0x60c>)
200212e8:	f000 f91a 	bl	20021520 <do_test>
200212ec:	68a1      	ldr	r1, [r4, #8]
200212ee:	2252      	movs	r2, #82	; 0x52
200212f0:	4864      	ldr	r0, [pc, #400]	; (20021484 <run+0x610>)
200212f2:	f000 f915 	bl	20021520 <do_test>
200212f6:	68a1      	ldr	r1, [r4, #8]
200212f8:	2253      	movs	r2, #83	; 0x53
200212fa:	4863      	ldr	r0, [pc, #396]	; (20021488 <run+0x614>)
200212fc:	f000 f910 	bl	20021520 <do_test>
20021300:	68a1      	ldr	r1, [r4, #8]
20021302:	2254      	movs	r2, #84	; 0x54
20021304:	4861      	ldr	r0, [pc, #388]	; (2002148c <run+0x618>)
20021306:	f000 f90b 	bl	20021520 <do_test>
2002130a:	68a1      	ldr	r1, [r4, #8]
2002130c:	2255      	movs	r2, #85	; 0x55
2002130e:	4860      	ldr	r0, [pc, #384]	; (20021490 <run+0x61c>)
20021310:	f000 f906 	bl	20021520 <do_test>
20021314:	68a1      	ldr	r1, [r4, #8]
20021316:	2256      	movs	r2, #86	; 0x56
20021318:	485e      	ldr	r0, [pc, #376]	; (20021494 <run+0x620>)
2002131a:	f000 f901 	bl	20021520 <do_test>
2002131e:	68a1      	ldr	r1, [r4, #8]
20021320:	2257      	movs	r2, #87	; 0x57
20021322:	485b      	ldr	r0, [pc, #364]	; (20021490 <run+0x61c>)
20021324:	f000 f8fc 	bl	20021520 <do_test>
20021328:	68a1      	ldr	r1, [r4, #8]
2002132a:	2258      	movs	r2, #88	; 0x58
2002132c:	485a      	ldr	r0, [pc, #360]	; (20021498 <run+0x624>)
2002132e:	f000 f8f7 	bl	20021520 <do_test>
20021332:	68a1      	ldr	r1, [r4, #8]
20021334:	2259      	movs	r2, #89	; 0x59
20021336:	4859      	ldr	r0, [pc, #356]	; (2002149c <run+0x628>)
20021338:	f000 f8f2 	bl	20021520 <do_test>
2002133c:	6a21      	ldr	r1, [r4, #32]
2002133e:	225a      	movs	r2, #90	; 0x5a
20021340:	4857      	ldr	r0, [pc, #348]	; (200214a0 <run+0x62c>)
20021342:	f000 f8ed 	bl	20021520 <do_test>
20021346:	6a21      	ldr	r1, [r4, #32]
20021348:	225b      	movs	r2, #91	; 0x5b
2002134a:	4856      	ldr	r0, [pc, #344]	; (200214a4 <run+0x630>)
2002134c:	f000 f8e8 	bl	20021520 <do_test>
20021350:	68a1      	ldr	r1, [r4, #8]
20021352:	225c      	movs	r2, #92	; 0x5c
20021354:	4854      	ldr	r0, [pc, #336]	; (200214a8 <run+0x634>)
20021356:	f000 f8e3 	bl	20021520 <do_test>
2002135a:	6a21      	ldr	r1, [r4, #32]
2002135c:	225d      	movs	r2, #93	; 0x5d
2002135e:	4853      	ldr	r0, [pc, #332]	; (200214ac <run+0x638>)
20021360:	f000 f8de 	bl	20021520 <do_test>
20021364:	6a21      	ldr	r1, [r4, #32]
20021366:	225e      	movs	r2, #94	; 0x5e
20021368:	4851      	ldr	r0, [pc, #324]	; (200214b0 <run+0x63c>)
2002136a:	f000 f8d9 	bl	20021520 <do_test>
2002136e:	68a1      	ldr	r1, [r4, #8]
20021370:	225f      	movs	r2, #95	; 0x5f
20021372:	4850      	ldr	r0, [pc, #320]	; (200214b4 <run+0x640>)
20021374:	f000 f8d4 	bl	20021520 <do_test>
20021378:	68a1      	ldr	r1, [r4, #8]
2002137a:	2260      	movs	r2, #96	; 0x60
2002137c:	484e      	ldr	r0, [pc, #312]	; (200214b8 <run+0x644>)
2002137e:	f000 f8cf 	bl	20021520 <do_test>
20021382:	68a1      	ldr	r1, [r4, #8]
20021384:	2261      	movs	r2, #97	; 0x61
20021386:	484d      	ldr	r0, [pc, #308]	; (200214bc <run+0x648>)
20021388:	f000 f8ca 	bl	20021520 <do_test>
2002138c:	68a1      	ldr	r1, [r4, #8]
2002138e:	2262      	movs	r2, #98	; 0x62
20021390:	484b      	ldr	r0, [pc, #300]	; (200214c0 <run+0x64c>)
20021392:	f000 f8c5 	bl	20021520 <do_test>
20021396:	6a21      	ldr	r1, [r4, #32]
20021398:	2263      	movs	r2, #99	; 0x63
2002139a:	484a      	ldr	r0, [pc, #296]	; (200214c4 <run+0x650>)
2002139c:	f000 f8c0 	bl	20021520 <do_test>
200213a0:	6a21      	ldr	r1, [r4, #32]
200213a2:	2264      	movs	r2, #100	; 0x64
200213a4:	4848      	ldr	r0, [pc, #288]	; (200214c8 <run+0x654>)
200213a6:	f000 f8bb 	bl	20021520 <do_test>
200213aa:	6a21      	ldr	r1, [r4, #32]
200213ac:	2265      	movs	r2, #101	; 0x65
200213ae:	4847      	ldr	r0, [pc, #284]	; (200214cc <run+0x658>)
200213b0:	f000 f8b6 	bl	20021520 <do_test>
200213b4:	6a21      	ldr	r1, [r4, #32]
200213b6:	2266      	movs	r2, #102	; 0x66
200213b8:	4845      	ldr	r0, [pc, #276]	; (200214d0 <run+0x65c>)
200213ba:	f000 f8b1 	bl	20021520 <do_test>
200213be:	6a21      	ldr	r1, [r4, #32]
200213c0:	2267      	movs	r2, #103	; 0x67
200213c2:	4844      	ldr	r0, [pc, #272]	; (200214d4 <run+0x660>)
200213c4:	f000 f8ac 	bl	20021520 <do_test>
200213c8:	6a21      	ldr	r1, [r4, #32]
200213ca:	2268      	movs	r2, #104	; 0x68
200213cc:	4842      	ldr	r0, [pc, #264]	; (200214d8 <run+0x664>)
200213ce:	f000 f8a7 	bl	20021520 <do_test>
200213d2:	68a1      	ldr	r1, [r4, #8]
200213d4:	2269      	movs	r2, #105	; 0x69
200213d6:	4841      	ldr	r0, [pc, #260]	; (200214dc <run+0x668>)
200213d8:	f000 f8a2 	bl	20021520 <do_test>
200213dc:	68a1      	ldr	r1, [r4, #8]
200213de:	226a      	movs	r2, #106	; 0x6a
200213e0:	483f      	ldr	r0, [pc, #252]	; (200214e0 <run+0x66c>)
200213e2:	f000 f89d 	bl	20021520 <do_test>
200213e6:	68a1      	ldr	r1, [r4, #8]
200213e8:	226b      	movs	r2, #107	; 0x6b
200213ea:	483e      	ldr	r0, [pc, #248]	; (200214e4 <run+0x670>)
200213ec:	f000 f898 	bl	20021520 <do_test>
200213f0:	68a1      	ldr	r1, [r4, #8]
200213f2:	226c      	movs	r2, #108	; 0x6c
200213f4:	483c      	ldr	r0, [pc, #240]	; (200214e8 <run+0x674>)
200213f6:	f000 f893 	bl	20021520 <do_test>
200213fa:	68a1      	ldr	r1, [r4, #8]
200213fc:	226d      	movs	r2, #109	; 0x6d
200213fe:	483b      	ldr	r0, [pc, #236]	; (200214ec <run+0x678>)
20021400:	f000 f88e 	bl	20021520 <do_test>
20021404:	68a1      	ldr	r1, [r4, #8]
20021406:	226e      	movs	r2, #110	; 0x6e
20021408:	4839      	ldr	r0, [pc, #228]	; (200214f0 <run+0x67c>)
2002140a:	f000 f889 	bl	20021520 <do_test>
2002140e:	68a1      	ldr	r1, [r4, #8]
20021410:	226f      	movs	r2, #111	; 0x6f
20021412:	4838      	ldr	r0, [pc, #224]	; (200214f4 <run+0x680>)
20021414:	f000 f884 	bl	20021520 <do_test>
20021418:	68a1      	ldr	r1, [r4, #8]
2002141a:	2270      	movs	r2, #112	; 0x70
2002141c:	4836      	ldr	r0, [pc, #216]	; (200214f8 <run+0x684>)
2002141e:	f000 f87f 	bl	20021520 <do_test>
20021422:	68a1      	ldr	r1, [r4, #8]
20021424:	2271      	movs	r2, #113	; 0x71
20021426:	4835      	ldr	r0, [pc, #212]	; (200214fc <run+0x688>)
20021428:	f000 f87a 	bl	20021520 <do_test>
2002142c:	68a1      	ldr	r1, [r4, #8]
2002142e:	2272      	movs	r2, #114	; 0x72
20021430:	4833      	ldr	r0, [pc, #204]	; (20021500 <run+0x68c>)
20021432:	f000 f875 	bl	20021520 <do_test>
20021436:	68a1      	ldr	r1, [r4, #8]
20021438:	2273      	movs	r2, #115	; 0x73
2002143a:	4832      	ldr	r0, [pc, #200]	; (20021504 <run+0x690>)
2002143c:	e8bd 4010 	ldmia.w	sp!, {r4, lr}
20021440:	f000 b86e 	b.w	20021520 <do_test>
20021444:	4930      	ldr	r1, [pc, #192]	; (20021508 <run+0x694>)
20021446:	2301      	movs	r3, #1
20021448:	60a1      	str	r1, [r4, #8]
2002144a:	7023      	strb	r3, [r4, #0]
2002144c:	e519      	b.n	20020e82 <run+0xe>
2002144e:	bf00      	nop
20021450:	20020be5 	.word	0x20020be5
20021454:	20020c21 	.word	0x20020c21
20021458:	20020c71 	.word	0x20020c71
2002145c:	20020c99 	.word	0x20020c99
20021460:	20020591 	.word	0x20020591
20021464:	200205ad 	.word	0x200205ad
20021468:	200205c9 	.word	0x200205c9
2002146c:	200205f1 	.word	0x200205f1
20021470:	20020629 	.word	0x20020629
20021474:	20020651 	.word	0x20020651
20021478:	20020689 	.word	0x20020689
2002147c:	20020695 	.word	0x20020695
20021480:	200206a1 	.word	0x200206a1
20021484:	200206b9 	.word	0x200206b9
20021488:	200206d1 	.word	0x200206d1
2002148c:	200206e9 	.word	0x200206e9
20021490:	2002070d 	.word	0x2002070d
20021494:	2002072d 	.word	0x2002072d
20021498:	20020751 	.word	0x20020751
2002149c:	20020761 	.word	0x20020761
200214a0:	20020775 	.word	0x20020775
200214a4:	20020781 	.word	0x20020781
200214a8:	2002079d 	.word	0x2002079d
200214ac:	20020bf9 	.word	0x20020bf9
200214b0:	20020c3d 	.word	0x20020c3d
200214b4:	200208fd 	.word	0x200208fd
200214b8:	2002093d 	.word	0x2002093d
200214bc:	20020975 	.word	0x20020975
200214c0:	200209cd 	.word	0x200209cd
200214c4:	20020d71 	.word	0x20020d71
200214c8:	20020d7d 	.word	0x20020d7d
200214cc:	20020d89 	.word	0x20020d89
200214d0:	20020db9 	.word	0x20020db9
200214d4:	20020dd9 	.word	0x20020dd9
200214d8:	20020df9 	.word	0x20020df9
200214dc:	200207a9 	.word	0x200207a9
200214e0:	200207c1 	.word	0x200207c1
200214e4:	200207d9 	.word	0x200207d9
200214e8:	200207fd 	.word	0x200207fd
200214ec:	20020821 	.word	0x20020821
200214f0:	20020849 	.word	0x20020849
200214f4:	2002086d 	.word	0x2002086d
200214f8:	20020895 	.word	0x20020895
200214fc:	200208b9 	.word	0x200208b9
20021500:	20020e2d 	.word	0x20020e2d
20021504:	20020e55 	.word	0x20020e55
20021508:	200226c4 	.word	0x200226c4

2002150c <memset>:
2002150c:	4402      	add	r2, r0
2002150e:	4290      	cmp	r0, r2
20021510:	d205      	bcs.n	2002151e <memset+0x12>
20021512:	b2c9      	uxtb	r1, r1
20021514:	4603      	mov	r3, r0
20021516:	f803 1b01 	strb.w	r1, [r3], #1
2002151a:	429a      	cmp	r2, r3
2002151c:	d1fb      	bne.n	20021516 <memset+0xa>
2002151e:	4770      	bx	lr

20021520 <do_test>:
20021520:	e92d 43f0 	stmdb	sp!, {r4, r5, r6, r7, r8, r9, lr}
20021524:	2300      	movs	r3, #0
20021526:	4c15      	ldr	r4, [pc, #84]	; (2002157c <do_test+0x5c>)
20021528:	2705      	movs	r7, #5
2002152a:	f06f 457f 	mvn.w	r5, #4278190080	; 0xff000000
2002152e:	6023      	str	r3, [r4, #0]
20021530:	4681      	mov	r9, r0
20021532:	60a3      	str	r3, [r4, #8]
20021534:	460e      	mov	r6, r1
20021536:	6027      	str	r7, [r4, #0]
20021538:	6065      	str	r5, [r4, #4]
2002153a:	68a3      	ldr	r3, [r4, #8]
2002153c:	b91b      	cbnz	r3, 20021546 <do_test+0x26>
2002153e:	bf00      	nop
20021540:	68a3      	ldr	r3, [r4, #8]
20021542:	2b00      	cmp	r3, #0
20021544:	d0fb      	beq.n	2002153e <do_test+0x1e>
20021546:	2300      	movs	r3, #0
20021548:	4f0c      	ldr	r7, [pc, #48]	; (2002157c <do_test+0x5c>)
2002154a:	0054      	lsls	r4, r2, #1
2002154c:	f8df 8034 	ldr.w	r8, [pc, #52]	; 20021584 <do_test+0x64>
20021550:	68bd      	ldr	r5, [r7, #8]
20021552:	6033      	str	r3, [r6, #0]
20021554:	47c8      	blx	r9
20021556:	6832      	ldr	r2, [r6, #0]
20021558:	f04f 33ff 	mov.w	r3, #4294967295	; 0xffffffff
2002155c:	f848 2024 	str.w	r2, [r8, r4, lsl #2]
20021560:	3401      	adds	r4, #1
20021562:	6033      	str	r3, [r6, #0]
20021564:	47c8      	blx	r9
20021566:	4b06      	ldr	r3, [pc, #24]	; (20021580 <do_test+0x60>)
20021568:	6831      	ldr	r1, [r6, #0]
2002156a:	681a      	ldr	r2, [r3, #0]
2002156c:	f848 1024 	str.w	r1, [r8, r4, lsl #2]
20021570:	4415      	add	r5, r2
20021572:	68ba      	ldr	r2, [r7, #8]
20021574:	1aad      	subs	r5, r5, r2
20021576:	601d      	str	r5, [r3, #0]
20021578:	e8bd 83f0 	ldmia.w	sp!, {r4, r5, r6, r7, r8, r9, pc}
2002157c:	e000e010 	.word	0xe000e010
20021580:	200217e4 	.word	0x200217e4
20021584:	200217e8 	.word	0x200217e8

20021588 <NMI_IRQ_Handler>:
20021588:	e7fe      	b.n	20021588 <NMI_IRQ_Handler>
2002158a:	bf00      	nop

2002158c <HardFault_IRQ_Handler>:
2002158c:	e7fe      	b.n	2002158c <HardFault_IRQ_Handler>
2002158e:	bf00      	nop

20021590 <MemManage_IRQ_Handler>:
20021590:	e7fe      	b.n	20021590 <MemManage_IRQ_Handler>
20021592:	bf00      	nop

20021594 <BusFault_IRQ_Handler>:
20021594:	e7fe      	b.n	20021594 <BusFault_IRQ_Handler>
20021596:	bf00      	nop

20021598 <UsageFault_IRQ_Handler>:
20021598:	e7fe      	b.n	20021598 <UsageFault_IRQ_Handler>
2002159a:	bf00      	nop

2002159c <Reserved1_IRQ_Handler>:
2002159c:	e7fe      	b.n	2002159c <Reserved1_IRQ_Handler>
2002159e:	bf00      	nop

200215a0 <Reserved2_IRQ_Handler>:
200215a0:	e7fe      	b.n	200215a0 <Reserved2_IRQ_Handler>
200215a2:	bf00      	nop

200215a4 <Reserved3_IRQ_Handler>:
200215a4:	e7fe      	b.n	200215a4 <Reserved3_IRQ_Handler>
200215a6:	bf00      	nop

200215a8 <Reserved4_IRQ_Handler>:
200215a8:	e7fe      	b.n	200215a8 <Reserved4_IRQ_Handler>
200215aa:	bf00      	nop

200215ac <SVCall_IRQ_Handler>:
200215ac:	e7fe      	b.n	200215ac <SVCall_IRQ_Handler>
200215ae:	bf00      	nop

200215b0 <Debug_IRQ_Handler>:
200215b0:	e7fe      	b.n	200215b0 <Debug_IRQ_Handler>
200215b2:	bf00      	nop

200215b4 <Reserved5_IRQ_Handler>:
200215b4:	e7fe      	b.n	200215b4 <Reserved5_IRQ_Handler>
200215b6:	bf00      	nop

200215b8 <PendSV_IRQ_Handler>:
200215b8:	e7fe      	b.n	200215b8 <PendSV_IRQ_Handler>
200215ba:	bf00      	nop

200215bc <SysTick_IRQ_Handler>:
200215bc:	e7fe      	b.n	200215bc <SysTick_IRQ_Handler>
200215be:	bf00      	nop

200215c0 <WWDG_IRQ_Handler>:
200215c0:	e7fe      	b.n	200215c0 <WWDG_IRQ_Handler>
200215c2:	bf00      	nop

200215c4 <PVD_IRQ_Handler>:
200215c4:	e7fe      	b.n	200215c4 <PVD_IRQ_Handler>
200215c6:	bf00      	nop

200215c8 <TAMP_STAMP_IRQ_Handler>:
200215c8:	e7fe      	b.n	200215c8 <TAMP_STAMP_IRQ_Handler>
200215ca:	bf00      	nop

200215cc <RTC_WKUP_IRQ_Handler>:
200215cc:	e7fe      	b.n	200215cc <RTC_WKUP_IRQ_Handler>
200215ce:	bf00      	nop

200215d0 <FLASH_IRQ_Handler>:
200215d0:	e7fe      	b.n	200215d0 <FLASH_IRQ_Handler>
200215d2:	bf00      	nop

200215d4 <RCC_IRQ_Handler>:
200215d4:	e7fe      	b.n	200215d4 <RCC_IRQ_Handler>
200215d6:	bf00      	nop

200215d8 <EXTI0_IRQ_Handler>:
200215d8:	e7fe      	b.n	200215d8 <EXTI0_IRQ_Handler>
200215da:	bf00      	nop

200215dc <EXTI1_IRQ_Handler>:
200215dc:	e7fe      	b.n	200215dc <EXTI1_IRQ_Handler>
200215de:	bf00      	nop

200215e0 <EXTI2_IRQ_Handler>:
200215e0:	e7fe      	b.n	200215e0 <EXTI2_IRQ_Handler>
200215e2:	bf00      	nop

200215e4 <EXTI3_IRQ_Handler>:
200215e4:	e7fe      	b.n	200215e4 <EXTI3_IRQ_Handler>
200215e6:	bf00      	nop

200215e8 <EXTI4_IRQ_Handler>:
200215e8:	e7fe      	b.n	200215e8 <EXTI4_IRQ_Handler>
200215ea:	bf00      	nop

200215ec <DMA1_Stream0_IRQ_Handler>:
200215ec:	e7fe      	b.n	200215ec <DMA1_Stream0_IRQ_Handler>
200215ee:	bf00      	nop

200215f0 <DMA1_Stream1_IRQ_Handler>:
200215f0:	e7fe      	b.n	200215f0 <DMA1_Stream1_IRQ_Handler>
200215f2:	bf00      	nop

200215f4 <DMA1_Stream2_IRQ_Handler>:
200215f4:	e7fe      	b.n	200215f4 <DMA1_Stream2_IRQ_Handler>
200215f6:	bf00      	nop

200215f8 <DMA1_Stream3_IRQ_Handler>:
200215f8:	e7fe      	b.n	200215f8 <DMA1_Stream3_IRQ_Handler>
200215fa:	bf00      	nop

200215fc <DMA1_Stream4_IRQ_Handler>:
200215fc:	e7fe      	b.n	200215fc <DMA1_Stream4_IRQ_Handler>
200215fe:	bf00      	nop

20021600 <DMA1_Stream5_IRQ_Handler>:
20021600:	e7fe      	b.n	20021600 <DMA1_Stream5_IRQ_Handler>
20021602:	bf00      	nop

20021604 <DMA1_Stream6_IRQ_Handler>:
20021604:	e7fe      	b.n	20021604 <DMA1_Stream6_IRQ_Handler>
20021606:	bf00      	nop

20021608 <ADC_IRQ_Handler>:
20021608:	e7fe      	b.n	20021608 <ADC_IRQ_Handler>
2002160a:	bf00      	nop

2002160c <CAN1_TX_IRQ_Handler>:
2002160c:	e7fe      	b.n	2002160c <CAN1_TX_IRQ_Handler>
2002160e:	bf00      	nop

20021610 <CAN1_RX0_IRQ_Handler>:
20021610:	e7fe      	b.n	20021610 <CAN1_RX0_IRQ_Handler>
20021612:	bf00      	nop

20021614 <CAN1_RX1_IRQ_Handler>:
20021614:	e7fe      	b.n	20021614 <CAN1_RX1_IRQ_Handler>
20021616:	bf00      	nop

20021618 <CAN1_SCE_IRQ_Handler>:
20021618:	e7fe      	b.n	20021618 <CAN1_SCE_IRQ_Handler>
2002161a:	bf00      	nop

2002161c <EXTI9_5_IRQ_Handler>:
2002161c:	e7fe      	b.n	2002161c <EXTI9_5_IRQ_Handler>
2002161e:	bf00      	nop

20021620 <TIM1_BRK_TIM9_IRQ_Handler>:
20021620:	e7fe      	b.n	20021620 <TIM1_BRK_TIM9_IRQ_Handler>
20021622:	bf00      	nop

20021624 <TIM1_UP_TIM10_IRQ_Handler>:
20021624:	e7fe      	b.n	20021624 <TIM1_UP_TIM10_IRQ_Handler>
20021626:	bf00      	nop

20021628 <TIM1_TRG_COM_TIM11_IRQ_Handler>:
20021628:	e7fe      	b.n	20021628 <TIM1_TRG_COM_TIM11_IRQ_Handler>
2002162a:	bf00      	nop

2002162c <TIM1_CC_IRQ_Handler>:
2002162c:	e7fe      	b.n	2002162c <TIM1_CC_IRQ_Handler>
2002162e:	bf00      	nop

20021630 <TIM2_IRQ_Handler>:
20021630:	e7fe      	b.n	20021630 <TIM2_IRQ_Handler>
20021632:	bf00      	nop

20021634 <TIM3_IRQ_Handler>:
20021634:	e7fe      	b.n	20021634 <TIM3_IRQ_Handler>
20021636:	bf00      	nop

20021638 <TIM4_IRQ_Handler>:
20021638:	e7fe      	b.n	20021638 <TIM4_IRQ_Handler>
2002163a:	bf00      	nop

2002163c <I2C1_EV_IRQ_Handler>:
2002163c:	e7fe      	b.n	2002163c <I2C1_EV_IRQ_Handler>
2002163e:	bf00      	nop

20021640 <I2C1_ER_IRQ_Handler>:
20021640:	e7fe      	b.n	20021640 <I2C1_ER_IRQ_Handler>
20021642:	bf00      	nop

20021644 <I2C2_EV_IRQ_Handler>:
20021644:	e7fe      	b.n	20021644 <I2C2_EV_IRQ_Handler>
20021646:	bf00      	nop

20021648 <I2C2_ER_IRQ_Handler>:
20021648:	e7fe      	b.n	20021648 <I2C2_ER_IRQ_Handler>
2002164a:	bf00      	nop

2002164c <SPI1_IRQ_Handler>:
2002164c:	e7fe      	b.n	2002164c <SPI1_IRQ_Handler>
2002164e:	bf00      	nop

20021650 <SPI2_IRQ_Handler>:
20021650:	e7fe      	b.n	20021650 <SPI2_IRQ_Handler>
20021652:	bf00      	nop

20021654 <USART1_IRQ_Handler>:
20021654:	e7fe      	b.n	20021654 <USART1_IRQ_Handler>
20021656:	bf00      	nop

20021658 <USART2_IRQ_Handler>:
20021658:	e7fe      	b.n	20021658 <USART2_IRQ_Handler>
2002165a:	bf00      	nop

2002165c <USART3_IRQ_Handler>:
2002165c:	e7fe      	b.n	2002165c <USART3_IRQ_Handler>
2002165e:	bf00      	nop

20021660 <EXTI15_10_IRQ_Handler>:
20021660:	e7fe      	b.n	20021660 <EXTI15_10_IRQ_Handler>
20021662:	bf00      	nop

20021664 <RTC_Alarm_IRQ_Handler>:
20021664:	e7fe      	b.n	20021664 <RTC_Alarm_IRQ_Handler>
20021666:	bf00      	nop

20021668 <OTG_FS_WKUP_IRQ_Handler>:
20021668:	e7fe      	b.n	20021668 <OTG_FS_WKUP_IRQ_Handler>
2002166a:	bf00      	nop

2002166c <TIM8_BRK_TIM12_IRQ_Handler>:
2002166c:	e7fe      	b.n	2002166c <TIM8_BRK_TIM12_IRQ_Handler>
2002166e:	bf00      	nop

20021670 <TIM8_UP_TIM13_IRQ_Handler>:
20021670:	e7fe      	b.n	20021670 <TIM8_UP_TIM13_IRQ_Handler>
20021672:	bf00      	nop

20021674 <TIM8_TRG_COM_TIM14_IRQ_Handler>:
20021674:	e7fe      	b.n	20021674 <TIM8_TRG_COM_TIM14_IRQ_Handler>
20021676:	bf00      	nop

20021678 <TIM8_CC_IRQ_Handler>:
20021678:	e7fe      	b.n	20021678 <TIM8_CC_IRQ_Handler>
2002167a:	bf00      	nop

2002167c <DMA1_Stream7_IRQ_Handler>:
2002167c:	e7fe      	b.n	2002167c <DMA1_Stream7_IRQ_Handler>
2002167e:	bf00      	nop

20021680 <FMC_IRQ_Handler>:
20021680:	e7fe      	b.n	20021680 <FMC_IRQ_Handler>
20021682:	bf00      	nop

20021684 <SDMMC1_IRQ_Handler>:
20021684:	e7fe      	b.n	20021684 <SDMMC1_IRQ_Handler>
20021686:	bf00      	nop

20021688 <TIM5_IRQ_Handler>:
20021688:	e7fe      	b.n	20021688 <TIM5_IRQ_Handler>
2002168a:	bf00      	nop

2002168c <SPI3_IRQ_Handler>:
2002168c:	e7fe      	b.n	2002168c <SPI3_IRQ_Handler>
2002168e:	bf00      	nop

20021690 <UART4_IRQ_Handler>:
20021690:	e7fe      	b.n	20021690 <UART4_IRQ_Handler>
20021692:	bf00      	nop

20021694 <UART5_IRQ_Handler>:
20021694:	e7fe      	b.n	20021694 <UART5_IRQ_Handler>
20021696:	bf00      	nop

20021698 <TIM6_DAC_IRQ_Handler>:
20021698:	e7fe      	b.n	20021698 <TIM6_DAC_IRQ_Handler>
2002169a:	bf00      	nop

2002169c <TIM7_IRQ_Handler>:
2002169c:	e7fe      	b.n	2002169c <TIM7_IRQ_Handler>
2002169e:	bf00      	nop

200216a0 <DMA2_Stream0_IRQ_Handler>:
200216a0:	e7fe      	b.n	200216a0 <DMA2_Stream0_IRQ_Handler>
200216a2:	bf00      	nop

200216a4 <DMA2_Stream1_IRQ_Handler>:
200216a4:	e7fe      	b.n	200216a4 <DMA2_Stream1_IRQ_Handler>
200216a6:	bf00      	nop

200216a8 <DMA2_Stream2_IRQ_Handler>:
200216a8:	e7fe      	b.n	200216a8 <DMA2_Stream2_IRQ_Handler>
200216aa:	bf00      	nop

200216ac <DMA2_Stream3_IRQ_Handler>:
200216ac:	e7fe      	b.n	200216ac <DMA2_Stream3_IRQ_Handler>
200216ae:	bf00      	nop

200216b0 <DMA2_Stream4_IRQ_Handler>:
200216b0:	e7fe      	b.n	200216b0 <DMA2_Stream4_IRQ_Handler>
200216b2:	bf00      	nop

200216b4 <ETH_IRQ_Handler>:
200216b4:	e7fe      	b.n	200216b4 <ETH_IRQ_Handler>
200216b6:	bf00      	nop

200216b8 <ETH_WKUP_IRQ_Handler>:
200216b8:	e7fe      	b.n	200216b8 <ETH_WKUP_IRQ_Handler>
200216ba:	bf00      	nop

200216bc <CAN2_TX_IRQ_Handler>:
200216bc:	e7fe      	b.n	200216bc <CAN2_TX_IRQ_Handler>
200216be:	bf00      	nop

200216c0 <CAN2_RX0_IRQ_Handler>:
200216c0:	e7fe      	b.n	200216c0 <CAN2_RX0_IRQ_Handler>
200216c2:	bf00      	nop

200216c4 <CAN2_RX1_IRQ_Handler>:
200216c4:	e7fe      	b.n	200216c4 <CAN2_RX1_IRQ_Handler>
200216c6:	bf00      	nop

200216c8 <CAN2_SCE_IRQ_Handler>:
200216c8:	e7fe      	b.n	200216c8 <CAN2_SCE_IRQ_Handler>
200216ca:	bf00      	nop

200216cc <OTG_FS_IRQ_Handler>:
200216cc:	e7fe      	b.n	200216cc <OTG_FS_IRQ_Handler>
200216ce:	bf00      	nop

200216d0 <DMA2_Stream5_IRQ_Handler>:
200216d0:	e7fe      	b.n	200216d0 <DMA2_Stream5_IRQ_Handler>
200216d2:	bf00      	nop

200216d4 <DMA2_Stream6_IRQ_Handler>:
200216d4:	e7fe      	b.n	200216d4 <DMA2_Stream6_IRQ_Handler>
200216d6:	bf00      	nop

200216d8 <DMA2_Stream7_IRQ_Handler>:
200216d8:	e7fe      	b.n	200216d8 <DMA2_Stream7_IRQ_Handler>
200216da:	bf00      	nop

200216dc <USART6_IRQ_Handler>:
200216dc:	e7fe      	b.n	200216dc <USART6_IRQ_Handler>
200216de:	bf00      	nop

200216e0 <I2C3_EV_IRQ_Handler>:
200216e0:	e7fe      	b.n	200216e0 <I2C3_EV_IRQ_Handler>
200216e2:	bf00      	nop

200216e4 <I2C3_ER_IRQ_Handler>:
200216e4:	e7fe      	b.n	200216e4 <I2C3_ER_IRQ_Handler>
200216e6:	bf00      	nop

200216e8 <OTG_HS_EP1_OUT_IRQ_Handler>:
200216e8:	e7fe      	b.n	200216e8 <OTG_HS_EP1_OUT_IRQ_Handler>
200216ea:	bf00      	nop

200216ec <OTG_HS_EP1_IN_IRQ_Handler>:
200216ec:	e7fe      	b.n	200216ec <OTG_HS_EP1_IN_IRQ_Handler>
200216ee:	bf00      	nop

200216f0 <OTG_HS_WKUP_IRQ_Handler>:
200216f0:	e7fe      	b.n	200216f0 <OTG_HS_WKUP_IRQ_Handler>
200216f2:	bf00      	nop

200216f4 <OTG_HS_IRQ_Handler>:
200216f4:	e7fe      	b.n	200216f4 <OTG_HS_IRQ_Handler>
200216f6:	bf00      	nop

200216f8 <DCMI_IRQ_Handler>:
200216f8:	e7fe      	b.n	200216f8 <DCMI_IRQ_Handler>
200216fa:	bf00      	nop

200216fc <RNG_IRQ_Handler>:
200216fc:	e7fe      	b.n	200216fc <RNG_IRQ_Handler>
200216fe:	bf00      	nop

20021700 <FPU_IRQ_Handler>:
20021700:	e7fe      	b.n	20021700 <FPU_IRQ_Handler>
20021702:	bf00      	nop

20021704 <UART7_IRQ_Handler>:
20021704:	e7fe      	b.n	20021704 <UART7_IRQ_Handler>
20021706:	bf00      	nop

20021708 <UART8_IRQ_Handler>:
20021708:	e7fe      	b.n	20021708 <UART8_IRQ_Handler>
2002170a:	bf00      	nop

2002170c <SPI4_IRQ_Handler>:
2002170c:	e7fe      	b.n	2002170c <SPI4_IRQ_Handler>
2002170e:	bf00      	nop

20021710 <SPI5_IRQ_Handler>:
20021710:	e7fe      	b.n	20021710 <SPI5_IRQ_Handler>
20021712:	bf00      	nop

20021714 <SPI6_IRQ_Handler>:
20021714:	e7fe      	b.n	20021714 <SPI6_IRQ_Handler>
20021716:	bf00      	nop

20021718 <SAI1_IRQ_Handler>:
20021718:	e7fe      	b.n	20021718 <SAI1_IRQ_Handler>
2002171a:	bf00      	nop

2002171c <LTDC_IRQ_Handler>:
2002171c:	e7fe      	b.n	2002171c <LTDC_IRQ_Handler>
2002171e:	bf00      	nop

20021720 <LTDC_ER_IRQ_Handler>:
20021720:	e7fe      	b.n	20021720 <LTDC_ER_IRQ_Handler>
20021722:	bf00      	nop

20021724 <DMA2D_IRQ_Handler>:
20021724:	e7fe      	b.n	20021724 <DMA2D_IRQ_Handler>
20021726:	bf00      	nop

20021728 <SAI2_IRQ_Handler>:
20021728:	e7fe      	b.n	20021728 <SAI2_IRQ_Handler>
2002172a:	bf00      	nop

2002172c <QUADSPI_IRQ_Handler>:
2002172c:	e7fe      	b.n	2002172c <QUADSPI_IRQ_Handler>
2002172e:	bf00      	nop

20021730 <LPTIM1_IRQ_Handler>:
20021730:	e7fe      	b.n	20021730 <LPTIM1_IRQ_Handler>
20021732:	bf00      	nop

20021734 <CEC_IRQ_Handler>:
20021734:	e7fe      	b.n	20021734 <CEC_IRQ_Handler>
20021736:	bf00      	nop

20021738 <I2C4_EV_IRQ_Handler>:
20021738:	e7fe      	b.n	20021738 <I2C4_EV_IRQ_Handler>
2002173a:	bf00      	nop

2002173c <I2C4_ER_IRQ_Handler>:
2002173c:	e7fe      	b.n	2002173c <I2C4_ER_IRQ_Handler>
2002173e:	bf00      	nop

20021740 <SPDIF_RX_IRQ_Handler>:
20021740:	e7fe      	b.n	20021740 <SPDIF_RX_IRQ_Handler>
20021742:	bf00      	nop

20021744 <DFSDM1_FLT0_IRQ_Handler>:
20021744:	e7fe      	b.n	20021744 <DFSDM1_FLT0_IRQ_Handler>
20021746:	bf00      	nop

20021748 <DFSDM1_FLT1_IRQ_Handler>:
20021748:	e7fe      	b.n	20021748 <DFSDM1_FLT1_IRQ_Handler>
2002174a:	bf00      	nop

2002174c <DFSDM1_FLT2_IRQ_Handler>:
2002174c:	e7fe      	b.n	2002174c <DFSDM1_FLT2_IRQ_Handler>
2002174e:	bf00      	nop

20021750 <DFSDM1_FLT3_IRQ_Handler>:
20021750:	e7fe      	b.n	20021750 <DFSDM1_FLT3_IRQ_Handler>
20021752:	bf00      	nop

20021754 <SDMMC2_IRQ_Handler>:
20021754:	e7fe      	b.n	20021754 <SDMMC2_IRQ_Handler>
20021756:	bf00      	nop

20021758 <CAN3_TX_IRQ_Handler>:
20021758:	e7fe      	b.n	20021758 <CAN3_TX_IRQ_Handler>
2002175a:	bf00      	nop

2002175c <CAN3_RX0_IRQ_Handler>:
2002175c:	e7fe      	b.n	2002175c <CAN3_RX0_IRQ_Handler>
2002175e:	bf00      	nop

20021760 <CAN3_RX1_IRQ_Handler>:
20021760:	e7fe      	b.n	20021760 <CAN3_RX1_IRQ_Handler>
20021762:	bf00      	nop

20021764 <CAN3_SCE_IRQ_Handler>:
20021764:	e7fe      	b.n	20021764 <CAN3_SCE_IRQ_Handler>
20021766:	bf00      	nop

20021768 <JPEG_IRQ_Handler>:
20021768:	e7fe      	b.n	20021768 <JPEG_IRQ_Handler>
2002176a:	bf00      	nop

2002176c <MDIOS_IRQ_Handler>:
2002176c:	e7fe      	b.n	2002176c <MDIOS_IRQ_Handler>
2002176e:	bf00      	nop

20021770 <init>:
20021770:	4a06      	ldr	r2, [pc, #24]	; (2002178c <init+0x1c>)
20021772:	4b07      	ldr	r3, [pc, #28]	; (20021790 <init+0x20>)
20021774:	429a      	cmp	r2, r3
20021776:	d004      	beq.n	20021782 <init+0x12>
20021778:	2100      	movs	r1, #0
2002177a:	f803 1b01 	strb.w	r1, [r3], #1
2002177e:	4293      	cmp	r3, r2
20021780:	d1fb      	bne.n	2002177a <init+0xa>
20021782:	4a04      	ldr	r2, [pc, #16]	; (20021794 <init+0x24>)
20021784:	4b04      	ldr	r3, [pc, #16]	; (20021798 <init+0x28>)
20021786:	609a      	str	r2, [r3, #8]
20021788:	f000 b808 	b.w	2002179c <main>
2002178c:	20021b88 	.word	0x20021b88
20021790:	200217c0 	.word	0x200217c0
20021794:	20020000 	.word	0x20020000
20021798:	e000ed00 	.word	0xe000ed00

Disassembly of section .rodata:

200217a8 <.rodata>:
200217a8:	00000006 	.word	0x00000006
200217ac:	00000002 	.word	0x00000002
200217b0:	3e000000 	.word	0x3e000000
200217b4:	00000019 	.word	0x00000019
200217b8:	3e000000 	.word	0x3e000000
200217bc:	00000019 	.word	0x00000019

Disassembly of section .bss:

200217c0 <guard variable for run::serial2_config>:
	...

200217c8 <run::serial2_config>:
200217c8:	00000000                                ....

200217cc <guard variable for run::timer1_prescale>:
	...

200217d4 <run::timer1_prescale>:
200217d4:	00000000                                ....

200217d8 <guard variable for run::gpio1_words_3>:
	...

200217e0 <run::gpio1_words_3>:
200217e0:	00000000                                ....

200217e4 <elapsed_time>:
200217e4:	00000000                                ....

200217e8 <results>:
	...
