
bitfield.o:     file format elf32-littlearm


Disassembly of section .text:

00000000 <zero_reg>:
       0:	4b01      	ldr	r3, [pc, #4]	; (8 <zero_reg+0x8>)
       2:	2200      	movs	r2, #0
       4:	605a      	str	r2, [r3, #4]
       6:	4770      	bx	lr
       8:	20002480 	.word	0x20002480

0000000c <zero_array>:
       c:	4b01      	ldr	r3, [pc, #4]	; (14 <zero_array+0x8>)
       e:	2200      	movs	r2, #0
      10:	62da      	str	r2, [r3, #44]	; 0x2c
      12:	4770      	bx	lr
      14:	200022c0 	.word	0x200022c0

00000018 <set_singl_bits_operator>:
      18:	4a02      	ldr	r2, [pc, #8]	; (24 <set_singl_bits_operator+0xc>)
      1a:	6853      	ldr	r3, [r2, #4]
      1c:	f043 0340 	orr.w	r3, r3, #64	; 0x40
      20:	6053      	str	r3, [r2, #4]
      22:	4770      	bx	lr
      24:	20002480 	.word	0x20002480

00000028 <set_singl_bits_method>:
      28:	4a02      	ldr	r2, [pc, #8]	; (34 <set_singl_bits_method+0xc>)
      2a:	6853      	ldr	r3, [r2, #4]
      2c:	f043 0340 	orr.w	r3, r3, #64	; 0x40
      30:	6053      	str	r3, [r2, #4]
      32:	4770      	bx	lr
      34:	20002480 	.word	0x20002480

00000038 <clr_singl_bits_operator>:
      38:	4b02      	ldr	r3, [pc, #8]	; (44 <clr_singl_bits_operator+0xc>)
      3a:	685a      	ldr	r2, [r3, #4]
      3c:	f36f 1286 	bfc	r2, #6, #1
      40:	605a      	str	r2, [r3, #4]
      42:	4770      	bx	lr
      44:	20002480 	.word	0x20002480

00000048 <clr_singl_bits_method>:
      48:	4b02      	ldr	r3, [pc, #8]	; (54 <clr_singl_bits_method+0xc>)
      4a:	685a      	ldr	r2, [r3, #4]
      4c:	f36f 1286 	bfc	r2, #6, #1
      50:	605a      	str	r2, [r3, #4]
      52:	4770      	bx	lr
      54:	20002480 	.word	0x20002480

00000058 <set_singl_mskd_operator>:
      58:	4a05      	ldr	r2, [pc, #20]	; (70 <set_singl_mskd_operator+0x18>)
      5a:	6853      	ldr	r3, [r2, #4]
      5c:	f3c3 0341 	ubfx	r3, r3, #1, #2
      60:	f043 0301 	orr.w	r3, r3, #1
      64:	6851      	ldr	r1, [r2, #4]
      66:	f363 0142 	bfi	r1, r3, #1, #2
      6a:	6051      	str	r1, [r2, #4]
      6c:	4770      	bx	lr
      6e:	bf00      	nop
      70:	20002480 	.word	0x20002480

00000074 <set_singl_mskd_method>:
      74:	4a05      	ldr	r2, [pc, #20]	; (8c <set_singl_mskd_method+0x18>)
      76:	6853      	ldr	r3, [r2, #4]
      78:	f3c3 0341 	ubfx	r3, r3, #1, #2
      7c:	f043 0301 	orr.w	r3, r3, #1
      80:	6851      	ldr	r1, [r2, #4]
      82:	f363 0142 	bfi	r1, r3, #1, #2
      86:	6051      	str	r1, [r2, #4]
      88:	4770      	bx	lr
      8a:	bf00      	nop
      8c:	20002480 	.word	0x20002480

00000090 <clr_singl_mskd_operator>:
      90:	4a05      	ldr	r2, [pc, #20]	; (a8 <clr_singl_mskd_operator+0x18>)
      92:	6853      	ldr	r3, [r2, #4]
      94:	f3c3 0341 	ubfx	r3, r3, #1, #2
      98:	f003 0302 	and.w	r3, r3, #2
      9c:	6851      	ldr	r1, [r2, #4]
      9e:	f363 0142 	bfi	r1, r3, #1, #2
      a2:	6051      	str	r1, [r2, #4]
      a4:	4770      	bx	lr
      a6:	bf00      	nop
      a8:	20002480 	.word	0x20002480

000000ac <clr_singl_mskd_method>:
      ac:	4a05      	ldr	r2, [pc, #20]	; (c4 <clr_singl_mskd_method+0x18>)
      ae:	6853      	ldr	r3, [r2, #4]
      b0:	f3c3 0341 	ubfx	r3, r3, #1, #2
      b4:	f003 0302 	and.w	r3, r3, #2
      b8:	6851      	ldr	r1, [r2, #4]
      ba:	f363 0142 	bfi	r1, r3, #1, #2
      be:	6051      	str	r1, [r2, #4]
      c0:	4770      	bx	lr
      c2:	bf00      	nop
      c4:	20002480 	.word	0x20002480

000000c8 <equ_singl_bits_operator>:
      c8:	4b03      	ldr	r3, [pc, #12]	; (d8 <equ_singl_bits_operator+0x10>)
      ca:	2200      	movs	r2, #0
      cc:	605a      	str	r2, [r3, #4]
      ce:	685a      	ldr	r2, [r3, #4]
      d0:	f042 0240 	orr.w	r2, r2, #64	; 0x40
      d4:	605a      	str	r2, [r3, #4]
      d6:	4770      	bx	lr
      d8:	20002480 	.word	0x20002480

000000dc <equ_singl_bits_method>:
      dc:	4b03      	ldr	r3, [pc, #12]	; (ec <equ_singl_bits_method+0x10>)
      de:	2200      	movs	r2, #0
      e0:	605a      	str	r2, [r3, #4]
      e2:	685a      	ldr	r2, [r3, #4]
      e4:	f042 0240 	orr.w	r2, r2, #64	; 0x40
      e8:	605a      	str	r2, [r3, #4]
      ea:	4770      	bx	lr
      ec:	20002480 	.word	0x20002480

000000f0 <equ_singl_mskd_operator>:
      f0:	4b04      	ldr	r3, [pc, #16]	; (104 <equ_singl_mskd_operator+0x14>)
      f2:	2200      	movs	r2, #0
      f4:	605a      	str	r2, [r3, #4]
      f6:	685a      	ldr	r2, [r3, #4]
      f8:	2101      	movs	r1, #1
      fa:	f361 0242 	bfi	r2, r1, #1, #2
      fe:	605a      	str	r2, [r3, #4]
     100:	4770      	bx	lr
     102:	bf00      	nop
     104:	20002480 	.word	0x20002480

00000108 <equ_singl_mskd_method>:
     108:	4b04      	ldr	r3, [pc, #16]	; (11c <equ_singl_mskd_method+0x14>)
     10a:	2200      	movs	r2, #0
     10c:	605a      	str	r2, [r3, #4]
     10e:	685a      	ldr	r2, [r3, #4]
     110:	2101      	movs	r1, #1
     112:	f361 0242 	bfi	r2, r1, #1, #2
     116:	605a      	str	r2, [r3, #4]
     118:	4770      	bx	lr
     11a:	bf00      	nop
     11c:	20002480 	.word	0x20002480

00000120 <flp_singl_bits_operator>:
     120:	4a05      	ldr	r2, [pc, #20]	; (138 <flp_singl_bits_operator+0x18>)
     122:	6853      	ldr	r3, [r2, #4]
     124:	f3c3 1380 	ubfx	r3, r3, #6, #1
     128:	f083 0301 	eor.w	r3, r3, #1
     12c:	6851      	ldr	r1, [r2, #4]
     12e:	f363 1186 	bfi	r1, r3, #6, #1
     132:	6051      	str	r1, [r2, #4]
     134:	4770      	bx	lr
     136:	bf00      	nop
     138:	20002480 	.word	0x20002480

0000013c <flp_singl_bits_method>:
     13c:	4a05      	ldr	r2, [pc, #20]	; (154 <flp_singl_bits_method+0x18>)
     13e:	6853      	ldr	r3, [r2, #4]
     140:	f3c3 1380 	ubfx	r3, r3, #6, #1
     144:	f083 0301 	eor.w	r3, r3, #1
     148:	6851      	ldr	r1, [r2, #4]
     14a:	f363 1186 	bfi	r1, r3, #6, #1
     14e:	6051      	str	r1, [r2, #4]
     150:	4770      	bx	lr
     152:	bf00      	nop
     154:	20002480 	.word	0x20002480

00000158 <flp_singl_mskd_operator>:
     158:	4a05      	ldr	r2, [pc, #20]	; (170 <flp_singl_mskd_operator+0x18>)
     15a:	6853      	ldr	r3, [r2, #4]
     15c:	f3c3 0341 	ubfx	r3, r3, #1, #2
     160:	f083 0301 	eor.w	r3, r3, #1
     164:	6851      	ldr	r1, [r2, #4]
     166:	f363 0142 	bfi	r1, r3, #1, #2
     16a:	6051      	str	r1, [r2, #4]
     16c:	4770      	bx	lr
     16e:	bf00      	nop
     170:	20002480 	.word	0x20002480

00000174 <flp_singl_mskd_method>:
     174:	4a05      	ldr	r2, [pc, #20]	; (18c <flp_singl_mskd_method+0x18>)
     176:	6853      	ldr	r3, [r2, #4]
     178:	f3c3 0341 	ubfx	r3, r3, #1, #2
     17c:	f083 0301 	eor.w	r3, r3, #1
     180:	6851      	ldr	r1, [r2, #4]
     182:	f363 0142 	bfi	r1, r3, #1, #2
     186:	6051      	str	r1, [r2, #4]
     188:	4770      	bx	lr
     18a:	bf00      	nop
     18c:	20002480 	.word	0x20002480

00000190 <ins_singl_mskd_operator>:
     190:	4b03      	ldr	r3, [pc, #12]	; (1a0 <ins_singl_mskd_operator+0x10>)
     192:	685a      	ldr	r2, [r3, #4]
     194:	2102      	movs	r1, #2
     196:	f361 0242 	bfi	r2, r1, #1, #2
     19a:	605a      	str	r2, [r3, #4]
     19c:	4770      	bx	lr
     19e:	bf00      	nop
     1a0:	20002480 	.word	0x20002480

000001a4 <ins_singl_mskd_method>:
     1a4:	4b03      	ldr	r3, [pc, #12]	; (1b4 <ins_singl_mskd_method+0x10>)
     1a6:	685a      	ldr	r2, [r3, #4]
     1a8:	2102      	movs	r1, #2
     1aa:	f361 0242 	bfi	r2, r1, #1, #2
     1ae:	605a      	str	r2, [r3, #4]
     1b0:	4770      	bx	lr
     1b2:	bf00      	nop
     1b4:	20002480 	.word	0x20002480

000001b8 <set_multi_bits_operator>:
     1b8:	4b04      	ldr	r3, [pc, #16]	; (1cc <set_multi_bits_operator+0x14>)
     1ba:	685a      	ldr	r2, [r3, #4]
     1bc:	f042 0201 	orr.w	r2, r2, #1
     1c0:	605a      	str	r2, [r3, #4]
     1c2:	685a      	ldr	r2, [r3, #4]
     1c4:	f042 0220 	orr.w	r2, r2, #32
     1c8:	605a      	str	r2, [r3, #4]
     1ca:	4770      	bx	lr
     1cc:	20002480 	.word	0x20002480

000001d0 <set_multi_bits_method>:
     1d0:	4b04      	ldr	r3, [pc, #16]	; (1e4 <set_multi_bits_method+0x14>)
     1d2:	685a      	ldr	r2, [r3, #4]
     1d4:	f042 0201 	orr.w	r2, r2, #1
     1d8:	605a      	str	r2, [r3, #4]
     1da:	685a      	ldr	r2, [r3, #4]
     1dc:	f042 0220 	orr.w	r2, r2, #32
     1e0:	605a      	str	r2, [r3, #4]
     1e2:	4770      	bx	lr
     1e4:	20002480 	.word	0x20002480

000001e8 <ins_multi_mskd_operator>:
     1e8:	4b05      	ldr	r3, [pc, #20]	; (200 <ins_multi_mskd_operator+0x18>)
     1ea:	685a      	ldr	r2, [r3, #4]
     1ec:	2103      	movs	r1, #3
     1ee:	f361 12cb 	bfi	r2, r1, #7, #5
     1f2:	605a      	str	r2, [r3, #4]
     1f4:	685a      	ldr	r2, [r3, #4]
     1f6:	2101      	movs	r1, #1
     1f8:	f361 0242 	bfi	r2, r1, #1, #2
     1fc:	605a      	str	r2, [r3, #4]
     1fe:	4770      	bx	lr
     200:	20002480 	.word	0x20002480

00000204 <ins_multi_mskd_method>:
     204:	4b05      	ldr	r3, [pc, #20]	; (21c <ins_multi_mskd_method+0x18>)
     206:	685a      	ldr	r2, [r3, #4]
     208:	2103      	movs	r1, #3
     20a:	f361 12cb 	bfi	r2, r1, #7, #5
     20e:	605a      	str	r2, [r3, #4]
     210:	685a      	ldr	r2, [r3, #4]
     212:	2101      	movs	r1, #1
     214:	f361 0242 	bfi	r2, r1, #1, #2
     218:	605a      	str	r2, [r3, #4]
     21a:	4770      	bx	lr
     21c:	20002480 	.word	0x20002480

00000220 <equ_multi_bits_operator>:
     220:	4b05      	ldr	r3, [pc, #20]	; (238 <equ_multi_bits_operator+0x18>)
     222:	2200      	movs	r2, #0
     224:	605a      	str	r2, [r3, #4]
     226:	685a      	ldr	r2, [r3, #4]
     228:	f042 0220 	orr.w	r2, r2, #32
     22c:	605a      	str	r2, [r3, #4]
     22e:	685a      	ldr	r2, [r3, #4]
     230:	f042 0240 	orr.w	r2, r2, #64	; 0x40
     234:	605a      	str	r2, [r3, #4]
     236:	4770      	bx	lr
     238:	20002480 	.word	0x20002480

0000023c <equ_multi_bits_method>:
     23c:	4b05      	ldr	r3, [pc, #20]	; (254 <equ_multi_bits_method+0x18>)
     23e:	2200      	movs	r2, #0
     240:	605a      	str	r2, [r3, #4]
     242:	685a      	ldr	r2, [r3, #4]
     244:	f042 0220 	orr.w	r2, r2, #32
     248:	605a      	str	r2, [r3, #4]
     24a:	685a      	ldr	r2, [r3, #4]
     24c:	f042 0240 	orr.w	r2, r2, #64	; 0x40
     250:	605a      	str	r2, [r3, #4]
     252:	4770      	bx	lr
     254:	20002480 	.word	0x20002480

00000258 <equ_multi_mskd_operator>:
     258:	4b06      	ldr	r3, [pc, #24]	; (274 <equ_multi_mskd_operator+0x1c>)
     25a:	2200      	movs	r2, #0
     25c:	605a      	str	r2, [r3, #4]
     25e:	685a      	ldr	r2, [r3, #4]
     260:	2101      	movs	r1, #1
     262:	f361 02c4 	bfi	r2, r1, #3, #2
     266:	605a      	str	r2, [r3, #4]
     268:	685a      	ldr	r2, [r3, #4]
     26a:	2106      	movs	r1, #6
     26c:	f361 12cb 	bfi	r2, r1, #7, #5
     270:	605a      	str	r2, [r3, #4]
     272:	4770      	bx	lr
     274:	20002480 	.word	0x20002480

00000278 <equ_multi_mskd_method>:
     278:	4b06      	ldr	r3, [pc, #24]	; (294 <equ_multi_mskd_method+0x1c>)
     27a:	2200      	movs	r2, #0
     27c:	605a      	str	r2, [r3, #4]
     27e:	685a      	ldr	r2, [r3, #4]
     280:	2101      	movs	r1, #1
     282:	f361 02c4 	bfi	r2, r1, #3, #2
     286:	605a      	str	r2, [r3, #4]
     288:	685a      	ldr	r2, [r3, #4]
     28a:	2106      	movs	r1, #6
     28c:	f361 12cb 	bfi	r2, r1, #7, #5
     290:	605a      	str	r2, [r3, #4]
     292:	4770      	bx	lr
     294:	20002480 	.word	0x20002480

00000298 <equ_bits_mskd_operator>:
     298:	4b06      	ldr	r3, [pc, #24]	; (2b4 <equ_bits_mskd_operator+0x1c>)
     29a:	2200      	movs	r2, #0
     29c:	605a      	str	r2, [r3, #4]
     29e:	685a      	ldr	r2, [r3, #4]
     2a0:	f042 0220 	orr.w	r2, r2, #32
     2a4:	605a      	str	r2, [r3, #4]
     2a6:	685a      	ldr	r2, [r3, #4]
     2a8:	2101      	movs	r1, #1
     2aa:	f361 0242 	bfi	r2, r1, #1, #2
     2ae:	605a      	str	r2, [r3, #4]
     2b0:	4770      	bx	lr
     2b2:	bf00      	nop
     2b4:	20002480 	.word	0x20002480

000002b8 <equ_bits_mskd_method>:
     2b8:	4b06      	ldr	r3, [pc, #24]	; (2d4 <equ_bits_mskd_method+0x1c>)
     2ba:	2200      	movs	r2, #0
     2bc:	605a      	str	r2, [r3, #4]
     2be:	685a      	ldr	r2, [r3, #4]
     2c0:	f042 0220 	orr.w	r2, r2, #32
     2c4:	605a      	str	r2, [r3, #4]
     2c6:	685a      	ldr	r2, [r3, #4]
     2c8:	2101      	movs	r1, #1
     2ca:	f361 0242 	bfi	r2, r1, #1, #2
     2ce:	605a      	str	r2, [r3, #4]
     2d0:	4770      	bx	lr
     2d2:	bf00      	nop
     2d4:	20002480 	.word	0x20002480

000002d8 <equ_mskd_bits_operator>:
     2d8:	4b06      	ldr	r3, [pc, #24]	; (2f4 <equ_mskd_bits_operator+0x1c>)
     2da:	2200      	movs	r2, #0
     2dc:	605a      	str	r2, [r3, #4]
     2de:	685a      	ldr	r2, [r3, #4]
     2e0:	2102      	movs	r1, #2
     2e2:	f361 0242 	bfi	r2, r1, #1, #2
     2e6:	605a      	str	r2, [r3, #4]
     2e8:	685a      	ldr	r2, [r3, #4]
     2ea:	f042 0240 	orr.w	r2, r2, #64	; 0x40
     2ee:	605a      	str	r2, [r3, #4]
     2f0:	4770      	bx	lr
     2f2:	bf00      	nop
     2f4:	20002480 	.word	0x20002480

000002f8 <equ_mskd_bits_method>:
     2f8:	4b06      	ldr	r3, [pc, #24]	; (314 <equ_mskd_bits_method+0x1c>)
     2fa:	2200      	movs	r2, #0
     2fc:	605a      	str	r2, [r3, #4]
     2fe:	685a      	ldr	r2, [r3, #4]
     300:	2102      	movs	r1, #2
     302:	f361 0242 	bfi	r2, r1, #1, #2
     306:	605a      	str	r2, [r3, #4]
     308:	685a      	ldr	r2, [r3, #4]
     30a:	f042 0240 	orr.w	r2, r2, #64	; 0x40
     30e:	605a      	str	r2, [r3, #4]
     310:	4770      	bx	lr
     312:	bf00      	nop
     314:	20002480 	.word	0x20002480

00000318 <equ_bits_var>:
     318:	4b06      	ldr	r3, [pc, #24]	; (334 <equ_bits_var+0x1c>)
     31a:	2100      	movs	r1, #0
     31c:	6059      	str	r1, [r3, #4]
     31e:	685a      	ldr	r2, [r3, #4]
     320:	f042 0240 	orr.w	r2, r2, #64	; 0x40
     324:	605a      	str	r2, [r3, #4]
     326:	6059      	str	r1, [r3, #4]
     328:	685a      	ldr	r2, [r3, #4]
     32a:	f042 0201 	orr.w	r2, r2, #1
     32e:	605a      	str	r2, [r3, #4]
     330:	4770      	bx	lr
     332:	bf00      	nop
     334:	20002480 	.word	0x20002480

00000338 <equ_mskd_var>:
     338:	4b07      	ldr	r3, [pc, #28]	; (358 <equ_mskd_var+0x20>)
     33a:	2200      	movs	r2, #0
     33c:	605a      	str	r2, [r3, #4]
     33e:	6859      	ldr	r1, [r3, #4]
     340:	2001      	movs	r0, #1
     342:	f360 0142 	bfi	r1, r0, #1, #2
     346:	6059      	str	r1, [r3, #4]
     348:	605a      	str	r2, [r3, #4]
     34a:	685a      	ldr	r2, [r3, #4]
     34c:	2103      	movs	r1, #3
     34e:	f361 12cb 	bfi	r2, r1, #7, #5
     352:	605a      	str	r2, [r3, #4]
     354:	4770      	bx	lr
     356:	bf00      	nop
     358:	20002480 	.word	0x20002480

0000035c <cmp_equ_zero>:
     35c:	4b0a      	ldr	r3, [pc, #40]	; (388 <cmp_equ_zero+0x2c>)
     35e:	2200      	movs	r2, #0
     360:	605a      	str	r2, [r3, #4]
     362:	490a      	ldr	r1, [pc, #40]	; (38c <cmp_equ_zero+0x30>)
     364:	604a      	str	r2, [r1, #4]
     366:	685b      	ldr	r3, [r3, #4]
     368:	b933      	cbnz	r3, 378 <cmp_equ_zero+0x1c>
     36a:	460b      	mov	r3, r1
     36c:	684a      	ldr	r2, [r1, #4]
     36e:	211d      	movs	r1, #29
     370:	f361 625d 	bfi	r2, r1, #25, #5
     374:	605a      	str	r2, [r3, #4]
     376:	4770      	bx	lr
     378:	4b04      	ldr	r3, [pc, #16]	; (38c <cmp_equ_zero+0x30>)
     37a:	685a      	ldr	r2, [r3, #4]
     37c:	2111      	movs	r1, #17
     37e:	f361 625d 	bfi	r2, r1, #25, #5
     382:	605a      	str	r2, [r3, #4]
     384:	4770      	bx	lr
     386:	bf00      	nop
     388:	20002480 	.word	0x20002480
     38c:	200023e0 	.word	0x200023e0

00000390 <cmp_neq_zero>:
     390:	4b08      	ldr	r3, [pc, #32]	; (3b4 <cmp_neq_zero+0x24>)
     392:	2200      	movs	r2, #0
     394:	605a      	str	r2, [r3, #4]
     396:	685b      	ldr	r3, [r3, #4]
     398:	b133      	cbz	r3, 3a8 <cmp_neq_zero+0x18>
     39a:	4b06      	ldr	r3, [pc, #24]	; (3b4 <cmp_neq_zero+0x24>)
     39c:	685a      	ldr	r2, [r3, #4]
     39e:	2102      	movs	r1, #2
     3a0:	f361 0242 	bfi	r2, r1, #1, #2
     3a4:	605a      	str	r2, [r3, #4]
     3a6:	4770      	bx	lr
     3a8:	4a02      	ldr	r2, [pc, #8]	; (3b4 <cmp_neq_zero+0x24>)
     3aa:	6853      	ldr	r3, [r2, #4]
     3ac:	f043 0320 	orr.w	r3, r3, #32
     3b0:	6053      	str	r3, [r2, #4]
     3b2:	4770      	bx	lr
     3b4:	20002480 	.word	0x20002480

000003b8 <cmp_equ_bits>:
     3b8:	4b09      	ldr	r3, [pc, #36]	; (3e0 <cmp_equ_bits+0x28>)
     3ba:	2200      	movs	r2, #0
     3bc:	605a      	str	r2, [r3, #4]
     3be:	685a      	ldr	r2, [r3, #4]
     3c0:	f042 0240 	orr.w	r2, r2, #64	; 0x40
     3c4:	605a      	str	r2, [r3, #4]
     3c6:	685b      	ldr	r3, [r3, #4]
     3c8:	f013 0f40 	tst.w	r3, #64	; 0x40
     3cc:	4b05      	ldr	r3, [pc, #20]	; (3e4 <cmp_equ_bits+0x2c>)
     3ce:	685a      	ldr	r2, [r3, #4]
     3d0:	bf14      	ite	ne
     3d2:	210b      	movne	r1, #11
     3d4:	210d      	moveq	r1, #13
     3d6:	f361 625d 	bfi	r2, r1, #25, #5
     3da:	605a      	str	r2, [r3, #4]
     3dc:	4770      	bx	lr
     3de:	bf00      	nop
     3e0:	20002480 	.word	0x20002480
     3e4:	200023e0 	.word	0x200023e0

000003e8 <cmp_neq_bits>:
     3e8:	4b0b      	ldr	r3, [pc, #44]	; (418 <cmp_neq_bits+0x30>)
     3ea:	2200      	movs	r2, #0
     3ec:	605a      	str	r2, [r3, #4]
     3ee:	685a      	ldr	r2, [r3, #4]
     3f0:	f042 0240 	orr.w	r2, r2, #64	; 0x40
     3f4:	605a      	str	r2, [r3, #4]
     3f6:	685b      	ldr	r3, [r3, #4]
     3f8:	f013 0f40 	tst.w	r3, #64	; 0x40
     3fc:	4b06      	ldr	r3, [pc, #24]	; (418 <cmp_neq_bits+0x30>)
     3fe:	f04f 0200 	mov.w	r2, #0
     402:	605a      	str	r2, [r3, #4]
     404:	685a      	ldr	r2, [r3, #4]
     406:	bf06      	itte	eq
     408:	2101      	moveq	r1, #1
     40a:	f361 0242 	bfieq	r2, r1, #1, #2
     40e:	f042 0220 	orrne.w	r2, r2, #32
     412:	605a      	str	r2, [r3, #4]
     414:	4770      	bx	lr
     416:	bf00      	nop
     418:	20002480 	.word	0x20002480

0000041c <cmp_equ_multi_bits>:
     41c:	4b12      	ldr	r3, [pc, #72]	; (468 <cmp_equ_multi_bits+0x4c>)
     41e:	2200      	movs	r2, #0
     420:	605a      	str	r2, [r3, #4]
     422:	685a      	ldr	r2, [r3, #4]
     424:	f042 0220 	orr.w	r2, r2, #32
     428:	605a      	str	r2, [r3, #4]
     42a:	685a      	ldr	r2, [r3, #4]
     42c:	f042 0240 	orr.w	r2, r2, #64	; 0x40
     430:	605a      	str	r2, [r3, #4]
     432:	685b      	ldr	r3, [r3, #4]
     434:	f013 0f20 	tst.w	r3, #32
     438:	d00d      	beq.n	456 <cmp_equ_multi_bits+0x3a>
     43a:	4b0b      	ldr	r3, [pc, #44]	; (468 <cmp_equ_multi_bits+0x4c>)
     43c:	685b      	ldr	r3, [r3, #4]
     43e:	f013 0f40 	tst.w	r3, #64	; 0x40
     442:	d008      	beq.n	456 <cmp_equ_multi_bits+0x3a>
     444:	4b09      	ldr	r3, [pc, #36]	; (46c <cmp_equ_multi_bits+0x50>)
     446:	2200      	movs	r2, #0
     448:	605a      	str	r2, [r3, #4]
     44a:	685a      	ldr	r2, [r3, #4]
     44c:	2111      	movs	r1, #17
     44e:	f361 625d 	bfi	r2, r1, #25, #5
     452:	605a      	str	r2, [r3, #4]
     454:	4770      	bx	lr
     456:	4b05      	ldr	r3, [pc, #20]	; (46c <cmp_equ_multi_bits+0x50>)
     458:	2200      	movs	r2, #0
     45a:	605a      	str	r2, [r3, #4]
     45c:	685a      	ldr	r2, [r3, #4]
     45e:	2117      	movs	r1, #23
     460:	f361 625d 	bfi	r2, r1, #25, #5
     464:	605a      	str	r2, [r3, #4]
     466:	4770      	bx	lr
     468:	20002480 	.word	0x20002480
     46c:	200023e0 	.word	0x200023e0

00000470 <cmp_neq_multi_bits>:
     470:	4b12      	ldr	r3, [pc, #72]	; (4bc <cmp_neq_multi_bits+0x4c>)
     472:	2200      	movs	r2, #0
     474:	605a      	str	r2, [r3, #4]
     476:	685a      	ldr	r2, [r3, #4]
     478:	f042 0220 	orr.w	r2, r2, #32
     47c:	605a      	str	r2, [r3, #4]
     47e:	685a      	ldr	r2, [r3, #4]
     480:	f042 0240 	orr.w	r2, r2, #64	; 0x40
     484:	605a      	str	r2, [r3, #4]
     486:	685b      	ldr	r3, [r3, #4]
     488:	f013 0f20 	tst.w	r3, #32
     48c:	d10d      	bne.n	4aa <cmp_neq_multi_bits+0x3a>
     48e:	4b0b      	ldr	r3, [pc, #44]	; (4bc <cmp_neq_multi_bits+0x4c>)
     490:	685b      	ldr	r3, [r3, #4]
     492:	f013 0f40 	tst.w	r3, #64	; 0x40
     496:	d108      	bne.n	4aa <cmp_neq_multi_bits+0x3a>
     498:	4b09      	ldr	r3, [pc, #36]	; (4c0 <cmp_neq_multi_bits+0x50>)
     49a:	2200      	movs	r2, #0
     49c:	605a      	str	r2, [r3, #4]
     49e:	685a      	ldr	r2, [r3, #4]
     4a0:	211d      	movs	r1, #29
     4a2:	f361 625d 	bfi	r2, r1, #25, #5
     4a6:	605a      	str	r2, [r3, #4]
     4a8:	4770      	bx	lr
     4aa:	4b05      	ldr	r3, [pc, #20]	; (4c0 <cmp_neq_multi_bits+0x50>)
     4ac:	2200      	movs	r2, #0
     4ae:	605a      	str	r2, [r3, #4]
     4b0:	685a      	ldr	r2, [r3, #4]
     4b2:	f042 5278 	orr.w	r2, r2, #1040187392	; 0x3e000000
     4b6:	605a      	str	r2, [r3, #4]
     4b8:	4770      	bx	lr
     4ba:	bf00      	nop
     4bc:	20002480 	.word	0x20002480
     4c0:	200023e0 	.word	0x200023e0

000004c4 <cmp_equ_mskd>:
     4c4:	4b0a      	ldr	r3, [pc, #40]	; (4f0 <cmp_equ_mskd+0x2c>)
     4c6:	2200      	movs	r2, #0
     4c8:	605a      	str	r2, [r3, #4]
     4ca:	685a      	ldr	r2, [r3, #4]
     4cc:	211d      	movs	r1, #29
     4ce:	f361 3210 	bfi	r2, r1, #12, #5
     4d2:	605a      	str	r2, [r3, #4]
     4d4:	685b      	ldr	r3, [r3, #4]
     4d6:	f3c3 3304 	ubfx	r3, r3, #12, #5
     4da:	2b11      	cmp	r3, #17
     4dc:	4b05      	ldr	r3, [pc, #20]	; (4f4 <cmp_equ_mskd+0x30>)
     4de:	685a      	ldr	r2, [r3, #4]
     4e0:	bf0c      	ite	eq
     4e2:	2107      	moveq	r1, #7
     4e4:	2111      	movne	r1, #17
     4e6:	f361 625d 	bfi	r2, r1, #25, #5
     4ea:	605a      	str	r2, [r3, #4]
     4ec:	4770      	bx	lr
     4ee:	bf00      	nop
     4f0:	20002480 	.word	0x20002480
     4f4:	200023e0 	.word	0x200023e0

000004f8 <cmp_neq_mskd>:
     4f8:	4b0c      	ldr	r3, [pc, #48]	; (52c <cmp_neq_mskd+0x34>)
     4fa:	2200      	movs	r2, #0
     4fc:	605a      	str	r2, [r3, #4]
     4fe:	685a      	ldr	r2, [r3, #4]
     500:	211d      	movs	r1, #29
     502:	f361 3210 	bfi	r2, r1, #12, #5
     506:	605a      	str	r2, [r3, #4]
     508:	685b      	ldr	r3, [r3, #4]
     50a:	f3c3 3304 	ubfx	r3, r3, #12, #5
     50e:	2b11      	cmp	r3, #17
     510:	d006      	beq.n	520 <cmp_neq_mskd+0x28>
     512:	4b06      	ldr	r3, [pc, #24]	; (52c <cmp_neq_mskd+0x34>)
     514:	685a      	ldr	r2, [r3, #4]
     516:	2102      	movs	r1, #2
     518:	f361 0242 	bfi	r2, r1, #1, #2
     51c:	605a      	str	r2, [r3, #4]
     51e:	4770      	bx	lr
     520:	4a02      	ldr	r2, [pc, #8]	; (52c <cmp_neq_mskd+0x34>)
     522:	6853      	ldr	r3, [r2, #4]
     524:	f043 0340 	orr.w	r3, r3, #64	; 0x40
     528:	6053      	str	r3, [r2, #4]
     52a:	4770      	bx	lr
     52c:	20002480 	.word	0x20002480

00000530 <cmp_equ_reg>:
     530:	4b20      	ldr	r3, [pc, #128]	; (5b4 <cmp_equ_reg+0x84>)
     532:	2200      	movs	r2, #0
     534:	605a      	str	r2, [r3, #4]
     536:	685a      	ldr	r2, [r3, #4]
     538:	f042 0220 	orr.w	r2, r2, #32
     53c:	605a      	str	r2, [r3, #4]
     53e:	685a      	ldr	r2, [r3, #4]
     540:	2101      	movs	r1, #1
     542:	f361 0242 	bfi	r2, r1, #1, #2
     546:	605a      	str	r2, [r3, #4]
     548:	685b      	ldr	r3, [r3, #4]
     54a:	f013 0f01 	tst.w	r3, #1
     54e:	d105      	bne.n	55c <cmp_equ_reg+0x2c>
     550:	4b18      	ldr	r3, [pc, #96]	; (5b4 <cmp_equ_reg+0x84>)
     552:	685b      	ldr	r3, [r3, #4]
     554:	f3c3 0341 	ubfx	r3, r3, #1, #2
     558:	428b      	cmp	r3, r1
     55a:	d008      	beq.n	56e <cmp_equ_reg+0x3e>
     55c:	4b16      	ldr	r3, [pc, #88]	; (5b8 <cmp_equ_reg+0x88>)
     55e:	2200      	movs	r2, #0
     560:	605a      	str	r2, [r3, #4]
     562:	685a      	ldr	r2, [r3, #4]
     564:	2117      	movs	r1, #23
     566:	f361 625d 	bfi	r2, r1, #25, #5
     56a:	605a      	str	r2, [r3, #4]
     56c:	4770      	bx	lr
     56e:	4b11      	ldr	r3, [pc, #68]	; (5b4 <cmp_equ_reg+0x84>)
     570:	685b      	ldr	r3, [r3, #4]
     572:	f013 0f01 	tst.w	r3, #1
     576:	d1f1      	bne.n	55c <cmp_equ_reg+0x2c>
     578:	4b0e      	ldr	r3, [pc, #56]	; (5b4 <cmp_equ_reg+0x84>)
     57a:	685b      	ldr	r3, [r3, #4]
     57c:	f013 0f20 	tst.w	r3, #32
     580:	d0ec      	beq.n	55c <cmp_equ_reg+0x2c>
     582:	4b0c      	ldr	r3, [pc, #48]	; (5b4 <cmp_equ_reg+0x84>)
     584:	685b      	ldr	r3, [r3, #4]
     586:	f013 0f40 	tst.w	r3, #64	; 0x40
     58a:	d1e7      	bne.n	55c <cmp_equ_reg+0x2c>
     58c:	4b09      	ldr	r3, [pc, #36]	; (5b4 <cmp_equ_reg+0x84>)
     58e:	685b      	ldr	r3, [r3, #4]
     590:	f413 6f78 	tst.w	r3, #3968	; 0xf80
     594:	d1e2      	bne.n	55c <cmp_equ_reg+0x2c>
     596:	4b07      	ldr	r3, [pc, #28]	; (5b4 <cmp_equ_reg+0x84>)
     598:	685b      	ldr	r3, [r3, #4]
     59a:	f413 3ff8 	tst.w	r3, #126976	; 0x1f000
     59e:	d1dd      	bne.n	55c <cmp_equ_reg+0x2c>
     5a0:	4b05      	ldr	r3, [pc, #20]	; (5b8 <cmp_equ_reg+0x88>)
     5a2:	2200      	movs	r2, #0
     5a4:	605a      	str	r2, [r3, #4]
     5a6:	685a      	ldr	r2, [r3, #4]
     5a8:	2115      	movs	r1, #21
     5aa:	f361 625d 	bfi	r2, r1, #25, #5
     5ae:	605a      	str	r2, [r3, #4]
     5b0:	4770      	bx	lr
     5b2:	bf00      	nop
     5b4:	20002480 	.word	0x20002480
     5b8:	200023e0 	.word	0x200023e0

000005bc <cmp_neq_reg>:
     5bc:	4b1f      	ldr	r3, [pc, #124]	; (63c <cmp_neq_reg+0x80>)
     5be:	2200      	movs	r2, #0
     5c0:	605a      	str	r2, [r3, #4]
     5c2:	685a      	ldr	r2, [r3, #4]
     5c4:	f042 0220 	orr.w	r2, r2, #32
     5c8:	605a      	str	r2, [r3, #4]
     5ca:	685a      	ldr	r2, [r3, #4]
     5cc:	2101      	movs	r1, #1
     5ce:	f361 0242 	bfi	r2, r1, #1, #2
     5d2:	605a      	str	r2, [r3, #4]
     5d4:	685b      	ldr	r3, [r3, #4]
     5d6:	f013 0f01 	tst.w	r3, #1
     5da:	d105      	bne.n	5e8 <cmp_neq_reg+0x2c>
     5dc:	4b17      	ldr	r3, [pc, #92]	; (63c <cmp_neq_reg+0x80>)
     5de:	685b      	ldr	r3, [r3, #4]
     5e0:	f3c3 0341 	ubfx	r3, r3, #1, #2
     5e4:	428b      	cmp	r3, r1
     5e6:	d008      	beq.n	5fa <cmp_neq_reg+0x3e>
     5e8:	4b14      	ldr	r3, [pc, #80]	; (63c <cmp_neq_reg+0x80>)
     5ea:	2200      	movs	r2, #0
     5ec:	605a      	str	r2, [r3, #4]
     5ee:	685a      	ldr	r2, [r3, #4]
     5f0:	2101      	movs	r1, #1
     5f2:	f361 0242 	bfi	r2, r1, #1, #2
     5f6:	605a      	str	r2, [r3, #4]
     5f8:	4770      	bx	lr
     5fa:	4b10      	ldr	r3, [pc, #64]	; (63c <cmp_neq_reg+0x80>)
     5fc:	685b      	ldr	r3, [r3, #4]
     5fe:	f013 0f01 	tst.w	r3, #1
     602:	d1f1      	bne.n	5e8 <cmp_neq_reg+0x2c>
     604:	4b0d      	ldr	r3, [pc, #52]	; (63c <cmp_neq_reg+0x80>)
     606:	685b      	ldr	r3, [r3, #4]
     608:	f013 0f20 	tst.w	r3, #32
     60c:	d0ec      	beq.n	5e8 <cmp_neq_reg+0x2c>
     60e:	4b0b      	ldr	r3, [pc, #44]	; (63c <cmp_neq_reg+0x80>)
     610:	685b      	ldr	r3, [r3, #4]
     612:	f013 0f40 	tst.w	r3, #64	; 0x40
     616:	d1e7      	bne.n	5e8 <cmp_neq_reg+0x2c>
     618:	4b08      	ldr	r3, [pc, #32]	; (63c <cmp_neq_reg+0x80>)
     61a:	685b      	ldr	r3, [r3, #4]
     61c:	f413 6f78 	tst.w	r3, #3968	; 0xf80
     620:	d1e2      	bne.n	5e8 <cmp_neq_reg+0x2c>
     622:	4b06      	ldr	r3, [pc, #24]	; (63c <cmp_neq_reg+0x80>)
     624:	685b      	ldr	r3, [r3, #4]
     626:	f413 3ff8 	tst.w	r3, #126976	; 0x1f000
     62a:	d1dd      	bne.n	5e8 <cmp_neq_reg+0x2c>
     62c:	4b03      	ldr	r3, [pc, #12]	; (63c <cmp_neq_reg+0x80>)
     62e:	2200      	movs	r2, #0
     630:	605a      	str	r2, [r3, #4]
     632:	685a      	ldr	r2, [r3, #4]
     634:	f042 0220 	orr.w	r2, r2, #32
     638:	605a      	str	r2, [r3, #4]
     63a:	4770      	bx	lr
     63c:	20002480 	.word	0x20002480

00000640 <constexpr_bits_array>:
     640:	4b06      	ldr	r3, [pc, #24]	; (65c <constexpr_bits_array+0x1c>)
     642:	2206      	movs	r2, #6
     644:	62da      	str	r2, [r3, #44]	; 0x2c
     646:	2200      	movs	r2, #0
     648:	f8c3 20a0 	str.w	r2, [r3, #160]	; 0xa0
     64c:	f8d3 20a0 	ldr.w	r2, [r3, #160]	; 0xa0
     650:	f442 5200 	orr.w	r2, r2, #8192	; 0x2000
     654:	f8c3 20a0 	str.w	r2, [r3, #160]	; 0xa0
     658:	4770      	bx	lr
     65a:	bf00      	nop
     65c:	200022c0 	.word	0x200022c0

00000660 <runtime_bits_array>:
     660:	b081      	sub	sp, #4
     662:	2303      	movs	r3, #3
     664:	9300      	str	r3, [sp, #0]
     666:	9b00      	ldr	r3, [sp, #0]
     668:	3308      	adds	r3, #8
     66a:	4a03      	ldr	r2, [pc, #12]	; (678 <runtime_bits_array+0x18>)
     66c:	2121      	movs	r1, #33	; 0x21
     66e:	f842 1023 	str.w	r1, [r2, r3, lsl #2]
     672:	b001      	add	sp, #4
     674:	4770      	bx	lr
     676:	bf00      	nop
     678:	200022c0 	.word	0x200022c0

0000067c <prescaler_low>:
     67c:	4b05      	ldr	r3, [pc, #20]	; (694 <prescaler_low+0x18>)
     67e:	685a      	ldr	r2, [r3, #4]
     680:	2177      	movs	r1, #119	; 0x77
     682:	f361 0206 	bfi	r2, r1, #0, #7
     686:	605a      	str	r2, [r3, #4]
     688:	685b      	ldr	r3, [r3, #4]
     68a:	f003 037f 	and.w	r3, r3, #127	; 0x7f
     68e:	4a02      	ldr	r2, [pc, #8]	; (698 <prescaler_low+0x1c>)
     690:	62d3      	str	r3, [r2, #44]	; 0x2c
     692:	4770      	bx	lr
     694:	200023e0 	.word	0x200023e0
     698:	200022c0 	.word	0x200022c0

0000069c <prescaler_high>:
     69c:	4b05      	ldr	r3, [pc, #20]	; (6b4 <prescaler_high+0x18>)
     69e:	685a      	ldr	r2, [r3, #4]
     6a0:	211d      	movs	r1, #29
     6a2:	f361 625d 	bfi	r2, r1, #25, #5
     6a6:	605a      	str	r2, [r3, #4]
     6a8:	685b      	ldr	r3, [r3, #4]
     6aa:	f3c3 6344 	ubfx	r3, r3, #25, #5
     6ae:	4a02      	ldr	r2, [pc, #8]	; (6b8 <prescaler_high+0x1c>)
     6b0:	62d3      	str	r3, [r2, #44]	; 0x2c
     6b2:	4770      	bx	lr
     6b4:	200023e0 	.word	0x200023e0
     6b8:	200022c0 	.word	0x200022c0

000006bc <reg_mskd_lss>:
     6bc:	4b0d      	ldr	r3, [pc, #52]	; (6f4 <reg_mskd_lss+0x38>)
     6be:	685a      	ldr	r2, [r3, #4]
     6c0:	211b      	movs	r1, #27
     6c2:	f361 625d 	bfi	r2, r1, #25, #5
     6c6:	605a      	str	r2, [r3, #4]
     6c8:	4a0b      	ldr	r2, [pc, #44]	; (6f8 <reg_mskd_lss+0x3c>)
     6ca:	2100      	movs	r1, #0
     6cc:	6051      	str	r1, [r2, #4]
     6ce:	685b      	ldr	r3, [r3, #4]
     6d0:	f3c3 6344 	ubfx	r3, r3, #25, #5
     6d4:	2b1b      	cmp	r3, #27
     6d6:	d806      	bhi.n	6e6 <reg_mskd_lss+0x2a>
     6d8:	4613      	mov	r3, r2
     6da:	6852      	ldr	r2, [r2, #4]
     6dc:	2101      	movs	r1, #1
     6de:	f361 0242 	bfi	r2, r1, #1, #2
     6e2:	605a      	str	r2, [r3, #4]
     6e4:	4770      	bx	lr
     6e6:	4b04      	ldr	r3, [pc, #16]	; (6f8 <reg_mskd_lss+0x3c>)
     6e8:	685a      	ldr	r2, [r3, #4]
     6ea:	2102      	movs	r1, #2
     6ec:	f361 0242 	bfi	r2, r1, #1, #2
     6f0:	605a      	str	r2, [r3, #4]
     6f2:	4770      	bx	lr
     6f4:	200023e0 	.word	0x200023e0
     6f8:	20002480 	.word	0x20002480

000006fc <reg_mskd_leq>:
     6fc:	4b10      	ldr	r3, [pc, #64]	; (740 <reg_mskd_leq+0x44>)
     6fe:	685a      	ldr	r2, [r3, #4]
     700:	2117      	movs	r1, #23
     702:	f361 625d 	bfi	r2, r1, #25, #5
     706:	605a      	str	r2, [r3, #4]
     708:	4a0e      	ldr	r2, [pc, #56]	; (744 <reg_mskd_leq+0x48>)
     70a:	2100      	movs	r1, #0
     70c:	6051      	str	r1, [r2, #4]
     70e:	685b      	ldr	r3, [r3, #4]
     710:	f3c3 6344 	ubfx	r3, r3, #25, #5
     714:	2b17      	cmp	r3, #23
     716:	d80c      	bhi.n	732 <reg_mskd_leq+0x36>
     718:	4b09      	ldr	r3, [pc, #36]	; (740 <reg_mskd_leq+0x44>)
     71a:	685b      	ldr	r3, [r3, #4]
     71c:	f3c3 6344 	ubfx	r3, r3, #25, #5
     720:	2b18      	cmp	r3, #24
     722:	d806      	bhi.n	732 <reg_mskd_leq+0x36>
     724:	4613      	mov	r3, r2
     726:	6852      	ldr	r2, [r2, #4]
     728:	2101      	movs	r1, #1
     72a:	f361 0242 	bfi	r2, r1, #1, #2
     72e:	605a      	str	r2, [r3, #4]
     730:	4770      	bx	lr
     732:	4b04      	ldr	r3, [pc, #16]	; (744 <reg_mskd_leq+0x48>)
     734:	685a      	ldr	r2, [r3, #4]
     736:	2102      	movs	r1, #2
     738:	f361 0242 	bfi	r2, r1, #1, #2
     73c:	605a      	str	r2, [r3, #4]
     73e:	4770      	bx	lr
     740:	200023e0 	.word	0x200023e0
     744:	20002480 	.word	0x20002480

00000748 <reg_mskd_gtr>:
     748:	4b0d      	ldr	r3, [pc, #52]	; (780 <reg_mskd_gtr+0x38>)
     74a:	685a      	ldr	r2, [r3, #4]
     74c:	2113      	movs	r1, #19
     74e:	f361 625d 	bfi	r2, r1, #25, #5
     752:	605a      	str	r2, [r3, #4]
     754:	4a0b      	ldr	r2, [pc, #44]	; (784 <reg_mskd_gtr+0x3c>)
     756:	2100      	movs	r1, #0
     758:	6051      	str	r1, [r2, #4]
     75a:	685b      	ldr	r3, [r3, #4]
     75c:	f3c3 6344 	ubfx	r3, r3, #25, #5
     760:	2b12      	cmp	r3, #18
     762:	d906      	bls.n	772 <reg_mskd_gtr+0x2a>
     764:	4613      	mov	r3, r2
     766:	6852      	ldr	r2, [r2, #4]
     768:	2101      	movs	r1, #1
     76a:	f361 0242 	bfi	r2, r1, #1, #2
     76e:	605a      	str	r2, [r3, #4]
     770:	4770      	bx	lr
     772:	4b04      	ldr	r3, [pc, #16]	; (784 <reg_mskd_gtr+0x3c>)
     774:	685a      	ldr	r2, [r3, #4]
     776:	2102      	movs	r1, #2
     778:	f361 0242 	bfi	r2, r1, #1, #2
     77c:	605a      	str	r2, [r3, #4]
     77e:	4770      	bx	lr
     780:	200023e0 	.word	0x200023e0
     784:	20002480 	.word	0x20002480

00000788 <reg_mskd_geq>:
     788:	4b10      	ldr	r3, [pc, #64]	; (7cc <reg_mskd_geq+0x44>)
     78a:	685a      	ldr	r2, [r3, #4]
     78c:	2111      	movs	r1, #17
     78e:	f361 625d 	bfi	r2, r1, #25, #5
     792:	605a      	str	r2, [r3, #4]
     794:	4a0e      	ldr	r2, [pc, #56]	; (7d0 <reg_mskd_geq+0x48>)
     796:	2100      	movs	r1, #0
     798:	6051      	str	r1, [r2, #4]
     79a:	685b      	ldr	r3, [r3, #4]
     79c:	f3c3 6344 	ubfx	r3, r3, #25, #5
     7a0:	2b0f      	cmp	r3, #15
     7a2:	d90c      	bls.n	7be <reg_mskd_geq+0x36>
     7a4:	4b09      	ldr	r3, [pc, #36]	; (7cc <reg_mskd_geq+0x44>)
     7a6:	685b      	ldr	r3, [r3, #4]
     7a8:	f3c3 6344 	ubfx	r3, r3, #25, #5
     7ac:	2b10      	cmp	r3, #16
     7ae:	d906      	bls.n	7be <reg_mskd_geq+0x36>
     7b0:	4613      	mov	r3, r2
     7b2:	6852      	ldr	r2, [r2, #4]
     7b4:	2101      	movs	r1, #1
     7b6:	f361 0242 	bfi	r2, r1, #1, #2
     7ba:	605a      	str	r2, [r3, #4]
     7bc:	4770      	bx	lr
     7be:	4b04      	ldr	r3, [pc, #16]	; (7d0 <reg_mskd_geq+0x48>)
     7c0:	685a      	ldr	r2, [r3, #4]
     7c2:	2102      	movs	r1, #2
     7c4:	f361 0242 	bfi	r2, r1, #1, #2
     7c8:	605a      	str	r2, [r3, #4]
     7ca:	4770      	bx	lr
     7cc:	200023e0 	.word	0x200023e0
     7d0:	20002480 	.word	0x20002480

000007d4 <pos_cmp_eq>:
     7d4:	4b04      	ldr	r3, [pc, #16]	; (7e8 <pos_cmp_eq+0x14>)
     7d6:	2200      	movs	r2, #0
     7d8:	605a      	str	r2, [r3, #4]
     7da:	685a      	ldr	r2, [r3, #4]
     7dc:	2101      	movs	r1, #1
     7de:	f361 0242 	bfi	r2, r1, #1, #2
     7e2:	605a      	str	r2, [r3, #4]
     7e4:	4770      	bx	lr
     7e6:	bf00      	nop
     7e8:	20002480 	.word	0x20002480

000007ec <pos_cmp_ne>:
     7ec:	4b04      	ldr	r3, [pc, #16]	; (800 <pos_cmp_ne+0x14>)
     7ee:	2200      	movs	r2, #0
     7f0:	605a      	str	r2, [r3, #4]
     7f2:	685a      	ldr	r2, [r3, #4]
     7f4:	2101      	movs	r1, #1
     7f6:	f361 0242 	bfi	r2, r1, #1, #2
     7fa:	605a      	str	r2, [r3, #4]
     7fc:	4770      	bx	lr
     7fe:	bf00      	nop
     800:	20002480 	.word	0x20002480

00000804 <bits_extract_eq>:
     804:	4b0b      	ldr	r3, [pc, #44]	; (834 <bits_extract_eq+0x30>)
     806:	685a      	ldr	r2, [r3, #4]
     808:	f042 0240 	orr.w	r2, r2, #64	; 0x40
     80c:	605a      	str	r2, [r3, #4]
     80e:	685a      	ldr	r2, [r3, #4]
     810:	2100      	movs	r1, #0
     812:	6059      	str	r1, [r3, #4]
     814:	f012 0f40 	tst.w	r2, #64	; 0x40
     818:	d005      	beq.n	826 <bits_extract_eq+0x22>
     81a:	685a      	ldr	r2, [r3, #4]
     81c:	2101      	movs	r1, #1
     81e:	f361 0242 	bfi	r2, r1, #1, #2
     822:	605a      	str	r2, [r3, #4]
     824:	4770      	bx	lr
     826:	4b03      	ldr	r3, [pc, #12]	; (834 <bits_extract_eq+0x30>)
     828:	685a      	ldr	r2, [r3, #4]
     82a:	2102      	movs	r1, #2
     82c:	f361 0242 	bfi	r2, r1, #1, #2
     830:	605a      	str	r2, [r3, #4]
     832:	4770      	bx	lr
     834:	20002480 	.word	0x20002480

00000838 <mskd_extract_eq>:
     838:	4b0a      	ldr	r3, [pc, #40]	; (864 <mskd_extract_eq+0x2c>)
     83a:	685a      	ldr	r2, [r3, #4]
     83c:	2101      	movs	r1, #1
     83e:	f361 0242 	bfi	r2, r1, #1, #2
     842:	605a      	str	r2, [r3, #4]
     844:	685a      	ldr	r2, [r3, #4]
     846:	2100      	movs	r1, #0
     848:	6059      	str	r1, [r3, #4]
     84a:	f3c2 0341 	ubfx	r3, r2, #1, #2
     84e:	2b01      	cmp	r3, #1
     850:	4a04      	ldr	r2, [pc, #16]	; (864 <mskd_extract_eq+0x2c>)
     852:	6853      	ldr	r3, [r2, #4]
     854:	bf0c      	ite	eq
     856:	f043 0320 	orreq.w	r3, r3, #32
     85a:	f043 0340 	orrne.w	r3, r3, #64	; 0x40
     85e:	6053      	str	r3, [r2, #4]
     860:	4770      	bx	lr
     862:	bf00      	nop
     864:	20002480 	.word	0x20002480

00000868 <mskd_extract_ne>:
     868:	4b0a      	ldr	r3, [pc, #40]	; (894 <mskd_extract_ne+0x2c>)
     86a:	2100      	movs	r1, #0
     86c:	6059      	str	r1, [r3, #4]
     86e:	685a      	ldr	r2, [r3, #4]
     870:	2002      	movs	r0, #2
     872:	f360 0242 	bfi	r2, r0, #1, #2
     876:	605a      	str	r2, [r3, #4]
     878:	685a      	ldr	r2, [r3, #4]
     87a:	6059      	str	r1, [r3, #4]
     87c:	f3c2 0341 	ubfx	r3, r2, #1, #2
     880:	4283      	cmp	r3, r0
     882:	4a04      	ldr	r2, [pc, #16]	; (894 <mskd_extract_ne+0x2c>)
     884:	6853      	ldr	r3, [r2, #4]
     886:	bf14      	ite	ne
     888:	f043 0320 	orrne.w	r3, r3, #32
     88c:	f043 0340 	orreq.w	r3, r3, #64	; 0x40
     890:	6053      	str	r3, [r2, #4]
     892:	4770      	bx	lr
     894:	20002480 	.word	0x20002480

00000898 <mskd_extract_lss>:
     898:	4b0c      	ldr	r3, [pc, #48]	; (8cc <mskd_extract_lss+0x34>)
     89a:	2200      	movs	r2, #0
     89c:	605a      	str	r2, [r3, #4]
     89e:	6859      	ldr	r1, [r3, #4]
     8a0:	200b      	movs	r0, #11
     8a2:	f360 615d 	bfi	r1, r0, #25, #5
     8a6:	6059      	str	r1, [r3, #4]
     8a8:	685b      	ldr	r3, [r3, #4]
     8aa:	4909      	ldr	r1, [pc, #36]	; (8d0 <mskd_extract_lss+0x38>)
     8ac:	604a      	str	r2, [r1, #4]
     8ae:	f3c3 6344 	ubfx	r3, r3, #25, #5
     8b2:	4283      	cmp	r3, r0
     8b4:	d804      	bhi.n	8c0 <mskd_extract_lss+0x28>
     8b6:	684b      	ldr	r3, [r1, #4]
     8b8:	f043 0320 	orr.w	r3, r3, #32
     8bc:	604b      	str	r3, [r1, #4]
     8be:	4770      	bx	lr
     8c0:	4a03      	ldr	r2, [pc, #12]	; (8d0 <mskd_extract_lss+0x38>)
     8c2:	6853      	ldr	r3, [r2, #4]
     8c4:	f043 0340 	orr.w	r3, r3, #64	; 0x40
     8c8:	6053      	str	r3, [r2, #4]
     8ca:	4770      	bx	lr
     8cc:	200023e0 	.word	0x200023e0
     8d0:	20002480 	.word	0x20002480

000008d4 <mskd_extract_leq>:
     8d4:	4b0d      	ldr	r3, [pc, #52]	; (90c <mskd_extract_leq+0x38>)
     8d6:	2200      	movs	r2, #0
     8d8:	605a      	str	r2, [r3, #4]
     8da:	6859      	ldr	r1, [r3, #4]
     8dc:	2017      	movs	r0, #23
     8de:	f360 615d 	bfi	r1, r0, #25, #5
     8e2:	6059      	str	r1, [r3, #4]
     8e4:	685b      	ldr	r3, [r3, #4]
     8e6:	490a      	ldr	r1, [pc, #40]	; (910 <mskd_extract_leq+0x3c>)
     8e8:	604a      	str	r2, [r1, #4]
     8ea:	f3c3 6244 	ubfx	r2, r3, #25, #5
     8ee:	4282      	cmp	r2, r0
     8f0:	d806      	bhi.n	900 <mskd_extract_leq+0x2c>
     8f2:	2a18      	cmp	r2, #24
     8f4:	d804      	bhi.n	900 <mskd_extract_leq+0x2c>
     8f6:	684b      	ldr	r3, [r1, #4]
     8f8:	f043 0320 	orr.w	r3, r3, #32
     8fc:	604b      	str	r3, [r1, #4]
     8fe:	4770      	bx	lr
     900:	4a03      	ldr	r2, [pc, #12]	; (910 <mskd_extract_leq+0x3c>)
     902:	6853      	ldr	r3, [r2, #4]
     904:	f043 0340 	orr.w	r3, r3, #64	; 0x40
     908:	6053      	str	r3, [r2, #4]
     90a:	4770      	bx	lr
     90c:	200023e0 	.word	0x200023e0
     910:	20002480 	.word	0x20002480

00000914 <mskd_extract_gtr>:
     914:	4b0c      	ldr	r3, [pc, #48]	; (948 <mskd_extract_gtr+0x34>)
     916:	2200      	movs	r2, #0
     918:	605a      	str	r2, [r3, #4]
     91a:	6859      	ldr	r1, [r3, #4]
     91c:	2013      	movs	r0, #19
     91e:	f360 615d 	bfi	r1, r0, #25, #5
     922:	6059      	str	r1, [r3, #4]
     924:	685b      	ldr	r3, [r3, #4]
     926:	4909      	ldr	r1, [pc, #36]	; (94c <mskd_extract_gtr+0x38>)
     928:	604a      	str	r2, [r1, #4]
     92a:	f3c3 6344 	ubfx	r3, r3, #25, #5
     92e:	2b12      	cmp	r3, #18
     930:	d904      	bls.n	93c <mskd_extract_gtr+0x28>
     932:	684b      	ldr	r3, [r1, #4]
     934:	f043 0320 	orr.w	r3, r3, #32
     938:	604b      	str	r3, [r1, #4]
     93a:	4770      	bx	lr
     93c:	4a03      	ldr	r2, [pc, #12]	; (94c <mskd_extract_gtr+0x38>)
     93e:	6853      	ldr	r3, [r2, #4]
     940:	f043 0340 	orr.w	r3, r3, #64	; 0x40
     944:	6053      	str	r3, [r2, #4]
     946:	4770      	bx	lr
     948:	200023e0 	.word	0x200023e0
     94c:	20002480 	.word	0x20002480

00000950 <set_bits_global>:
     950:	4a02      	ldr	r2, [pc, #8]	; (95c <set_bits_global+0xc>)
     952:	6853      	ldr	r3, [r2, #4]
     954:	f043 0340 	orr.w	r3, r3, #64	; 0x40
     958:	6053      	str	r3, [r2, #4]
     95a:	4770      	bx	lr
     95c:	20002480 	.word	0x20002480

00000960 <ins_mskd_global>:
     960:	4b03      	ldr	r3, [pc, #12]	; (970 <ins_mskd_global+0x10>)
     962:	685a      	ldr	r2, [r3, #4]
     964:	2101      	movs	r1, #1
     966:	f361 0242 	bfi	r2, r1, #1, #2
     96a:	605a      	str	r2, [r3, #4]
     96c:	4770      	bx	lr
     96e:	bf00      	nop
     970:	20002480 	.word	0x20002480

00000974 <assign_array_global>:
     974:	4b01      	ldr	r3, [pc, #4]	; (97c <assign_array_global+0x8>)
     976:	22bd      	movs	r2, #189	; 0xbd
     978:	601a      	str	r2, [r3, #0]
     97a:	4770      	bx	lr
     97c:	200022ec 	.word	0x200022ec

00000980 <shifted_global>:
     980:	4b05      	ldr	r3, [pc, #20]	; (998 <shifted_global+0x18>)
     982:	685a      	ldr	r2, [r3, #4]
     984:	2117      	movs	r1, #23
     986:	f361 625d 	bfi	r2, r1, #25, #5
     98a:	605a      	str	r2, [r3, #4]
     98c:	685b      	ldr	r3, [r3, #4]
     98e:	f3c3 6344 	ubfx	r3, r3, #25, #5
     992:	4a02      	ldr	r2, [pc, #8]	; (99c <shifted_global+0x1c>)
     994:	62d3      	str	r3, [r2, #44]	; 0x2c
     996:	4770      	bx	lr
     998:	200023e0 	.word	0x200023e0
     99c:	200022c0 	.word	0x200022c0

000009a0 <assign_register_global>:
     9a0:	4b04      	ldr	r3, [pc, #16]	; (9b4 <assign_register_global+0x14>)
     9a2:	2200      	movs	r2, #0
     9a4:	605a      	str	r2, [r3, #4]
     9a6:	685a      	ldr	r2, [r3, #4]
     9a8:	2102      	movs	r1, #2
     9aa:	f361 0242 	bfi	r2, r1, #1, #2
     9ae:	605a      	str	r2, [r3, #4]
     9b0:	4770      	bx	lr
     9b2:	bf00      	nop
     9b4:	20002480 	.word	0x20002480

000009b8 <copy_bits_equ>:
     9b8:	4b0c      	ldr	r3, [pc, #48]	; (9ec <copy_bits_equ+0x34>)
     9ba:	2100      	movs	r1, #0
     9bc:	6059      	str	r1, [r3, #4]
     9be:	685a      	ldr	r2, [r3, #4]
     9c0:	f042 0240 	orr.w	r2, r2, #64	; 0x40
     9c4:	605a      	str	r2, [r3, #4]
     9c6:	685a      	ldr	r2, [r3, #4]
     9c8:	6059      	str	r1, [r3, #4]
     9ca:	f012 0f40 	tst.w	r2, #64	; 0x40
     9ce:	d106      	bne.n	9de <copy_bits_equ+0x26>
     9d0:	4b06      	ldr	r3, [pc, #24]	; (9ec <copy_bits_equ+0x34>)
     9d2:	685a      	ldr	r2, [r3, #4]
     9d4:	2102      	movs	r1, #2
     9d6:	f361 0242 	bfi	r2, r1, #1, #2
     9da:	605a      	str	r2, [r3, #4]
     9dc:	4770      	bx	lr
     9de:	685a      	ldr	r2, [r3, #4]
     9e0:	2101      	movs	r1, #1
     9e2:	f361 0242 	bfi	r2, r1, #1, #2
     9e6:	605a      	str	r2, [r3, #4]
     9e8:	4770      	bx	lr
     9ea:	bf00      	nop
     9ec:	20002480 	.word	0x20002480

000009f0 <copy_bits_neq>:
     9f0:	4b0c      	ldr	r3, [pc, #48]	; (a24 <copy_bits_neq+0x34>)
     9f2:	2100      	movs	r1, #0
     9f4:	6059      	str	r1, [r3, #4]
     9f6:	685a      	ldr	r2, [r3, #4]
     9f8:	f042 0240 	orr.w	r2, r2, #64	; 0x40
     9fc:	605a      	str	r2, [r3, #4]
     9fe:	685a      	ldr	r2, [r3, #4]
     a00:	6059      	str	r1, [r3, #4]
     a02:	f012 0f40 	tst.w	r2, #64	; 0x40
     a06:	d105      	bne.n	a14 <copy_bits_neq+0x24>
     a08:	685a      	ldr	r2, [r3, #4]
     a0a:	2101      	movs	r1, #1
     a0c:	f361 0242 	bfi	r2, r1, #1, #2
     a10:	605a      	str	r2, [r3, #4]
     a12:	4770      	bx	lr
     a14:	4b03      	ldr	r3, [pc, #12]	; (a24 <copy_bits_neq+0x34>)
     a16:	685a      	ldr	r2, [r3, #4]
     a18:	2102      	movs	r1, #2
     a1a:	f361 0242 	bfi	r2, r1, #1, #2
     a1e:	605a      	str	r2, [r3, #4]
     a20:	4770      	bx	lr
     a22:	bf00      	nop
     a24:	20002480 	.word	0x20002480

00000a28 <copy_mskd_equ>:
     a28:	4b0e      	ldr	r3, [pc, #56]	; (a64 <copy_mskd_equ+0x3c>)
     a2a:	2200      	movs	r2, #0
     a2c:	605a      	str	r2, [r3, #4]
     a2e:	6859      	ldr	r1, [r3, #4]
     a30:	200b      	movs	r0, #11
     a32:	f360 615d 	bfi	r1, r0, #25, #5
     a36:	6059      	str	r1, [r3, #4]
     a38:	685b      	ldr	r3, [r3, #4]
     a3a:	f3c3 6344 	ubfx	r3, r3, #25, #5
     a3e:	490a      	ldr	r1, [pc, #40]	; (a68 <copy_mskd_equ+0x40>)
     a40:	604a      	str	r2, [r1, #4]
     a42:	4283      	cmp	r3, r0
     a44:	d006      	beq.n	a54 <copy_mskd_equ+0x2c>
     a46:	4b08      	ldr	r3, [pc, #32]	; (a68 <copy_mskd_equ+0x40>)
     a48:	685a      	ldr	r2, [r3, #4]
     a4a:	2102      	movs	r1, #2
     a4c:	f361 0242 	bfi	r2, r1, #1, #2
     a50:	605a      	str	r2, [r3, #4]
     a52:	4770      	bx	lr
     a54:	460b      	mov	r3, r1
     a56:	684a      	ldr	r2, [r1, #4]
     a58:	2101      	movs	r1, #1
     a5a:	f361 0242 	bfi	r2, r1, #1, #2
     a5e:	605a      	str	r2, [r3, #4]
     a60:	4770      	bx	lr
     a62:	bf00      	nop
     a64:	200023e0 	.word	0x200023e0
     a68:	20002480 	.word	0x20002480

00000a6c <copy_mskd_neq>:
     a6c:	4b0e      	ldr	r3, [pc, #56]	; (aa8 <copy_mskd_neq+0x3c>)
     a6e:	2200      	movs	r2, #0
     a70:	605a      	str	r2, [r3, #4]
     a72:	6859      	ldr	r1, [r3, #4]
     a74:	200d      	movs	r0, #13
     a76:	f360 615d 	bfi	r1, r0, #25, #5
     a7a:	6059      	str	r1, [r3, #4]
     a7c:	685b      	ldr	r3, [r3, #4]
     a7e:	f3c3 6344 	ubfx	r3, r3, #25, #5
     a82:	490a      	ldr	r1, [pc, #40]	; (aac <copy_mskd_neq+0x40>)
     a84:	604a      	str	r2, [r1, #4]
     a86:	4283      	cmp	r3, r0
     a88:	d006      	beq.n	a98 <copy_mskd_neq+0x2c>
     a8a:	460b      	mov	r3, r1
     a8c:	684a      	ldr	r2, [r1, #4]
     a8e:	2101      	movs	r1, #1
     a90:	f361 0242 	bfi	r2, r1, #1, #2
     a94:	605a      	str	r2, [r3, #4]
     a96:	4770      	bx	lr
     a98:	4b04      	ldr	r3, [pc, #16]	; (aac <copy_mskd_neq+0x40>)
     a9a:	685a      	ldr	r2, [r3, #4]
     a9c:	2102      	movs	r1, #2
     a9e:	f361 0242 	bfi	r2, r1, #1, #2
     aa2:	605a      	str	r2, [r3, #4]
     aa4:	4770      	bx	lr
     aa6:	bf00      	nop
     aa8:	200023e0 	.word	0x200023e0
     aac:	20002480 	.word	0x20002480

00000ab0 <copy_mskd_lss>:
     ab0:	4b0e      	ldr	r3, [pc, #56]	; (aec <copy_mskd_lss+0x3c>)
     ab2:	2200      	movs	r2, #0
     ab4:	605a      	str	r2, [r3, #4]
     ab6:	6859      	ldr	r1, [r3, #4]
     ab8:	201b      	movs	r0, #27
     aba:	f360 615d 	bfi	r1, r0, #25, #5
     abe:	6059      	str	r1, [r3, #4]
     ac0:	685b      	ldr	r3, [r3, #4]
     ac2:	f3c3 6344 	ubfx	r3, r3, #25, #5
     ac6:	490a      	ldr	r1, [pc, #40]	; (af0 <copy_mskd_lss+0x40>)
     ac8:	604a      	str	r2, [r1, #4]
     aca:	4283      	cmp	r3, r0
     acc:	d806      	bhi.n	adc <copy_mskd_lss+0x2c>
     ace:	460b      	mov	r3, r1
     ad0:	684a      	ldr	r2, [r1, #4]
     ad2:	2101      	movs	r1, #1
     ad4:	f361 0242 	bfi	r2, r1, #1, #2
     ad8:	605a      	str	r2, [r3, #4]
     ada:	4770      	bx	lr
     adc:	4b04      	ldr	r3, [pc, #16]	; (af0 <copy_mskd_lss+0x40>)
     ade:	685a      	ldr	r2, [r3, #4]
     ae0:	2102      	movs	r1, #2
     ae2:	f361 0242 	bfi	r2, r1, #1, #2
     ae6:	605a      	str	r2, [r3, #4]
     ae8:	4770      	bx	lr
     aea:	bf00      	nop
     aec:	200023e0 	.word	0x200023e0
     af0:	20002480 	.word	0x20002480

00000af4 <copy_mskd_leq>:
     af4:	4b0e      	ldr	r3, [pc, #56]	; (b30 <copy_mskd_leq+0x3c>)
     af6:	2200      	movs	r2, #0
     af8:	605a      	str	r2, [r3, #4]
     afa:	6859      	ldr	r1, [r3, #4]
     afc:	2017      	movs	r0, #23
     afe:	f360 615d 	bfi	r1, r0, #25, #5
     b02:	6059      	str	r1, [r3, #4]
     b04:	685b      	ldr	r3, [r3, #4]
     b06:	f3c3 6344 	ubfx	r3, r3, #25, #5
     b0a:	490a      	ldr	r1, [pc, #40]	; (b34 <copy_mskd_leq+0x40>)
     b0c:	604a      	str	r2, [r1, #4]
     b0e:	4283      	cmp	r3, r0
     b10:	d806      	bhi.n	b20 <copy_mskd_leq+0x2c>
     b12:	460b      	mov	r3, r1
     b14:	684a      	ldr	r2, [r1, #4]
     b16:	2101      	movs	r1, #1
     b18:	f361 0242 	bfi	r2, r1, #1, #2
     b1c:	605a      	str	r2, [r3, #4]
     b1e:	4770      	bx	lr
     b20:	4b04      	ldr	r3, [pc, #16]	; (b34 <copy_mskd_leq+0x40>)
     b22:	685a      	ldr	r2, [r3, #4]
     b24:	2102      	movs	r1, #2
     b26:	f361 0242 	bfi	r2, r1, #1, #2
     b2a:	605a      	str	r2, [r3, #4]
     b2c:	4770      	bx	lr
     b2e:	bf00      	nop
     b30:	200023e0 	.word	0x200023e0
     b34:	20002480 	.word	0x20002480

00000b38 <copy_mskd_gtr>:
     b38:	4b0e      	ldr	r3, [pc, #56]	; (b74 <copy_mskd_gtr+0x3c>)
     b3a:	2200      	movs	r2, #0
     b3c:	605a      	str	r2, [r3, #4]
     b3e:	6859      	ldr	r1, [r3, #4]
     b40:	2013      	movs	r0, #19
     b42:	f360 615d 	bfi	r1, r0, #25, #5
     b46:	6059      	str	r1, [r3, #4]
     b48:	685b      	ldr	r3, [r3, #4]
     b4a:	f3c3 6344 	ubfx	r3, r3, #25, #5
     b4e:	490a      	ldr	r1, [pc, #40]	; (b78 <copy_mskd_gtr+0x40>)
     b50:	604a      	str	r2, [r1, #4]
     b52:	2b12      	cmp	r3, #18
     b54:	d906      	bls.n	b64 <copy_mskd_gtr+0x2c>
     b56:	460b      	mov	r3, r1
     b58:	684a      	ldr	r2, [r1, #4]
     b5a:	2101      	movs	r1, #1
     b5c:	f361 0242 	bfi	r2, r1, #1, #2
     b60:	605a      	str	r2, [r3, #4]
     b62:	4770      	bx	lr
     b64:	4b04      	ldr	r3, [pc, #16]	; (b78 <copy_mskd_gtr+0x40>)
     b66:	685a      	ldr	r2, [r3, #4]
     b68:	2102      	movs	r1, #2
     b6a:	f361 0242 	bfi	r2, r1, #1, #2
     b6e:	605a      	str	r2, [r3, #4]
     b70:	4770      	bx	lr
     b72:	bf00      	nop
     b74:	200023e0 	.word	0x200023e0
     b78:	20002480 	.word	0x20002480

00000b7c <copy_mskd_geq>:
     b7c:	4b0e      	ldr	r3, [pc, #56]	; (bb8 <copy_mskd_geq+0x3c>)
     b7e:	2200      	movs	r2, #0
     b80:	605a      	str	r2, [r3, #4]
     b82:	6859      	ldr	r1, [r3, #4]
     b84:	2011      	movs	r0, #17
     b86:	f360 615d 	bfi	r1, r0, #25, #5
     b8a:	6059      	str	r1, [r3, #4]
     b8c:	685b      	ldr	r3, [r3, #4]
     b8e:	f3c3 6344 	ubfx	r3, r3, #25, #5
     b92:	490a      	ldr	r1, [pc, #40]	; (bbc <copy_mskd_geq+0x40>)
     b94:	604a      	str	r2, [r1, #4]
     b96:	2b10      	cmp	r3, #16
     b98:	d906      	bls.n	ba8 <copy_mskd_geq+0x2c>
     b9a:	460b      	mov	r3, r1
     b9c:	684a      	ldr	r2, [r1, #4]
     b9e:	2101      	movs	r1, #1
     ba0:	f361 0242 	bfi	r2, r1, #1, #2
     ba4:	605a      	str	r2, [r3, #4]
     ba6:	4770      	bx	lr
     ba8:	4b04      	ldr	r3, [pc, #16]	; (bbc <copy_mskd_geq+0x40>)
     baa:	685a      	ldr	r2, [r3, #4]
     bac:	2102      	movs	r1, #2
     bae:	f361 0242 	bfi	r2, r1, #1, #2
     bb2:	605a      	str	r2, [r3, #4]
     bb4:	4770      	bx	lr
     bb6:	bf00      	nop
     bb8:	200023e0 	.word	0x200023e0
     bbc:	20002480 	.word	0x20002480

00000bc0 <copy_shifted>:
     bc0:	4b0e      	ldr	r3, [pc, #56]	; (bfc <copy_shifted+0x3c>)
     bc2:	2200      	movs	r2, #0
     bc4:	605a      	str	r2, [r3, #4]
     bc6:	6859      	ldr	r1, [r3, #4]
     bc8:	200b      	movs	r0, #11
     bca:	f360 615d 	bfi	r1, r0, #25, #5
     bce:	6059      	str	r1, [r3, #4]
     bd0:	685b      	ldr	r3, [r3, #4]
     bd2:	f3c3 6344 	ubfx	r3, r3, #25, #5
     bd6:	490a      	ldr	r1, [pc, #40]	; (c00 <copy_shifted+0x40>)
     bd8:	604a      	str	r2, [r1, #4]
     bda:	4283      	cmp	r3, r0
     bdc:	d006      	beq.n	bec <copy_shifted+0x2c>
     bde:	4b08      	ldr	r3, [pc, #32]	; (c00 <copy_shifted+0x40>)
     be0:	685a      	ldr	r2, [r3, #4]
     be2:	2102      	movs	r1, #2
     be4:	f361 0242 	bfi	r2, r1, #1, #2
     be8:	605a      	str	r2, [r3, #4]
     bea:	4770      	bx	lr
     bec:	460b      	mov	r3, r1
     bee:	684a      	ldr	r2, [r1, #4]
     bf0:	2101      	movs	r1, #1
     bf2:	f361 0242 	bfi	r2, r1, #1, #2
     bf6:	605a      	str	r2, [r3, #4]
     bf8:	4770      	bx	lr
     bfa:	bf00      	nop
     bfc:	200023e0 	.word	0x200023e0
     c00:	20002480 	.word	0x20002480

00000c04 <bits_val>:
     c04:	2803      	cmp	r0, #3
     c06:	d01b      	beq.n	c40 <bits_val+0x3c>
     c08:	2804      	cmp	r0, #4
     c0a:	d00d      	beq.n	c28 <bits_val+0x24>
     c0c:	b100      	cbz	r0, c10 <bits_val+0xc>
     c0e:	4770      	bx	lr
     c10:	f001 0101 	and.w	r1, r1, #1
     c14:	4b10      	ldr	r3, [pc, #64]	; (c58 <bits_val+0x54>)
     c16:	685a      	ldr	r2, [r3, #4]
     c18:	f361 0200 	bfi	r2, r1, #0, #1
     c1c:	605a      	str	r2, [r3, #4]
     c1e:	685a      	ldr	r2, [r3, #4]
     c20:	f361 0200 	bfi	r2, r1, #0, #1
     c24:	605a      	str	r2, [r3, #4]
     c26:	4770      	bx	lr
     c28:	f001 0101 	and.w	r1, r1, #1
     c2c:	4b0a      	ldr	r3, [pc, #40]	; (c58 <bits_val+0x54>)
     c2e:	685a      	ldr	r2, [r3, #4]
     c30:	f361 1286 	bfi	r2, r1, #6, #1
     c34:	605a      	str	r2, [r3, #4]
     c36:	685a      	ldr	r2, [r3, #4]
     c38:	f361 1286 	bfi	r2, r1, #6, #1
     c3c:	605a      	str	r2, [r3, #4]
     c3e:	4770      	bx	lr
     c40:	f001 0101 	and.w	r1, r1, #1
     c44:	4b04      	ldr	r3, [pc, #16]	; (c58 <bits_val+0x54>)
     c46:	685a      	ldr	r2, [r3, #4]
     c48:	f361 1245 	bfi	r2, r1, #5, #1
     c4c:	605a      	str	r2, [r3, #4]
     c4e:	685a      	ldr	r2, [r3, #4]
     c50:	f361 1245 	bfi	r2, r1, #5, #1
     c54:	605a      	str	r2, [r3, #4]
     c56:	e7da      	b.n	c0e <bits_val+0xa>
     c58:	20002480 	.word	0x20002480

00000c5c <call_bits_val_const>:
     c5c:	b500      	push	{lr}
     c5e:	2101      	movs	r1, #1
     c60:	2004      	movs	r0, #4
     c62:	f7ff fffe 	bl	c04 <bits_val>
     c66:	f85d fb04 	ldr.w	pc, [sp], #4

00000c6a <call_bits_val_var>:
     c6a:	b500      	push	{lr}
     c6c:	2101      	movs	r1, #1
     c6e:	2004      	movs	r0, #4
     c70:	f7ff fffe 	bl	c04 <bits_val>
     c74:	f85d fb04 	ldr.w	pc, [sp], #4

00000c78 <call_bits_val_global>:
     c78:	b500      	push	{lr}
     c7a:	2101      	movs	r1, #1
     c7c:	2004      	movs	r0, #4
     c7e:	f7ff fffe 	bl	c04 <bits_val>
     c82:	f85d fb04 	ldr.w	pc, [sp], #4

00000c86 <bits_ref>:
     c86:	6803      	ldr	r3, [r0, #0]
     c88:	2b03      	cmp	r3, #3
     c8a:	d01b      	beq.n	cc4 <bits_ref+0x3e>
     c8c:	2b04      	cmp	r3, #4
     c8e:	d00d      	beq.n	cac <bits_ref+0x26>
     c90:	b103      	cbz	r3, c94 <bits_ref+0xe>
     c92:	4770      	bx	lr
     c94:	6808      	ldr	r0, [r1, #0]
     c96:	4b11      	ldr	r3, [pc, #68]	; (cdc <bits_ref+0x56>)
     c98:	685a      	ldr	r2, [r3, #4]
     c9a:	f360 0200 	bfi	r2, r0, #0, #1
     c9e:	605a      	str	r2, [r3, #4]
     ca0:	6809      	ldr	r1, [r1, #0]
     ca2:	685a      	ldr	r2, [r3, #4]
     ca4:	f361 0200 	bfi	r2, r1, #0, #1
     ca8:	605a      	str	r2, [r3, #4]
     caa:	4770      	bx	lr
     cac:	6808      	ldr	r0, [r1, #0]
     cae:	4b0b      	ldr	r3, [pc, #44]	; (cdc <bits_ref+0x56>)
     cb0:	685a      	ldr	r2, [r3, #4]
     cb2:	f360 1286 	bfi	r2, r0, #6, #1
     cb6:	605a      	str	r2, [r3, #4]
     cb8:	6809      	ldr	r1, [r1, #0]
     cba:	685a      	ldr	r2, [r3, #4]
     cbc:	f361 1286 	bfi	r2, r1, #6, #1
     cc0:	605a      	str	r2, [r3, #4]
     cc2:	4770      	bx	lr
     cc4:	6808      	ldr	r0, [r1, #0]
     cc6:	4b05      	ldr	r3, [pc, #20]	; (cdc <bits_ref+0x56>)
     cc8:	685a      	ldr	r2, [r3, #4]
     cca:	f360 1245 	bfi	r2, r0, #5, #1
     cce:	605a      	str	r2, [r3, #4]
     cd0:	6809      	ldr	r1, [r1, #0]
     cd2:	685a      	ldr	r2, [r3, #4]
     cd4:	f361 1245 	bfi	r2, r1, #5, #1
     cd8:	605a      	str	r2, [r3, #4]
     cda:	e7da      	b.n	c92 <bits_ref+0xc>
     cdc:	20002480 	.word	0x20002480

00000ce0 <call_bits_ref_const>:
     ce0:	b500      	push	{lr}
     ce2:	b082      	sub	sp, #8
     ce4:	2300      	movs	r3, #0
     ce6:	9301      	str	r3, [sp, #4]
     ce8:	2301      	movs	r3, #1
     cea:	9300      	str	r3, [sp, #0]
     cec:	4669      	mov	r1, sp
     cee:	a801      	add	r0, sp, #4
     cf0:	f7ff fffe 	bl	c86 <bits_ref>
     cf4:	b002      	add	sp, #8
     cf6:	f85d fb04 	ldr.w	pc, [sp], #4

00000cfa <call_bits_ref_var>:
     cfa:	b500      	push	{lr}
     cfc:	b082      	sub	sp, #8
     cfe:	2300      	movs	r3, #0
     d00:	9301      	str	r3, [sp, #4]
     d02:	2301      	movs	r3, #1
     d04:	9300      	str	r3, [sp, #0]
     d06:	4669      	mov	r1, sp
     d08:	a801      	add	r0, sp, #4
     d0a:	f7ff fffe 	bl	c86 <bits_ref>
     d0e:	b002      	add	sp, #8
     d10:	f85d fb04 	ldr.w	pc, [sp], #4

00000d14 <call_bits_ref_global>:
     d14:	b500      	push	{lr}
     d16:	b082      	sub	sp, #8
     d18:	2304      	movs	r3, #4
     d1a:	9301      	str	r3, [sp, #4]
     d1c:	2301      	movs	r3, #1
     d1e:	9300      	str	r3, [sp, #0]
     d20:	4669      	mov	r1, sp
     d22:	a801      	add	r0, sp, #4
     d24:	f7ff fffe 	bl	c86 <bits_ref>
     d28:	b002      	add	sp, #8
     d2a:	f85d fb04 	ldr.w	pc, [sp], #4

00000d2e <mskd_val>:
     d2e:	2806      	cmp	r0, #6
     d30:	d858      	bhi.n	de4 <mskd_val+0xb6>
     d32:	e8df f000 	tbb	[pc, r0]
     d36:	1004      	.short	0x1004
     d38:	4034281c 	.word	0x4034281c
     d3c:	4c          	.byte	0x4c
     d3d:	00          	.byte	0x00
     d3e:	f001 0101 	and.w	r1, r1, #1
     d42:	4b29      	ldr	r3, [pc, #164]	; (de8 <mskd_val+0xba>)
     d44:	685a      	ldr	r2, [r3, #4]
     d46:	f361 0200 	bfi	r2, r1, #0, #1
     d4a:	605a      	str	r2, [r3, #4]
     d4c:	685a      	ldr	r2, [r3, #4]
     d4e:	f361 0200 	bfi	r2, r1, #0, #1
     d52:	605a      	str	r2, [r3, #4]
     d54:	4770      	bx	lr
     d56:	f001 0103 	and.w	r1, r1, #3
     d5a:	4b23      	ldr	r3, [pc, #140]	; (de8 <mskd_val+0xba>)
     d5c:	685a      	ldr	r2, [r3, #4]
     d5e:	f361 0242 	bfi	r2, r1, #1, #2
     d62:	605a      	str	r2, [r3, #4]
     d64:	685a      	ldr	r2, [r3, #4]
     d66:	f361 0242 	bfi	r2, r1, #1, #2
     d6a:	605a      	str	r2, [r3, #4]
     d6c:	4770      	bx	lr
     d6e:	f001 0103 	and.w	r1, r1, #3
     d72:	4b1d      	ldr	r3, [pc, #116]	; (de8 <mskd_val+0xba>)
     d74:	685a      	ldr	r2, [r3, #4]
     d76:	f361 02c4 	bfi	r2, r1, #3, #2
     d7a:	605a      	str	r2, [r3, #4]
     d7c:	685a      	ldr	r2, [r3, #4]
     d7e:	f361 02c4 	bfi	r2, r1, #3, #2
     d82:	605a      	str	r2, [r3, #4]
     d84:	4770      	bx	lr
     d86:	f001 0101 	and.w	r1, r1, #1
     d8a:	4b17      	ldr	r3, [pc, #92]	; (de8 <mskd_val+0xba>)
     d8c:	685a      	ldr	r2, [r3, #4]
     d8e:	f361 1245 	bfi	r2, r1, #5, #1
     d92:	605a      	str	r2, [r3, #4]
     d94:	685a      	ldr	r2, [r3, #4]
     d96:	f361 1245 	bfi	r2, r1, #5, #1
     d9a:	605a      	str	r2, [r3, #4]
     d9c:	4770      	bx	lr
     d9e:	f001 0103 	and.w	r1, r1, #3
     da2:	4b11      	ldr	r3, [pc, #68]	; (de8 <mskd_val+0xba>)
     da4:	685a      	ldr	r2, [r3, #4]
     da6:	f361 02c4 	bfi	r2, r1, #3, #2
     daa:	605a      	str	r2, [r3, #4]
     dac:	685a      	ldr	r2, [r3, #4]
     dae:	f361 02c4 	bfi	r2, r1, #3, #2
     db2:	605a      	str	r2, [r3, #4]
     db4:	4770      	bx	lr
     db6:	f001 011f 	and.w	r1, r1, #31
     dba:	4b0b      	ldr	r3, [pc, #44]	; (de8 <mskd_val+0xba>)
     dbc:	685a      	ldr	r2, [r3, #4]
     dbe:	f361 12cb 	bfi	r2, r1, #7, #5
     dc2:	605a      	str	r2, [r3, #4]
     dc4:	685a      	ldr	r2, [r3, #4]
     dc6:	f361 12cb 	bfi	r2, r1, #7, #5
     dca:	605a      	str	r2, [r3, #4]
     dcc:	4770      	bx	lr
     dce:	f001 011f 	and.w	r1, r1, #31
     dd2:	4b05      	ldr	r3, [pc, #20]	; (de8 <mskd_val+0xba>)
     dd4:	685a      	ldr	r2, [r3, #4]
     dd6:	f361 3210 	bfi	r2, r1, #12, #5
     dda:	605a      	str	r2, [r3, #4]
     ddc:	685a      	ldr	r2, [r3, #4]
     dde:	f361 3210 	bfi	r2, r1, #12, #5
     de2:	605a      	str	r2, [r3, #4]
     de4:	4770      	bx	lr
     de6:	bf00      	nop
     de8:	20002480 	.word	0x20002480

00000dec <call_mskd_val_const>:
     dec:	b500      	push	{lr}
     dee:	2101      	movs	r1, #1
     df0:	4608      	mov	r0, r1
     df2:	f7ff fffe 	bl	d2e <mskd_val>
     df6:	2101      	movs	r1, #1
     df8:	4608      	mov	r0, r1
     dfa:	f7ff fffe 	bl	d2e <mskd_val>
     dfe:	f85d fb04 	ldr.w	pc, [sp], #4

00000e02 <call_mskd_val_var>:
     e02:	b500      	push	{lr}
     e04:	2101      	movs	r1, #1
     e06:	4608      	mov	r0, r1
     e08:	f7ff fffe 	bl	d2e <mskd_val>
     e0c:	2101      	movs	r1, #1
     e0e:	4608      	mov	r0, r1
     e10:	f7ff fffe 	bl	d2e <mskd_val>
     e14:	f85d fb04 	ldr.w	pc, [sp], #4

00000e18 <call_mskd_val_global>:
     e18:	b500      	push	{lr}
     e1a:	2101      	movs	r1, #1
     e1c:	4608      	mov	r0, r1
     e1e:	f7ff fffe 	bl	d2e <mskd_val>
     e22:	f85d fb04 	ldr.w	pc, [sp], #4

00000e26 <mskd_ref>:
     e26:	6803      	ldr	r3, [r0, #0]
     e28:	2b06      	cmp	r3, #6
     e2a:	d858      	bhi.n	ede <mskd_ref+0xb8>
     e2c:	e8df f003 	tbb	[pc, r3]
     e30:	281c1004 	.word	0x281c1004
     e34:	4034      	.short	0x4034
     e36:	4c          	.byte	0x4c
     e37:	00          	.byte	0x00
     e38:	6808      	ldr	r0, [r1, #0]
     e3a:	4b29      	ldr	r3, [pc, #164]	; (ee0 <mskd_ref+0xba>)
     e3c:	685a      	ldr	r2, [r3, #4]
     e3e:	f360 0200 	bfi	r2, r0, #0, #1
     e42:	605a      	str	r2, [r3, #4]
     e44:	6809      	ldr	r1, [r1, #0]
     e46:	685a      	ldr	r2, [r3, #4]
     e48:	f361 0200 	bfi	r2, r1, #0, #1
     e4c:	605a      	str	r2, [r3, #4]
     e4e:	4770      	bx	lr
     e50:	6808      	ldr	r0, [r1, #0]
     e52:	4b23      	ldr	r3, [pc, #140]	; (ee0 <mskd_ref+0xba>)
     e54:	685a      	ldr	r2, [r3, #4]
     e56:	f360 0242 	bfi	r2, r0, #1, #2
     e5a:	605a      	str	r2, [r3, #4]
     e5c:	6809      	ldr	r1, [r1, #0]
     e5e:	685a      	ldr	r2, [r3, #4]
     e60:	f361 0242 	bfi	r2, r1, #1, #2
     e64:	605a      	str	r2, [r3, #4]
     e66:	4770      	bx	lr
     e68:	6808      	ldr	r0, [r1, #0]
     e6a:	4b1d      	ldr	r3, [pc, #116]	; (ee0 <mskd_ref+0xba>)
     e6c:	685a      	ldr	r2, [r3, #4]
     e6e:	f360 02c4 	bfi	r2, r0, #3, #2
     e72:	605a      	str	r2, [r3, #4]
     e74:	6809      	ldr	r1, [r1, #0]
     e76:	685a      	ldr	r2, [r3, #4]
     e78:	f361 02c4 	bfi	r2, r1, #3, #2
     e7c:	605a      	str	r2, [r3, #4]
     e7e:	4770      	bx	lr
     e80:	6808      	ldr	r0, [r1, #0]
     e82:	4b17      	ldr	r3, [pc, #92]	; (ee0 <mskd_ref+0xba>)
     e84:	685a      	ldr	r2, [r3, #4]
     e86:	f360 1245 	bfi	r2, r0, #5, #1
     e8a:	605a      	str	r2, [r3, #4]
     e8c:	6809      	ldr	r1, [r1, #0]
     e8e:	685a      	ldr	r2, [r3, #4]
     e90:	f361 1245 	bfi	r2, r1, #5, #1
     e94:	605a      	str	r2, [r3, #4]
     e96:	4770      	bx	lr
     e98:	6808      	ldr	r0, [r1, #0]
     e9a:	4b11      	ldr	r3, [pc, #68]	; (ee0 <mskd_ref+0xba>)
     e9c:	685a      	ldr	r2, [r3, #4]
     e9e:	f360 02c4 	bfi	r2, r0, #3, #2
     ea2:	605a      	str	r2, [r3, #4]
     ea4:	6809      	ldr	r1, [r1, #0]
     ea6:	685a      	ldr	r2, [r3, #4]
     ea8:	f361 02c4 	bfi	r2, r1, #3, #2
     eac:	605a      	str	r2, [r3, #4]
     eae:	4770      	bx	lr
     eb0:	6808      	ldr	r0, [r1, #0]
     eb2:	4b0b      	ldr	r3, [pc, #44]	; (ee0 <mskd_ref+0xba>)
     eb4:	685a      	ldr	r2, [r3, #4]
     eb6:	f360 12cb 	bfi	r2, r0, #7, #5
     eba:	605a      	str	r2, [r3, #4]
     ebc:	6809      	ldr	r1, [r1, #0]
     ebe:	685a      	ldr	r2, [r3, #4]
     ec0:	f361 12cb 	bfi	r2, r1, #7, #5
     ec4:	605a      	str	r2, [r3, #4]
     ec6:	4770      	bx	lr
     ec8:	6808      	ldr	r0, [r1, #0]
     eca:	4b05      	ldr	r3, [pc, #20]	; (ee0 <mskd_ref+0xba>)
     ecc:	685a      	ldr	r2, [r3, #4]
     ece:	f360 3210 	bfi	r2, r0, #12, #5
     ed2:	605a      	str	r2, [r3, #4]
     ed4:	6809      	ldr	r1, [r1, #0]
     ed6:	685a      	ldr	r2, [r3, #4]
     ed8:	f361 3210 	bfi	r2, r1, #12, #5
     edc:	605a      	str	r2, [r3, #4]
     ede:	4770      	bx	lr
     ee0:	20002480 	.word	0x20002480

00000ee4 <call_mskd_ref_const>:
     ee4:	b500      	push	{lr}
     ee6:	b082      	sub	sp, #8
     ee8:	2301      	movs	r3, #1
     eea:	9301      	str	r3, [sp, #4]
     eec:	2302      	movs	r3, #2
     eee:	9300      	str	r3, [sp, #0]
     ef0:	4669      	mov	r1, sp
     ef2:	a801      	add	r0, sp, #4
     ef4:	f7ff fffe 	bl	e26 <mskd_ref>
     ef8:	b002      	add	sp, #8
     efa:	f85d fb04 	ldr.w	pc, [sp], #4

00000efe <call_mskd_ref_var>:
     efe:	b500      	push	{lr}
     f00:	b082      	sub	sp, #8
     f02:	2301      	movs	r3, #1
     f04:	9301      	str	r3, [sp, #4]
     f06:	9300      	str	r3, [sp, #0]
     f08:	4669      	mov	r1, sp
     f0a:	a801      	add	r0, sp, #4
     f0c:	f7ff fffe 	bl	e26 <mskd_ref>
     f10:	b002      	add	sp, #8
     f12:	f85d fb04 	ldr.w	pc, [sp], #4

00000f16 <call_mskd_ref_global>:
     f16:	b500      	push	{lr}
     f18:	b082      	sub	sp, #8
     f1a:	2301      	movs	r3, #1
     f1c:	9301      	str	r3, [sp, #4]
     f1e:	9300      	str	r3, [sp, #0]
     f20:	4669      	mov	r1, sp
     f22:	a801      	add	r0, sp, #4
     f24:	f7ff fffe 	bl	e26 <mskd_ref>
     f28:	b002      	add	sp, #8
     f2a:	f85d fb04 	ldr.w	pc, [sp], #4

00000f2e <periph_bits>:
     f2e:	6843      	ldr	r3, [r0, #4]
     f30:	f043 0340 	orr.w	r3, r3, #64	; 0x40
     f34:	6043      	str	r3, [r0, #4]
     f36:	4770      	bx	lr

00000f38 <call_periph_bits>:
     f38:	b500      	push	{lr}
     f3a:	4802      	ldr	r0, [pc, #8]	; (f44 <call_periph_bits+0xc>)
     f3c:	f7ff fffe 	bl	f2e <periph_bits>
     f40:	f85d fb04 	ldr.w	pc, [sp], #4
     f44:	20002480 	.word	0x20002480

00000f48 <periph_bits_val>:
     f48:	2904      	cmp	r1, #4
     f4a:	d000      	beq.n	f4e <periph_bits_val+0x6>
     f4c:	4770      	bx	lr
     f4e:	6843      	ldr	r3, [r0, #4]
     f50:	f043 0340 	orr.w	r3, r3, #64	; 0x40
     f54:	6043      	str	r3, [r0, #4]
     f56:	e7f9      	b.n	f4c <periph_bits_val+0x4>

00000f58 <call_periph_bits_val>:
     f58:	b500      	push	{lr}
     f5a:	2104      	movs	r1, #4
     f5c:	4802      	ldr	r0, [pc, #8]	; (f68 <call_periph_bits_val+0x10>)
     f5e:	f7ff fffe 	bl	f48 <periph_bits_val>
     f62:	f85d fb04 	ldr.w	pc, [sp], #4
     f66:	bf00      	nop
     f68:	20002480 	.word	0x20002480

00000f6c <reg_bits_val>:
     f6c:	2904      	cmp	r1, #4
     f6e:	d000      	beq.n	f72 <reg_bits_val+0x6>
     f70:	4770      	bx	lr
     f72:	6803      	ldr	r3, [r0, #0]
     f74:	f043 0340 	orr.w	r3, r3, #64	; 0x40
     f78:	6003      	str	r3, [r0, #0]
     f7a:	e7f9      	b.n	f70 <reg_bits_val+0x4>

00000f7c <call_reg_bits_val>:
     f7c:	b500      	push	{lr}
     f7e:	2104      	movs	r1, #4
     f80:	4802      	ldr	r0, [pc, #8]	; (f8c <call_reg_bits_val+0x10>)
     f82:	f7ff fffe 	bl	f6c <reg_bits_val>
     f86:	f85d fb04 	ldr.w	pc, [sp], #4
     f8a:	bf00      	nop
     f8c:	20002484 	.word	0x20002484

00000f90 <periph_bits_ref>:
     f90:	680b      	ldr	r3, [r1, #0]
     f92:	2b04      	cmp	r3, #4
     f94:	d000      	beq.n	f98 <periph_bits_ref+0x8>
     f96:	4770      	bx	lr
     f98:	6843      	ldr	r3, [r0, #4]
     f9a:	f043 0340 	orr.w	r3, r3, #64	; 0x40
     f9e:	6043      	str	r3, [r0, #4]
     fa0:	e7f9      	b.n	f96 <periph_bits_ref+0x6>

00000fa2 <call_periph_bits_ref>:
     fa2:	b500      	push	{lr}
     fa4:	b081      	sub	sp, #4
     fa6:	2304      	movs	r3, #4
     fa8:	9300      	str	r3, [sp, #0]
     faa:	4669      	mov	r1, sp
     fac:	4802      	ldr	r0, [pc, #8]	; (fb8 <call_periph_bits_ref+0x16>)
     fae:	f7ff fffe 	bl	f90 <periph_bits_ref>
     fb2:	b001      	add	sp, #4
     fb4:	f85d fb04 	ldr.w	pc, [sp], #4
     fb8:	20002480 	.word	0x20002480

00000fbc <reg_bits_ref>:
     fbc:	680b      	ldr	r3, [r1, #0]
     fbe:	2b04      	cmp	r3, #4
     fc0:	d000      	beq.n	fc4 <reg_bits_ref+0x8>
     fc2:	4770      	bx	lr
     fc4:	6803      	ldr	r3, [r0, #0]
     fc6:	f043 0340 	orr.w	r3, r3, #64	; 0x40
     fca:	6003      	str	r3, [r0, #0]
     fcc:	e7f9      	b.n	fc2 <reg_bits_ref+0x6>

00000fce <call_reg_bits_ref>:
     fce:	b500      	push	{lr}
     fd0:	b081      	sub	sp, #4
     fd2:	2304      	movs	r3, #4
     fd4:	9300      	str	r3, [sp, #0]
     fd6:	4669      	mov	r1, sp
     fd8:	4802      	ldr	r0, [pc, #8]	; (fe4 <call_reg_bits_ref+0x16>)
     fda:	f7ff fffe 	bl	fbc <reg_bits_ref>
     fde:	b001      	add	sp, #4
     fe0:	f85d fb04 	ldr.w	pc, [sp], #4
     fe4:	20002484 	.word	0x20002484

00000fe8 <periph_mskd>:
     fe8:	6843      	ldr	r3, [r0, #4]
     fea:	2201      	movs	r2, #1
     fec:	f362 0342 	bfi	r3, r2, #1, #2
     ff0:	6043      	str	r3, [r0, #4]
     ff2:	4770      	bx	lr

00000ff4 <call_periph_mskd>:
     ff4:	b500      	push	{lr}
     ff6:	4802      	ldr	r0, [pc, #8]	; (1000 <call_periph_mskd+0xc>)
     ff8:	f7ff fffe 	bl	fe8 <periph_mskd>
     ffc:	f85d fb04 	ldr.w	pc, [sp], #4
    1000:	20002480 	.word	0x20002480

00001004 <periph_mskd_val>:
    1004:	2901      	cmp	r1, #1
    1006:	d000      	beq.n	100a <periph_mskd_val+0x6>
    1008:	4770      	bx	lr
    100a:	6843      	ldr	r3, [r0, #4]
    100c:	2201      	movs	r2, #1
    100e:	f362 0342 	bfi	r3, r2, #1, #2
    1012:	6043      	str	r3, [r0, #4]
    1014:	e7f8      	b.n	1008 <periph_mskd_val+0x4>

00001016 <call_periph_mskd_val>:
    1016:	b500      	push	{lr}
    1018:	2101      	movs	r1, #1
    101a:	4802      	ldr	r0, [pc, #8]	; (1024 <call_periph_mskd_val+0xe>)
    101c:	f7ff fffe 	bl	1004 <periph_mskd_val>
    1020:	f85d fb04 	ldr.w	pc, [sp], #4
    1024:	20002480 	.word	0x20002480

00001028 <reg_mskd_val>:
    1028:	2901      	cmp	r1, #1
    102a:	d000      	beq.n	102e <reg_mskd_val+0x6>
    102c:	4770      	bx	lr
    102e:	6803      	ldr	r3, [r0, #0]
    1030:	2201      	movs	r2, #1
    1032:	f362 0342 	bfi	r3, r2, #1, #2
    1036:	6003      	str	r3, [r0, #0]
    1038:	e7f8      	b.n	102c <reg_mskd_val+0x4>

0000103a <call_reg_mskd_val>:
    103a:	b500      	push	{lr}
    103c:	2101      	movs	r1, #1
    103e:	4802      	ldr	r0, [pc, #8]	; (1048 <call_reg_mskd_val+0xe>)
    1040:	f7ff fffe 	bl	1028 <reg_mskd_val>
    1044:	f85d fb04 	ldr.w	pc, [sp], #4
    1048:	20002484 	.word	0x20002484

0000104c <periph_mskd_ref>:
    104c:	680b      	ldr	r3, [r1, #0]
    104e:	2b01      	cmp	r3, #1
    1050:	d000      	beq.n	1054 <periph_mskd_ref+0x8>
    1052:	4770      	bx	lr
    1054:	6843      	ldr	r3, [r0, #4]
    1056:	2201      	movs	r2, #1
    1058:	f362 0342 	bfi	r3, r2, #1, #2
    105c:	6043      	str	r3, [r0, #4]
    105e:	e7f8      	b.n	1052 <periph_mskd_ref+0x6>

00001060 <call_periph_mskd_ref>:
    1060:	b500      	push	{lr}
    1062:	b081      	sub	sp, #4
    1064:	2301      	movs	r3, #1
    1066:	9300      	str	r3, [sp, #0]
    1068:	4669      	mov	r1, sp
    106a:	4803      	ldr	r0, [pc, #12]	; (1078 <call_periph_mskd_ref+0x18>)
    106c:	f7ff fffe 	bl	104c <periph_mskd_ref>
    1070:	b001      	add	sp, #4
    1072:	f85d fb04 	ldr.w	pc, [sp], #4
    1076:	bf00      	nop
    1078:	20002480 	.word	0x20002480

0000107c <reg_mskd_ref>:
    107c:	680b      	ldr	r3, [r1, #0]
    107e:	2b01      	cmp	r3, #1
    1080:	d000      	beq.n	1084 <reg_mskd_ref+0x8>
    1082:	4770      	bx	lr
    1084:	6803      	ldr	r3, [r0, #0]
    1086:	2201      	movs	r2, #1
    1088:	f362 0342 	bfi	r3, r2, #1, #2
    108c:	6003      	str	r3, [r0, #0]
    108e:	e7f8      	b.n	1082 <reg_mskd_ref+0x6>

00001090 <call_reg_mskd_ref>:
    1090:	b500      	push	{lr}
    1092:	b081      	sub	sp, #4
    1094:	2301      	movs	r3, #1
    1096:	9300      	str	r3, [sp, #0]
    1098:	4669      	mov	r1, sp
    109a:	4803      	ldr	r0, [pc, #12]	; (10a8 <call_reg_mskd_ref+0x18>)
    109c:	f7ff fffe 	bl	107c <reg_mskd_ref>
    10a0:	b001      	add	sp, #4
    10a2:	f85d fb04 	ldr.w	pc, [sp], #4
    10a6:	bf00      	nop
    10a8:	20002484 	.word	0x20002484

000010ac <return_bits>:
    10ac:	2001      	movs	r0, #1
    10ae:	4770      	bx	lr

000010b0 <call_return_bits>:
    10b0:	b500      	push	{lr}
    10b2:	f7ff fffe 	bl	10ac <return_bits>
    10b6:	4b09      	ldr	r3, [pc, #36]	; (10dc <call_return_bits+0x2c>)
    10b8:	2200      	movs	r2, #0
    10ba:	605a      	str	r2, [r3, #4]
    10bc:	2801      	cmp	r0, #1
    10be:	d006      	beq.n	10ce <call_return_bits+0x1e>
    10c0:	4a06      	ldr	r2, [pc, #24]	; (10dc <call_return_bits+0x2c>)
    10c2:	6853      	ldr	r3, [r2, #4]
    10c4:	f043 5378 	orr.w	r3, r3, #1040187392	; 0x3e000000
    10c8:	6053      	str	r3, [r2, #4]
    10ca:	f85d fb04 	ldr.w	pc, [sp], #4
    10ce:	685a      	ldr	r2, [r3, #4]
    10d0:	2115      	movs	r1, #21
    10d2:	f361 625d 	bfi	r2, r1, #25, #5
    10d6:	605a      	str	r2, [r3, #4]
    10d8:	e7f7      	b.n	10ca <call_return_bits+0x1a>
    10da:	bf00      	nop
    10dc:	200023e0 	.word	0x200023e0

000010e0 <return_mskd>:
    10e0:	2302      	movs	r3, #2
    10e2:	6003      	str	r3, [r0, #0]
    10e4:	2301      	movs	r3, #1
    10e6:	600b      	str	r3, [r1, #0]
    10e8:	4770      	bx	lr

000010ea <call_return_mskd>:
    10ea:	b500      	push	{lr}
    10ec:	b082      	sub	sp, #8
    10ee:	4669      	mov	r1, sp
    10f0:	a801      	add	r0, sp, #4
    10f2:	f7ff fffe 	bl	10e0 <return_mskd>
    10f6:	4b0c      	ldr	r3, [pc, #48]	; (1128 <call_return_mskd+0x3e>)
    10f8:	2200      	movs	r2, #0
    10fa:	605a      	str	r2, [r3, #4]
    10fc:	9b01      	ldr	r3, [sp, #4]
    10fe:	2b02      	cmp	r3, #2
    1100:	d008      	beq.n	1114 <call_return_mskd+0x2a>
    1102:	4b09      	ldr	r3, [pc, #36]	; (1128 <call_return_mskd+0x3e>)
    1104:	685a      	ldr	r2, [r3, #4]
    1106:	2113      	movs	r1, #19
    1108:	f361 625d 	bfi	r2, r1, #25, #5
    110c:	605a      	str	r2, [r3, #4]
    110e:	b002      	add	sp, #8
    1110:	f85d fb04 	ldr.w	pc, [sp], #4
    1114:	9b00      	ldr	r3, [sp, #0]
    1116:	2b01      	cmp	r3, #1
    1118:	d1f3      	bne.n	1102 <call_return_mskd+0x18>
    111a:	4b03      	ldr	r3, [pc, #12]	; (1128 <call_return_mskd+0x3e>)
    111c:	685a      	ldr	r2, [r3, #4]
    111e:	2111      	movs	r1, #17
    1120:	f361 625d 	bfi	r2, r1, #25, #5
    1124:	605a      	str	r2, [r3, #4]
    1126:	e7f2      	b.n	110e <call_return_mskd+0x24>
    1128:	200023e0 	.word	0x200023e0

0000112c <return_reg>:
    112c:	4b04      	ldr	r3, [pc, #16]	; (1140 <return_reg+0x14>)
    112e:	2200      	movs	r2, #0
    1130:	605a      	str	r2, [r3, #4]
    1132:	685a      	ldr	r2, [r3, #4]
    1134:	f042 0240 	orr.w	r2, r2, #64	; 0x40
    1138:	605a      	str	r2, [r3, #4]
    113a:	4802      	ldr	r0, [pc, #8]	; (1144 <return_reg+0x18>)
    113c:	4770      	bx	lr
    113e:	bf00      	nop
    1140:	20002480 	.word	0x20002480
    1144:	20002484 	.word	0x20002484

00001148 <call_return_reg>:
    1148:	b500      	push	{lr}
    114a:	f7ff fffe 	bl	112c <return_reg>
    114e:	4b08      	ldr	r3, [pc, #32]	; (1170 <call_return_reg+0x28>)
    1150:	2200      	movs	r2, #0
    1152:	605a      	str	r2, [r3, #4]
    1154:	6803      	ldr	r3, [r0, #0]
    1156:	f013 0f40 	tst.w	r3, #64	; 0x40
    115a:	4b05      	ldr	r3, [pc, #20]	; (1170 <call_return_reg+0x28>)
    115c:	685a      	ldr	r2, [r3, #4]
    115e:	bf14      	ite	ne
    1160:	210f      	movne	r1, #15
    1162:	2117      	moveq	r1, #23
    1164:	f361 625d 	bfi	r2, r1, #25, #5
    1168:	605a      	str	r2, [r3, #4]
    116a:	f85d fb04 	ldr.w	pc, [sp], #4
    116e:	bf00      	nop
    1170:	200023e0 	.word	0x200023e0

00001174 <return_periph>:
    1174:	4803      	ldr	r0, [pc, #12]	; (1184 <return_periph+0x10>)
    1176:	2300      	movs	r3, #0
    1178:	6043      	str	r3, [r0, #4]
    117a:	6843      	ldr	r3, [r0, #4]
    117c:	f043 0340 	orr.w	r3, r3, #64	; 0x40
    1180:	6043      	str	r3, [r0, #4]
    1182:	4770      	bx	lr
    1184:	20002480 	.word	0x20002480

00001188 <call_return_periph>:
    1188:	b500      	push	{lr}
    118a:	f7ff fffe 	bl	1174 <return_periph>
    118e:	6843      	ldr	r3, [r0, #4]
    1190:	f013 0f40 	tst.w	r3, #64	; 0x40
    1194:	4b04      	ldr	r3, [pc, #16]	; (11a8 <call_return_periph+0x20>)
    1196:	685a      	ldr	r2, [r3, #4]
    1198:	bf14      	ite	ne
    119a:	2113      	movne	r1, #19
    119c:	2115      	moveq	r1, #21
    119e:	f361 625d 	bfi	r2, r1, #25, #5
    11a2:	605a      	str	r2, [r3, #4]
    11a4:	f85d fb04 	ldr.w	pc, [sp], #4
    11a8:	200023e0 	.word	0x200023e0

000011ac <pos_val>:
    11ac:	2803      	cmp	r0, #3
    11ae:	d006      	beq.n	11be <pos_val+0x12>
    11b0:	2804      	cmp	r0, #4
    11b2:	4b05      	ldr	r3, [pc, #20]	; (11c8 <pos_val+0x1c>)
    11b4:	bf0c      	ite	eq
    11b6:	2244      	moveq	r2, #68	; 0x44
    11b8:	2255      	movne	r2, #85	; 0x55
    11ba:	62da      	str	r2, [r3, #44]	; 0x2c
    11bc:	4770      	bx	lr
    11be:	4b02      	ldr	r3, [pc, #8]	; (11c8 <pos_val+0x1c>)
    11c0:	2233      	movs	r2, #51	; 0x33
    11c2:	62da      	str	r2, [r3, #44]	; 0x2c
    11c4:	4770      	bx	lr
    11c6:	bf00      	nop
    11c8:	200022c0 	.word	0x200022c0

000011cc <call_pos_val>:
    11cc:	b500      	push	{lr}
    11ce:	2003      	movs	r0, #3
    11d0:	f7ff fffe 	bl	11ac <pos_val>
    11d4:	2004      	movs	r0, #4
    11d6:	f7ff fffe 	bl	11ac <pos_val>
    11da:	f85d fb04 	ldr.w	pc, [sp], #4

000011de <call_pos_val_global>:
    11de:	b500      	push	{lr}
    11e0:	2004      	movs	r0, #4
    11e2:	f7ff fffe 	bl	11ac <pos_val>
    11e6:	f85d fb04 	ldr.w	pc, [sp], #4

000011ea <pos_ref>:
    11ea:	6803      	ldr	r3, [r0, #0]
    11ec:	2b03      	cmp	r3, #3
    11ee:	d006      	beq.n	11fe <pos_ref+0x14>
    11f0:	2b04      	cmp	r3, #4
    11f2:	4b05      	ldr	r3, [pc, #20]	; (1208 <pos_ref+0x1e>)
    11f4:	bf0c      	ite	eq
    11f6:	2277      	moveq	r2, #119	; 0x77
    11f8:	2288      	movne	r2, #136	; 0x88
    11fa:	62da      	str	r2, [r3, #44]	; 0x2c
    11fc:	4770      	bx	lr
    11fe:	4b02      	ldr	r3, [pc, #8]	; (1208 <pos_ref+0x1e>)
    1200:	2266      	movs	r2, #102	; 0x66
    1202:	62da      	str	r2, [r3, #44]	; 0x2c
    1204:	4770      	bx	lr
    1206:	bf00      	nop
    1208:	200022c0 	.word	0x200022c0

0000120c <call_pos_ref>:
    120c:	b500      	push	{lr}
    120e:	b081      	sub	sp, #4
    1210:	2303      	movs	r3, #3
    1212:	9300      	str	r3, [sp, #0]
    1214:	4668      	mov	r0, sp
    1216:	f7ff fffe 	bl	11ea <pos_ref>
    121a:	4668      	mov	r0, sp
    121c:	f7ff fffe 	bl	11ea <pos_ref>
    1220:	b001      	add	sp, #4
    1222:	f85d fb04 	ldr.w	pc, [sp], #4

00001226 <call_pos_ref_global>:
    1226:	b500      	push	{lr}
    1228:	b081      	sub	sp, #4
    122a:	2304      	movs	r3, #4
    122c:	9300      	str	r3, [sp, #0]
    122e:	4668      	mov	r0, sp
    1230:	f7ff fffe 	bl	11ea <pos_ref>
    1234:	b001      	add	sp, #4
    1236:	f85d fb04 	ldr.w	pc, [sp], #4

0000123a <runtime_range_val>:
    123a:	4b03      	ldr	r3, [pc, #12]	; (1248 <runtime_range_val+0xe>)
    123c:	685a      	ldr	r2, [r3, #4]
    123e:	f360 3210 	bfi	r2, r0, #12, #5
    1242:	605a      	str	r2, [r3, #4]
    1244:	4770      	bx	lr
    1246:	bf00      	nop
    1248:	20002480 	.word	0x20002480

0000124c <call_range_val>:
    124c:	b500      	push	{lr}
    124e:	b2c0      	uxtb	r0, r0
    1250:	f7ff fffe 	bl	123a <runtime_range_val>
    1254:	f85d fb04 	ldr.w	pc, [sp], #4

00001258 <call_range_val_port>:
    1258:	b500      	push	{lr}
    125a:	201f      	movs	r0, #31
    125c:	f7ff fffe 	bl	124c <call_range_val>
    1260:	f85d fb04 	ldr.w	pc, [sp], #4

00001264 <runtime_range_ref>:
    1264:	6801      	ldr	r1, [r0, #0]
    1266:	4b03      	ldr	r3, [pc, #12]	; (1274 <runtime_range_ref+0x10>)
    1268:	685a      	ldr	r2, [r3, #4]
    126a:	f361 3210 	bfi	r2, r1, #12, #5
    126e:	605a      	str	r2, [r3, #4]
    1270:	4770      	bx	lr
    1272:	bf00      	nop
    1274:	20002480 	.word	0x20002480

00001278 <call_range_ref>:
    1278:	b500      	push	{lr}
    127a:	b081      	sub	sp, #4
    127c:	9000      	str	r0, [sp, #0]
    127e:	4668      	mov	r0, sp
    1280:	f7ff fffe 	bl	1264 <runtime_range_ref>
    1284:	b001      	add	sp, #4
    1286:	f85d fb04 	ldr.w	pc, [sp], #4

0000128a <call_range_ref_port>:
    128a:	b500      	push	{lr}
    128c:	200c      	movs	r0, #12
    128e:	f7ff fffe 	bl	1278 <call_range_ref>
    1292:	f85d fb04 	ldr.w	pc, [sp], #4

00001296 <check_array_range_pass>:
    1296:	2816      	cmp	r0, #22
    1298:	4b02      	ldr	r3, [pc, #8]	; (12a4 <check_array_range_pass+0xe>)
    129a:	bf94      	ite	ls
    129c:	227f      	movls	r2, #127	; 0x7f
    129e:	2283      	movhi	r2, #131	; 0x83
    12a0:	62da      	str	r2, [r3, #44]	; 0x2c
    12a2:	4770      	bx	lr
    12a4:	200022c0 	.word	0x200022c0

000012a8 <check_array_range_fail>:
    12a8:	2816      	cmp	r0, #22
    12aa:	4b03      	ldr	r3, [pc, #12]	; (12b8 <check_array_range_fail+0x10>)
    12ac:	bf94      	ite	ls
    12ae:	2295      	movls	r2, #149	; 0x95
    12b0:	2297      	movhi	r2, #151	; 0x97
    12b2:	62da      	str	r2, [r3, #44]	; 0x2c
    12b4:	4770      	bx	lr
    12b6:	bf00      	nop
    12b8:	200022c0 	.word	0x200022c0

000012bc <check_bits_range_pass>:
    12bc:	280f      	cmp	r0, #15
    12be:	4b03      	ldr	r3, [pc, #12]	; (12cc <check_bits_range_pass+0x10>)
    12c0:	bf94      	ite	ls
    12c2:	229d      	movls	r2, #157	; 0x9d
    12c4:	22a3      	movhi	r2, #163	; 0xa3
    12c6:	62da      	str	r2, [r3, #44]	; 0x2c
    12c8:	4770      	bx	lr
    12ca:	bf00      	nop
    12cc:	200022c0 	.word	0x200022c0

000012d0 <check_bits_range_fail>:
    12d0:	280f      	cmp	r0, #15
    12d2:	4b03      	ldr	r3, [pc, #12]	; (12e0 <check_bits_range_fail+0x10>)
    12d4:	bf94      	ite	ls
    12d6:	22a7      	movls	r2, #167	; 0xa7
    12d8:	22ad      	movhi	r2, #173	; 0xad
    12da:	62da      	str	r2, [r3, #44]	; 0x2c
    12dc:	4770      	bx	lr
    12de:	bf00      	nop
    12e0:	200022c0 	.word	0x200022c0

000012e4 <check_mskd_range_pass>:
    12e4:	281f      	cmp	r0, #31
    12e6:	4b03      	ldr	r3, [pc, #12]	; (12f4 <check_mskd_range_pass+0x10>)
    12e8:	bf94      	ite	ls
    12ea:	22b3      	movls	r2, #179	; 0xb3
    12ec:	22b5      	movhi	r2, #181	; 0xb5
    12ee:	62da      	str	r2, [r3, #44]	; 0x2c
    12f0:	4770      	bx	lr
    12f2:	bf00      	nop
    12f4:	200022c0 	.word	0x200022c0

000012f8 <check_mskd_range_fail>:
    12f8:	281f      	cmp	r0, #31
    12fa:	4b03      	ldr	r3, [pc, #12]	; (1308 <check_mskd_range_fail+0x10>)
    12fc:	bf94      	ite	ls
    12fe:	22bf      	movls	r2, #191	; 0xbf
    1300:	22c1      	movhi	r2, #193	; 0xc1
    1302:	62da      	str	r2, [r3, #44]	; 0x2c
    1304:	4770      	bx	lr
    1306:	bf00      	nop
    1308:	200022c0 	.word	0x200022c0

0000130c <bits_extract_ne>:
    130c:	4b0b      	ldr	r3, [pc, #44]	; (133c <bits_extract_ne+0x30>)
    130e:	685a      	ldr	r2, [r3, #4]
    1310:	f042 0220 	orr.w	r2, r2, #32
    1314:	605a      	str	r2, [r3, #4]
    1316:	685a      	ldr	r2, [r3, #4]
    1318:	2100      	movs	r1, #0
    131a:	6059      	str	r1, [r3, #4]
    131c:	f012 0f20 	tst.w	r2, #32
    1320:	d105      	bne.n	132e <bits_extract_ne+0x22>
    1322:	685a      	ldr	r2, [r3, #4]
    1324:	2101      	movs	r1, #1
    1326:	f361 0242 	bfi	r2, r1, #1, #2
    132a:	605a      	str	r2, [r3, #4]
    132c:	4770      	bx	lr
    132e:	4b03      	ldr	r3, [pc, #12]	; (133c <bits_extract_ne+0x30>)
    1330:	685a      	ldr	r2, [r3, #4]
    1332:	2102      	movs	r1, #2
    1334:	f361 0242 	bfi	r2, r1, #1, #2
    1338:	605a      	str	r2, [r3, #4]
    133a:	4770      	bx	lr
    133c:	20002480 	.word	0x20002480

00001340 <mskd_extract_geq>:
    1340:	4b0d      	ldr	r3, [pc, #52]	; (1378 <mskd_extract_geq+0x38>)
    1342:	2200      	movs	r2, #0
    1344:	605a      	str	r2, [r3, #4]
    1346:	6859      	ldr	r1, [r3, #4]
    1348:	200b      	movs	r0, #11
    134a:	f360 615d 	bfi	r1, r0, #25, #5
    134e:	6059      	str	r1, [r3, #4]
    1350:	685b      	ldr	r3, [r3, #4]
    1352:	490a      	ldr	r1, [pc, #40]	; (137c <mskd_extract_geq+0x3c>)
    1354:	604a      	str	r2, [r1, #4]
    1356:	f3c3 6244 	ubfx	r2, r3, #25, #5
    135a:	2a09      	cmp	r2, #9
    135c:	d906      	bls.n	136c <mskd_extract_geq+0x2c>
    135e:	2a0a      	cmp	r2, #10
    1360:	d904      	bls.n	136c <mskd_extract_geq+0x2c>
    1362:	684b      	ldr	r3, [r1, #4]
    1364:	f043 0320 	orr.w	r3, r3, #32
    1368:	604b      	str	r3, [r1, #4]
    136a:	4770      	bx	lr
    136c:	4a03      	ldr	r2, [pc, #12]	; (137c <mskd_extract_geq+0x3c>)
    136e:	6853      	ldr	r3, [r2, #4]
    1370:	f043 0340 	orr.w	r3, r3, #64	; 0x40
    1374:	6053      	str	r3, [r2, #4]
    1376:	4770      	bx	lr
    1378:	200023e0 	.word	0x200023e0
    137c:	20002480 	.word	0x20002480

00001380 <shifted_val>:
    1380:	4b08      	ldr	r3, [pc, #32]	; (13a4 <shifted_val+0x24>)
    1382:	2200      	movs	r2, #0
    1384:	605a      	str	r2, [r3, #4]
    1386:	685a      	ldr	r2, [r3, #4]
    1388:	2117      	movs	r1, #23
    138a:	f361 625d 	bfi	r2, r1, #25, #5
    138e:	605a      	str	r2, [r3, #4]
    1390:	2801      	cmp	r0, #1
    1392:	d000      	beq.n	1396 <shifted_val+0x16>
    1394:	4770      	bx	lr
    1396:	685b      	ldr	r3, [r3, #4]
    1398:	f3c3 6344 	ubfx	r3, r3, #25, #5
    139c:	4a02      	ldr	r2, [pc, #8]	; (13a8 <shifted_val+0x28>)
    139e:	62d3      	str	r3, [r2, #44]	; 0x2c
    13a0:	e7f8      	b.n	1394 <shifted_val+0x14>
    13a2:	bf00      	nop
    13a4:	200023e0 	.word	0x200023e0
    13a8:	200022c0 	.word	0x200022c0

000013ac <call_shifted_const_val>:
    13ac:	b500      	push	{lr}
    13ae:	2001      	movs	r0, #1
    13b0:	f7ff fffe 	bl	1380 <shifted_val>
    13b4:	f85d fb04 	ldr.w	pc, [sp], #4

000013b8 <call_shifted_var_val>:
    13b8:	b500      	push	{lr}
    13ba:	2001      	movs	r0, #1
    13bc:	f7ff fffe 	bl	1380 <shifted_val>
    13c0:	f85d fb04 	ldr.w	pc, [sp], #4

000013c4 <call_shifted_global_val>:
    13c4:	b500      	push	{lr}
    13c6:	2001      	movs	r0, #1
    13c8:	f7ff fffe 	bl	1380 <shifted_val>
    13cc:	f85d fb04 	ldr.w	pc, [sp], #4

000013d0 <shifted_ref>:
    13d0:	4b09      	ldr	r3, [pc, #36]	; (13f8 <shifted_ref+0x28>)
    13d2:	2200      	movs	r2, #0
    13d4:	605a      	str	r2, [r3, #4]
    13d6:	685a      	ldr	r2, [r3, #4]
    13d8:	2117      	movs	r1, #23
    13da:	f361 625d 	bfi	r2, r1, #25, #5
    13de:	605a      	str	r2, [r3, #4]
    13e0:	6803      	ldr	r3, [r0, #0]
    13e2:	2b01      	cmp	r3, #1
    13e4:	d000      	beq.n	13e8 <shifted_ref+0x18>
    13e6:	4770      	bx	lr
    13e8:	4b03      	ldr	r3, [pc, #12]	; (13f8 <shifted_ref+0x28>)
    13ea:	685b      	ldr	r3, [r3, #4]
    13ec:	f3c3 6344 	ubfx	r3, r3, #25, #5
    13f0:	4a02      	ldr	r2, [pc, #8]	; (13fc <shifted_ref+0x2c>)
    13f2:	62d3      	str	r3, [r2, #44]	; 0x2c
    13f4:	e7f7      	b.n	13e6 <shifted_ref+0x16>
    13f6:	bf00      	nop
    13f8:	200023e0 	.word	0x200023e0
    13fc:	200022c0 	.word	0x200022c0

00001400 <call_shifted_const_ref>:
    1400:	b500      	push	{lr}
    1402:	b081      	sub	sp, #4
    1404:	2301      	movs	r3, #1
    1406:	9300      	str	r3, [sp, #0]
    1408:	4668      	mov	r0, sp
    140a:	f7ff fffe 	bl	13d0 <shifted_ref>
    140e:	b001      	add	sp, #4
    1410:	f85d fb04 	ldr.w	pc, [sp], #4

00001414 <call_shifted_var_ref>:
    1414:	b500      	push	{lr}
    1416:	b081      	sub	sp, #4
    1418:	2301      	movs	r3, #1
    141a:	9300      	str	r3, [sp, #0]
    141c:	4668      	mov	r0, sp
    141e:	f7ff fffe 	bl	13d0 <shifted_ref>
    1422:	b001      	add	sp, #4
    1424:	f85d fb04 	ldr.w	pc, [sp], #4

00001428 <call_shifted_global_ref>:
    1428:	b500      	push	{lr}
    142a:	b081      	sub	sp, #4
    142c:	2301      	movs	r3, #1
    142e:	9300      	str	r3, [sp, #0]
    1430:	4668      	mov	r0, sp
    1432:	f7ff fffe 	bl	13d0 <shifted_ref>
    1436:	b001      	add	sp, #4
    1438:	f85d fb04 	ldr.w	pc, [sp], #4

0000143c <copy_bits_val>:
    143c:	4b08      	ldr	r3, [pc, #32]	; (1460 <copy_bits_val+0x24>)
    143e:	2200      	movs	r2, #0
    1440:	605a      	str	r2, [r3, #4]
    1442:	2801      	cmp	r0, #1
    1444:	d006      	beq.n	1454 <copy_bits_val+0x18>
    1446:	4b06      	ldr	r3, [pc, #24]	; (1460 <copy_bits_val+0x24>)
    1448:	685a      	ldr	r2, [r3, #4]
    144a:	2102      	movs	r1, #2
    144c:	f361 0242 	bfi	r2, r1, #1, #2
    1450:	605a      	str	r2, [r3, #4]
    1452:	4770      	bx	lr
    1454:	685a      	ldr	r2, [r3, #4]
    1456:	2101      	movs	r1, #1
    1458:	f361 0242 	bfi	r2, r1, #1, #2
    145c:	605a      	str	r2, [r3, #4]
    145e:	4770      	bx	lr
    1460:	20002480 	.word	0x20002480

00001464 <call_copy_bits_val>:
    1464:	b500      	push	{lr}
    1466:	4b07      	ldr	r3, [pc, #28]	; (1484 <call_copy_bits_val+0x20>)
    1468:	2200      	movs	r2, #0
    146a:	605a      	str	r2, [r3, #4]
    146c:	685a      	ldr	r2, [r3, #4]
    146e:	f042 0240 	orr.w	r2, r2, #64	; 0x40
    1472:	605a      	str	r2, [r3, #4]
    1474:	6858      	ldr	r0, [r3, #4]
    1476:	f3c0 1080 	ubfx	r0, r0, #6, #1
    147a:	f7ff fffe 	bl	143c <copy_bits_val>
    147e:	f85d fb04 	ldr.w	pc, [sp], #4
    1482:	bf00      	nop
    1484:	20002480 	.word	0x20002480

00001488 <copy_bits_ref>:
    1488:	4b06      	ldr	r3, [pc, #24]	; (14a4 <copy_bits_ref+0x1c>)
    148a:	2200      	movs	r2, #0
    148c:	605a      	str	r2, [r3, #4]
    148e:	6803      	ldr	r3, [r0, #0]
    1490:	2b01      	cmp	r3, #1
    1492:	4b04      	ldr	r3, [pc, #16]	; (14a4 <copy_bits_ref+0x1c>)
    1494:	685a      	ldr	r2, [r3, #4]
    1496:	bf0c      	ite	eq
    1498:	2101      	moveq	r1, #1
    149a:	2102      	movne	r1, #2
    149c:	f361 0242 	bfi	r2, r1, #1, #2
    14a0:	605a      	str	r2, [r3, #4]
    14a2:	4770      	bx	lr
    14a4:	20002480 	.word	0x20002480

000014a8 <call_copy_bits_ref>:
    14a8:	b500      	push	{lr}
    14aa:	b081      	sub	sp, #4
    14ac:	4b08      	ldr	r3, [pc, #32]	; (14d0 <call_copy_bits_ref+0x28>)
    14ae:	2200      	movs	r2, #0
    14b0:	605a      	str	r2, [r3, #4]
    14b2:	685a      	ldr	r2, [r3, #4]
    14b4:	f042 0240 	orr.w	r2, r2, #64	; 0x40
    14b8:	605a      	str	r2, [r3, #4]
    14ba:	685b      	ldr	r3, [r3, #4]
    14bc:	f3c3 1380 	ubfx	r3, r3, #6, #1
    14c0:	9300      	str	r3, [sp, #0]
    14c2:	4668      	mov	r0, sp
    14c4:	f7ff fffe 	bl	1488 <copy_bits_ref>
    14c8:	b001      	add	sp, #4
    14ca:	f85d fb04 	ldr.w	pc, [sp], #4
    14ce:	bf00      	nop
    14d0:	20002480 	.word	0x20002480

000014d4 <run>:
    14d4:	b570      	push	{r4, r5, r6, lr}
    14d6:	4cd3      	ldr	r4, [pc, #844]	; (1824 <run+0x350>)
    14d8:	2200      	movs	r2, #0
    14da:	4621      	mov	r1, r4
    14dc:	48d2      	ldr	r0, [pc, #840]	; (1828 <run+0x354>)
    14de:	f7ff fffe 	bl	0 <do_test>
    14e2:	2201      	movs	r2, #1
    14e4:	4621      	mov	r1, r4
    14e6:	48d1      	ldr	r0, [pc, #836]	; (182c <run+0x358>)
    14e8:	f7ff fffe 	bl	0 <do_test>
    14ec:	2202      	movs	r2, #2
    14ee:	4621      	mov	r1, r4
    14f0:	48cf      	ldr	r0, [pc, #828]	; (1830 <run+0x35c>)
    14f2:	f7ff fffe 	bl	0 <do_test>
    14f6:	2203      	movs	r2, #3
    14f8:	4621      	mov	r1, r4
    14fa:	48ce      	ldr	r0, [pc, #824]	; (1834 <run+0x360>)
    14fc:	f7ff fffe 	bl	0 <do_test>
    1500:	2204      	movs	r2, #4
    1502:	4621      	mov	r1, r4
    1504:	48cc      	ldr	r0, [pc, #816]	; (1838 <run+0x364>)
    1506:	f7ff fffe 	bl	0 <do_test>
    150a:	2205      	movs	r2, #5
    150c:	4621      	mov	r1, r4
    150e:	48cb      	ldr	r0, [pc, #812]	; (183c <run+0x368>)
    1510:	f7ff fffe 	bl	0 <do_test>
    1514:	2206      	movs	r2, #6
    1516:	4621      	mov	r1, r4
    1518:	48c9      	ldr	r0, [pc, #804]	; (1840 <run+0x36c>)
    151a:	f7ff fffe 	bl	0 <do_test>
    151e:	2207      	movs	r2, #7
    1520:	4621      	mov	r1, r4
    1522:	48c8      	ldr	r0, [pc, #800]	; (1844 <run+0x370>)
    1524:	f7ff fffe 	bl	0 <do_test>
    1528:	2208      	movs	r2, #8
    152a:	4621      	mov	r1, r4
    152c:	48c6      	ldr	r0, [pc, #792]	; (1848 <run+0x374>)
    152e:	f7ff fffe 	bl	0 <do_test>
    1532:	2209      	movs	r2, #9
    1534:	4621      	mov	r1, r4
    1536:	48c5      	ldr	r0, [pc, #788]	; (184c <run+0x378>)
    1538:	f7ff fffe 	bl	0 <do_test>
    153c:	220a      	movs	r2, #10
    153e:	4621      	mov	r1, r4
    1540:	48c3      	ldr	r0, [pc, #780]	; (1850 <run+0x37c>)
    1542:	f7ff fffe 	bl	0 <do_test>
    1546:	220b      	movs	r2, #11
    1548:	4621      	mov	r1, r4
    154a:	48c2      	ldr	r0, [pc, #776]	; (1854 <run+0x380>)
    154c:	f7ff fffe 	bl	0 <do_test>
    1550:	220c      	movs	r2, #12
    1552:	4621      	mov	r1, r4
    1554:	48c0      	ldr	r0, [pc, #768]	; (1858 <run+0x384>)
    1556:	f7ff fffe 	bl	0 <do_test>
    155a:	220d      	movs	r2, #13
    155c:	4621      	mov	r1, r4
    155e:	48bf      	ldr	r0, [pc, #764]	; (185c <run+0x388>)
    1560:	f7ff fffe 	bl	0 <do_test>
    1564:	220e      	movs	r2, #14
    1566:	4621      	mov	r1, r4
    1568:	48bd      	ldr	r0, [pc, #756]	; (1860 <run+0x38c>)
    156a:	f7ff fffe 	bl	0 <do_test>
    156e:	220f      	movs	r2, #15
    1570:	4621      	mov	r1, r4
    1572:	48bc      	ldr	r0, [pc, #752]	; (1864 <run+0x390>)
    1574:	f7ff fffe 	bl	0 <do_test>
    1578:	2210      	movs	r2, #16
    157a:	4621      	mov	r1, r4
    157c:	48ba      	ldr	r0, [pc, #744]	; (1868 <run+0x394>)
    157e:	f7ff fffe 	bl	0 <do_test>
    1582:	2211      	movs	r2, #17
    1584:	4621      	mov	r1, r4
    1586:	48b9      	ldr	r0, [pc, #740]	; (186c <run+0x398>)
    1588:	f7ff fffe 	bl	0 <do_test>
    158c:	2212      	movs	r2, #18
    158e:	4621      	mov	r1, r4
    1590:	48b7      	ldr	r0, [pc, #732]	; (1870 <run+0x39c>)
    1592:	f7ff fffe 	bl	0 <do_test>
    1596:	2213      	movs	r2, #19
    1598:	4621      	mov	r1, r4
    159a:	48b6      	ldr	r0, [pc, #728]	; (1874 <run+0x3a0>)
    159c:	f7ff fffe 	bl	0 <do_test>
    15a0:	2214      	movs	r2, #20
    15a2:	4621      	mov	r1, r4
    15a4:	48b4      	ldr	r0, [pc, #720]	; (1878 <run+0x3a4>)
    15a6:	f7ff fffe 	bl	0 <do_test>
    15aa:	2215      	movs	r2, #21
    15ac:	4621      	mov	r1, r4
    15ae:	48b3      	ldr	r0, [pc, #716]	; (187c <run+0x3a8>)
    15b0:	f7ff fffe 	bl	0 <do_test>
    15b4:	2216      	movs	r2, #22
    15b6:	4621      	mov	r1, r4
    15b8:	48b1      	ldr	r0, [pc, #708]	; (1880 <run+0x3ac>)
    15ba:	f7ff fffe 	bl	0 <do_test>
    15be:	2217      	movs	r2, #23
    15c0:	4621      	mov	r1, r4
    15c2:	48b0      	ldr	r0, [pc, #704]	; (1884 <run+0x3b0>)
    15c4:	f7ff fffe 	bl	0 <do_test>
    15c8:	2218      	movs	r2, #24
    15ca:	4621      	mov	r1, r4
    15cc:	48ae      	ldr	r0, [pc, #696]	; (1888 <run+0x3b4>)
    15ce:	f7ff fffe 	bl	0 <do_test>
    15d2:	2219      	movs	r2, #25
    15d4:	4621      	mov	r1, r4
    15d6:	48ad      	ldr	r0, [pc, #692]	; (188c <run+0x3b8>)
    15d8:	f7ff fffe 	bl	0 <do_test>
    15dc:	221a      	movs	r2, #26
    15de:	4621      	mov	r1, r4
    15e0:	48ab      	ldr	r0, [pc, #684]	; (1890 <run+0x3bc>)
    15e2:	f7ff fffe 	bl	0 <do_test>
    15e6:	221b      	movs	r2, #27
    15e8:	4621      	mov	r1, r4
    15ea:	48aa      	ldr	r0, [pc, #680]	; (1894 <run+0x3c0>)
    15ec:	f7ff fffe 	bl	0 <do_test>
    15f0:	221c      	movs	r2, #28
    15f2:	4621      	mov	r1, r4
    15f4:	48a8      	ldr	r0, [pc, #672]	; (1898 <run+0x3c4>)
    15f6:	f7ff fffe 	bl	0 <do_test>
    15fa:	221d      	movs	r2, #29
    15fc:	4621      	mov	r1, r4
    15fe:	48a7      	ldr	r0, [pc, #668]	; (189c <run+0x3c8>)
    1600:	f7ff fffe 	bl	0 <do_test>
    1604:	221e      	movs	r2, #30
    1606:	4621      	mov	r1, r4
    1608:	48a5      	ldr	r0, [pc, #660]	; (18a0 <run+0x3cc>)
    160a:	f7ff fffe 	bl	0 <do_test>
    160e:	221f      	movs	r2, #31
    1610:	4621      	mov	r1, r4
    1612:	48a4      	ldr	r0, [pc, #656]	; (18a4 <run+0x3d0>)
    1614:	f7ff fffe 	bl	0 <do_test>
    1618:	2220      	movs	r2, #32
    161a:	4621      	mov	r1, r4
    161c:	48a2      	ldr	r0, [pc, #648]	; (18a8 <run+0x3d4>)
    161e:	f7ff fffe 	bl	0 <do_test>
    1622:	2221      	movs	r2, #33	; 0x21
    1624:	4621      	mov	r1, r4
    1626:	48a1      	ldr	r0, [pc, #644]	; (18ac <run+0x3d8>)
    1628:	f7ff fffe 	bl	0 <do_test>
    162c:	2222      	movs	r2, #34	; 0x22
    162e:	4621      	mov	r1, r4
    1630:	489f      	ldr	r0, [pc, #636]	; (18b0 <run+0x3dc>)
    1632:	f7ff fffe 	bl	0 <do_test>
    1636:	2223      	movs	r2, #35	; 0x23
    1638:	4621      	mov	r1, r4
    163a:	489e      	ldr	r0, [pc, #632]	; (18b4 <run+0x3e0>)
    163c:	f7ff fffe 	bl	0 <do_test>
    1640:	2224      	movs	r2, #36	; 0x24
    1642:	4621      	mov	r1, r4
    1644:	489c      	ldr	r0, [pc, #624]	; (18b8 <run+0x3e4>)
    1646:	f7ff fffe 	bl	0 <do_test>
    164a:	4e9c      	ldr	r6, [pc, #624]	; (18bc <run+0x3e8>)
    164c:	2225      	movs	r2, #37	; 0x25
    164e:	4631      	mov	r1, r6
    1650:	489b      	ldr	r0, [pc, #620]	; (18c0 <run+0x3ec>)
    1652:	f7ff fffe 	bl	0 <do_test>
    1656:	2226      	movs	r2, #38	; 0x26
    1658:	4631      	mov	r1, r6
    165a:	489a      	ldr	r0, [pc, #616]	; (18c4 <run+0x3f0>)
    165c:	f7ff fffe 	bl	0 <do_test>
    1660:	2227      	movs	r2, #39	; 0x27
    1662:	4631      	mov	r1, r6
    1664:	4898      	ldr	r0, [pc, #608]	; (18c8 <run+0x3f4>)
    1666:	f7ff fffe 	bl	0 <do_test>
    166a:	2228      	movs	r2, #40	; 0x28
    166c:	4621      	mov	r1, r4
    166e:	4897      	ldr	r0, [pc, #604]	; (18cc <run+0x3f8>)
    1670:	f7ff fffe 	bl	0 <do_test>
    1674:	2229      	movs	r2, #41	; 0x29
    1676:	4621      	mov	r1, r4
    1678:	4895      	ldr	r0, [pc, #596]	; (18d0 <run+0x3fc>)
    167a:	f7ff fffe 	bl	0 <do_test>
    167e:	222a      	movs	r2, #42	; 0x2a
    1680:	4621      	mov	r1, r4
    1682:	4894      	ldr	r0, [pc, #592]	; (18d4 <run+0x400>)
    1684:	f7ff fffe 	bl	0 <do_test>
    1688:	222b      	movs	r2, #43	; 0x2b
    168a:	4621      	mov	r1, r4
    168c:	4892      	ldr	r0, [pc, #584]	; (18d8 <run+0x404>)
    168e:	f7ff fffe 	bl	0 <do_test>
    1692:	222c      	movs	r2, #44	; 0x2c
    1694:	4621      	mov	r1, r4
    1696:	4891      	ldr	r0, [pc, #580]	; (18dc <run+0x408>)
    1698:	f7ff fffe 	bl	0 <do_test>
    169c:	4d90      	ldr	r5, [pc, #576]	; (18e0 <run+0x40c>)
    169e:	222d      	movs	r2, #45	; 0x2d
    16a0:	4629      	mov	r1, r5
    16a2:	4890      	ldr	r0, [pc, #576]	; (18e4 <run+0x410>)
    16a4:	f7ff fffe 	bl	0 <do_test>
    16a8:	222e      	movs	r2, #46	; 0x2e
    16aa:	4621      	mov	r1, r4
    16ac:	488e      	ldr	r0, [pc, #568]	; (18e8 <run+0x414>)
    16ae:	f7ff fffe 	bl	0 <do_test>
    16b2:	222f      	movs	r2, #47	; 0x2f
    16b4:	4621      	mov	r1, r4
    16b6:	488d      	ldr	r0, [pc, #564]	; (18ec <run+0x418>)
    16b8:	f7ff fffe 	bl	0 <do_test>
    16bc:	2230      	movs	r2, #48	; 0x30
    16be:	4621      	mov	r1, r4
    16c0:	488b      	ldr	r0, [pc, #556]	; (18f0 <run+0x41c>)
    16c2:	f7ff fffe 	bl	0 <do_test>
    16c6:	2231      	movs	r2, #49	; 0x31
    16c8:	4621      	mov	r1, r4
    16ca:	488a      	ldr	r0, [pc, #552]	; (18f4 <run+0x420>)
    16cc:	f7ff fffe 	bl	0 <do_test>
    16d0:	2232      	movs	r2, #50	; 0x32
    16d2:	4621      	mov	r1, r4
    16d4:	4888      	ldr	r0, [pc, #544]	; (18f8 <run+0x424>)
    16d6:	f7ff fffe 	bl	0 <do_test>
    16da:	2233      	movs	r2, #51	; 0x33
    16dc:	4621      	mov	r1, r4
    16de:	4887      	ldr	r0, [pc, #540]	; (18fc <run+0x428>)
    16e0:	f7ff fffe 	bl	0 <do_test>
    16e4:	2234      	movs	r2, #52	; 0x34
    16e6:	4621      	mov	r1, r4
    16e8:	4885      	ldr	r0, [pc, #532]	; (1900 <run+0x42c>)
    16ea:	f7ff fffe 	bl	0 <do_test>
    16ee:	2235      	movs	r2, #53	; 0x35
    16f0:	4621      	mov	r1, r4
    16f2:	4884      	ldr	r0, [pc, #528]	; (1904 <run+0x430>)
    16f4:	f7ff fffe 	bl	0 <do_test>
    16f8:	2236      	movs	r2, #54	; 0x36
    16fa:	4621      	mov	r1, r4
    16fc:	4882      	ldr	r0, [pc, #520]	; (1908 <run+0x434>)
    16fe:	f7ff fffe 	bl	0 <do_test>
    1702:	2237      	movs	r2, #55	; 0x37
    1704:	4621      	mov	r1, r4
    1706:	4881      	ldr	r0, [pc, #516]	; (190c <run+0x438>)
    1708:	f7ff fffe 	bl	0 <do_test>
    170c:	2238      	movs	r2, #56	; 0x38
    170e:	4621      	mov	r1, r4
    1710:	487f      	ldr	r0, [pc, #508]	; (1910 <run+0x43c>)
    1712:	f7ff fffe 	bl	0 <do_test>
    1716:	2239      	movs	r2, #57	; 0x39
    1718:	4621      	mov	r1, r4
    171a:	487e      	ldr	r0, [pc, #504]	; (1914 <run+0x440>)
    171c:	f7ff fffe 	bl	0 <do_test>
    1720:	223a      	movs	r2, #58	; 0x3a
    1722:	4621      	mov	r1, r4
    1724:	487c      	ldr	r0, [pc, #496]	; (1918 <run+0x444>)
    1726:	f7ff fffe 	bl	0 <do_test>
    172a:	223b      	movs	r2, #59	; 0x3b
    172c:	4621      	mov	r1, r4
    172e:	487b      	ldr	r0, [pc, #492]	; (191c <run+0x448>)
    1730:	f7ff fffe 	bl	0 <do_test>
    1734:	223c      	movs	r2, #60	; 0x3c
    1736:	4621      	mov	r1, r4
    1738:	4879      	ldr	r0, [pc, #484]	; (1920 <run+0x44c>)
    173a:	f7ff fffe 	bl	0 <do_test>
    173e:	223d      	movs	r2, #61	; 0x3d
    1740:	4621      	mov	r1, r4
    1742:	4878      	ldr	r0, [pc, #480]	; (1924 <run+0x450>)
    1744:	f7ff fffe 	bl	0 <do_test>
    1748:	223e      	movs	r2, #62	; 0x3e
    174a:	4621      	mov	r1, r4
    174c:	4876      	ldr	r0, [pc, #472]	; (1928 <run+0x454>)
    174e:	f7ff fffe 	bl	0 <do_test>
    1752:	223f      	movs	r2, #63	; 0x3f
    1754:	4621      	mov	r1, r4
    1756:	4875      	ldr	r0, [pc, #468]	; (192c <run+0x458>)
    1758:	f7ff fffe 	bl	0 <do_test>
    175c:	2240      	movs	r2, #64	; 0x40
    175e:	4631      	mov	r1, r6
    1760:	4873      	ldr	r0, [pc, #460]	; (1930 <run+0x45c>)
    1762:	f7ff fffe 	bl	0 <do_test>
    1766:	2241      	movs	r2, #65	; 0x41
    1768:	4631      	mov	r1, r6
    176a:	4872      	ldr	r0, [pc, #456]	; (1934 <run+0x460>)
    176c:	f7ff fffe 	bl	0 <do_test>
    1770:	2242      	movs	r2, #66	; 0x42
    1772:	4631      	mov	r1, r6
    1774:	4870      	ldr	r0, [pc, #448]	; (1938 <run+0x464>)
    1776:	f7ff fffe 	bl	0 <do_test>
    177a:	2243      	movs	r2, #67	; 0x43
    177c:	4621      	mov	r1, r4
    177e:	486f      	ldr	r0, [pc, #444]	; (193c <run+0x468>)
    1780:	f7ff fffe 	bl	0 <do_test>
    1784:	2244      	movs	r2, #68	; 0x44
    1786:	4629      	mov	r1, r5
    1788:	486d      	ldr	r0, [pc, #436]	; (1940 <run+0x46c>)
    178a:	f7ff fffe 	bl	0 <do_test>
    178e:	2245      	movs	r2, #69	; 0x45
    1790:	4629      	mov	r1, r5
    1792:	486c      	ldr	r0, [pc, #432]	; (1944 <run+0x470>)
    1794:	f7ff fffe 	bl	0 <do_test>
    1798:	2246      	movs	r2, #70	; 0x46
    179a:	4621      	mov	r1, r4
    179c:	486a      	ldr	r0, [pc, #424]	; (1948 <run+0x474>)
    179e:	f7ff fffe 	bl	0 <do_test>
    17a2:	2247      	movs	r2, #71	; 0x47
    17a4:	4621      	mov	r1, r4
    17a6:	4869      	ldr	r0, [pc, #420]	; (194c <run+0x478>)
    17a8:	f7ff fffe 	bl	0 <do_test>
    17ac:	2248      	movs	r2, #72	; 0x48
    17ae:	4629      	mov	r1, r5
    17b0:	4867      	ldr	r0, [pc, #412]	; (1950 <run+0x47c>)
    17b2:	f7ff fffe 	bl	0 <do_test>
    17b6:	2249      	movs	r2, #73	; 0x49
    17b8:	4629      	mov	r1, r5
    17ba:	4866      	ldr	r0, [pc, #408]	; (1954 <run+0x480>)
    17bc:	f7ff fffe 	bl	0 <do_test>
    17c0:	224a      	movs	r2, #74	; 0x4a
    17c2:	4621      	mov	r1, r4
    17c4:	4864      	ldr	r0, [pc, #400]	; (1958 <run+0x484>)
    17c6:	f7ff fffe 	bl	0 <do_test>
    17ca:	224b      	movs	r2, #75	; 0x4b
    17cc:	4621      	mov	r1, r4
    17ce:	4863      	ldr	r0, [pc, #396]	; (195c <run+0x488>)
    17d0:	f7ff fffe 	bl	0 <do_test>
    17d4:	224c      	movs	r2, #76	; 0x4c
    17d6:	4621      	mov	r1, r4
    17d8:	4861      	ldr	r0, [pc, #388]	; (1960 <run+0x48c>)
    17da:	f7ff fffe 	bl	0 <do_test>
    17de:	224d      	movs	r2, #77	; 0x4d
    17e0:	4621      	mov	r1, r4
    17e2:	4860      	ldr	r0, [pc, #384]	; (1964 <run+0x490>)
    17e4:	f7ff fffe 	bl	0 <do_test>
    17e8:	224e      	movs	r2, #78	; 0x4e
    17ea:	4621      	mov	r1, r4
    17ec:	485e      	ldr	r0, [pc, #376]	; (1968 <run+0x494>)
    17ee:	f7ff fffe 	bl	0 <do_test>
    17f2:	224f      	movs	r2, #79	; 0x4f
    17f4:	4621      	mov	r1, r4
    17f6:	485d      	ldr	r0, [pc, #372]	; (196c <run+0x498>)
    17f8:	f7ff fffe 	bl	0 <do_test>
    17fc:	4e5c      	ldr	r6, [pc, #368]	; (1970 <run+0x49c>)
    17fe:	2250      	movs	r2, #80	; 0x50
    1800:	4621      	mov	r1, r4
    1802:	4630      	mov	r0, r6
    1804:	f7ff fffe 	bl	0 <do_test>
    1808:	2251      	movs	r2, #81	; 0x51
    180a:	4621      	mov	r1, r4
    180c:	4630      	mov	r0, r6
    180e:	f7ff fffe 	bl	0 <do_test>
    1812:	2252      	movs	r2, #82	; 0x52
    1814:	4621      	mov	r1, r4
    1816:	4857      	ldr	r0, [pc, #348]	; (1974 <run+0x4a0>)
    1818:	f7ff fffe 	bl	0 <do_test>
    181c:	2253      	movs	r2, #83	; 0x53
    181e:	4621      	mov	r1, r4
    1820:	e0aa      	b.n	1978 <run+0x4a4>
    1822:	bf00      	nop
    1824:	20002484 	.word	0x20002484
	...
    18bc:	200023e4 	.word	0x200023e4
	...
    18e0:	200022ec 	.word	0x200022ec
	...
    1978:	4852      	ldr	r0, [pc, #328]	; (14c <do_test+0x14c>)
    197a:	f7ff fffe 	bl	0 <do_test>
    197e:	2254      	movs	r2, #84	; 0x54
    1980:	4621      	mov	r1, r4
    1982:	4851      	ldr	r0, [pc, #324]	; (1ac8 <run+0x5f4>)
    1984:	f7ff fffe 	bl	0 <do_test>
    1988:	4e50      	ldr	r6, [pc, #320]	; (1acc <run+0x5f8>)
    198a:	2255      	movs	r2, #85	; 0x55
    198c:	4621      	mov	r1, r4
    198e:	4630      	mov	r0, r6
    1990:	f7ff fffe 	bl	0 <do_test>
    1994:	2256      	movs	r2, #86	; 0x56
    1996:	4621      	mov	r1, r4
    1998:	484d      	ldr	r0, [pc, #308]	; (1ad0 <run+0x5fc>)
    199a:	f7ff fffe 	bl	0 <do_test>
    199e:	2257      	movs	r2, #87	; 0x57
    19a0:	4621      	mov	r1, r4
    19a2:	4630      	mov	r0, r6
    19a4:	f7ff fffe 	bl	0 <do_test>
    19a8:	2258      	movs	r2, #88	; 0x58
    19aa:	4621      	mov	r1, r4
    19ac:	4849      	ldr	r0, [pc, #292]	; (1ad4 <run+0x600>)
    19ae:	f7ff fffe 	bl	0 <do_test>
    19b2:	2259      	movs	r2, #89	; 0x59
    19b4:	4621      	mov	r1, r4
    19b6:	4848      	ldr	r0, [pc, #288]	; (1ad8 <run+0x604>)
    19b8:	f7ff fffe 	bl	0 <do_test>
    19bc:	225a      	movs	r2, #90	; 0x5a
    19be:	4629      	mov	r1, r5
    19c0:	4846      	ldr	r0, [pc, #280]	; (1adc <run+0x608>)
    19c2:	f7ff fffe 	bl	0 <do_test>
    19c6:	225b      	movs	r2, #91	; 0x5b
    19c8:	4629      	mov	r1, r5
    19ca:	4845      	ldr	r0, [pc, #276]	; (1ae0 <run+0x60c>)
    19cc:	f7ff fffe 	bl	0 <do_test>
    19d0:	225c      	movs	r2, #92	; 0x5c
    19d2:	4621      	mov	r1, r4
    19d4:	4843      	ldr	r0, [pc, #268]	; (1ae4 <run+0x610>)
    19d6:	f7ff fffe 	bl	0 <do_test>
    19da:	225d      	movs	r2, #93	; 0x5d
    19dc:	4629      	mov	r1, r5
    19de:	4842      	ldr	r0, [pc, #264]	; (1ae8 <run+0x614>)
    19e0:	f7ff fffe 	bl	0 <do_test>
    19e4:	225e      	movs	r2, #94	; 0x5e
    19e6:	4629      	mov	r1, r5
    19e8:	4840      	ldr	r0, [pc, #256]	; (1aec <run+0x618>)
    19ea:	f7ff fffe 	bl	0 <do_test>
    19ee:	225f      	movs	r2, #95	; 0x5f
    19f0:	4621      	mov	r1, r4
    19f2:	483f      	ldr	r0, [pc, #252]	; (1af0 <run+0x61c>)
    19f4:	f7ff fffe 	bl	0 <do_test>
    19f8:	2260      	movs	r2, #96	; 0x60
    19fa:	4621      	mov	r1, r4
    19fc:	483d      	ldr	r0, [pc, #244]	; (1af4 <run+0x620>)
    19fe:	f7ff fffe 	bl	0 <do_test>
    1a02:	2261      	movs	r2, #97	; 0x61
    1a04:	4621      	mov	r1, r4
    1a06:	483c      	ldr	r0, [pc, #240]	; (1af8 <run+0x624>)
    1a08:	f7ff fffe 	bl	0 <do_test>
    1a0c:	2262      	movs	r2, #98	; 0x62
    1a0e:	4621      	mov	r1, r4
    1a10:	483a      	ldr	r0, [pc, #232]	; (1afc <run+0x628>)
    1a12:	f7ff fffe 	bl	0 <do_test>
    1a16:	2263      	movs	r2, #99	; 0x63
    1a18:	4629      	mov	r1, r5
    1a1a:	4839      	ldr	r0, [pc, #228]	; (1b00 <run+0x62c>)
    1a1c:	f7ff fffe 	bl	0 <do_test>
    1a20:	2264      	movs	r2, #100	; 0x64
    1a22:	4629      	mov	r1, r5
    1a24:	4837      	ldr	r0, [pc, #220]	; (1b04 <run+0x630>)
    1a26:	f7ff fffe 	bl	0 <do_test>
    1a2a:	2265      	movs	r2, #101	; 0x65
    1a2c:	4629      	mov	r1, r5
    1a2e:	4836      	ldr	r0, [pc, #216]	; (1b08 <run+0x634>)
    1a30:	f7ff fffe 	bl	0 <do_test>
    1a34:	2266      	movs	r2, #102	; 0x66
    1a36:	4629      	mov	r1, r5
    1a38:	4834      	ldr	r0, [pc, #208]	; (1b0c <run+0x638>)
    1a3a:	f7ff fffe 	bl	0 <do_test>
    1a3e:	2267      	movs	r2, #103	; 0x67
    1a40:	4629      	mov	r1, r5
    1a42:	4833      	ldr	r0, [pc, #204]	; (1b10 <run+0x63c>)
    1a44:	f7ff fffe 	bl	0 <do_test>
    1a48:	2268      	movs	r2, #104	; 0x68
    1a4a:	4629      	mov	r1, r5
    1a4c:	4831      	ldr	r0, [pc, #196]	; (1b14 <run+0x640>)
    1a4e:	f7ff fffe 	bl	0 <do_test>
    1a52:	2269      	movs	r2, #105	; 0x69
    1a54:	4621      	mov	r1, r4
    1a56:	4830      	ldr	r0, [pc, #192]	; (1b18 <run+0x644>)
    1a58:	f7ff fffe 	bl	0 <do_test>
    1a5c:	226a      	movs	r2, #106	; 0x6a
    1a5e:	4621      	mov	r1, r4
    1a60:	482e      	ldr	r0, [pc, #184]	; (1b1c <run+0x648>)
    1a62:	f7ff fffe 	bl	0 <do_test>
    1a66:	226b      	movs	r2, #107	; 0x6b
    1a68:	4621      	mov	r1, r4
    1a6a:	482d      	ldr	r0, [pc, #180]	; (1b20 <run+0x64c>)
    1a6c:	f7ff fffe 	bl	0 <do_test>
    1a70:	226c      	movs	r2, #108	; 0x6c
    1a72:	4621      	mov	r1, r4
    1a74:	482b      	ldr	r0, [pc, #172]	; (1b24 <run+0x650>)
    1a76:	f7ff fffe 	bl	0 <do_test>
    1a7a:	226d      	movs	r2, #109	; 0x6d
    1a7c:	4621      	mov	r1, r4
    1a7e:	482a      	ldr	r0, [pc, #168]	; (1b28 <run+0x654>)
    1a80:	f7ff fffe 	bl	0 <do_test>
    1a84:	226e      	movs	r2, #110	; 0x6e
    1a86:	4621      	mov	r1, r4
    1a88:	4828      	ldr	r0, [pc, #160]	; (1b2c <run+0x658>)
    1a8a:	f7ff fffe 	bl	0 <do_test>
    1a8e:	226f      	movs	r2, #111	; 0x6f
    1a90:	4621      	mov	r1, r4
    1a92:	4827      	ldr	r0, [pc, #156]	; (1b30 <run+0x65c>)
    1a94:	f7ff fffe 	bl	0 <do_test>
    1a98:	2270      	movs	r2, #112	; 0x70
    1a9a:	4621      	mov	r1, r4
    1a9c:	4825      	ldr	r0, [pc, #148]	; (1b34 <run+0x660>)
    1a9e:	f7ff fffe 	bl	0 <do_test>
    1aa2:	2271      	movs	r2, #113	; 0x71
    1aa4:	4621      	mov	r1, r4
    1aa6:	4824      	ldr	r0, [pc, #144]	; (1b38 <run+0x664>)
    1aa8:	f7ff fffe 	bl	0 <do_test>
    1aac:	2272      	movs	r2, #114	; 0x72
    1aae:	4621      	mov	r1, r4
    1ab0:	4822      	ldr	r0, [pc, #136]	; (1b3c <run+0x668>)
    1ab2:	f7ff fffe 	bl	0 <do_test>
    1ab6:	2273      	movs	r2, #115	; 0x73
    1ab8:	4621      	mov	r1, r4
    1aba:	4821      	ldr	r0, [pc, #132]	; (1b40 <run+0x66c>)
    1abc:	f7ff fffe 	bl	0 <do_test>
    1ac0:	bd70      	pop	{r4, r5, r6, pc}
    1ac2:	bf00      	nop
	...
