
bitfield.elf:     file format elf32-littlearm


Disassembly of section .text:

20000000 <INTERRUPT_VECTORS>:
20000000:	00 50 00 20 3f 1d 00 20 cd 1c 00 20 cf 1c 00 20     .P. ?.. ... ... 
20000010:	d1 1c 00 20 d3 1c 00 20 d5 1c 00 20 d7 1c 00 20     ... ... ... ... 
20000020:	d9 1c 00 20 db 1c 00 20 dd 1c 00 20 df 1c 00 20     ... ... ... ... 
20000030:	e1 1c 00 20 e3 1c 00 20 e5 1c 00 20 e7 1c 00 20     ... ... ... ... 
20000040:	e9 1c 00 20 eb 1c 00 20 ed 1c 00 20 ef 1c 00 20     ... ... ... ... 
20000050:	f1 1c 00 20 f3 1c 00 20 f5 1c 00 20 f7 1c 00 20     ... ... ... ... 
20000060:	f9 1c 00 20 fb 1c 00 20 fd 1c 00 20 ff 1c 00 20     ... ... ... ... 
20000070:	01 1d 00 20 03 1d 00 20 05 1d 00 20 07 1d 00 20     ... ... ... ... 
20000080:	09 1d 00 20 0b 1d 00 20 0d 1d 00 20 0f 1d 00 20     ... ... ... ... 
20000090:	11 1d 00 20 13 1d 00 20 15 1d 00 20 17 1d 00 20     ... ... ... ... 
200000a0:	19 1d 00 20 1b 1d 00 20 1d 1d 00 20 1f 1d 00 20     ... ... ... ... 
200000b0:	21 1d 00 20 23 1d 00 20 25 1d 00 20 27 1d 00 20     !.. #.. %.. '.. 
200000c0:	29 1d 00 20 2b 1d 00 20 2d 1d 00 20 2f 1d 00 20     ).. +.. -.. /.. 
200000d0:	31 1d 00 20 33 1d 00 20 35 1d 00 20 37 1d 00 20     1.. 3.. 5.. 7.. 
200000e0:	39 1d 00 20 3b 1d 00 20 3d 1d 00 20                 9.. ;.. =.. 

200000ec <zero_reg>:
200000ec:	4b01      	ldr	r3, [pc, #4]	; (200000f4 <zero_reg+0x8>)
200000ee:	2200      	movs	r2, #0
200000f0:	605a      	str	r2, [r3, #4]
200000f2:	4770      	bx	lr
200000f4:	20002480 	.word	0x20002480

200000f8 <zero_array>:
200000f8:	4b01      	ldr	r3, [pc, #4]	; (20000100 <zero_array+0x8>)
200000fa:	2200      	movs	r2, #0
200000fc:	62da      	str	r2, [r3, #44]	; 0x2c
200000fe:	4770      	bx	lr
20000100:	200022c0 	.word	0x200022c0

20000104 <set_singl_bits_operator>:
20000104:	4a02      	ldr	r2, [pc, #8]	; (20000110 <set_singl_bits_operator+0xc>)
20000106:	6853      	ldr	r3, [r2, #4]
20000108:	f043 0340 	orr.w	r3, r3, #64	; 0x40
2000010c:	6053      	str	r3, [r2, #4]
2000010e:	4770      	bx	lr
20000110:	20002480 	.word	0x20002480

20000114 <set_singl_bits_method>:
20000114:	4a02      	ldr	r2, [pc, #8]	; (20000120 <set_singl_bits_method+0xc>)
20000116:	6853      	ldr	r3, [r2, #4]
20000118:	f043 0340 	orr.w	r3, r3, #64	; 0x40
2000011c:	6053      	str	r3, [r2, #4]
2000011e:	4770      	bx	lr
20000120:	20002480 	.word	0x20002480

20000124 <clr_singl_bits_operator>:
20000124:	4b02      	ldr	r3, [pc, #8]	; (20000130 <clr_singl_bits_operator+0xc>)
20000126:	685a      	ldr	r2, [r3, #4]
20000128:	f36f 1286 	bfc	r2, #6, #1
2000012c:	605a      	str	r2, [r3, #4]
2000012e:	4770      	bx	lr
20000130:	20002480 	.word	0x20002480

20000134 <clr_singl_bits_method>:
20000134:	4b02      	ldr	r3, [pc, #8]	; (20000140 <clr_singl_bits_method+0xc>)
20000136:	685a      	ldr	r2, [r3, #4]
20000138:	f36f 1286 	bfc	r2, #6, #1
2000013c:	605a      	str	r2, [r3, #4]
2000013e:	4770      	bx	lr
20000140:	20002480 	.word	0x20002480

20000144 <set_singl_mskd_operator>:
20000144:	4a05      	ldr	r2, [pc, #20]	; (2000015c <set_singl_mskd_operator+0x18>)
20000146:	6853      	ldr	r3, [r2, #4]
20000148:	f3c3 0341 	ubfx	r3, r3, #1, #2
2000014c:	f043 0301 	orr.w	r3, r3, #1
20000150:	6851      	ldr	r1, [r2, #4]
20000152:	f363 0142 	bfi	r1, r3, #1, #2
20000156:	6051      	str	r1, [r2, #4]
20000158:	4770      	bx	lr
2000015a:	bf00      	nop
2000015c:	20002480 	.word	0x20002480

20000160 <set_singl_mskd_method>:
20000160:	4a05      	ldr	r2, [pc, #20]	; (20000178 <set_singl_mskd_method+0x18>)
20000162:	6853      	ldr	r3, [r2, #4]
20000164:	f3c3 0341 	ubfx	r3, r3, #1, #2
20000168:	f043 0301 	orr.w	r3, r3, #1
2000016c:	6851      	ldr	r1, [r2, #4]
2000016e:	f363 0142 	bfi	r1, r3, #1, #2
20000172:	6051      	str	r1, [r2, #4]
20000174:	4770      	bx	lr
20000176:	bf00      	nop
20000178:	20002480 	.word	0x20002480

2000017c <clr_singl_mskd_operator>:
2000017c:	4a05      	ldr	r2, [pc, #20]	; (20000194 <clr_singl_mskd_operator+0x18>)
2000017e:	6853      	ldr	r3, [r2, #4]
20000180:	f3c3 0341 	ubfx	r3, r3, #1, #2
20000184:	f003 0302 	and.w	r3, r3, #2
20000188:	6851      	ldr	r1, [r2, #4]
2000018a:	f363 0142 	bfi	r1, r3, #1, #2
2000018e:	6051      	str	r1, [r2, #4]
20000190:	4770      	bx	lr
20000192:	bf00      	nop
20000194:	20002480 	.word	0x20002480

20000198 <clr_singl_mskd_method>:
20000198:	4a05      	ldr	r2, [pc, #20]	; (200001b0 <clr_singl_mskd_method+0x18>)
2000019a:	6853      	ldr	r3, [r2, #4]
2000019c:	f3c3 0341 	ubfx	r3, r3, #1, #2
200001a0:	f003 0302 	and.w	r3, r3, #2
200001a4:	6851      	ldr	r1, [r2, #4]
200001a6:	f363 0142 	bfi	r1, r3, #1, #2
200001aa:	6051      	str	r1, [r2, #4]
200001ac:	4770      	bx	lr
200001ae:	bf00      	nop
200001b0:	20002480 	.word	0x20002480

200001b4 <equ_singl_bits_operator>:
200001b4:	4b03      	ldr	r3, [pc, #12]	; (200001c4 <equ_singl_bits_operator+0x10>)
200001b6:	2200      	movs	r2, #0
200001b8:	605a      	str	r2, [r3, #4]
200001ba:	685a      	ldr	r2, [r3, #4]
200001bc:	f042 0240 	orr.w	r2, r2, #64	; 0x40
200001c0:	605a      	str	r2, [r3, #4]
200001c2:	4770      	bx	lr
200001c4:	20002480 	.word	0x20002480

200001c8 <equ_singl_bits_method>:
200001c8:	4b03      	ldr	r3, [pc, #12]	; (200001d8 <equ_singl_bits_method+0x10>)
200001ca:	2200      	movs	r2, #0
200001cc:	605a      	str	r2, [r3, #4]
200001ce:	685a      	ldr	r2, [r3, #4]
200001d0:	f042 0240 	orr.w	r2, r2, #64	; 0x40
200001d4:	605a      	str	r2, [r3, #4]
200001d6:	4770      	bx	lr
200001d8:	20002480 	.word	0x20002480

200001dc <equ_singl_mskd_operator>:
200001dc:	4b04      	ldr	r3, [pc, #16]	; (200001f0 <equ_singl_mskd_operator+0x14>)
200001de:	2200      	movs	r2, #0
200001e0:	605a      	str	r2, [r3, #4]
200001e2:	685a      	ldr	r2, [r3, #4]
200001e4:	2101      	movs	r1, #1
200001e6:	f361 0242 	bfi	r2, r1, #1, #2
200001ea:	605a      	str	r2, [r3, #4]
200001ec:	4770      	bx	lr
200001ee:	bf00      	nop
200001f0:	20002480 	.word	0x20002480

200001f4 <equ_singl_mskd_method>:
200001f4:	4b04      	ldr	r3, [pc, #16]	; (20000208 <equ_singl_mskd_method+0x14>)
200001f6:	2200      	movs	r2, #0
200001f8:	605a      	str	r2, [r3, #4]
200001fa:	685a      	ldr	r2, [r3, #4]
200001fc:	2101      	movs	r1, #1
200001fe:	f361 0242 	bfi	r2, r1, #1, #2
20000202:	605a      	str	r2, [r3, #4]
20000204:	4770      	bx	lr
20000206:	bf00      	nop
20000208:	20002480 	.word	0x20002480

2000020c <flp_singl_bits_operator>:
2000020c:	4a05      	ldr	r2, [pc, #20]	; (20000224 <flp_singl_bits_operator+0x18>)
2000020e:	6853      	ldr	r3, [r2, #4]
20000210:	f3c3 1380 	ubfx	r3, r3, #6, #1
20000214:	f083 0301 	eor.w	r3, r3, #1
20000218:	6851      	ldr	r1, [r2, #4]
2000021a:	f363 1186 	bfi	r1, r3, #6, #1
2000021e:	6051      	str	r1, [r2, #4]
20000220:	4770      	bx	lr
20000222:	bf00      	nop
20000224:	20002480 	.word	0x20002480

20000228 <flp_singl_bits_method>:
20000228:	4a05      	ldr	r2, [pc, #20]	; (20000240 <flp_singl_bits_method+0x18>)
2000022a:	6853      	ldr	r3, [r2, #4]
2000022c:	f3c3 1380 	ubfx	r3, r3, #6, #1
20000230:	f083 0301 	eor.w	r3, r3, #1
20000234:	6851      	ldr	r1, [r2, #4]
20000236:	f363 1186 	bfi	r1, r3, #6, #1
2000023a:	6051      	str	r1, [r2, #4]
2000023c:	4770      	bx	lr
2000023e:	bf00      	nop
20000240:	20002480 	.word	0x20002480

20000244 <flp_singl_mskd_operator>:
20000244:	4a05      	ldr	r2, [pc, #20]	; (2000025c <flp_singl_mskd_operator+0x18>)
20000246:	6853      	ldr	r3, [r2, #4]
20000248:	f3c3 0341 	ubfx	r3, r3, #1, #2
2000024c:	f083 0301 	eor.w	r3, r3, #1
20000250:	6851      	ldr	r1, [r2, #4]
20000252:	f363 0142 	bfi	r1, r3, #1, #2
20000256:	6051      	str	r1, [r2, #4]
20000258:	4770      	bx	lr
2000025a:	bf00      	nop
2000025c:	20002480 	.word	0x20002480

20000260 <flp_singl_mskd_method>:
20000260:	4a05      	ldr	r2, [pc, #20]	; (20000278 <flp_singl_mskd_method+0x18>)
20000262:	6853      	ldr	r3, [r2, #4]
20000264:	f3c3 0341 	ubfx	r3, r3, #1, #2
20000268:	f083 0301 	eor.w	r3, r3, #1
2000026c:	6851      	ldr	r1, [r2, #4]
2000026e:	f363 0142 	bfi	r1, r3, #1, #2
20000272:	6051      	str	r1, [r2, #4]
20000274:	4770      	bx	lr
20000276:	bf00      	nop
20000278:	20002480 	.word	0x20002480

2000027c <ins_singl_mskd_operator>:
2000027c:	4b03      	ldr	r3, [pc, #12]	; (2000028c <ins_singl_mskd_operator+0x10>)
2000027e:	685a      	ldr	r2, [r3, #4]
20000280:	2102      	movs	r1, #2
20000282:	f361 0242 	bfi	r2, r1, #1, #2
20000286:	605a      	str	r2, [r3, #4]
20000288:	4770      	bx	lr
2000028a:	bf00      	nop
2000028c:	20002480 	.word	0x20002480

20000290 <ins_singl_mskd_method>:
20000290:	4b03      	ldr	r3, [pc, #12]	; (200002a0 <ins_singl_mskd_method+0x10>)
20000292:	685a      	ldr	r2, [r3, #4]
20000294:	2102      	movs	r1, #2
20000296:	f361 0242 	bfi	r2, r1, #1, #2
2000029a:	605a      	str	r2, [r3, #4]
2000029c:	4770      	bx	lr
2000029e:	bf00      	nop
200002a0:	20002480 	.word	0x20002480

200002a4 <set_multi_bits_operator>:
200002a4:	4b04      	ldr	r3, [pc, #16]	; (200002b8 <set_multi_bits_operator+0x14>)
200002a6:	685a      	ldr	r2, [r3, #4]
200002a8:	f042 0201 	orr.w	r2, r2, #1
200002ac:	605a      	str	r2, [r3, #4]
200002ae:	685a      	ldr	r2, [r3, #4]
200002b0:	f042 0220 	orr.w	r2, r2, #32
200002b4:	605a      	str	r2, [r3, #4]
200002b6:	4770      	bx	lr
200002b8:	20002480 	.word	0x20002480

200002bc <set_multi_bits_method>:
200002bc:	4b04      	ldr	r3, [pc, #16]	; (200002d0 <set_multi_bits_method+0x14>)
200002be:	685a      	ldr	r2, [r3, #4]
200002c0:	f042 0201 	orr.w	r2, r2, #1
200002c4:	605a      	str	r2, [r3, #4]
200002c6:	685a      	ldr	r2, [r3, #4]
200002c8:	f042 0220 	orr.w	r2, r2, #32
200002cc:	605a      	str	r2, [r3, #4]
200002ce:	4770      	bx	lr
200002d0:	20002480 	.word	0x20002480

200002d4 <ins_multi_mskd_operator>:
200002d4:	4b05      	ldr	r3, [pc, #20]	; (200002ec <ins_multi_mskd_operator+0x18>)
200002d6:	685a      	ldr	r2, [r3, #4]
200002d8:	2103      	movs	r1, #3
200002da:	f361 12cb 	bfi	r2, r1, #7, #5
200002de:	605a      	str	r2, [r3, #4]
200002e0:	685a      	ldr	r2, [r3, #4]
200002e2:	2101      	movs	r1, #1
200002e4:	f361 0242 	bfi	r2, r1, #1, #2
200002e8:	605a      	str	r2, [r3, #4]
200002ea:	4770      	bx	lr
200002ec:	20002480 	.word	0x20002480

200002f0 <ins_multi_mskd_method>:
200002f0:	4b05      	ldr	r3, [pc, #20]	; (20000308 <ins_multi_mskd_method+0x18>)
200002f2:	685a      	ldr	r2, [r3, #4]
200002f4:	2103      	movs	r1, #3
200002f6:	f361 12cb 	bfi	r2, r1, #7, #5
200002fa:	605a      	str	r2, [r3, #4]
200002fc:	685a      	ldr	r2, [r3, #4]
200002fe:	2101      	movs	r1, #1
20000300:	f361 0242 	bfi	r2, r1, #1, #2
20000304:	605a      	str	r2, [r3, #4]
20000306:	4770      	bx	lr
20000308:	20002480 	.word	0x20002480

2000030c <equ_multi_bits_operator>:
2000030c:	4b05      	ldr	r3, [pc, #20]	; (20000324 <equ_multi_bits_operator+0x18>)
2000030e:	2200      	movs	r2, #0
20000310:	605a      	str	r2, [r3, #4]
20000312:	685a      	ldr	r2, [r3, #4]
20000314:	f042 0220 	orr.w	r2, r2, #32
20000318:	605a      	str	r2, [r3, #4]
2000031a:	685a      	ldr	r2, [r3, #4]
2000031c:	f042 0240 	orr.w	r2, r2, #64	; 0x40
20000320:	605a      	str	r2, [r3, #4]
20000322:	4770      	bx	lr
20000324:	20002480 	.word	0x20002480

20000328 <equ_multi_bits_method>:
20000328:	4b05      	ldr	r3, [pc, #20]	; (20000340 <equ_multi_bits_method+0x18>)
2000032a:	2200      	movs	r2, #0
2000032c:	605a      	str	r2, [r3, #4]
2000032e:	685a      	ldr	r2, [r3, #4]
20000330:	f042 0220 	orr.w	r2, r2, #32
20000334:	605a      	str	r2, [r3, #4]
20000336:	685a      	ldr	r2, [r3, #4]
20000338:	f042 0240 	orr.w	r2, r2, #64	; 0x40
2000033c:	605a      	str	r2, [r3, #4]
2000033e:	4770      	bx	lr
20000340:	20002480 	.word	0x20002480

20000344 <equ_multi_mskd_operator>:
20000344:	4b06      	ldr	r3, [pc, #24]	; (20000360 <equ_multi_mskd_operator+0x1c>)
20000346:	2200      	movs	r2, #0
20000348:	605a      	str	r2, [r3, #4]
2000034a:	685a      	ldr	r2, [r3, #4]
2000034c:	2101      	movs	r1, #1
2000034e:	f361 02c4 	bfi	r2, r1, #3, #2
20000352:	605a      	str	r2, [r3, #4]
20000354:	685a      	ldr	r2, [r3, #4]
20000356:	2106      	movs	r1, #6
20000358:	f361 12cb 	bfi	r2, r1, #7, #5
2000035c:	605a      	str	r2, [r3, #4]
2000035e:	4770      	bx	lr
20000360:	20002480 	.word	0x20002480

20000364 <equ_multi_mskd_method>:
20000364:	4b06      	ldr	r3, [pc, #24]	; (20000380 <equ_multi_mskd_method+0x1c>)
20000366:	2200      	movs	r2, #0
20000368:	605a      	str	r2, [r3, #4]
2000036a:	685a      	ldr	r2, [r3, #4]
2000036c:	2101      	movs	r1, #1
2000036e:	f361 02c4 	bfi	r2, r1, #3, #2
20000372:	605a      	str	r2, [r3, #4]
20000374:	685a      	ldr	r2, [r3, #4]
20000376:	2106      	movs	r1, #6
20000378:	f361 12cb 	bfi	r2, r1, #7, #5
2000037c:	605a      	str	r2, [r3, #4]
2000037e:	4770      	bx	lr
20000380:	20002480 	.word	0x20002480

20000384 <equ_bits_mskd_operator>:
20000384:	4b06      	ldr	r3, [pc, #24]	; (200003a0 <equ_bits_mskd_operator+0x1c>)
20000386:	2200      	movs	r2, #0
20000388:	605a      	str	r2, [r3, #4]
2000038a:	685a      	ldr	r2, [r3, #4]
2000038c:	f042 0220 	orr.w	r2, r2, #32
20000390:	605a      	str	r2, [r3, #4]
20000392:	685a      	ldr	r2, [r3, #4]
20000394:	2101      	movs	r1, #1
20000396:	f361 0242 	bfi	r2, r1, #1, #2
2000039a:	605a      	str	r2, [r3, #4]
2000039c:	4770      	bx	lr
2000039e:	bf00      	nop
200003a0:	20002480 	.word	0x20002480

200003a4 <equ_bits_mskd_method>:
200003a4:	4b06      	ldr	r3, [pc, #24]	; (200003c0 <equ_bits_mskd_method+0x1c>)
200003a6:	2200      	movs	r2, #0
200003a8:	605a      	str	r2, [r3, #4]
200003aa:	685a      	ldr	r2, [r3, #4]
200003ac:	f042 0220 	orr.w	r2, r2, #32
200003b0:	605a      	str	r2, [r3, #4]
200003b2:	685a      	ldr	r2, [r3, #4]
200003b4:	2101      	movs	r1, #1
200003b6:	f361 0242 	bfi	r2, r1, #1, #2
200003ba:	605a      	str	r2, [r3, #4]
200003bc:	4770      	bx	lr
200003be:	bf00      	nop
200003c0:	20002480 	.word	0x20002480

200003c4 <equ_mskd_bits_operator>:
200003c4:	4b06      	ldr	r3, [pc, #24]	; (200003e0 <equ_mskd_bits_operator+0x1c>)
200003c6:	2200      	movs	r2, #0
200003c8:	605a      	str	r2, [r3, #4]
200003ca:	685a      	ldr	r2, [r3, #4]
200003cc:	2102      	movs	r1, #2
200003ce:	f361 0242 	bfi	r2, r1, #1, #2
200003d2:	605a      	str	r2, [r3, #4]
200003d4:	685a      	ldr	r2, [r3, #4]
200003d6:	f042 0240 	orr.w	r2, r2, #64	; 0x40
200003da:	605a      	str	r2, [r3, #4]
200003dc:	4770      	bx	lr
200003de:	bf00      	nop
200003e0:	20002480 	.word	0x20002480

200003e4 <equ_mskd_bits_method>:
200003e4:	4b06      	ldr	r3, [pc, #24]	; (20000400 <equ_mskd_bits_method+0x1c>)
200003e6:	2200      	movs	r2, #0
200003e8:	605a      	str	r2, [r3, #4]
200003ea:	685a      	ldr	r2, [r3, #4]
200003ec:	2102      	movs	r1, #2
200003ee:	f361 0242 	bfi	r2, r1, #1, #2
200003f2:	605a      	str	r2, [r3, #4]
200003f4:	685a      	ldr	r2, [r3, #4]
200003f6:	f042 0240 	orr.w	r2, r2, #64	; 0x40
200003fa:	605a      	str	r2, [r3, #4]
200003fc:	4770      	bx	lr
200003fe:	bf00      	nop
20000400:	20002480 	.word	0x20002480

20000404 <equ_bits_var>:
20000404:	4b06      	ldr	r3, [pc, #24]	; (20000420 <equ_bits_var+0x1c>)
20000406:	2100      	movs	r1, #0
20000408:	6059      	str	r1, [r3, #4]
2000040a:	685a      	ldr	r2, [r3, #4]
2000040c:	f042 0240 	orr.w	r2, r2, #64	; 0x40
20000410:	605a      	str	r2, [r3, #4]
20000412:	6059      	str	r1, [r3, #4]
20000414:	685a      	ldr	r2, [r3, #4]
20000416:	f042 0201 	orr.w	r2, r2, #1
2000041a:	605a      	str	r2, [r3, #4]
2000041c:	4770      	bx	lr
2000041e:	bf00      	nop
20000420:	20002480 	.word	0x20002480

20000424 <equ_mskd_var>:
20000424:	4b07      	ldr	r3, [pc, #28]	; (20000444 <equ_mskd_var+0x20>)
20000426:	2200      	movs	r2, #0
20000428:	605a      	str	r2, [r3, #4]
2000042a:	6859      	ldr	r1, [r3, #4]
2000042c:	2001      	movs	r0, #1
2000042e:	f360 0142 	bfi	r1, r0, #1, #2
20000432:	6059      	str	r1, [r3, #4]
20000434:	605a      	str	r2, [r3, #4]
20000436:	685a      	ldr	r2, [r3, #4]
20000438:	2103      	movs	r1, #3
2000043a:	f361 12cb 	bfi	r2, r1, #7, #5
2000043e:	605a      	str	r2, [r3, #4]
20000440:	4770      	bx	lr
20000442:	bf00      	nop
20000444:	20002480 	.word	0x20002480

20000448 <cmp_equ_zero>:
20000448:	4b0a      	ldr	r3, [pc, #40]	; (20000474 <cmp_equ_zero+0x2c>)
2000044a:	2200      	movs	r2, #0
2000044c:	605a      	str	r2, [r3, #4]
2000044e:	490a      	ldr	r1, [pc, #40]	; (20000478 <cmp_equ_zero+0x30>)
20000450:	604a      	str	r2, [r1, #4]
20000452:	685b      	ldr	r3, [r3, #4]
20000454:	b933      	cbnz	r3, 20000464 <cmp_equ_zero+0x1c>
20000456:	460b      	mov	r3, r1
20000458:	684a      	ldr	r2, [r1, #4]
2000045a:	211d      	movs	r1, #29
2000045c:	f361 625d 	bfi	r2, r1, #25, #5
20000460:	605a      	str	r2, [r3, #4]
20000462:	4770      	bx	lr
20000464:	4b04      	ldr	r3, [pc, #16]	; (20000478 <cmp_equ_zero+0x30>)
20000466:	685a      	ldr	r2, [r3, #4]
20000468:	2111      	movs	r1, #17
2000046a:	f361 625d 	bfi	r2, r1, #25, #5
2000046e:	605a      	str	r2, [r3, #4]
20000470:	4770      	bx	lr
20000472:	bf00      	nop
20000474:	20002480 	.word	0x20002480
20000478:	200023e0 	.word	0x200023e0

2000047c <cmp_neq_zero>:
2000047c:	4b08      	ldr	r3, [pc, #32]	; (200004a0 <cmp_neq_zero+0x24>)
2000047e:	2200      	movs	r2, #0
20000480:	605a      	str	r2, [r3, #4]
20000482:	685b      	ldr	r3, [r3, #4]
20000484:	b133      	cbz	r3, 20000494 <cmp_neq_zero+0x18>
20000486:	4b06      	ldr	r3, [pc, #24]	; (200004a0 <cmp_neq_zero+0x24>)
20000488:	685a      	ldr	r2, [r3, #4]
2000048a:	2102      	movs	r1, #2
2000048c:	f361 0242 	bfi	r2, r1, #1, #2
20000490:	605a      	str	r2, [r3, #4]
20000492:	4770      	bx	lr
20000494:	4a02      	ldr	r2, [pc, #8]	; (200004a0 <cmp_neq_zero+0x24>)
20000496:	6853      	ldr	r3, [r2, #4]
20000498:	f043 0320 	orr.w	r3, r3, #32
2000049c:	6053      	str	r3, [r2, #4]
2000049e:	4770      	bx	lr
200004a0:	20002480 	.word	0x20002480

200004a4 <cmp_equ_bits>:
200004a4:	4b09      	ldr	r3, [pc, #36]	; (200004cc <cmp_equ_bits+0x28>)
200004a6:	2200      	movs	r2, #0
200004a8:	605a      	str	r2, [r3, #4]
200004aa:	685a      	ldr	r2, [r3, #4]
200004ac:	f042 0240 	orr.w	r2, r2, #64	; 0x40
200004b0:	605a      	str	r2, [r3, #4]
200004b2:	685b      	ldr	r3, [r3, #4]
200004b4:	f013 0f40 	tst.w	r3, #64	; 0x40
200004b8:	4b05      	ldr	r3, [pc, #20]	; (200004d0 <cmp_equ_bits+0x2c>)
200004ba:	685a      	ldr	r2, [r3, #4]
200004bc:	bf14      	ite	ne
200004be:	210b      	movne	r1, #11
200004c0:	210d      	moveq	r1, #13
200004c2:	f361 625d 	bfi	r2, r1, #25, #5
200004c6:	605a      	str	r2, [r3, #4]
200004c8:	4770      	bx	lr
200004ca:	bf00      	nop
200004cc:	20002480 	.word	0x20002480
200004d0:	200023e0 	.word	0x200023e0

200004d4 <cmp_neq_bits>:
200004d4:	4b0b      	ldr	r3, [pc, #44]	; (20000504 <cmp_neq_bits+0x30>)
200004d6:	2200      	movs	r2, #0
200004d8:	605a      	str	r2, [r3, #4]
200004da:	685a      	ldr	r2, [r3, #4]
200004dc:	f042 0240 	orr.w	r2, r2, #64	; 0x40
200004e0:	605a      	str	r2, [r3, #4]
200004e2:	685b      	ldr	r3, [r3, #4]
200004e4:	f013 0f40 	tst.w	r3, #64	; 0x40
200004e8:	4b06      	ldr	r3, [pc, #24]	; (20000504 <cmp_neq_bits+0x30>)
200004ea:	f04f 0200 	mov.w	r2, #0
200004ee:	605a      	str	r2, [r3, #4]
200004f0:	685a      	ldr	r2, [r3, #4]
200004f2:	bf06      	itte	eq
200004f4:	2101      	moveq	r1, #1
200004f6:	f361 0242 	bfieq	r2, r1, #1, #2
200004fa:	f042 0220 	orrne.w	r2, r2, #32
200004fe:	605a      	str	r2, [r3, #4]
20000500:	4770      	bx	lr
20000502:	bf00      	nop
20000504:	20002480 	.word	0x20002480

20000508 <cmp_equ_multi_bits>:
20000508:	4b12      	ldr	r3, [pc, #72]	; (20000554 <cmp_equ_multi_bits+0x4c>)
2000050a:	2200      	movs	r2, #0
2000050c:	605a      	str	r2, [r3, #4]
2000050e:	685a      	ldr	r2, [r3, #4]
20000510:	f042 0220 	orr.w	r2, r2, #32
20000514:	605a      	str	r2, [r3, #4]
20000516:	685a      	ldr	r2, [r3, #4]
20000518:	f042 0240 	orr.w	r2, r2, #64	; 0x40
2000051c:	605a      	str	r2, [r3, #4]
2000051e:	685b      	ldr	r3, [r3, #4]
20000520:	f013 0f20 	tst.w	r3, #32
20000524:	d00d      	beq.n	20000542 <cmp_equ_multi_bits+0x3a>
20000526:	4b0b      	ldr	r3, [pc, #44]	; (20000554 <cmp_equ_multi_bits+0x4c>)
20000528:	685b      	ldr	r3, [r3, #4]
2000052a:	f013 0f40 	tst.w	r3, #64	; 0x40
2000052e:	d008      	beq.n	20000542 <cmp_equ_multi_bits+0x3a>
20000530:	4b09      	ldr	r3, [pc, #36]	; (20000558 <cmp_equ_multi_bits+0x50>)
20000532:	2200      	movs	r2, #0
20000534:	605a      	str	r2, [r3, #4]
20000536:	685a      	ldr	r2, [r3, #4]
20000538:	2111      	movs	r1, #17
2000053a:	f361 625d 	bfi	r2, r1, #25, #5
2000053e:	605a      	str	r2, [r3, #4]
20000540:	4770      	bx	lr
20000542:	4b05      	ldr	r3, [pc, #20]	; (20000558 <cmp_equ_multi_bits+0x50>)
20000544:	2200      	movs	r2, #0
20000546:	605a      	str	r2, [r3, #4]
20000548:	685a      	ldr	r2, [r3, #4]
2000054a:	2117      	movs	r1, #23
2000054c:	f361 625d 	bfi	r2, r1, #25, #5
20000550:	605a      	str	r2, [r3, #4]
20000552:	4770      	bx	lr
20000554:	20002480 	.word	0x20002480
20000558:	200023e0 	.word	0x200023e0

2000055c <cmp_neq_multi_bits>:
2000055c:	4b12      	ldr	r3, [pc, #72]	; (200005a8 <cmp_neq_multi_bits+0x4c>)
2000055e:	2200      	movs	r2, #0
20000560:	605a      	str	r2, [r3, #4]
20000562:	685a      	ldr	r2, [r3, #4]
20000564:	f042 0220 	orr.w	r2, r2, #32
20000568:	605a      	str	r2, [r3, #4]
2000056a:	685a      	ldr	r2, [r3, #4]
2000056c:	f042 0240 	orr.w	r2, r2, #64	; 0x40
20000570:	605a      	str	r2, [r3, #4]
20000572:	685b      	ldr	r3, [r3, #4]
20000574:	f013 0f20 	tst.w	r3, #32
20000578:	d10d      	bne.n	20000596 <cmp_neq_multi_bits+0x3a>
2000057a:	4b0b      	ldr	r3, [pc, #44]	; (200005a8 <cmp_neq_multi_bits+0x4c>)
2000057c:	685b      	ldr	r3, [r3, #4]
2000057e:	f013 0f40 	tst.w	r3, #64	; 0x40
20000582:	d108      	bne.n	20000596 <cmp_neq_multi_bits+0x3a>
20000584:	4b09      	ldr	r3, [pc, #36]	; (200005ac <cmp_neq_multi_bits+0x50>)
20000586:	2200      	movs	r2, #0
20000588:	605a      	str	r2, [r3, #4]
2000058a:	685a      	ldr	r2, [r3, #4]
2000058c:	211d      	movs	r1, #29
2000058e:	f361 625d 	bfi	r2, r1, #25, #5
20000592:	605a      	str	r2, [r3, #4]
20000594:	4770      	bx	lr
20000596:	4b05      	ldr	r3, [pc, #20]	; (200005ac <cmp_neq_multi_bits+0x50>)
20000598:	2200      	movs	r2, #0
2000059a:	605a      	str	r2, [r3, #4]
2000059c:	685a      	ldr	r2, [r3, #4]
2000059e:	f042 5278 	orr.w	r2, r2, #1040187392	; 0x3e000000
200005a2:	605a      	str	r2, [r3, #4]
200005a4:	4770      	bx	lr
200005a6:	bf00      	nop
200005a8:	20002480 	.word	0x20002480
200005ac:	200023e0 	.word	0x200023e0

200005b0 <cmp_equ_mskd>:
200005b0:	4b0a      	ldr	r3, [pc, #40]	; (200005dc <cmp_equ_mskd+0x2c>)
200005b2:	2200      	movs	r2, #0
200005b4:	605a      	str	r2, [r3, #4]
200005b6:	685a      	ldr	r2, [r3, #4]
200005b8:	211d      	movs	r1, #29
200005ba:	f361 3210 	bfi	r2, r1, #12, #5
200005be:	605a      	str	r2, [r3, #4]
200005c0:	685b      	ldr	r3, [r3, #4]
200005c2:	f3c3 3304 	ubfx	r3, r3, #12, #5
200005c6:	2b11      	cmp	r3, #17
200005c8:	4b05      	ldr	r3, [pc, #20]	; (200005e0 <cmp_equ_mskd+0x30>)
200005ca:	685a      	ldr	r2, [r3, #4]
200005cc:	bf0c      	ite	eq
200005ce:	2107      	moveq	r1, #7
200005d0:	2111      	movne	r1, #17
200005d2:	f361 625d 	bfi	r2, r1, #25, #5
200005d6:	605a      	str	r2, [r3, #4]
200005d8:	4770      	bx	lr
200005da:	bf00      	nop
200005dc:	20002480 	.word	0x20002480
200005e0:	200023e0 	.word	0x200023e0

200005e4 <cmp_neq_mskd>:
200005e4:	4b0c      	ldr	r3, [pc, #48]	; (20000618 <cmp_neq_mskd+0x34>)
200005e6:	2200      	movs	r2, #0
200005e8:	605a      	str	r2, [r3, #4]
200005ea:	685a      	ldr	r2, [r3, #4]
200005ec:	211d      	movs	r1, #29
200005ee:	f361 3210 	bfi	r2, r1, #12, #5
200005f2:	605a      	str	r2, [r3, #4]
200005f4:	685b      	ldr	r3, [r3, #4]
200005f6:	f3c3 3304 	ubfx	r3, r3, #12, #5
200005fa:	2b11      	cmp	r3, #17
200005fc:	d006      	beq.n	2000060c <cmp_neq_mskd+0x28>
200005fe:	4b06      	ldr	r3, [pc, #24]	; (20000618 <cmp_neq_mskd+0x34>)
20000600:	685a      	ldr	r2, [r3, #4]
20000602:	2102      	movs	r1, #2
20000604:	f361 0242 	bfi	r2, r1, #1, #2
20000608:	605a      	str	r2, [r3, #4]
2000060a:	4770      	bx	lr
2000060c:	4a02      	ldr	r2, [pc, #8]	; (20000618 <cmp_neq_mskd+0x34>)
2000060e:	6853      	ldr	r3, [r2, #4]
20000610:	f043 0340 	orr.w	r3, r3, #64	; 0x40
20000614:	6053      	str	r3, [r2, #4]
20000616:	4770      	bx	lr
20000618:	20002480 	.word	0x20002480

2000061c <cmp_equ_reg>:
2000061c:	4b20      	ldr	r3, [pc, #128]	; (200006a0 <cmp_equ_reg+0x84>)
2000061e:	2200      	movs	r2, #0
20000620:	605a      	str	r2, [r3, #4]
20000622:	685a      	ldr	r2, [r3, #4]
20000624:	f042 0220 	orr.w	r2, r2, #32
20000628:	605a      	str	r2, [r3, #4]
2000062a:	685a      	ldr	r2, [r3, #4]
2000062c:	2101      	movs	r1, #1
2000062e:	f361 0242 	bfi	r2, r1, #1, #2
20000632:	605a      	str	r2, [r3, #4]
20000634:	685b      	ldr	r3, [r3, #4]
20000636:	f013 0f01 	tst.w	r3, #1
2000063a:	d105      	bne.n	20000648 <cmp_equ_reg+0x2c>
2000063c:	4b18      	ldr	r3, [pc, #96]	; (200006a0 <cmp_equ_reg+0x84>)
2000063e:	685b      	ldr	r3, [r3, #4]
20000640:	f3c3 0341 	ubfx	r3, r3, #1, #2
20000644:	428b      	cmp	r3, r1
20000646:	d008      	beq.n	2000065a <cmp_equ_reg+0x3e>
20000648:	4b16      	ldr	r3, [pc, #88]	; (200006a4 <cmp_equ_reg+0x88>)
2000064a:	2200      	movs	r2, #0
2000064c:	605a      	str	r2, [r3, #4]
2000064e:	685a      	ldr	r2, [r3, #4]
20000650:	2117      	movs	r1, #23
20000652:	f361 625d 	bfi	r2, r1, #25, #5
20000656:	605a      	str	r2, [r3, #4]
20000658:	4770      	bx	lr
2000065a:	4b11      	ldr	r3, [pc, #68]	; (200006a0 <cmp_equ_reg+0x84>)
2000065c:	685b      	ldr	r3, [r3, #4]
2000065e:	f013 0f01 	tst.w	r3, #1
20000662:	d1f1      	bne.n	20000648 <cmp_equ_reg+0x2c>
20000664:	4b0e      	ldr	r3, [pc, #56]	; (200006a0 <cmp_equ_reg+0x84>)
20000666:	685b      	ldr	r3, [r3, #4]
20000668:	f013 0f20 	tst.w	r3, #32
2000066c:	d0ec      	beq.n	20000648 <cmp_equ_reg+0x2c>
2000066e:	4b0c      	ldr	r3, [pc, #48]	; (200006a0 <cmp_equ_reg+0x84>)
20000670:	685b      	ldr	r3, [r3, #4]
20000672:	f013 0f40 	tst.w	r3, #64	; 0x40
20000676:	d1e7      	bne.n	20000648 <cmp_equ_reg+0x2c>
20000678:	4b09      	ldr	r3, [pc, #36]	; (200006a0 <cmp_equ_reg+0x84>)
2000067a:	685b      	ldr	r3, [r3, #4]
2000067c:	f413 6f78 	tst.w	r3, #3968	; 0xf80
20000680:	d1e2      	bne.n	20000648 <cmp_equ_reg+0x2c>
20000682:	4b07      	ldr	r3, [pc, #28]	; (200006a0 <cmp_equ_reg+0x84>)
20000684:	685b      	ldr	r3, [r3, #4]
20000686:	f413 3ff8 	tst.w	r3, #126976	; 0x1f000
2000068a:	d1dd      	bne.n	20000648 <cmp_equ_reg+0x2c>
2000068c:	4b05      	ldr	r3, [pc, #20]	; (200006a4 <cmp_equ_reg+0x88>)
2000068e:	2200      	movs	r2, #0
20000690:	605a      	str	r2, [r3, #4]
20000692:	685a      	ldr	r2, [r3, #4]
20000694:	2115      	movs	r1, #21
20000696:	f361 625d 	bfi	r2, r1, #25, #5
2000069a:	605a      	str	r2, [r3, #4]
2000069c:	4770      	bx	lr
2000069e:	bf00      	nop
200006a0:	20002480 	.word	0x20002480
200006a4:	200023e0 	.word	0x200023e0

200006a8 <cmp_neq_reg>:
200006a8:	4b1f      	ldr	r3, [pc, #124]	; (20000728 <cmp_neq_reg+0x80>)
200006aa:	2200      	movs	r2, #0
200006ac:	605a      	str	r2, [r3, #4]
200006ae:	685a      	ldr	r2, [r3, #4]
200006b0:	f042 0220 	orr.w	r2, r2, #32
200006b4:	605a      	str	r2, [r3, #4]
200006b6:	685a      	ldr	r2, [r3, #4]
200006b8:	2101      	movs	r1, #1
200006ba:	f361 0242 	bfi	r2, r1, #1, #2
200006be:	605a      	str	r2, [r3, #4]
200006c0:	685b      	ldr	r3, [r3, #4]
200006c2:	f013 0f01 	tst.w	r3, #1
200006c6:	d105      	bne.n	200006d4 <cmp_neq_reg+0x2c>
200006c8:	4b17      	ldr	r3, [pc, #92]	; (20000728 <cmp_neq_reg+0x80>)
200006ca:	685b      	ldr	r3, [r3, #4]
200006cc:	f3c3 0341 	ubfx	r3, r3, #1, #2
200006d0:	428b      	cmp	r3, r1
200006d2:	d008      	beq.n	200006e6 <cmp_neq_reg+0x3e>
200006d4:	4b14      	ldr	r3, [pc, #80]	; (20000728 <cmp_neq_reg+0x80>)
200006d6:	2200      	movs	r2, #0
200006d8:	605a      	str	r2, [r3, #4]
200006da:	685a      	ldr	r2, [r3, #4]
200006dc:	2101      	movs	r1, #1
200006de:	f361 0242 	bfi	r2, r1, #1, #2
200006e2:	605a      	str	r2, [r3, #4]
200006e4:	4770      	bx	lr
200006e6:	4b10      	ldr	r3, [pc, #64]	; (20000728 <cmp_neq_reg+0x80>)
200006e8:	685b      	ldr	r3, [r3, #4]
200006ea:	f013 0f01 	tst.w	r3, #1
200006ee:	d1f1      	bne.n	200006d4 <cmp_neq_reg+0x2c>
200006f0:	4b0d      	ldr	r3, [pc, #52]	; (20000728 <cmp_neq_reg+0x80>)
200006f2:	685b      	ldr	r3, [r3, #4]
200006f4:	f013 0f20 	tst.w	r3, #32
200006f8:	d0ec      	beq.n	200006d4 <cmp_neq_reg+0x2c>
200006fa:	4b0b      	ldr	r3, [pc, #44]	; (20000728 <cmp_neq_reg+0x80>)
200006fc:	685b      	ldr	r3, [r3, #4]
200006fe:	f013 0f40 	tst.w	r3, #64	; 0x40
20000702:	d1e7      	bne.n	200006d4 <cmp_neq_reg+0x2c>
20000704:	4b08      	ldr	r3, [pc, #32]	; (20000728 <cmp_neq_reg+0x80>)
20000706:	685b      	ldr	r3, [r3, #4]
20000708:	f413 6f78 	tst.w	r3, #3968	; 0xf80
2000070c:	d1e2      	bne.n	200006d4 <cmp_neq_reg+0x2c>
2000070e:	4b06      	ldr	r3, [pc, #24]	; (20000728 <cmp_neq_reg+0x80>)
20000710:	685b      	ldr	r3, [r3, #4]
20000712:	f413 3ff8 	tst.w	r3, #126976	; 0x1f000
20000716:	d1dd      	bne.n	200006d4 <cmp_neq_reg+0x2c>
20000718:	4b03      	ldr	r3, [pc, #12]	; (20000728 <cmp_neq_reg+0x80>)
2000071a:	2200      	movs	r2, #0
2000071c:	605a      	str	r2, [r3, #4]
2000071e:	685a      	ldr	r2, [r3, #4]
20000720:	f042 0220 	orr.w	r2, r2, #32
20000724:	605a      	str	r2, [r3, #4]
20000726:	4770      	bx	lr
20000728:	20002480 	.word	0x20002480

2000072c <constexpr_bits_array>:
2000072c:	4b06      	ldr	r3, [pc, #24]	; (20000748 <constexpr_bits_array+0x1c>)
2000072e:	2206      	movs	r2, #6
20000730:	62da      	str	r2, [r3, #44]	; 0x2c
20000732:	2200      	movs	r2, #0
20000734:	f8c3 20a0 	str.w	r2, [r3, #160]	; 0xa0
20000738:	f8d3 20a0 	ldr.w	r2, [r3, #160]	; 0xa0
2000073c:	f442 5200 	orr.w	r2, r2, #8192	; 0x2000
20000740:	f8c3 20a0 	str.w	r2, [r3, #160]	; 0xa0
20000744:	4770      	bx	lr
20000746:	bf00      	nop
20000748:	200022c0 	.word	0x200022c0

2000074c <runtime_bits_array>:
2000074c:	b081      	sub	sp, #4
2000074e:	2303      	movs	r3, #3
20000750:	9300      	str	r3, [sp, #0]
20000752:	9b00      	ldr	r3, [sp, #0]
20000754:	3308      	adds	r3, #8
20000756:	4a03      	ldr	r2, [pc, #12]	; (20000764 <runtime_bits_array+0x18>)
20000758:	2121      	movs	r1, #33	; 0x21
2000075a:	f842 1023 	str.w	r1, [r2, r3, lsl #2]
2000075e:	b001      	add	sp, #4
20000760:	4770      	bx	lr
20000762:	bf00      	nop
20000764:	200022c0 	.word	0x200022c0

20000768 <prescaler_low>:
20000768:	4b05      	ldr	r3, [pc, #20]	; (20000780 <prescaler_low+0x18>)
2000076a:	685a      	ldr	r2, [r3, #4]
2000076c:	2177      	movs	r1, #119	; 0x77
2000076e:	f361 0206 	bfi	r2, r1, #0, #7
20000772:	605a      	str	r2, [r3, #4]
20000774:	685b      	ldr	r3, [r3, #4]
20000776:	f003 037f 	and.w	r3, r3, #127	; 0x7f
2000077a:	4a02      	ldr	r2, [pc, #8]	; (20000784 <prescaler_low+0x1c>)
2000077c:	62d3      	str	r3, [r2, #44]	; 0x2c
2000077e:	4770      	bx	lr
20000780:	200023e0 	.word	0x200023e0
20000784:	200022c0 	.word	0x200022c0

20000788 <prescaler_high>:
20000788:	4b05      	ldr	r3, [pc, #20]	; (200007a0 <prescaler_high+0x18>)
2000078a:	685a      	ldr	r2, [r3, #4]
2000078c:	211d      	movs	r1, #29
2000078e:	f361 625d 	bfi	r2, r1, #25, #5
20000792:	605a      	str	r2, [r3, #4]
20000794:	685b      	ldr	r3, [r3, #4]
20000796:	f3c3 6344 	ubfx	r3, r3, #25, #5
2000079a:	4a02      	ldr	r2, [pc, #8]	; (200007a4 <prescaler_high+0x1c>)
2000079c:	62d3      	str	r3, [r2, #44]	; 0x2c
2000079e:	4770      	bx	lr
200007a0:	200023e0 	.word	0x200023e0
200007a4:	200022c0 	.word	0x200022c0

200007a8 <reg_mskd_lss>:
200007a8:	4b0d      	ldr	r3, [pc, #52]	; (200007e0 <reg_mskd_lss+0x38>)
200007aa:	685a      	ldr	r2, [r3, #4]
200007ac:	211b      	movs	r1, #27
200007ae:	f361 625d 	bfi	r2, r1, #25, #5
200007b2:	605a      	str	r2, [r3, #4]
200007b4:	4a0b      	ldr	r2, [pc, #44]	; (200007e4 <reg_mskd_lss+0x3c>)
200007b6:	2100      	movs	r1, #0
200007b8:	6051      	str	r1, [r2, #4]
200007ba:	685b      	ldr	r3, [r3, #4]
200007bc:	f3c3 6344 	ubfx	r3, r3, #25, #5
200007c0:	2b1b      	cmp	r3, #27
200007c2:	d806      	bhi.n	200007d2 <reg_mskd_lss+0x2a>
200007c4:	4613      	mov	r3, r2
200007c6:	6852      	ldr	r2, [r2, #4]
200007c8:	2101      	movs	r1, #1
200007ca:	f361 0242 	bfi	r2, r1, #1, #2
200007ce:	605a      	str	r2, [r3, #4]
200007d0:	4770      	bx	lr
200007d2:	4b04      	ldr	r3, [pc, #16]	; (200007e4 <reg_mskd_lss+0x3c>)
200007d4:	685a      	ldr	r2, [r3, #4]
200007d6:	2102      	movs	r1, #2
200007d8:	f361 0242 	bfi	r2, r1, #1, #2
200007dc:	605a      	str	r2, [r3, #4]
200007de:	4770      	bx	lr
200007e0:	200023e0 	.word	0x200023e0
200007e4:	20002480 	.word	0x20002480

200007e8 <reg_mskd_leq>:
200007e8:	4b10      	ldr	r3, [pc, #64]	; (2000082c <reg_mskd_leq+0x44>)
200007ea:	685a      	ldr	r2, [r3, #4]
200007ec:	2117      	movs	r1, #23
200007ee:	f361 625d 	bfi	r2, r1, #25, #5
200007f2:	605a      	str	r2, [r3, #4]
200007f4:	4a0e      	ldr	r2, [pc, #56]	; (20000830 <reg_mskd_leq+0x48>)
200007f6:	2100      	movs	r1, #0
200007f8:	6051      	str	r1, [r2, #4]
200007fa:	685b      	ldr	r3, [r3, #4]
200007fc:	f3c3 6344 	ubfx	r3, r3, #25, #5
20000800:	2b17      	cmp	r3, #23
20000802:	d80c      	bhi.n	2000081e <reg_mskd_leq+0x36>
20000804:	4b09      	ldr	r3, [pc, #36]	; (2000082c <reg_mskd_leq+0x44>)
20000806:	685b      	ldr	r3, [r3, #4]
20000808:	f3c3 6344 	ubfx	r3, r3, #25, #5
2000080c:	2b18      	cmp	r3, #24
2000080e:	d806      	bhi.n	2000081e <reg_mskd_leq+0x36>
20000810:	4613      	mov	r3, r2
20000812:	6852      	ldr	r2, [r2, #4]
20000814:	2101      	movs	r1, #1
20000816:	f361 0242 	bfi	r2, r1, #1, #2
2000081a:	605a      	str	r2, [r3, #4]
2000081c:	4770      	bx	lr
2000081e:	4b04      	ldr	r3, [pc, #16]	; (20000830 <reg_mskd_leq+0x48>)
20000820:	685a      	ldr	r2, [r3, #4]
20000822:	2102      	movs	r1, #2
20000824:	f361 0242 	bfi	r2, r1, #1, #2
20000828:	605a      	str	r2, [r3, #4]
2000082a:	4770      	bx	lr
2000082c:	200023e0 	.word	0x200023e0
20000830:	20002480 	.word	0x20002480

20000834 <reg_mskd_gtr>:
20000834:	4b0d      	ldr	r3, [pc, #52]	; (2000086c <reg_mskd_gtr+0x38>)
20000836:	685a      	ldr	r2, [r3, #4]
20000838:	2113      	movs	r1, #19
2000083a:	f361 625d 	bfi	r2, r1, #25, #5
2000083e:	605a      	str	r2, [r3, #4]
20000840:	4a0b      	ldr	r2, [pc, #44]	; (20000870 <reg_mskd_gtr+0x3c>)
20000842:	2100      	movs	r1, #0
20000844:	6051      	str	r1, [r2, #4]
20000846:	685b      	ldr	r3, [r3, #4]
20000848:	f3c3 6344 	ubfx	r3, r3, #25, #5
2000084c:	2b12      	cmp	r3, #18
2000084e:	d906      	bls.n	2000085e <reg_mskd_gtr+0x2a>
20000850:	4613      	mov	r3, r2
20000852:	6852      	ldr	r2, [r2, #4]
20000854:	2101      	movs	r1, #1
20000856:	f361 0242 	bfi	r2, r1, #1, #2
2000085a:	605a      	str	r2, [r3, #4]
2000085c:	4770      	bx	lr
2000085e:	4b04      	ldr	r3, [pc, #16]	; (20000870 <reg_mskd_gtr+0x3c>)
20000860:	685a      	ldr	r2, [r3, #4]
20000862:	2102      	movs	r1, #2
20000864:	f361 0242 	bfi	r2, r1, #1, #2
20000868:	605a      	str	r2, [r3, #4]
2000086a:	4770      	bx	lr
2000086c:	200023e0 	.word	0x200023e0
20000870:	20002480 	.word	0x20002480

20000874 <reg_mskd_geq>:
20000874:	4b10      	ldr	r3, [pc, #64]	; (200008b8 <reg_mskd_geq+0x44>)
20000876:	685a      	ldr	r2, [r3, #4]
20000878:	2111      	movs	r1, #17
2000087a:	f361 625d 	bfi	r2, r1, #25, #5
2000087e:	605a      	str	r2, [r3, #4]
20000880:	4a0e      	ldr	r2, [pc, #56]	; (200008bc <reg_mskd_geq+0x48>)
20000882:	2100      	movs	r1, #0
20000884:	6051      	str	r1, [r2, #4]
20000886:	685b      	ldr	r3, [r3, #4]
20000888:	f3c3 6344 	ubfx	r3, r3, #25, #5
2000088c:	2b0f      	cmp	r3, #15
2000088e:	d90c      	bls.n	200008aa <reg_mskd_geq+0x36>
20000890:	4b09      	ldr	r3, [pc, #36]	; (200008b8 <reg_mskd_geq+0x44>)
20000892:	685b      	ldr	r3, [r3, #4]
20000894:	f3c3 6344 	ubfx	r3, r3, #25, #5
20000898:	2b10      	cmp	r3, #16
2000089a:	d906      	bls.n	200008aa <reg_mskd_geq+0x36>
2000089c:	4613      	mov	r3, r2
2000089e:	6852      	ldr	r2, [r2, #4]
200008a0:	2101      	movs	r1, #1
200008a2:	f361 0242 	bfi	r2, r1, #1, #2
200008a6:	605a      	str	r2, [r3, #4]
200008a8:	4770      	bx	lr
200008aa:	4b04      	ldr	r3, [pc, #16]	; (200008bc <reg_mskd_geq+0x48>)
200008ac:	685a      	ldr	r2, [r3, #4]
200008ae:	2102      	movs	r1, #2
200008b0:	f361 0242 	bfi	r2, r1, #1, #2
200008b4:	605a      	str	r2, [r3, #4]
200008b6:	4770      	bx	lr
200008b8:	200023e0 	.word	0x200023e0
200008bc:	20002480 	.word	0x20002480

200008c0 <pos_cmp_eq>:
200008c0:	4b04      	ldr	r3, [pc, #16]	; (200008d4 <pos_cmp_eq+0x14>)
200008c2:	2200      	movs	r2, #0
200008c4:	605a      	str	r2, [r3, #4]
200008c6:	685a      	ldr	r2, [r3, #4]
200008c8:	2101      	movs	r1, #1
200008ca:	f361 0242 	bfi	r2, r1, #1, #2
200008ce:	605a      	str	r2, [r3, #4]
200008d0:	4770      	bx	lr
200008d2:	bf00      	nop
200008d4:	20002480 	.word	0x20002480

200008d8 <pos_cmp_ne>:
200008d8:	4b04      	ldr	r3, [pc, #16]	; (200008ec <pos_cmp_ne+0x14>)
200008da:	2200      	movs	r2, #0
200008dc:	605a      	str	r2, [r3, #4]
200008de:	685a      	ldr	r2, [r3, #4]
200008e0:	2101      	movs	r1, #1
200008e2:	f361 0242 	bfi	r2, r1, #1, #2
200008e6:	605a      	str	r2, [r3, #4]
200008e8:	4770      	bx	lr
200008ea:	bf00      	nop
200008ec:	20002480 	.word	0x20002480

200008f0 <bits_extract_eq>:
200008f0:	4b0b      	ldr	r3, [pc, #44]	; (20000920 <bits_extract_eq+0x30>)
200008f2:	685a      	ldr	r2, [r3, #4]
200008f4:	f042 0240 	orr.w	r2, r2, #64	; 0x40
200008f8:	605a      	str	r2, [r3, #4]
200008fa:	685a      	ldr	r2, [r3, #4]
200008fc:	2100      	movs	r1, #0
200008fe:	6059      	str	r1, [r3, #4]
20000900:	f012 0f40 	tst.w	r2, #64	; 0x40
20000904:	d005      	beq.n	20000912 <bits_extract_eq+0x22>
20000906:	685a      	ldr	r2, [r3, #4]
20000908:	2101      	movs	r1, #1
2000090a:	f361 0242 	bfi	r2, r1, #1, #2
2000090e:	605a      	str	r2, [r3, #4]
20000910:	4770      	bx	lr
20000912:	4b03      	ldr	r3, [pc, #12]	; (20000920 <bits_extract_eq+0x30>)
20000914:	685a      	ldr	r2, [r3, #4]
20000916:	2102      	movs	r1, #2
20000918:	f361 0242 	bfi	r2, r1, #1, #2
2000091c:	605a      	str	r2, [r3, #4]
2000091e:	4770      	bx	lr
20000920:	20002480 	.word	0x20002480

20000924 <mskd_extract_eq>:
20000924:	4b0a      	ldr	r3, [pc, #40]	; (20000950 <mskd_extract_eq+0x2c>)
20000926:	685a      	ldr	r2, [r3, #4]
20000928:	2101      	movs	r1, #1
2000092a:	f361 0242 	bfi	r2, r1, #1, #2
2000092e:	605a      	str	r2, [r3, #4]
20000930:	685a      	ldr	r2, [r3, #4]
20000932:	2100      	movs	r1, #0
20000934:	6059      	str	r1, [r3, #4]
20000936:	f3c2 0341 	ubfx	r3, r2, #1, #2
2000093a:	2b01      	cmp	r3, #1
2000093c:	4a04      	ldr	r2, [pc, #16]	; (20000950 <mskd_extract_eq+0x2c>)
2000093e:	6853      	ldr	r3, [r2, #4]
20000940:	bf0c      	ite	eq
20000942:	f043 0320 	orreq.w	r3, r3, #32
20000946:	f043 0340 	orrne.w	r3, r3, #64	; 0x40
2000094a:	6053      	str	r3, [r2, #4]
2000094c:	4770      	bx	lr
2000094e:	bf00      	nop
20000950:	20002480 	.word	0x20002480

20000954 <mskd_extract_ne>:
20000954:	4b0a      	ldr	r3, [pc, #40]	; (20000980 <mskd_extract_ne+0x2c>)
20000956:	2100      	movs	r1, #0
20000958:	6059      	str	r1, [r3, #4]
2000095a:	685a      	ldr	r2, [r3, #4]
2000095c:	2002      	movs	r0, #2
2000095e:	f360 0242 	bfi	r2, r0, #1, #2
20000962:	605a      	str	r2, [r3, #4]
20000964:	685a      	ldr	r2, [r3, #4]
20000966:	6059      	str	r1, [r3, #4]
20000968:	f3c2 0341 	ubfx	r3, r2, #1, #2
2000096c:	4283      	cmp	r3, r0
2000096e:	4a04      	ldr	r2, [pc, #16]	; (20000980 <mskd_extract_ne+0x2c>)
20000970:	6853      	ldr	r3, [r2, #4]
20000972:	bf14      	ite	ne
20000974:	f043 0320 	orrne.w	r3, r3, #32
20000978:	f043 0340 	orreq.w	r3, r3, #64	; 0x40
2000097c:	6053      	str	r3, [r2, #4]
2000097e:	4770      	bx	lr
20000980:	20002480 	.word	0x20002480

20000984 <mskd_extract_lss>:
20000984:	4b0c      	ldr	r3, [pc, #48]	; (200009b8 <mskd_extract_lss+0x34>)
20000986:	2200      	movs	r2, #0
20000988:	605a      	str	r2, [r3, #4]
2000098a:	6859      	ldr	r1, [r3, #4]
2000098c:	200b      	movs	r0, #11
2000098e:	f360 615d 	bfi	r1, r0, #25, #5
20000992:	6059      	str	r1, [r3, #4]
20000994:	685b      	ldr	r3, [r3, #4]
20000996:	4909      	ldr	r1, [pc, #36]	; (200009bc <mskd_extract_lss+0x38>)
20000998:	604a      	str	r2, [r1, #4]
2000099a:	f3c3 6344 	ubfx	r3, r3, #25, #5
2000099e:	4283      	cmp	r3, r0
200009a0:	d804      	bhi.n	200009ac <mskd_extract_lss+0x28>
200009a2:	684b      	ldr	r3, [r1, #4]
200009a4:	f043 0320 	orr.w	r3, r3, #32
200009a8:	604b      	str	r3, [r1, #4]
200009aa:	4770      	bx	lr
200009ac:	4a03      	ldr	r2, [pc, #12]	; (200009bc <mskd_extract_lss+0x38>)
200009ae:	6853      	ldr	r3, [r2, #4]
200009b0:	f043 0340 	orr.w	r3, r3, #64	; 0x40
200009b4:	6053      	str	r3, [r2, #4]
200009b6:	4770      	bx	lr
200009b8:	200023e0 	.word	0x200023e0
200009bc:	20002480 	.word	0x20002480

200009c0 <mskd_extract_leq>:
200009c0:	4b0d      	ldr	r3, [pc, #52]	; (200009f8 <mskd_extract_leq+0x38>)
200009c2:	2200      	movs	r2, #0
200009c4:	605a      	str	r2, [r3, #4]
200009c6:	6859      	ldr	r1, [r3, #4]
200009c8:	2017      	movs	r0, #23
200009ca:	f360 615d 	bfi	r1, r0, #25, #5
200009ce:	6059      	str	r1, [r3, #4]
200009d0:	685b      	ldr	r3, [r3, #4]
200009d2:	490a      	ldr	r1, [pc, #40]	; (200009fc <mskd_extract_leq+0x3c>)
200009d4:	604a      	str	r2, [r1, #4]
200009d6:	f3c3 6244 	ubfx	r2, r3, #25, #5
200009da:	4282      	cmp	r2, r0
200009dc:	d806      	bhi.n	200009ec <mskd_extract_leq+0x2c>
200009de:	2a18      	cmp	r2, #24
200009e0:	d804      	bhi.n	200009ec <mskd_extract_leq+0x2c>
200009e2:	684b      	ldr	r3, [r1, #4]
200009e4:	f043 0320 	orr.w	r3, r3, #32
200009e8:	604b      	str	r3, [r1, #4]
200009ea:	4770      	bx	lr
200009ec:	4a03      	ldr	r2, [pc, #12]	; (200009fc <mskd_extract_leq+0x3c>)
200009ee:	6853      	ldr	r3, [r2, #4]
200009f0:	f043 0340 	orr.w	r3, r3, #64	; 0x40
200009f4:	6053      	str	r3, [r2, #4]
200009f6:	4770      	bx	lr
200009f8:	200023e0 	.word	0x200023e0
200009fc:	20002480 	.word	0x20002480

20000a00 <mskd_extract_gtr>:
20000a00:	4b0c      	ldr	r3, [pc, #48]	; (20000a34 <mskd_extract_gtr+0x34>)
20000a02:	2200      	movs	r2, #0
20000a04:	605a      	str	r2, [r3, #4]
20000a06:	6859      	ldr	r1, [r3, #4]
20000a08:	2013      	movs	r0, #19
20000a0a:	f360 615d 	bfi	r1, r0, #25, #5
20000a0e:	6059      	str	r1, [r3, #4]
20000a10:	685b      	ldr	r3, [r3, #4]
20000a12:	4909      	ldr	r1, [pc, #36]	; (20000a38 <mskd_extract_gtr+0x38>)
20000a14:	604a      	str	r2, [r1, #4]
20000a16:	f3c3 6344 	ubfx	r3, r3, #25, #5
20000a1a:	2b12      	cmp	r3, #18
20000a1c:	d904      	bls.n	20000a28 <mskd_extract_gtr+0x28>
20000a1e:	684b      	ldr	r3, [r1, #4]
20000a20:	f043 0320 	orr.w	r3, r3, #32
20000a24:	604b      	str	r3, [r1, #4]
20000a26:	4770      	bx	lr
20000a28:	4a03      	ldr	r2, [pc, #12]	; (20000a38 <mskd_extract_gtr+0x38>)
20000a2a:	6853      	ldr	r3, [r2, #4]
20000a2c:	f043 0340 	orr.w	r3, r3, #64	; 0x40
20000a30:	6053      	str	r3, [r2, #4]
20000a32:	4770      	bx	lr
20000a34:	200023e0 	.word	0x200023e0
20000a38:	20002480 	.word	0x20002480

20000a3c <set_bits_global>:
20000a3c:	4a02      	ldr	r2, [pc, #8]	; (20000a48 <set_bits_global+0xc>)
20000a3e:	6853      	ldr	r3, [r2, #4]
20000a40:	f043 0340 	orr.w	r3, r3, #64	; 0x40
20000a44:	6053      	str	r3, [r2, #4]
20000a46:	4770      	bx	lr
20000a48:	20002480 	.word	0x20002480

20000a4c <ins_mskd_global>:
20000a4c:	4b03      	ldr	r3, [pc, #12]	; (20000a5c <ins_mskd_global+0x10>)
20000a4e:	685a      	ldr	r2, [r3, #4]
20000a50:	2101      	movs	r1, #1
20000a52:	f361 0242 	bfi	r2, r1, #1, #2
20000a56:	605a      	str	r2, [r3, #4]
20000a58:	4770      	bx	lr
20000a5a:	bf00      	nop
20000a5c:	20002480 	.word	0x20002480

20000a60 <assign_array_global>:
20000a60:	4b01      	ldr	r3, [pc, #4]	; (20000a68 <assign_array_global+0x8>)
20000a62:	22bd      	movs	r2, #189	; 0xbd
20000a64:	601a      	str	r2, [r3, #0]
20000a66:	4770      	bx	lr
20000a68:	200022ec 	.word	0x200022ec

20000a6c <shifted_global>:
20000a6c:	4b05      	ldr	r3, [pc, #20]	; (20000a84 <shifted_global+0x18>)
20000a6e:	685a      	ldr	r2, [r3, #4]
20000a70:	2117      	movs	r1, #23
20000a72:	f361 625d 	bfi	r2, r1, #25, #5
20000a76:	605a      	str	r2, [r3, #4]
20000a78:	685b      	ldr	r3, [r3, #4]
20000a7a:	f3c3 6344 	ubfx	r3, r3, #25, #5
20000a7e:	4a02      	ldr	r2, [pc, #8]	; (20000a88 <shifted_global+0x1c>)
20000a80:	62d3      	str	r3, [r2, #44]	; 0x2c
20000a82:	4770      	bx	lr
20000a84:	200023e0 	.word	0x200023e0
20000a88:	200022c0 	.word	0x200022c0

20000a8c <assign_register_global>:
20000a8c:	4b04      	ldr	r3, [pc, #16]	; (20000aa0 <assign_register_global+0x14>)
20000a8e:	2200      	movs	r2, #0
20000a90:	605a      	str	r2, [r3, #4]
20000a92:	685a      	ldr	r2, [r3, #4]
20000a94:	2102      	movs	r1, #2
20000a96:	f361 0242 	bfi	r2, r1, #1, #2
20000a9a:	605a      	str	r2, [r3, #4]
20000a9c:	4770      	bx	lr
20000a9e:	bf00      	nop
20000aa0:	20002480 	.word	0x20002480

20000aa4 <copy_bits_equ>:
20000aa4:	4b0c      	ldr	r3, [pc, #48]	; (20000ad8 <copy_bits_equ+0x34>)
20000aa6:	2100      	movs	r1, #0
20000aa8:	6059      	str	r1, [r3, #4]
20000aaa:	685a      	ldr	r2, [r3, #4]
20000aac:	f042 0240 	orr.w	r2, r2, #64	; 0x40
20000ab0:	605a      	str	r2, [r3, #4]
20000ab2:	685a      	ldr	r2, [r3, #4]
20000ab4:	6059      	str	r1, [r3, #4]
20000ab6:	f012 0f40 	tst.w	r2, #64	; 0x40
20000aba:	d106      	bne.n	20000aca <copy_bits_equ+0x26>
20000abc:	4b06      	ldr	r3, [pc, #24]	; (20000ad8 <copy_bits_equ+0x34>)
20000abe:	685a      	ldr	r2, [r3, #4]
20000ac0:	2102      	movs	r1, #2
20000ac2:	f361 0242 	bfi	r2, r1, #1, #2
20000ac6:	605a      	str	r2, [r3, #4]
20000ac8:	4770      	bx	lr
20000aca:	685a      	ldr	r2, [r3, #4]
20000acc:	2101      	movs	r1, #1
20000ace:	f361 0242 	bfi	r2, r1, #1, #2
20000ad2:	605a      	str	r2, [r3, #4]
20000ad4:	4770      	bx	lr
20000ad6:	bf00      	nop
20000ad8:	20002480 	.word	0x20002480

20000adc <copy_bits_neq>:
20000adc:	4b0c      	ldr	r3, [pc, #48]	; (20000b10 <copy_bits_neq+0x34>)
20000ade:	2100      	movs	r1, #0
20000ae0:	6059      	str	r1, [r3, #4]
20000ae2:	685a      	ldr	r2, [r3, #4]
20000ae4:	f042 0240 	orr.w	r2, r2, #64	; 0x40
20000ae8:	605a      	str	r2, [r3, #4]
20000aea:	685a      	ldr	r2, [r3, #4]
20000aec:	6059      	str	r1, [r3, #4]
20000aee:	f012 0f40 	tst.w	r2, #64	; 0x40
20000af2:	d105      	bne.n	20000b00 <copy_bits_neq+0x24>
20000af4:	685a      	ldr	r2, [r3, #4]
20000af6:	2101      	movs	r1, #1
20000af8:	f361 0242 	bfi	r2, r1, #1, #2
20000afc:	605a      	str	r2, [r3, #4]
20000afe:	4770      	bx	lr
20000b00:	4b03      	ldr	r3, [pc, #12]	; (20000b10 <copy_bits_neq+0x34>)
20000b02:	685a      	ldr	r2, [r3, #4]
20000b04:	2102      	movs	r1, #2
20000b06:	f361 0242 	bfi	r2, r1, #1, #2
20000b0a:	605a      	str	r2, [r3, #4]
20000b0c:	4770      	bx	lr
20000b0e:	bf00      	nop
20000b10:	20002480 	.word	0x20002480

20000b14 <copy_mskd_equ>:
20000b14:	4b0e      	ldr	r3, [pc, #56]	; (20000b50 <copy_mskd_equ+0x3c>)
20000b16:	2200      	movs	r2, #0
20000b18:	605a      	str	r2, [r3, #4]
20000b1a:	6859      	ldr	r1, [r3, #4]
20000b1c:	200b      	movs	r0, #11
20000b1e:	f360 615d 	bfi	r1, r0, #25, #5
20000b22:	6059      	str	r1, [r3, #4]
20000b24:	685b      	ldr	r3, [r3, #4]
20000b26:	f3c3 6344 	ubfx	r3, r3, #25, #5
20000b2a:	490a      	ldr	r1, [pc, #40]	; (20000b54 <copy_mskd_equ+0x40>)
20000b2c:	604a      	str	r2, [r1, #4]
20000b2e:	4283      	cmp	r3, r0
20000b30:	d006      	beq.n	20000b40 <copy_mskd_equ+0x2c>
20000b32:	4b08      	ldr	r3, [pc, #32]	; (20000b54 <copy_mskd_equ+0x40>)
20000b34:	685a      	ldr	r2, [r3, #4]
20000b36:	2102      	movs	r1, #2
20000b38:	f361 0242 	bfi	r2, r1, #1, #2
20000b3c:	605a      	str	r2, [r3, #4]
20000b3e:	4770      	bx	lr
20000b40:	460b      	mov	r3, r1
20000b42:	684a      	ldr	r2, [r1, #4]
20000b44:	2101      	movs	r1, #1
20000b46:	f361 0242 	bfi	r2, r1, #1, #2
20000b4a:	605a      	str	r2, [r3, #4]
20000b4c:	4770      	bx	lr
20000b4e:	bf00      	nop
20000b50:	200023e0 	.word	0x200023e0
20000b54:	20002480 	.word	0x20002480

20000b58 <copy_mskd_neq>:
20000b58:	4b0e      	ldr	r3, [pc, #56]	; (20000b94 <copy_mskd_neq+0x3c>)
20000b5a:	2200      	movs	r2, #0
20000b5c:	605a      	str	r2, [r3, #4]
20000b5e:	6859      	ldr	r1, [r3, #4]
20000b60:	200d      	movs	r0, #13
20000b62:	f360 615d 	bfi	r1, r0, #25, #5
20000b66:	6059      	str	r1, [r3, #4]
20000b68:	685b      	ldr	r3, [r3, #4]
20000b6a:	f3c3 6344 	ubfx	r3, r3, #25, #5
20000b6e:	490a      	ldr	r1, [pc, #40]	; (20000b98 <copy_mskd_neq+0x40>)
20000b70:	604a      	str	r2, [r1, #4]
20000b72:	4283      	cmp	r3, r0
20000b74:	d006      	beq.n	20000b84 <copy_mskd_neq+0x2c>
20000b76:	460b      	mov	r3, r1
20000b78:	684a      	ldr	r2, [r1, #4]
20000b7a:	2101      	movs	r1, #1
20000b7c:	f361 0242 	bfi	r2, r1, #1, #2
20000b80:	605a      	str	r2, [r3, #4]
20000b82:	4770      	bx	lr
20000b84:	4b04      	ldr	r3, [pc, #16]	; (20000b98 <copy_mskd_neq+0x40>)
20000b86:	685a      	ldr	r2, [r3, #4]
20000b88:	2102      	movs	r1, #2
20000b8a:	f361 0242 	bfi	r2, r1, #1, #2
20000b8e:	605a      	str	r2, [r3, #4]
20000b90:	4770      	bx	lr
20000b92:	bf00      	nop
20000b94:	200023e0 	.word	0x200023e0
20000b98:	20002480 	.word	0x20002480

20000b9c <copy_mskd_lss>:
20000b9c:	4b0e      	ldr	r3, [pc, #56]	; (20000bd8 <copy_mskd_lss+0x3c>)
20000b9e:	2200      	movs	r2, #0
20000ba0:	605a      	str	r2, [r3, #4]
20000ba2:	6859      	ldr	r1, [r3, #4]
20000ba4:	201b      	movs	r0, #27
20000ba6:	f360 615d 	bfi	r1, r0, #25, #5
20000baa:	6059      	str	r1, [r3, #4]
20000bac:	685b      	ldr	r3, [r3, #4]
20000bae:	f3c3 6344 	ubfx	r3, r3, #25, #5
20000bb2:	490a      	ldr	r1, [pc, #40]	; (20000bdc <copy_mskd_lss+0x40>)
20000bb4:	604a      	str	r2, [r1, #4]
20000bb6:	4283      	cmp	r3, r0
20000bb8:	d806      	bhi.n	20000bc8 <copy_mskd_lss+0x2c>
20000bba:	460b      	mov	r3, r1
20000bbc:	684a      	ldr	r2, [r1, #4]
20000bbe:	2101      	movs	r1, #1
20000bc0:	f361 0242 	bfi	r2, r1, #1, #2
20000bc4:	605a      	str	r2, [r3, #4]
20000bc6:	4770      	bx	lr
20000bc8:	4b04      	ldr	r3, [pc, #16]	; (20000bdc <copy_mskd_lss+0x40>)
20000bca:	685a      	ldr	r2, [r3, #4]
20000bcc:	2102      	movs	r1, #2
20000bce:	f361 0242 	bfi	r2, r1, #1, #2
20000bd2:	605a      	str	r2, [r3, #4]
20000bd4:	4770      	bx	lr
20000bd6:	bf00      	nop
20000bd8:	200023e0 	.word	0x200023e0
20000bdc:	20002480 	.word	0x20002480

20000be0 <copy_mskd_leq>:
20000be0:	4b0e      	ldr	r3, [pc, #56]	; (20000c1c <copy_mskd_leq+0x3c>)
20000be2:	2200      	movs	r2, #0
20000be4:	605a      	str	r2, [r3, #4]
20000be6:	6859      	ldr	r1, [r3, #4]
20000be8:	2017      	movs	r0, #23
20000bea:	f360 615d 	bfi	r1, r0, #25, #5
20000bee:	6059      	str	r1, [r3, #4]
20000bf0:	685b      	ldr	r3, [r3, #4]
20000bf2:	f3c3 6344 	ubfx	r3, r3, #25, #5
20000bf6:	490a      	ldr	r1, [pc, #40]	; (20000c20 <copy_mskd_leq+0x40>)
20000bf8:	604a      	str	r2, [r1, #4]
20000bfa:	4283      	cmp	r3, r0
20000bfc:	d806      	bhi.n	20000c0c <copy_mskd_leq+0x2c>
20000bfe:	460b      	mov	r3, r1
20000c00:	684a      	ldr	r2, [r1, #4]
20000c02:	2101      	movs	r1, #1
20000c04:	f361 0242 	bfi	r2, r1, #1, #2
20000c08:	605a      	str	r2, [r3, #4]
20000c0a:	4770      	bx	lr
20000c0c:	4b04      	ldr	r3, [pc, #16]	; (20000c20 <copy_mskd_leq+0x40>)
20000c0e:	685a      	ldr	r2, [r3, #4]
20000c10:	2102      	movs	r1, #2
20000c12:	f361 0242 	bfi	r2, r1, #1, #2
20000c16:	605a      	str	r2, [r3, #4]
20000c18:	4770      	bx	lr
20000c1a:	bf00      	nop
20000c1c:	200023e0 	.word	0x200023e0
20000c20:	20002480 	.word	0x20002480

20000c24 <copy_mskd_gtr>:
20000c24:	4b0e      	ldr	r3, [pc, #56]	; (20000c60 <copy_mskd_gtr+0x3c>)
20000c26:	2200      	movs	r2, #0
20000c28:	605a      	str	r2, [r3, #4]
20000c2a:	6859      	ldr	r1, [r3, #4]
20000c2c:	2013      	movs	r0, #19
20000c2e:	f360 615d 	bfi	r1, r0, #25, #5
20000c32:	6059      	str	r1, [r3, #4]
20000c34:	685b      	ldr	r3, [r3, #4]
20000c36:	f3c3 6344 	ubfx	r3, r3, #25, #5
20000c3a:	490a      	ldr	r1, [pc, #40]	; (20000c64 <copy_mskd_gtr+0x40>)
20000c3c:	604a      	str	r2, [r1, #4]
20000c3e:	2b12      	cmp	r3, #18
20000c40:	d906      	bls.n	20000c50 <copy_mskd_gtr+0x2c>
20000c42:	460b      	mov	r3, r1
20000c44:	684a      	ldr	r2, [r1, #4]
20000c46:	2101      	movs	r1, #1
20000c48:	f361 0242 	bfi	r2, r1, #1, #2
20000c4c:	605a      	str	r2, [r3, #4]
20000c4e:	4770      	bx	lr
20000c50:	4b04      	ldr	r3, [pc, #16]	; (20000c64 <copy_mskd_gtr+0x40>)
20000c52:	685a      	ldr	r2, [r3, #4]
20000c54:	2102      	movs	r1, #2
20000c56:	f361 0242 	bfi	r2, r1, #1, #2
20000c5a:	605a      	str	r2, [r3, #4]
20000c5c:	4770      	bx	lr
20000c5e:	bf00      	nop
20000c60:	200023e0 	.word	0x200023e0
20000c64:	20002480 	.word	0x20002480

20000c68 <copy_mskd_geq>:
20000c68:	4b0e      	ldr	r3, [pc, #56]	; (20000ca4 <copy_mskd_geq+0x3c>)
20000c6a:	2200      	movs	r2, #0
20000c6c:	605a      	str	r2, [r3, #4]
20000c6e:	6859      	ldr	r1, [r3, #4]
20000c70:	2011      	movs	r0, #17
20000c72:	f360 615d 	bfi	r1, r0, #25, #5
20000c76:	6059      	str	r1, [r3, #4]
20000c78:	685b      	ldr	r3, [r3, #4]
20000c7a:	f3c3 6344 	ubfx	r3, r3, #25, #5
20000c7e:	490a      	ldr	r1, [pc, #40]	; (20000ca8 <copy_mskd_geq+0x40>)
20000c80:	604a      	str	r2, [r1, #4]
20000c82:	2b10      	cmp	r3, #16
20000c84:	d906      	bls.n	20000c94 <copy_mskd_geq+0x2c>
20000c86:	460b      	mov	r3, r1
20000c88:	684a      	ldr	r2, [r1, #4]
20000c8a:	2101      	movs	r1, #1
20000c8c:	f361 0242 	bfi	r2, r1, #1, #2
20000c90:	605a      	str	r2, [r3, #4]
20000c92:	4770      	bx	lr
20000c94:	4b04      	ldr	r3, [pc, #16]	; (20000ca8 <copy_mskd_geq+0x40>)
20000c96:	685a      	ldr	r2, [r3, #4]
20000c98:	2102      	movs	r1, #2
20000c9a:	f361 0242 	bfi	r2, r1, #1, #2
20000c9e:	605a      	str	r2, [r3, #4]
20000ca0:	4770      	bx	lr
20000ca2:	bf00      	nop
20000ca4:	200023e0 	.word	0x200023e0
20000ca8:	20002480 	.word	0x20002480

20000cac <copy_shifted>:
20000cac:	4b0e      	ldr	r3, [pc, #56]	; (20000ce8 <copy_shifted+0x3c>)
20000cae:	2200      	movs	r2, #0
20000cb0:	605a      	str	r2, [r3, #4]
20000cb2:	6859      	ldr	r1, [r3, #4]
20000cb4:	200b      	movs	r0, #11
20000cb6:	f360 615d 	bfi	r1, r0, #25, #5
20000cba:	6059      	str	r1, [r3, #4]
20000cbc:	685b      	ldr	r3, [r3, #4]
20000cbe:	f3c3 6344 	ubfx	r3, r3, #25, #5
20000cc2:	490a      	ldr	r1, [pc, #40]	; (20000cec <copy_shifted+0x40>)
20000cc4:	604a      	str	r2, [r1, #4]
20000cc6:	4283      	cmp	r3, r0
20000cc8:	d006      	beq.n	20000cd8 <copy_shifted+0x2c>
20000cca:	4b08      	ldr	r3, [pc, #32]	; (20000cec <copy_shifted+0x40>)
20000ccc:	685a      	ldr	r2, [r3, #4]
20000cce:	2102      	movs	r1, #2
20000cd0:	f361 0242 	bfi	r2, r1, #1, #2
20000cd4:	605a      	str	r2, [r3, #4]
20000cd6:	4770      	bx	lr
20000cd8:	460b      	mov	r3, r1
20000cda:	684a      	ldr	r2, [r1, #4]
20000cdc:	2101      	movs	r1, #1
20000cde:	f361 0242 	bfi	r2, r1, #1, #2
20000ce2:	605a      	str	r2, [r3, #4]
20000ce4:	4770      	bx	lr
20000ce6:	bf00      	nop
20000ce8:	200023e0 	.word	0x200023e0
20000cec:	20002480 	.word	0x20002480

20000cf0 <bits_val>:
20000cf0:	2803      	cmp	r0, #3
20000cf2:	d01b      	beq.n	20000d2c <bits_val+0x3c>
20000cf4:	2804      	cmp	r0, #4
20000cf6:	d00d      	beq.n	20000d14 <bits_val+0x24>
20000cf8:	b100      	cbz	r0, 20000cfc <bits_val+0xc>
20000cfa:	4770      	bx	lr
20000cfc:	f001 0101 	and.w	r1, r1, #1
20000d00:	4b10      	ldr	r3, [pc, #64]	; (20000d44 <bits_val+0x54>)
20000d02:	685a      	ldr	r2, [r3, #4]
20000d04:	f361 0200 	bfi	r2, r1, #0, #1
20000d08:	605a      	str	r2, [r3, #4]
20000d0a:	685a      	ldr	r2, [r3, #4]
20000d0c:	f361 0200 	bfi	r2, r1, #0, #1
20000d10:	605a      	str	r2, [r3, #4]
20000d12:	4770      	bx	lr
20000d14:	f001 0101 	and.w	r1, r1, #1
20000d18:	4b0a      	ldr	r3, [pc, #40]	; (20000d44 <bits_val+0x54>)
20000d1a:	685a      	ldr	r2, [r3, #4]
20000d1c:	f361 1286 	bfi	r2, r1, #6, #1
20000d20:	605a      	str	r2, [r3, #4]
20000d22:	685a      	ldr	r2, [r3, #4]
20000d24:	f361 1286 	bfi	r2, r1, #6, #1
20000d28:	605a      	str	r2, [r3, #4]
20000d2a:	4770      	bx	lr
20000d2c:	f001 0101 	and.w	r1, r1, #1
20000d30:	4b04      	ldr	r3, [pc, #16]	; (20000d44 <bits_val+0x54>)
20000d32:	685a      	ldr	r2, [r3, #4]
20000d34:	f361 1245 	bfi	r2, r1, #5, #1
20000d38:	605a      	str	r2, [r3, #4]
20000d3a:	685a      	ldr	r2, [r3, #4]
20000d3c:	f361 1245 	bfi	r2, r1, #5, #1
20000d40:	605a      	str	r2, [r3, #4]
20000d42:	e7da      	b.n	20000cfa <bits_val+0xa>
20000d44:	20002480 	.word	0x20002480

20000d48 <call_bits_val_const>:
20000d48:	b500      	push	{lr}
20000d4a:	2101      	movs	r1, #1
20000d4c:	2004      	movs	r0, #4
20000d4e:	f7ff ffcf 	bl	20000cf0 <bits_val>
20000d52:	f85d fb04 	ldr.w	pc, [sp], #4

20000d56 <call_bits_val_var>:
20000d56:	b500      	push	{lr}
20000d58:	2101      	movs	r1, #1
20000d5a:	2004      	movs	r0, #4
20000d5c:	f7ff ffc8 	bl	20000cf0 <bits_val>
20000d60:	f85d fb04 	ldr.w	pc, [sp], #4

20000d64 <call_bits_val_global>:
20000d64:	b500      	push	{lr}
20000d66:	2101      	movs	r1, #1
20000d68:	2004      	movs	r0, #4
20000d6a:	f7ff ffc1 	bl	20000cf0 <bits_val>
20000d6e:	f85d fb04 	ldr.w	pc, [sp], #4

20000d72 <bits_ref>:
20000d72:	6803      	ldr	r3, [r0, #0]
20000d74:	2b03      	cmp	r3, #3
20000d76:	d01b      	beq.n	20000db0 <bits_ref+0x3e>
20000d78:	2b04      	cmp	r3, #4
20000d7a:	d00d      	beq.n	20000d98 <bits_ref+0x26>
20000d7c:	b103      	cbz	r3, 20000d80 <bits_ref+0xe>
20000d7e:	4770      	bx	lr
20000d80:	6808      	ldr	r0, [r1, #0]
20000d82:	4b11      	ldr	r3, [pc, #68]	; (20000dc8 <bits_ref+0x56>)
20000d84:	685a      	ldr	r2, [r3, #4]
20000d86:	f360 0200 	bfi	r2, r0, #0, #1
20000d8a:	605a      	str	r2, [r3, #4]
20000d8c:	6809      	ldr	r1, [r1, #0]
20000d8e:	685a      	ldr	r2, [r3, #4]
20000d90:	f361 0200 	bfi	r2, r1, #0, #1
20000d94:	605a      	str	r2, [r3, #4]
20000d96:	4770      	bx	lr
20000d98:	6808      	ldr	r0, [r1, #0]
20000d9a:	4b0b      	ldr	r3, [pc, #44]	; (20000dc8 <bits_ref+0x56>)
20000d9c:	685a      	ldr	r2, [r3, #4]
20000d9e:	f360 1286 	bfi	r2, r0, #6, #1
20000da2:	605a      	str	r2, [r3, #4]
20000da4:	6809      	ldr	r1, [r1, #0]
20000da6:	685a      	ldr	r2, [r3, #4]
20000da8:	f361 1286 	bfi	r2, r1, #6, #1
20000dac:	605a      	str	r2, [r3, #4]
20000dae:	4770      	bx	lr
20000db0:	6808      	ldr	r0, [r1, #0]
20000db2:	4b05      	ldr	r3, [pc, #20]	; (20000dc8 <bits_ref+0x56>)
20000db4:	685a      	ldr	r2, [r3, #4]
20000db6:	f360 1245 	bfi	r2, r0, #5, #1
20000dba:	605a      	str	r2, [r3, #4]
20000dbc:	6809      	ldr	r1, [r1, #0]
20000dbe:	685a      	ldr	r2, [r3, #4]
20000dc0:	f361 1245 	bfi	r2, r1, #5, #1
20000dc4:	605a      	str	r2, [r3, #4]
20000dc6:	e7da      	b.n	20000d7e <bits_ref+0xc>
20000dc8:	20002480 	.word	0x20002480

20000dcc <call_bits_ref_const>:
20000dcc:	b500      	push	{lr}
20000dce:	b082      	sub	sp, #8
20000dd0:	2300      	movs	r3, #0
20000dd2:	9301      	str	r3, [sp, #4]
20000dd4:	2301      	movs	r3, #1
20000dd6:	9300      	str	r3, [sp, #0]
20000dd8:	4669      	mov	r1, sp
20000dda:	a801      	add	r0, sp, #4
20000ddc:	f7ff ffc9 	bl	20000d72 <bits_ref>
20000de0:	b002      	add	sp, #8
20000de2:	f85d fb04 	ldr.w	pc, [sp], #4

20000de6 <call_bits_ref_var>:
20000de6:	b500      	push	{lr}
20000de8:	b082      	sub	sp, #8
20000dea:	2300      	movs	r3, #0
20000dec:	9301      	str	r3, [sp, #4]
20000dee:	2301      	movs	r3, #1
20000df0:	9300      	str	r3, [sp, #0]
20000df2:	4669      	mov	r1, sp
20000df4:	a801      	add	r0, sp, #4
20000df6:	f7ff ffbc 	bl	20000d72 <bits_ref>
20000dfa:	b002      	add	sp, #8
20000dfc:	f85d fb04 	ldr.w	pc, [sp], #4

20000e00 <call_bits_ref_global>:
20000e00:	b500      	push	{lr}
20000e02:	b082      	sub	sp, #8
20000e04:	2304      	movs	r3, #4
20000e06:	9301      	str	r3, [sp, #4]
20000e08:	2301      	movs	r3, #1
20000e0a:	9300      	str	r3, [sp, #0]
20000e0c:	4669      	mov	r1, sp
20000e0e:	a801      	add	r0, sp, #4
20000e10:	f7ff ffaf 	bl	20000d72 <bits_ref>
20000e14:	b002      	add	sp, #8
20000e16:	f85d fb04 	ldr.w	pc, [sp], #4

20000e1a <mskd_val>:
20000e1a:	2806      	cmp	r0, #6
20000e1c:	d858      	bhi.n	20000ed0 <mskd_val+0xb6>
20000e1e:	e8df f000 	tbb	[pc, r0]
20000e22:	1004      	.short	0x1004
20000e24:	4034281c 	.word	0x4034281c
20000e28:	4c          	.byte	0x4c
20000e29:	00          	.byte	0x00
20000e2a:	f001 0101 	and.w	r1, r1, #1
20000e2e:	4b29      	ldr	r3, [pc, #164]	; (20000ed4 <mskd_val+0xba>)
20000e30:	685a      	ldr	r2, [r3, #4]
20000e32:	f361 0200 	bfi	r2, r1, #0, #1
20000e36:	605a      	str	r2, [r3, #4]
20000e38:	685a      	ldr	r2, [r3, #4]
20000e3a:	f361 0200 	bfi	r2, r1, #0, #1
20000e3e:	605a      	str	r2, [r3, #4]
20000e40:	4770      	bx	lr
20000e42:	f001 0103 	and.w	r1, r1, #3
20000e46:	4b23      	ldr	r3, [pc, #140]	; (20000ed4 <mskd_val+0xba>)
20000e48:	685a      	ldr	r2, [r3, #4]
20000e4a:	f361 0242 	bfi	r2, r1, #1, #2
20000e4e:	605a      	str	r2, [r3, #4]
20000e50:	685a      	ldr	r2, [r3, #4]
20000e52:	f361 0242 	bfi	r2, r1, #1, #2
20000e56:	605a      	str	r2, [r3, #4]
20000e58:	4770      	bx	lr
20000e5a:	f001 0103 	and.w	r1, r1, #3
20000e5e:	4b1d      	ldr	r3, [pc, #116]	; (20000ed4 <mskd_val+0xba>)
20000e60:	685a      	ldr	r2, [r3, #4]
20000e62:	f361 02c4 	bfi	r2, r1, #3, #2
20000e66:	605a      	str	r2, [r3, #4]
20000e68:	685a      	ldr	r2, [r3, #4]
20000e6a:	f361 02c4 	bfi	r2, r1, #3, #2
20000e6e:	605a      	str	r2, [r3, #4]
20000e70:	4770      	bx	lr
20000e72:	f001 0101 	and.w	r1, r1, #1
20000e76:	4b17      	ldr	r3, [pc, #92]	; (20000ed4 <mskd_val+0xba>)
20000e78:	685a      	ldr	r2, [r3, #4]
20000e7a:	f361 1245 	bfi	r2, r1, #5, #1
20000e7e:	605a      	str	r2, [r3, #4]
20000e80:	685a      	ldr	r2, [r3, #4]
20000e82:	f361 1245 	bfi	r2, r1, #5, #1
20000e86:	605a      	str	r2, [r3, #4]
20000e88:	4770      	bx	lr
20000e8a:	f001 0103 	and.w	r1, r1, #3
20000e8e:	4b11      	ldr	r3, [pc, #68]	; (20000ed4 <mskd_val+0xba>)
20000e90:	685a      	ldr	r2, [r3, #4]
20000e92:	f361 02c4 	bfi	r2, r1, #3, #2
20000e96:	605a      	str	r2, [r3, #4]
20000e98:	685a      	ldr	r2, [r3, #4]
20000e9a:	f361 02c4 	bfi	r2, r1, #3, #2
20000e9e:	605a      	str	r2, [r3, #4]
20000ea0:	4770      	bx	lr
20000ea2:	f001 011f 	and.w	r1, r1, #31
20000ea6:	4b0b      	ldr	r3, [pc, #44]	; (20000ed4 <mskd_val+0xba>)
20000ea8:	685a      	ldr	r2, [r3, #4]
20000eaa:	f361 12cb 	bfi	r2, r1, #7, #5
20000eae:	605a      	str	r2, [r3, #4]
20000eb0:	685a      	ldr	r2, [r3, #4]
20000eb2:	f361 12cb 	bfi	r2, r1, #7, #5
20000eb6:	605a      	str	r2, [r3, #4]
20000eb8:	4770      	bx	lr
20000eba:	f001 011f 	and.w	r1, r1, #31
20000ebe:	4b05      	ldr	r3, [pc, #20]	; (20000ed4 <mskd_val+0xba>)
20000ec0:	685a      	ldr	r2, [r3, #4]
20000ec2:	f361 3210 	bfi	r2, r1, #12, #5
20000ec6:	605a      	str	r2, [r3, #4]
20000ec8:	685a      	ldr	r2, [r3, #4]
20000eca:	f361 3210 	bfi	r2, r1, #12, #5
20000ece:	605a      	str	r2, [r3, #4]
20000ed0:	4770      	bx	lr
20000ed2:	bf00      	nop
20000ed4:	20002480 	.word	0x20002480

20000ed8 <call_mskd_val_const>:
20000ed8:	b500      	push	{lr}
20000eda:	2101      	movs	r1, #1
20000edc:	4608      	mov	r0, r1
20000ede:	f7ff ff9c 	bl	20000e1a <mskd_val>
20000ee2:	2101      	movs	r1, #1
20000ee4:	4608      	mov	r0, r1
20000ee6:	f7ff ff98 	bl	20000e1a <mskd_val>
20000eea:	f85d fb04 	ldr.w	pc, [sp], #4

20000eee <call_mskd_val_var>:
20000eee:	b500      	push	{lr}
20000ef0:	2101      	movs	r1, #1
20000ef2:	4608      	mov	r0, r1
20000ef4:	f7ff ff91 	bl	20000e1a <mskd_val>
20000ef8:	2101      	movs	r1, #1
20000efa:	4608      	mov	r0, r1
20000efc:	f7ff ff8d 	bl	20000e1a <mskd_val>
20000f00:	f85d fb04 	ldr.w	pc, [sp], #4

20000f04 <call_mskd_val_global>:
20000f04:	b500      	push	{lr}
20000f06:	2101      	movs	r1, #1
20000f08:	4608      	mov	r0, r1
20000f0a:	f7ff ff86 	bl	20000e1a <mskd_val>
20000f0e:	f85d fb04 	ldr.w	pc, [sp], #4

20000f12 <mskd_ref>:
20000f12:	6803      	ldr	r3, [r0, #0]
20000f14:	2b06      	cmp	r3, #6
20000f16:	d858      	bhi.n	20000fca <mskd_ref+0xb8>
20000f18:	e8df f003 	tbb	[pc, r3]
20000f1c:	281c1004 	.word	0x281c1004
20000f20:	4034      	.short	0x4034
20000f22:	4c          	.byte	0x4c
20000f23:	00          	.byte	0x00
20000f24:	6808      	ldr	r0, [r1, #0]
20000f26:	4b29      	ldr	r3, [pc, #164]	; (20000fcc <mskd_ref+0xba>)
20000f28:	685a      	ldr	r2, [r3, #4]
20000f2a:	f360 0200 	bfi	r2, r0, #0, #1
20000f2e:	605a      	str	r2, [r3, #4]
20000f30:	6809      	ldr	r1, [r1, #0]
20000f32:	685a      	ldr	r2, [r3, #4]
20000f34:	f361 0200 	bfi	r2, r1, #0, #1
20000f38:	605a      	str	r2, [r3, #4]
20000f3a:	4770      	bx	lr
20000f3c:	6808      	ldr	r0, [r1, #0]
20000f3e:	4b23      	ldr	r3, [pc, #140]	; (20000fcc <mskd_ref+0xba>)
20000f40:	685a      	ldr	r2, [r3, #4]
20000f42:	f360 0242 	bfi	r2, r0, #1, #2
20000f46:	605a      	str	r2, [r3, #4]
20000f48:	6809      	ldr	r1, [r1, #0]
20000f4a:	685a      	ldr	r2, [r3, #4]
20000f4c:	f361 0242 	bfi	r2, r1, #1, #2
20000f50:	605a      	str	r2, [r3, #4]
20000f52:	4770      	bx	lr
20000f54:	6808      	ldr	r0, [r1, #0]
20000f56:	4b1d      	ldr	r3, [pc, #116]	; (20000fcc <mskd_ref+0xba>)
20000f58:	685a      	ldr	r2, [r3, #4]
20000f5a:	f360 02c4 	bfi	r2, r0, #3, #2
20000f5e:	605a      	str	r2, [r3, #4]
20000f60:	6809      	ldr	r1, [r1, #0]
20000f62:	685a      	ldr	r2, [r3, #4]
20000f64:	f361 02c4 	bfi	r2, r1, #3, #2
20000f68:	605a      	str	r2, [r3, #4]
20000f6a:	4770      	bx	lr
20000f6c:	6808      	ldr	r0, [r1, #0]
20000f6e:	4b17      	ldr	r3, [pc, #92]	; (20000fcc <mskd_ref+0xba>)
20000f70:	685a      	ldr	r2, [r3, #4]
20000f72:	f360 1245 	bfi	r2, r0, #5, #1
20000f76:	605a      	str	r2, [r3, #4]
20000f78:	6809      	ldr	r1, [r1, #0]
20000f7a:	685a      	ldr	r2, [r3, #4]
20000f7c:	f361 1245 	bfi	r2, r1, #5, #1
20000f80:	605a      	str	r2, [r3, #4]
20000f82:	4770      	bx	lr
20000f84:	6808      	ldr	r0, [r1, #0]
20000f86:	4b11      	ldr	r3, [pc, #68]	; (20000fcc <mskd_ref+0xba>)
20000f88:	685a      	ldr	r2, [r3, #4]
20000f8a:	f360 02c4 	bfi	r2, r0, #3, #2
20000f8e:	605a      	str	r2, [r3, #4]
20000f90:	6809      	ldr	r1, [r1, #0]
20000f92:	685a      	ldr	r2, [r3, #4]
20000f94:	f361 02c4 	bfi	r2, r1, #3, #2
20000f98:	605a      	str	r2, [r3, #4]
20000f9a:	4770      	bx	lr
20000f9c:	6808      	ldr	r0, [r1, #0]
20000f9e:	4b0b      	ldr	r3, [pc, #44]	; (20000fcc <mskd_ref+0xba>)
20000fa0:	685a      	ldr	r2, [r3, #4]
20000fa2:	f360 12cb 	bfi	r2, r0, #7, #5
20000fa6:	605a      	str	r2, [r3, #4]
20000fa8:	6809      	ldr	r1, [r1, #0]
20000faa:	685a      	ldr	r2, [r3, #4]
20000fac:	f361 12cb 	bfi	r2, r1, #7, #5
20000fb0:	605a      	str	r2, [r3, #4]
20000fb2:	4770      	bx	lr
20000fb4:	6808      	ldr	r0, [r1, #0]
20000fb6:	4b05      	ldr	r3, [pc, #20]	; (20000fcc <mskd_ref+0xba>)
20000fb8:	685a      	ldr	r2, [r3, #4]
20000fba:	f360 3210 	bfi	r2, r0, #12, #5
20000fbe:	605a      	str	r2, [r3, #4]
20000fc0:	6809      	ldr	r1, [r1, #0]
20000fc2:	685a      	ldr	r2, [r3, #4]
20000fc4:	f361 3210 	bfi	r2, r1, #12, #5
20000fc8:	605a      	str	r2, [r3, #4]
20000fca:	4770      	bx	lr
20000fcc:	20002480 	.word	0x20002480

20000fd0 <call_mskd_ref_const>:
20000fd0:	b500      	push	{lr}
20000fd2:	b082      	sub	sp, #8
20000fd4:	2301      	movs	r3, #1
20000fd6:	9301      	str	r3, [sp, #4]
20000fd8:	2302      	movs	r3, #2
20000fda:	9300      	str	r3, [sp, #0]
20000fdc:	4669      	mov	r1, sp
20000fde:	a801      	add	r0, sp, #4
20000fe0:	f7ff ff97 	bl	20000f12 <mskd_ref>
20000fe4:	b002      	add	sp, #8
20000fe6:	f85d fb04 	ldr.w	pc, [sp], #4

20000fea <call_mskd_ref_var>:
20000fea:	b500      	push	{lr}
20000fec:	b082      	sub	sp, #8
20000fee:	2301      	movs	r3, #1
20000ff0:	9301      	str	r3, [sp, #4]
20000ff2:	9300      	str	r3, [sp, #0]
20000ff4:	4669      	mov	r1, sp
20000ff6:	a801      	add	r0, sp, #4
20000ff8:	f7ff ff8b 	bl	20000f12 <mskd_ref>
20000ffc:	b002      	add	sp, #8
20000ffe:	f85d fb04 	ldr.w	pc, [sp], #4

20001002 <call_mskd_ref_global>:
20001002:	b500      	push	{lr}
20001004:	b082      	sub	sp, #8
20001006:	2301      	movs	r3, #1
20001008:	9301      	str	r3, [sp, #4]
2000100a:	9300      	str	r3, [sp, #0]
2000100c:	4669      	mov	r1, sp
2000100e:	a801      	add	r0, sp, #4
20001010:	f7ff ff7f 	bl	20000f12 <mskd_ref>
20001014:	b002      	add	sp, #8
20001016:	f85d fb04 	ldr.w	pc, [sp], #4

2000101a <periph_bits>:
2000101a:	6843      	ldr	r3, [r0, #4]
2000101c:	f043 0340 	orr.w	r3, r3, #64	; 0x40
20001020:	6043      	str	r3, [r0, #4]
20001022:	4770      	bx	lr

20001024 <call_periph_bits>:
20001024:	b500      	push	{lr}
20001026:	4802      	ldr	r0, [pc, #8]	; (20001030 <call_periph_bits+0xc>)
20001028:	f7ff fff7 	bl	2000101a <periph_bits>
2000102c:	f85d fb04 	ldr.w	pc, [sp], #4
20001030:	20002480 	.word	0x20002480

20001034 <periph_bits_val>:
20001034:	2904      	cmp	r1, #4
20001036:	d000      	beq.n	2000103a <periph_bits_val+0x6>
20001038:	4770      	bx	lr
2000103a:	6843      	ldr	r3, [r0, #4]
2000103c:	f043 0340 	orr.w	r3, r3, #64	; 0x40
20001040:	6043      	str	r3, [r0, #4]
20001042:	e7f9      	b.n	20001038 <periph_bits_val+0x4>

20001044 <call_periph_bits_val>:
20001044:	b500      	push	{lr}
20001046:	2104      	movs	r1, #4
20001048:	4802      	ldr	r0, [pc, #8]	; (20001054 <call_periph_bits_val+0x10>)
2000104a:	f7ff fff3 	bl	20001034 <periph_bits_val>
2000104e:	f85d fb04 	ldr.w	pc, [sp], #4
20001052:	bf00      	nop
20001054:	20002480 	.word	0x20002480

20001058 <reg_bits_val>:
20001058:	2904      	cmp	r1, #4
2000105a:	d000      	beq.n	2000105e <reg_bits_val+0x6>
2000105c:	4770      	bx	lr
2000105e:	6803      	ldr	r3, [r0, #0]
20001060:	f043 0340 	orr.w	r3, r3, #64	; 0x40
20001064:	6003      	str	r3, [r0, #0]
20001066:	e7f9      	b.n	2000105c <reg_bits_val+0x4>

20001068 <call_reg_bits_val>:
20001068:	b500      	push	{lr}
2000106a:	2104      	movs	r1, #4
2000106c:	4802      	ldr	r0, [pc, #8]	; (20001078 <call_reg_bits_val+0x10>)
2000106e:	f7ff fff3 	bl	20001058 <reg_bits_val>
20001072:	f85d fb04 	ldr.w	pc, [sp], #4
20001076:	bf00      	nop
20001078:	20002484 	.word	0x20002484

2000107c <periph_bits_ref>:
2000107c:	680b      	ldr	r3, [r1, #0]
2000107e:	2b04      	cmp	r3, #4
20001080:	d000      	beq.n	20001084 <periph_bits_ref+0x8>
20001082:	4770      	bx	lr
20001084:	6843      	ldr	r3, [r0, #4]
20001086:	f043 0340 	orr.w	r3, r3, #64	; 0x40
2000108a:	6043      	str	r3, [r0, #4]
2000108c:	e7f9      	b.n	20001082 <periph_bits_ref+0x6>

2000108e <call_periph_bits_ref>:
2000108e:	b500      	push	{lr}
20001090:	b081      	sub	sp, #4
20001092:	2304      	movs	r3, #4
20001094:	9300      	str	r3, [sp, #0]
20001096:	4669      	mov	r1, sp
20001098:	4802      	ldr	r0, [pc, #8]	; (200010a4 <call_periph_bits_ref+0x16>)
2000109a:	f7ff ffef 	bl	2000107c <periph_bits_ref>
2000109e:	b001      	add	sp, #4
200010a0:	f85d fb04 	ldr.w	pc, [sp], #4
200010a4:	20002480 	.word	0x20002480

200010a8 <reg_bits_ref>:
200010a8:	680b      	ldr	r3, [r1, #0]
200010aa:	2b04      	cmp	r3, #4
200010ac:	d000      	beq.n	200010b0 <reg_bits_ref+0x8>
200010ae:	4770      	bx	lr
200010b0:	6803      	ldr	r3, [r0, #0]
200010b2:	f043 0340 	orr.w	r3, r3, #64	; 0x40
200010b6:	6003      	str	r3, [r0, #0]
200010b8:	e7f9      	b.n	200010ae <reg_bits_ref+0x6>

200010ba <call_reg_bits_ref>:
200010ba:	b500      	push	{lr}
200010bc:	b081      	sub	sp, #4
200010be:	2304      	movs	r3, #4
200010c0:	9300      	str	r3, [sp, #0]
200010c2:	4669      	mov	r1, sp
200010c4:	4802      	ldr	r0, [pc, #8]	; (200010d0 <call_reg_bits_ref+0x16>)
200010c6:	f7ff ffef 	bl	200010a8 <reg_bits_ref>
200010ca:	b001      	add	sp, #4
200010cc:	f85d fb04 	ldr.w	pc, [sp], #4
200010d0:	20002484 	.word	0x20002484

200010d4 <periph_mskd>:
200010d4:	6843      	ldr	r3, [r0, #4]
200010d6:	2201      	movs	r2, #1
200010d8:	f362 0342 	bfi	r3, r2, #1, #2
200010dc:	6043      	str	r3, [r0, #4]
200010de:	4770      	bx	lr

200010e0 <call_periph_mskd>:
200010e0:	b500      	push	{lr}
200010e2:	4802      	ldr	r0, [pc, #8]	; (200010ec <call_periph_mskd+0xc>)
200010e4:	f7ff fff6 	bl	200010d4 <periph_mskd>
200010e8:	f85d fb04 	ldr.w	pc, [sp], #4
200010ec:	20002480 	.word	0x20002480

200010f0 <periph_mskd_val>:
200010f0:	2901      	cmp	r1, #1
200010f2:	d000      	beq.n	200010f6 <periph_mskd_val+0x6>
200010f4:	4770      	bx	lr
200010f6:	6843      	ldr	r3, [r0, #4]
200010f8:	2201      	movs	r2, #1
200010fa:	f362 0342 	bfi	r3, r2, #1, #2
200010fe:	6043      	str	r3, [r0, #4]
20001100:	e7f8      	b.n	200010f4 <periph_mskd_val+0x4>

20001102 <call_periph_mskd_val>:
20001102:	b500      	push	{lr}
20001104:	2101      	movs	r1, #1
20001106:	4802      	ldr	r0, [pc, #8]	; (20001110 <call_periph_mskd_val+0xe>)
20001108:	f7ff fff2 	bl	200010f0 <periph_mskd_val>
2000110c:	f85d fb04 	ldr.w	pc, [sp], #4
20001110:	20002480 	.word	0x20002480

20001114 <reg_mskd_val>:
20001114:	2901      	cmp	r1, #1
20001116:	d000      	beq.n	2000111a <reg_mskd_val+0x6>
20001118:	4770      	bx	lr
2000111a:	6803      	ldr	r3, [r0, #0]
2000111c:	2201      	movs	r2, #1
2000111e:	f362 0342 	bfi	r3, r2, #1, #2
20001122:	6003      	str	r3, [r0, #0]
20001124:	e7f8      	b.n	20001118 <reg_mskd_val+0x4>

20001126 <call_reg_mskd_val>:
20001126:	b500      	push	{lr}
20001128:	2101      	movs	r1, #1
2000112a:	4802      	ldr	r0, [pc, #8]	; (20001134 <call_reg_mskd_val+0xe>)
2000112c:	f7ff fff2 	bl	20001114 <reg_mskd_val>
20001130:	f85d fb04 	ldr.w	pc, [sp], #4
20001134:	20002484 	.word	0x20002484

20001138 <periph_mskd_ref>:
20001138:	680b      	ldr	r3, [r1, #0]
2000113a:	2b01      	cmp	r3, #1
2000113c:	d000      	beq.n	20001140 <periph_mskd_ref+0x8>
2000113e:	4770      	bx	lr
20001140:	6843      	ldr	r3, [r0, #4]
20001142:	2201      	movs	r2, #1
20001144:	f362 0342 	bfi	r3, r2, #1, #2
20001148:	6043      	str	r3, [r0, #4]
2000114a:	e7f8      	b.n	2000113e <periph_mskd_ref+0x6>

2000114c <call_periph_mskd_ref>:
2000114c:	b500      	push	{lr}
2000114e:	b081      	sub	sp, #4
20001150:	2301      	movs	r3, #1
20001152:	9300      	str	r3, [sp, #0]
20001154:	4669      	mov	r1, sp
20001156:	4803      	ldr	r0, [pc, #12]	; (20001164 <call_periph_mskd_ref+0x18>)
20001158:	f7ff ffee 	bl	20001138 <periph_mskd_ref>
2000115c:	b001      	add	sp, #4
2000115e:	f85d fb04 	ldr.w	pc, [sp], #4
20001162:	bf00      	nop
20001164:	20002480 	.word	0x20002480

20001168 <reg_mskd_ref>:
20001168:	680b      	ldr	r3, [r1, #0]
2000116a:	2b01      	cmp	r3, #1
2000116c:	d000      	beq.n	20001170 <reg_mskd_ref+0x8>
2000116e:	4770      	bx	lr
20001170:	6803      	ldr	r3, [r0, #0]
20001172:	2201      	movs	r2, #1
20001174:	f362 0342 	bfi	r3, r2, #1, #2
20001178:	6003      	str	r3, [r0, #0]
2000117a:	e7f8      	b.n	2000116e <reg_mskd_ref+0x6>

2000117c <call_reg_mskd_ref>:
2000117c:	b500      	push	{lr}
2000117e:	b081      	sub	sp, #4
20001180:	2301      	movs	r3, #1
20001182:	9300      	str	r3, [sp, #0]
20001184:	4669      	mov	r1, sp
20001186:	4803      	ldr	r0, [pc, #12]	; (20001194 <call_reg_mskd_ref+0x18>)
20001188:	f7ff ffee 	bl	20001168 <reg_mskd_ref>
2000118c:	b001      	add	sp, #4
2000118e:	f85d fb04 	ldr.w	pc, [sp], #4
20001192:	bf00      	nop
20001194:	20002484 	.word	0x20002484

20001198 <return_bits>:
20001198:	2001      	movs	r0, #1
2000119a:	4770      	bx	lr

2000119c <call_return_bits>:
2000119c:	b500      	push	{lr}
2000119e:	f7ff fffb 	bl	20001198 <return_bits>
200011a2:	4b09      	ldr	r3, [pc, #36]	; (200011c8 <call_return_bits+0x2c>)
200011a4:	2200      	movs	r2, #0
200011a6:	605a      	str	r2, [r3, #4]
200011a8:	2801      	cmp	r0, #1
200011aa:	d006      	beq.n	200011ba <call_return_bits+0x1e>
200011ac:	4a06      	ldr	r2, [pc, #24]	; (200011c8 <call_return_bits+0x2c>)
200011ae:	6853      	ldr	r3, [r2, #4]
200011b0:	f043 5378 	orr.w	r3, r3, #1040187392	; 0x3e000000
200011b4:	6053      	str	r3, [r2, #4]
200011b6:	f85d fb04 	ldr.w	pc, [sp], #4
200011ba:	685a      	ldr	r2, [r3, #4]
200011bc:	2115      	movs	r1, #21
200011be:	f361 625d 	bfi	r2, r1, #25, #5
200011c2:	605a      	str	r2, [r3, #4]
200011c4:	e7f7      	b.n	200011b6 <call_return_bits+0x1a>
200011c6:	bf00      	nop
200011c8:	200023e0 	.word	0x200023e0

200011cc <return_mskd>:
200011cc:	2302      	movs	r3, #2
200011ce:	6003      	str	r3, [r0, #0]
200011d0:	2301      	movs	r3, #1
200011d2:	600b      	str	r3, [r1, #0]
200011d4:	4770      	bx	lr

200011d6 <call_return_mskd>:
200011d6:	b500      	push	{lr}
200011d8:	b082      	sub	sp, #8
200011da:	4669      	mov	r1, sp
200011dc:	a801      	add	r0, sp, #4
200011de:	f7ff fff5 	bl	200011cc <return_mskd>
200011e2:	4b0c      	ldr	r3, [pc, #48]	; (20001214 <call_return_mskd+0x3e>)
200011e4:	2200      	movs	r2, #0
200011e6:	605a      	str	r2, [r3, #4]
200011e8:	9b01      	ldr	r3, [sp, #4]
200011ea:	2b02      	cmp	r3, #2
200011ec:	d008      	beq.n	20001200 <call_return_mskd+0x2a>
200011ee:	4b09      	ldr	r3, [pc, #36]	; (20001214 <call_return_mskd+0x3e>)
200011f0:	685a      	ldr	r2, [r3, #4]
200011f2:	2113      	movs	r1, #19
200011f4:	f361 625d 	bfi	r2, r1, #25, #5
200011f8:	605a      	str	r2, [r3, #4]
200011fa:	b002      	add	sp, #8
200011fc:	f85d fb04 	ldr.w	pc, [sp], #4
20001200:	9b00      	ldr	r3, [sp, #0]
20001202:	2b01      	cmp	r3, #1
20001204:	d1f3      	bne.n	200011ee <call_return_mskd+0x18>
20001206:	4b03      	ldr	r3, [pc, #12]	; (20001214 <call_return_mskd+0x3e>)
20001208:	685a      	ldr	r2, [r3, #4]
2000120a:	2111      	movs	r1, #17
2000120c:	f361 625d 	bfi	r2, r1, #25, #5
20001210:	605a      	str	r2, [r3, #4]
20001212:	e7f2      	b.n	200011fa <call_return_mskd+0x24>
20001214:	200023e0 	.word	0x200023e0

20001218 <return_reg>:
20001218:	4b04      	ldr	r3, [pc, #16]	; (2000122c <return_reg+0x14>)
2000121a:	2200      	movs	r2, #0
2000121c:	605a      	str	r2, [r3, #4]
2000121e:	685a      	ldr	r2, [r3, #4]
20001220:	f042 0240 	orr.w	r2, r2, #64	; 0x40
20001224:	605a      	str	r2, [r3, #4]
20001226:	4802      	ldr	r0, [pc, #8]	; (20001230 <return_reg+0x18>)
20001228:	4770      	bx	lr
2000122a:	bf00      	nop
2000122c:	20002480 	.word	0x20002480
20001230:	20002484 	.word	0x20002484

20001234 <call_return_reg>:
20001234:	b500      	push	{lr}
20001236:	f7ff ffef 	bl	20001218 <return_reg>
2000123a:	4b08      	ldr	r3, [pc, #32]	; (2000125c <call_return_reg+0x28>)
2000123c:	2200      	movs	r2, #0
2000123e:	605a      	str	r2, [r3, #4]
20001240:	6803      	ldr	r3, [r0, #0]
20001242:	f013 0f40 	tst.w	r3, #64	; 0x40
20001246:	4b05      	ldr	r3, [pc, #20]	; (2000125c <call_return_reg+0x28>)
20001248:	685a      	ldr	r2, [r3, #4]
2000124a:	bf14      	ite	ne
2000124c:	210f      	movne	r1, #15
2000124e:	2117      	moveq	r1, #23
20001250:	f361 625d 	bfi	r2, r1, #25, #5
20001254:	605a      	str	r2, [r3, #4]
20001256:	f85d fb04 	ldr.w	pc, [sp], #4
2000125a:	bf00      	nop
2000125c:	200023e0 	.word	0x200023e0

20001260 <return_periph>:
20001260:	4803      	ldr	r0, [pc, #12]	; (20001270 <return_periph+0x10>)
20001262:	2300      	movs	r3, #0
20001264:	6043      	str	r3, [r0, #4]
20001266:	6843      	ldr	r3, [r0, #4]
20001268:	f043 0340 	orr.w	r3, r3, #64	; 0x40
2000126c:	6043      	str	r3, [r0, #4]
2000126e:	4770      	bx	lr
20001270:	20002480 	.word	0x20002480

20001274 <call_return_periph>:
20001274:	b500      	push	{lr}
20001276:	f7ff fff3 	bl	20001260 <return_periph>
2000127a:	6843      	ldr	r3, [r0, #4]
2000127c:	f013 0f40 	tst.w	r3, #64	; 0x40
20001280:	4b04      	ldr	r3, [pc, #16]	; (20001294 <call_return_periph+0x20>)
20001282:	685a      	ldr	r2, [r3, #4]
20001284:	bf14      	ite	ne
20001286:	2113      	movne	r1, #19
20001288:	2115      	moveq	r1, #21
2000128a:	f361 625d 	bfi	r2, r1, #25, #5
2000128e:	605a      	str	r2, [r3, #4]
20001290:	f85d fb04 	ldr.w	pc, [sp], #4
20001294:	200023e0 	.word	0x200023e0

20001298 <pos_val>:
20001298:	2803      	cmp	r0, #3
2000129a:	d006      	beq.n	200012aa <pos_val+0x12>
2000129c:	2804      	cmp	r0, #4
2000129e:	4b05      	ldr	r3, [pc, #20]	; (200012b4 <pos_val+0x1c>)
200012a0:	bf0c      	ite	eq
200012a2:	2244      	moveq	r2, #68	; 0x44
200012a4:	2255      	movne	r2, #85	; 0x55
200012a6:	62da      	str	r2, [r3, #44]	; 0x2c
200012a8:	4770      	bx	lr
200012aa:	4b02      	ldr	r3, [pc, #8]	; (200012b4 <pos_val+0x1c>)
200012ac:	2233      	movs	r2, #51	; 0x33
200012ae:	62da      	str	r2, [r3, #44]	; 0x2c
200012b0:	4770      	bx	lr
200012b2:	bf00      	nop
200012b4:	200022c0 	.word	0x200022c0

200012b8 <call_pos_val>:
200012b8:	b500      	push	{lr}
200012ba:	2003      	movs	r0, #3
200012bc:	f7ff ffec 	bl	20001298 <pos_val>
200012c0:	2004      	movs	r0, #4
200012c2:	f7ff ffe9 	bl	20001298 <pos_val>
200012c6:	f85d fb04 	ldr.w	pc, [sp], #4

200012ca <call_pos_val_global>:
200012ca:	b500      	push	{lr}
200012cc:	2004      	movs	r0, #4
200012ce:	f7ff ffe3 	bl	20001298 <pos_val>
200012d2:	f85d fb04 	ldr.w	pc, [sp], #4

200012d6 <pos_ref>:
200012d6:	6803      	ldr	r3, [r0, #0]
200012d8:	2b03      	cmp	r3, #3
200012da:	d006      	beq.n	200012ea <pos_ref+0x14>
200012dc:	2b04      	cmp	r3, #4
200012de:	4b05      	ldr	r3, [pc, #20]	; (200012f4 <pos_ref+0x1e>)
200012e0:	bf0c      	ite	eq
200012e2:	2277      	moveq	r2, #119	; 0x77
200012e4:	2288      	movne	r2, #136	; 0x88
200012e6:	62da      	str	r2, [r3, #44]	; 0x2c
200012e8:	4770      	bx	lr
200012ea:	4b02      	ldr	r3, [pc, #8]	; (200012f4 <pos_ref+0x1e>)
200012ec:	2266      	movs	r2, #102	; 0x66
200012ee:	62da      	str	r2, [r3, #44]	; 0x2c
200012f0:	4770      	bx	lr
200012f2:	bf00      	nop
200012f4:	200022c0 	.word	0x200022c0

200012f8 <call_pos_ref>:
200012f8:	b500      	push	{lr}
200012fa:	b081      	sub	sp, #4
200012fc:	2303      	movs	r3, #3
200012fe:	9300      	str	r3, [sp, #0]
20001300:	4668      	mov	r0, sp
20001302:	f7ff ffe8 	bl	200012d6 <pos_ref>
20001306:	4668      	mov	r0, sp
20001308:	f7ff ffe5 	bl	200012d6 <pos_ref>
2000130c:	b001      	add	sp, #4
2000130e:	f85d fb04 	ldr.w	pc, [sp], #4

20001312 <call_pos_ref_global>:
20001312:	b500      	push	{lr}
20001314:	b081      	sub	sp, #4
20001316:	2304      	movs	r3, #4
20001318:	9300      	str	r3, [sp, #0]
2000131a:	4668      	mov	r0, sp
2000131c:	f7ff ffdb 	bl	200012d6 <pos_ref>
20001320:	b001      	add	sp, #4
20001322:	f85d fb04 	ldr.w	pc, [sp], #4

20001326 <runtime_range_val>:
20001326:	4b03      	ldr	r3, [pc, #12]	; (20001334 <runtime_range_val+0xe>)
20001328:	685a      	ldr	r2, [r3, #4]
2000132a:	f360 3210 	bfi	r2, r0, #12, #5
2000132e:	605a      	str	r2, [r3, #4]
20001330:	4770      	bx	lr
20001332:	bf00      	nop
20001334:	20002480 	.word	0x20002480

20001338 <call_range_val>:
20001338:	b500      	push	{lr}
2000133a:	b2c0      	uxtb	r0, r0
2000133c:	f7ff fff3 	bl	20001326 <runtime_range_val>
20001340:	f85d fb04 	ldr.w	pc, [sp], #4

20001344 <call_range_val_port>:
20001344:	b500      	push	{lr}
20001346:	201f      	movs	r0, #31
20001348:	f7ff fff6 	bl	20001338 <call_range_val>
2000134c:	f85d fb04 	ldr.w	pc, [sp], #4

20001350 <runtime_range_ref>:
20001350:	6801      	ldr	r1, [r0, #0]
20001352:	4b03      	ldr	r3, [pc, #12]	; (20001360 <runtime_range_ref+0x10>)
20001354:	685a      	ldr	r2, [r3, #4]
20001356:	f361 3210 	bfi	r2, r1, #12, #5
2000135a:	605a      	str	r2, [r3, #4]
2000135c:	4770      	bx	lr
2000135e:	bf00      	nop
20001360:	20002480 	.word	0x20002480

20001364 <call_range_ref>:
20001364:	b500      	push	{lr}
20001366:	b081      	sub	sp, #4
20001368:	9000      	str	r0, [sp, #0]
2000136a:	4668      	mov	r0, sp
2000136c:	f7ff fff0 	bl	20001350 <runtime_range_ref>
20001370:	b001      	add	sp, #4
20001372:	f85d fb04 	ldr.w	pc, [sp], #4

20001376 <call_range_ref_port>:
20001376:	b500      	push	{lr}
20001378:	200c      	movs	r0, #12
2000137a:	f7ff fff3 	bl	20001364 <call_range_ref>
2000137e:	f85d fb04 	ldr.w	pc, [sp], #4

20001382 <check_array_range_pass>:
20001382:	2816      	cmp	r0, #22
20001384:	4b02      	ldr	r3, [pc, #8]	; (20001390 <check_array_range_pass+0xe>)
20001386:	bf94      	ite	ls
20001388:	227f      	movls	r2, #127	; 0x7f
2000138a:	2283      	movhi	r2, #131	; 0x83
2000138c:	62da      	str	r2, [r3, #44]	; 0x2c
2000138e:	4770      	bx	lr
20001390:	200022c0 	.word	0x200022c0

20001394 <check_array_range_fail>:
20001394:	2816      	cmp	r0, #22
20001396:	4b03      	ldr	r3, [pc, #12]	; (200013a4 <check_array_range_fail+0x10>)
20001398:	bf94      	ite	ls
2000139a:	2295      	movls	r2, #149	; 0x95
2000139c:	2297      	movhi	r2, #151	; 0x97
2000139e:	62da      	str	r2, [r3, #44]	; 0x2c
200013a0:	4770      	bx	lr
200013a2:	bf00      	nop
200013a4:	200022c0 	.word	0x200022c0

200013a8 <check_bits_range_pass>:
200013a8:	280f      	cmp	r0, #15
200013aa:	4b03      	ldr	r3, [pc, #12]	; (200013b8 <check_bits_range_pass+0x10>)
200013ac:	bf94      	ite	ls
200013ae:	229d      	movls	r2, #157	; 0x9d
200013b0:	22a3      	movhi	r2, #163	; 0xa3
200013b2:	62da      	str	r2, [r3, #44]	; 0x2c
200013b4:	4770      	bx	lr
200013b6:	bf00      	nop
200013b8:	200022c0 	.word	0x200022c0

200013bc <check_bits_range_fail>:
200013bc:	280f      	cmp	r0, #15
200013be:	4b03      	ldr	r3, [pc, #12]	; (200013cc <check_bits_range_fail+0x10>)
200013c0:	bf94      	ite	ls
200013c2:	22a7      	movls	r2, #167	; 0xa7
200013c4:	22ad      	movhi	r2, #173	; 0xad
200013c6:	62da      	str	r2, [r3, #44]	; 0x2c
200013c8:	4770      	bx	lr
200013ca:	bf00      	nop
200013cc:	200022c0 	.word	0x200022c0

200013d0 <check_mskd_range_pass>:
200013d0:	281f      	cmp	r0, #31
200013d2:	4b03      	ldr	r3, [pc, #12]	; (200013e0 <check_mskd_range_pass+0x10>)
200013d4:	bf94      	ite	ls
200013d6:	22b3      	movls	r2, #179	; 0xb3
200013d8:	22b5      	movhi	r2, #181	; 0xb5
200013da:	62da      	str	r2, [r3, #44]	; 0x2c
200013dc:	4770      	bx	lr
200013de:	bf00      	nop
200013e0:	200022c0 	.word	0x200022c0

200013e4 <check_mskd_range_fail>:
200013e4:	281f      	cmp	r0, #31
200013e6:	4b03      	ldr	r3, [pc, #12]	; (200013f4 <check_mskd_range_fail+0x10>)
200013e8:	bf94      	ite	ls
200013ea:	22bf      	movls	r2, #191	; 0xbf
200013ec:	22c1      	movhi	r2, #193	; 0xc1
200013ee:	62da      	str	r2, [r3, #44]	; 0x2c
200013f0:	4770      	bx	lr
200013f2:	bf00      	nop
200013f4:	200022c0 	.word	0x200022c0

200013f8 <bits_extract_ne>:
200013f8:	4b0b      	ldr	r3, [pc, #44]	; (20001428 <bits_extract_ne+0x30>)
200013fa:	685a      	ldr	r2, [r3, #4]
200013fc:	f042 0220 	orr.w	r2, r2, #32
20001400:	605a      	str	r2, [r3, #4]
20001402:	685a      	ldr	r2, [r3, #4]
20001404:	2100      	movs	r1, #0
20001406:	6059      	str	r1, [r3, #4]
20001408:	f012 0f20 	tst.w	r2, #32
2000140c:	d105      	bne.n	2000141a <bits_extract_ne+0x22>
2000140e:	685a      	ldr	r2, [r3, #4]
20001410:	2101      	movs	r1, #1
20001412:	f361 0242 	bfi	r2, r1, #1, #2
20001416:	605a      	str	r2, [r3, #4]
20001418:	4770      	bx	lr
2000141a:	4b03      	ldr	r3, [pc, #12]	; (20001428 <bits_extract_ne+0x30>)
2000141c:	685a      	ldr	r2, [r3, #4]
2000141e:	2102      	movs	r1, #2
20001420:	f361 0242 	bfi	r2, r1, #1, #2
20001424:	605a      	str	r2, [r3, #4]
20001426:	4770      	bx	lr
20001428:	20002480 	.word	0x20002480

2000142c <mskd_extract_geq>:
2000142c:	4b0d      	ldr	r3, [pc, #52]	; (20001464 <mskd_extract_geq+0x38>)
2000142e:	2200      	movs	r2, #0
20001430:	605a      	str	r2, [r3, #4]
20001432:	6859      	ldr	r1, [r3, #4]
20001434:	200b      	movs	r0, #11
20001436:	f360 615d 	bfi	r1, r0, #25, #5
2000143a:	6059      	str	r1, [r3, #4]
2000143c:	685b      	ldr	r3, [r3, #4]
2000143e:	490a      	ldr	r1, [pc, #40]	; (20001468 <mskd_extract_geq+0x3c>)
20001440:	604a      	str	r2, [r1, #4]
20001442:	f3c3 6244 	ubfx	r2, r3, #25, #5
20001446:	2a09      	cmp	r2, #9
20001448:	d906      	bls.n	20001458 <mskd_extract_geq+0x2c>
2000144a:	2a0a      	cmp	r2, #10
2000144c:	d904      	bls.n	20001458 <mskd_extract_geq+0x2c>
2000144e:	684b      	ldr	r3, [r1, #4]
20001450:	f043 0320 	orr.w	r3, r3, #32
20001454:	604b      	str	r3, [r1, #4]
20001456:	4770      	bx	lr
20001458:	4a03      	ldr	r2, [pc, #12]	; (20001468 <mskd_extract_geq+0x3c>)
2000145a:	6853      	ldr	r3, [r2, #4]
2000145c:	f043 0340 	orr.w	r3, r3, #64	; 0x40
20001460:	6053      	str	r3, [r2, #4]
20001462:	4770      	bx	lr
20001464:	200023e0 	.word	0x200023e0
20001468:	20002480 	.word	0x20002480

2000146c <shifted_val>:
2000146c:	4b08      	ldr	r3, [pc, #32]	; (20001490 <shifted_val+0x24>)
2000146e:	2200      	movs	r2, #0
20001470:	605a      	str	r2, [r3, #4]
20001472:	685a      	ldr	r2, [r3, #4]
20001474:	2117      	movs	r1, #23
20001476:	f361 625d 	bfi	r2, r1, #25, #5
2000147a:	605a      	str	r2, [r3, #4]
2000147c:	2801      	cmp	r0, #1
2000147e:	d000      	beq.n	20001482 <shifted_val+0x16>
20001480:	4770      	bx	lr
20001482:	685b      	ldr	r3, [r3, #4]
20001484:	f3c3 6344 	ubfx	r3, r3, #25, #5
20001488:	4a02      	ldr	r2, [pc, #8]	; (20001494 <shifted_val+0x28>)
2000148a:	62d3      	str	r3, [r2, #44]	; 0x2c
2000148c:	e7f8      	b.n	20001480 <shifted_val+0x14>
2000148e:	bf00      	nop
20001490:	200023e0 	.word	0x200023e0
20001494:	200022c0 	.word	0x200022c0

20001498 <call_shifted_const_val>:
20001498:	b500      	push	{lr}
2000149a:	2001      	movs	r0, #1
2000149c:	f7ff ffe6 	bl	2000146c <shifted_val>
200014a0:	f85d fb04 	ldr.w	pc, [sp], #4

200014a4 <call_shifted_var_val>:
200014a4:	b500      	push	{lr}
200014a6:	2001      	movs	r0, #1
200014a8:	f7ff ffe0 	bl	2000146c <shifted_val>
200014ac:	f85d fb04 	ldr.w	pc, [sp], #4

200014b0 <call_shifted_global_val>:
200014b0:	b500      	push	{lr}
200014b2:	2001      	movs	r0, #1
200014b4:	f7ff ffda 	bl	2000146c <shifted_val>
200014b8:	f85d fb04 	ldr.w	pc, [sp], #4

200014bc <shifted_ref>:
200014bc:	4b09      	ldr	r3, [pc, #36]	; (200014e4 <shifted_ref+0x28>)
200014be:	2200      	movs	r2, #0
200014c0:	605a      	str	r2, [r3, #4]
200014c2:	685a      	ldr	r2, [r3, #4]
200014c4:	2117      	movs	r1, #23
200014c6:	f361 625d 	bfi	r2, r1, #25, #5
200014ca:	605a      	str	r2, [r3, #4]
200014cc:	6803      	ldr	r3, [r0, #0]
200014ce:	2b01      	cmp	r3, #1
200014d0:	d000      	beq.n	200014d4 <shifted_ref+0x18>
200014d2:	4770      	bx	lr
200014d4:	4b03      	ldr	r3, [pc, #12]	; (200014e4 <shifted_ref+0x28>)
200014d6:	685b      	ldr	r3, [r3, #4]
200014d8:	f3c3 6344 	ubfx	r3, r3, #25, #5
200014dc:	4a02      	ldr	r2, [pc, #8]	; (200014e8 <shifted_ref+0x2c>)
200014de:	62d3      	str	r3, [r2, #44]	; 0x2c
200014e0:	e7f7      	b.n	200014d2 <shifted_ref+0x16>
200014e2:	bf00      	nop
200014e4:	200023e0 	.word	0x200023e0
200014e8:	200022c0 	.word	0x200022c0

200014ec <call_shifted_const_ref>:
200014ec:	b500      	push	{lr}
200014ee:	b081      	sub	sp, #4
200014f0:	2301      	movs	r3, #1
200014f2:	9300      	str	r3, [sp, #0]
200014f4:	4668      	mov	r0, sp
200014f6:	f7ff ffe1 	bl	200014bc <shifted_ref>
200014fa:	b001      	add	sp, #4
200014fc:	f85d fb04 	ldr.w	pc, [sp], #4

20001500 <call_shifted_var_ref>:
20001500:	b500      	push	{lr}
20001502:	b081      	sub	sp, #4
20001504:	2301      	movs	r3, #1
20001506:	9300      	str	r3, [sp, #0]
20001508:	4668      	mov	r0, sp
2000150a:	f7ff ffd7 	bl	200014bc <shifted_ref>
2000150e:	b001      	add	sp, #4
20001510:	f85d fb04 	ldr.w	pc, [sp], #4

20001514 <call_shifted_global_ref>:
20001514:	b500      	push	{lr}
20001516:	b081      	sub	sp, #4
20001518:	2301      	movs	r3, #1
2000151a:	9300      	str	r3, [sp, #0]
2000151c:	4668      	mov	r0, sp
2000151e:	f7ff ffcd 	bl	200014bc <shifted_ref>
20001522:	b001      	add	sp, #4
20001524:	f85d fb04 	ldr.w	pc, [sp], #4

20001528 <copy_bits_val>:
20001528:	4b08      	ldr	r3, [pc, #32]	; (2000154c <copy_bits_val+0x24>)
2000152a:	2200      	movs	r2, #0
2000152c:	605a      	str	r2, [r3, #4]
2000152e:	2801      	cmp	r0, #1
20001530:	d006      	beq.n	20001540 <copy_bits_val+0x18>
20001532:	4b06      	ldr	r3, [pc, #24]	; (2000154c <copy_bits_val+0x24>)
20001534:	685a      	ldr	r2, [r3, #4]
20001536:	2102      	movs	r1, #2
20001538:	f361 0242 	bfi	r2, r1, #1, #2
2000153c:	605a      	str	r2, [r3, #4]
2000153e:	4770      	bx	lr
20001540:	685a      	ldr	r2, [r3, #4]
20001542:	2101      	movs	r1, #1
20001544:	f361 0242 	bfi	r2, r1, #1, #2
20001548:	605a      	str	r2, [r3, #4]
2000154a:	4770      	bx	lr
2000154c:	20002480 	.word	0x20002480

20001550 <call_copy_bits_val>:
20001550:	b500      	push	{lr}
20001552:	4b07      	ldr	r3, [pc, #28]	; (20001570 <call_copy_bits_val+0x20>)
20001554:	2200      	movs	r2, #0
20001556:	605a      	str	r2, [r3, #4]
20001558:	685a      	ldr	r2, [r3, #4]
2000155a:	f042 0240 	orr.w	r2, r2, #64	; 0x40
2000155e:	605a      	str	r2, [r3, #4]
20001560:	6858      	ldr	r0, [r3, #4]
20001562:	f3c0 1080 	ubfx	r0, r0, #6, #1
20001566:	f7ff ffdf 	bl	20001528 <copy_bits_val>
2000156a:	f85d fb04 	ldr.w	pc, [sp], #4
2000156e:	bf00      	nop
20001570:	20002480 	.word	0x20002480

20001574 <copy_bits_ref>:
20001574:	4b06      	ldr	r3, [pc, #24]	; (20001590 <copy_bits_ref+0x1c>)
20001576:	2200      	movs	r2, #0
20001578:	605a      	str	r2, [r3, #4]
2000157a:	6803      	ldr	r3, [r0, #0]
2000157c:	2b01      	cmp	r3, #1
2000157e:	4b04      	ldr	r3, [pc, #16]	; (20001590 <copy_bits_ref+0x1c>)
20001580:	685a      	ldr	r2, [r3, #4]
20001582:	bf0c      	ite	eq
20001584:	2101      	moveq	r1, #1
20001586:	2102      	movne	r1, #2
20001588:	f361 0242 	bfi	r2, r1, #1, #2
2000158c:	605a      	str	r2, [r3, #4]
2000158e:	4770      	bx	lr
20001590:	20002480 	.word	0x20002480

20001594 <call_copy_bits_ref>:
20001594:	b500      	push	{lr}
20001596:	b081      	sub	sp, #4
20001598:	4b08      	ldr	r3, [pc, #32]	; (200015bc <call_copy_bits_ref+0x28>)
2000159a:	2200      	movs	r2, #0
2000159c:	605a      	str	r2, [r3, #4]
2000159e:	685a      	ldr	r2, [r3, #4]
200015a0:	f042 0240 	orr.w	r2, r2, #64	; 0x40
200015a4:	605a      	str	r2, [r3, #4]
200015a6:	685b      	ldr	r3, [r3, #4]
200015a8:	f3c3 1380 	ubfx	r3, r3, #6, #1
200015ac:	9300      	str	r3, [sp, #0]
200015ae:	4668      	mov	r0, sp
200015b0:	f7ff ffe0 	bl	20001574 <copy_bits_ref>
200015b4:	b001      	add	sp, #4
200015b6:	f85d fb04 	ldr.w	pc, [sp], #4
200015ba:	bf00      	nop
200015bc:	20002480 	.word	0x20002480

200015c0 <run>:
200015c0:	b570      	push	{r4, r5, r6, lr}
200015c2:	4cd3      	ldr	r4, [pc, #844]	; (20001910 <run+0x350>)
200015c4:	2200      	movs	r2, #0
200015c6:	4621      	mov	r1, r4
200015c8:	48d2      	ldr	r0, [pc, #840]	; (20001914 <run+0x354>)
200015ca:	f000 fb40 	bl	20001c4e <do_test>
200015ce:	2201      	movs	r2, #1
200015d0:	4621      	mov	r1, r4
200015d2:	48d1      	ldr	r0, [pc, #836]	; (20001918 <run+0x358>)
200015d4:	f000 fb3b 	bl	20001c4e <do_test>
200015d8:	2202      	movs	r2, #2
200015da:	4621      	mov	r1, r4
200015dc:	48cf      	ldr	r0, [pc, #828]	; (2000191c <run+0x35c>)
200015de:	f000 fb36 	bl	20001c4e <do_test>
200015e2:	2203      	movs	r2, #3
200015e4:	4621      	mov	r1, r4
200015e6:	48ce      	ldr	r0, [pc, #824]	; (20001920 <run+0x360>)
200015e8:	f000 fb31 	bl	20001c4e <do_test>
200015ec:	2204      	movs	r2, #4
200015ee:	4621      	mov	r1, r4
200015f0:	48cc      	ldr	r0, [pc, #816]	; (20001924 <run+0x364>)
200015f2:	f000 fb2c 	bl	20001c4e <do_test>
200015f6:	2205      	movs	r2, #5
200015f8:	4621      	mov	r1, r4
200015fa:	48cb      	ldr	r0, [pc, #812]	; (20001928 <run+0x368>)
200015fc:	f000 fb27 	bl	20001c4e <do_test>
20001600:	2206      	movs	r2, #6
20001602:	4621      	mov	r1, r4
20001604:	48c9      	ldr	r0, [pc, #804]	; (2000192c <run+0x36c>)
20001606:	f000 fb22 	bl	20001c4e <do_test>
2000160a:	2207      	movs	r2, #7
2000160c:	4621      	mov	r1, r4
2000160e:	48c8      	ldr	r0, [pc, #800]	; (20001930 <run+0x370>)
20001610:	f000 fb1d 	bl	20001c4e <do_test>
20001614:	2208      	movs	r2, #8
20001616:	4621      	mov	r1, r4
20001618:	48c6      	ldr	r0, [pc, #792]	; (20001934 <run+0x374>)
2000161a:	f000 fb18 	bl	20001c4e <do_test>
2000161e:	2209      	movs	r2, #9
20001620:	4621      	mov	r1, r4
20001622:	48c5      	ldr	r0, [pc, #788]	; (20001938 <run+0x378>)
20001624:	f000 fb13 	bl	20001c4e <do_test>
20001628:	220a      	movs	r2, #10
2000162a:	4621      	mov	r1, r4
2000162c:	48c3      	ldr	r0, [pc, #780]	; (2000193c <run+0x37c>)
2000162e:	f000 fb0e 	bl	20001c4e <do_test>
20001632:	220b      	movs	r2, #11
20001634:	4621      	mov	r1, r4
20001636:	48c2      	ldr	r0, [pc, #776]	; (20001940 <run+0x380>)
20001638:	f000 fb09 	bl	20001c4e <do_test>
2000163c:	220c      	movs	r2, #12
2000163e:	4621      	mov	r1, r4
20001640:	48c0      	ldr	r0, [pc, #768]	; (20001944 <run+0x384>)
20001642:	f000 fb04 	bl	20001c4e <do_test>
20001646:	220d      	movs	r2, #13
20001648:	4621      	mov	r1, r4
2000164a:	48bf      	ldr	r0, [pc, #764]	; (20001948 <run+0x388>)
2000164c:	f000 faff 	bl	20001c4e <do_test>
20001650:	220e      	movs	r2, #14
20001652:	4621      	mov	r1, r4
20001654:	48bd      	ldr	r0, [pc, #756]	; (2000194c <run+0x38c>)
20001656:	f000 fafa 	bl	20001c4e <do_test>
2000165a:	220f      	movs	r2, #15
2000165c:	4621      	mov	r1, r4
2000165e:	48bc      	ldr	r0, [pc, #752]	; (20001950 <run+0x390>)
20001660:	f000 faf5 	bl	20001c4e <do_test>
20001664:	2210      	movs	r2, #16
20001666:	4621      	mov	r1, r4
20001668:	48ba      	ldr	r0, [pc, #744]	; (20001954 <run+0x394>)
2000166a:	f000 faf0 	bl	20001c4e <do_test>
2000166e:	2211      	movs	r2, #17
20001670:	4621      	mov	r1, r4
20001672:	48b9      	ldr	r0, [pc, #740]	; (20001958 <run+0x398>)
20001674:	f000 faeb 	bl	20001c4e <do_test>
20001678:	2212      	movs	r2, #18
2000167a:	4621      	mov	r1, r4
2000167c:	48b7      	ldr	r0, [pc, #732]	; (2000195c <run+0x39c>)
2000167e:	f000 fae6 	bl	20001c4e <do_test>
20001682:	2213      	movs	r2, #19
20001684:	4621      	mov	r1, r4
20001686:	48b6      	ldr	r0, [pc, #728]	; (20001960 <run+0x3a0>)
20001688:	f000 fae1 	bl	20001c4e <do_test>
2000168c:	2214      	movs	r2, #20
2000168e:	4621      	mov	r1, r4
20001690:	48b4      	ldr	r0, [pc, #720]	; (20001964 <run+0x3a4>)
20001692:	f000 fadc 	bl	20001c4e <do_test>
20001696:	2215      	movs	r2, #21
20001698:	4621      	mov	r1, r4
2000169a:	48b3      	ldr	r0, [pc, #716]	; (20001968 <run+0x3a8>)
2000169c:	f000 fad7 	bl	20001c4e <do_test>
200016a0:	2216      	movs	r2, #22
200016a2:	4621      	mov	r1, r4
200016a4:	48b1      	ldr	r0, [pc, #708]	; (2000196c <run+0x3ac>)
200016a6:	f000 fad2 	bl	20001c4e <do_test>
200016aa:	2217      	movs	r2, #23
200016ac:	4621      	mov	r1, r4
200016ae:	48b0      	ldr	r0, [pc, #704]	; (20001970 <run+0x3b0>)
200016b0:	f000 facd 	bl	20001c4e <do_test>
200016b4:	2218      	movs	r2, #24
200016b6:	4621      	mov	r1, r4
200016b8:	48ae      	ldr	r0, [pc, #696]	; (20001974 <run+0x3b4>)
200016ba:	f000 fac8 	bl	20001c4e <do_test>
200016be:	2219      	movs	r2, #25
200016c0:	4621      	mov	r1, r4
200016c2:	48ad      	ldr	r0, [pc, #692]	; (20001978 <run+0x3b8>)
200016c4:	f000 fac3 	bl	20001c4e <do_test>
200016c8:	221a      	movs	r2, #26
200016ca:	4621      	mov	r1, r4
200016cc:	48ab      	ldr	r0, [pc, #684]	; (2000197c <run+0x3bc>)
200016ce:	f000 fabe 	bl	20001c4e <do_test>
200016d2:	221b      	movs	r2, #27
200016d4:	4621      	mov	r1, r4
200016d6:	48aa      	ldr	r0, [pc, #680]	; (20001980 <run+0x3c0>)
200016d8:	f000 fab9 	bl	20001c4e <do_test>
200016dc:	221c      	movs	r2, #28
200016de:	4621      	mov	r1, r4
200016e0:	48a8      	ldr	r0, [pc, #672]	; (20001984 <run+0x3c4>)
200016e2:	f000 fab4 	bl	20001c4e <do_test>
200016e6:	221d      	movs	r2, #29
200016e8:	4621      	mov	r1, r4
200016ea:	48a7      	ldr	r0, [pc, #668]	; (20001988 <run+0x3c8>)
200016ec:	f000 faaf 	bl	20001c4e <do_test>
200016f0:	221e      	movs	r2, #30
200016f2:	4621      	mov	r1, r4
200016f4:	48a5      	ldr	r0, [pc, #660]	; (2000198c <run+0x3cc>)
200016f6:	f000 faaa 	bl	20001c4e <do_test>
200016fa:	221f      	movs	r2, #31
200016fc:	4621      	mov	r1, r4
200016fe:	48a4      	ldr	r0, [pc, #656]	; (20001990 <run+0x3d0>)
20001700:	f000 faa5 	bl	20001c4e <do_test>
20001704:	2220      	movs	r2, #32
20001706:	4621      	mov	r1, r4
20001708:	48a2      	ldr	r0, [pc, #648]	; (20001994 <run+0x3d4>)
2000170a:	f000 faa0 	bl	20001c4e <do_test>
2000170e:	2221      	movs	r2, #33	; 0x21
20001710:	4621      	mov	r1, r4
20001712:	48a1      	ldr	r0, [pc, #644]	; (20001998 <run+0x3d8>)
20001714:	f000 fa9b 	bl	20001c4e <do_test>
20001718:	2222      	movs	r2, #34	; 0x22
2000171a:	4621      	mov	r1, r4
2000171c:	489f      	ldr	r0, [pc, #636]	; (2000199c <run+0x3dc>)
2000171e:	f000 fa96 	bl	20001c4e <do_test>
20001722:	2223      	movs	r2, #35	; 0x23
20001724:	4621      	mov	r1, r4
20001726:	489e      	ldr	r0, [pc, #632]	; (200019a0 <run+0x3e0>)
20001728:	f000 fa91 	bl	20001c4e <do_test>
2000172c:	2224      	movs	r2, #36	; 0x24
2000172e:	4621      	mov	r1, r4
20001730:	489c      	ldr	r0, [pc, #624]	; (200019a4 <run+0x3e4>)
20001732:	f000 fa8c 	bl	20001c4e <do_test>
20001736:	4e9c      	ldr	r6, [pc, #624]	; (200019a8 <run+0x3e8>)
20001738:	2225      	movs	r2, #37	; 0x25
2000173a:	4631      	mov	r1, r6
2000173c:	489b      	ldr	r0, [pc, #620]	; (200019ac <run+0x3ec>)
2000173e:	f000 fa86 	bl	20001c4e <do_test>
20001742:	2226      	movs	r2, #38	; 0x26
20001744:	4631      	mov	r1, r6
20001746:	489a      	ldr	r0, [pc, #616]	; (200019b0 <run+0x3f0>)
20001748:	f000 fa81 	bl	20001c4e <do_test>
2000174c:	2227      	movs	r2, #39	; 0x27
2000174e:	4631      	mov	r1, r6
20001750:	4898      	ldr	r0, [pc, #608]	; (200019b4 <run+0x3f4>)
20001752:	f000 fa7c 	bl	20001c4e <do_test>
20001756:	2228      	movs	r2, #40	; 0x28
20001758:	4621      	mov	r1, r4
2000175a:	4897      	ldr	r0, [pc, #604]	; (200019b8 <run+0x3f8>)
2000175c:	f000 fa77 	bl	20001c4e <do_test>
20001760:	2229      	movs	r2, #41	; 0x29
20001762:	4621      	mov	r1, r4
20001764:	4895      	ldr	r0, [pc, #596]	; (200019bc <run+0x3fc>)
20001766:	f000 fa72 	bl	20001c4e <do_test>
2000176a:	222a      	movs	r2, #42	; 0x2a
2000176c:	4621      	mov	r1, r4
2000176e:	4894      	ldr	r0, [pc, #592]	; (200019c0 <run+0x400>)
20001770:	f000 fa6d 	bl	20001c4e <do_test>
20001774:	222b      	movs	r2, #43	; 0x2b
20001776:	4621      	mov	r1, r4
20001778:	4892      	ldr	r0, [pc, #584]	; (200019c4 <run+0x404>)
2000177a:	f000 fa68 	bl	20001c4e <do_test>
2000177e:	222c      	movs	r2, #44	; 0x2c
20001780:	4621      	mov	r1, r4
20001782:	4891      	ldr	r0, [pc, #580]	; (200019c8 <run+0x408>)
20001784:	f000 fa63 	bl	20001c4e <do_test>
20001788:	4d90      	ldr	r5, [pc, #576]	; (200019cc <run+0x40c>)
2000178a:	222d      	movs	r2, #45	; 0x2d
2000178c:	4629      	mov	r1, r5
2000178e:	4890      	ldr	r0, [pc, #576]	; (200019d0 <run+0x410>)
20001790:	f000 fa5d 	bl	20001c4e <do_test>
20001794:	222e      	movs	r2, #46	; 0x2e
20001796:	4621      	mov	r1, r4
20001798:	488e      	ldr	r0, [pc, #568]	; (200019d4 <run+0x414>)
2000179a:	f000 fa58 	bl	20001c4e <do_test>
2000179e:	222f      	movs	r2, #47	; 0x2f
200017a0:	4621      	mov	r1, r4
200017a2:	488d      	ldr	r0, [pc, #564]	; (200019d8 <run+0x418>)
200017a4:	f000 fa53 	bl	20001c4e <do_test>
200017a8:	2230      	movs	r2, #48	; 0x30
200017aa:	4621      	mov	r1, r4
200017ac:	488b      	ldr	r0, [pc, #556]	; (200019dc <run+0x41c>)
200017ae:	f000 fa4e 	bl	20001c4e <do_test>
200017b2:	2231      	movs	r2, #49	; 0x31
200017b4:	4621      	mov	r1, r4
200017b6:	488a      	ldr	r0, [pc, #552]	; (200019e0 <run+0x420>)
200017b8:	f000 fa49 	bl	20001c4e <do_test>
200017bc:	2232      	movs	r2, #50	; 0x32
200017be:	4621      	mov	r1, r4
200017c0:	4888      	ldr	r0, [pc, #544]	; (200019e4 <run+0x424>)
200017c2:	f000 fa44 	bl	20001c4e <do_test>
200017c6:	2233      	movs	r2, #51	; 0x33
200017c8:	4621      	mov	r1, r4
200017ca:	4887      	ldr	r0, [pc, #540]	; (200019e8 <run+0x428>)
200017cc:	f000 fa3f 	bl	20001c4e <do_test>
200017d0:	2234      	movs	r2, #52	; 0x34
200017d2:	4621      	mov	r1, r4
200017d4:	4885      	ldr	r0, [pc, #532]	; (200019ec <run+0x42c>)
200017d6:	f000 fa3a 	bl	20001c4e <do_test>
200017da:	2235      	movs	r2, #53	; 0x35
200017dc:	4621      	mov	r1, r4
200017de:	4884      	ldr	r0, [pc, #528]	; (200019f0 <run+0x430>)
200017e0:	f000 fa35 	bl	20001c4e <do_test>
200017e4:	2236      	movs	r2, #54	; 0x36
200017e6:	4621      	mov	r1, r4
200017e8:	4882      	ldr	r0, [pc, #520]	; (200019f4 <run+0x434>)
200017ea:	f000 fa30 	bl	20001c4e <do_test>
200017ee:	2237      	movs	r2, #55	; 0x37
200017f0:	4621      	mov	r1, r4
200017f2:	4881      	ldr	r0, [pc, #516]	; (200019f8 <run+0x438>)
200017f4:	f000 fa2b 	bl	20001c4e <do_test>
200017f8:	2238      	movs	r2, #56	; 0x38
200017fa:	4621      	mov	r1, r4
200017fc:	487f      	ldr	r0, [pc, #508]	; (200019fc <run+0x43c>)
200017fe:	f000 fa26 	bl	20001c4e <do_test>
20001802:	2239      	movs	r2, #57	; 0x39
20001804:	4621      	mov	r1, r4
20001806:	487e      	ldr	r0, [pc, #504]	; (20001a00 <run+0x440>)
20001808:	f000 fa21 	bl	20001c4e <do_test>
2000180c:	223a      	movs	r2, #58	; 0x3a
2000180e:	4621      	mov	r1, r4
20001810:	487c      	ldr	r0, [pc, #496]	; (20001a04 <run+0x444>)
20001812:	f000 fa1c 	bl	20001c4e <do_test>
20001816:	223b      	movs	r2, #59	; 0x3b
20001818:	4621      	mov	r1, r4
2000181a:	487b      	ldr	r0, [pc, #492]	; (20001a08 <run+0x448>)
2000181c:	f000 fa17 	bl	20001c4e <do_test>
20001820:	223c      	movs	r2, #60	; 0x3c
20001822:	4621      	mov	r1, r4
20001824:	4879      	ldr	r0, [pc, #484]	; (20001a0c <run+0x44c>)
20001826:	f000 fa12 	bl	20001c4e <do_test>
2000182a:	223d      	movs	r2, #61	; 0x3d
2000182c:	4621      	mov	r1, r4
2000182e:	4878      	ldr	r0, [pc, #480]	; (20001a10 <run+0x450>)
20001830:	f000 fa0d 	bl	20001c4e <do_test>
20001834:	223e      	movs	r2, #62	; 0x3e
20001836:	4621      	mov	r1, r4
20001838:	4876      	ldr	r0, [pc, #472]	; (20001a14 <run+0x454>)
2000183a:	f000 fa08 	bl	20001c4e <do_test>
2000183e:	223f      	movs	r2, #63	; 0x3f
20001840:	4621      	mov	r1, r4
20001842:	4875      	ldr	r0, [pc, #468]	; (20001a18 <run+0x458>)
20001844:	f000 fa03 	bl	20001c4e <do_test>
20001848:	2240      	movs	r2, #64	; 0x40
2000184a:	4631      	mov	r1, r6
2000184c:	4873      	ldr	r0, [pc, #460]	; (20001a1c <run+0x45c>)
2000184e:	f000 f9fe 	bl	20001c4e <do_test>
20001852:	2241      	movs	r2, #65	; 0x41
20001854:	4631      	mov	r1, r6
20001856:	4872      	ldr	r0, [pc, #456]	; (20001a20 <run+0x460>)
20001858:	f000 f9f9 	bl	20001c4e <do_test>
2000185c:	2242      	movs	r2, #66	; 0x42
2000185e:	4631      	mov	r1, r6
20001860:	4870      	ldr	r0, [pc, #448]	; (20001a24 <run+0x464>)
20001862:	f000 f9f4 	bl	20001c4e <do_test>
20001866:	2243      	movs	r2, #67	; 0x43
20001868:	4621      	mov	r1, r4
2000186a:	486f      	ldr	r0, [pc, #444]	; (20001a28 <run+0x468>)
2000186c:	f000 f9ef 	bl	20001c4e <do_test>
20001870:	2244      	movs	r2, #68	; 0x44
20001872:	4629      	mov	r1, r5
20001874:	486d      	ldr	r0, [pc, #436]	; (20001a2c <run+0x46c>)
20001876:	f000 f9ea 	bl	20001c4e <do_test>
2000187a:	2245      	movs	r2, #69	; 0x45
2000187c:	4629      	mov	r1, r5
2000187e:	486c      	ldr	r0, [pc, #432]	; (20001a30 <run+0x470>)
20001880:	f000 f9e5 	bl	20001c4e <do_test>
20001884:	2246      	movs	r2, #70	; 0x46
20001886:	4621      	mov	r1, r4
20001888:	486a      	ldr	r0, [pc, #424]	; (20001a34 <run+0x474>)
2000188a:	f000 f9e0 	bl	20001c4e <do_test>
2000188e:	2247      	movs	r2, #71	; 0x47
20001890:	4621      	mov	r1, r4
20001892:	4869      	ldr	r0, [pc, #420]	; (20001a38 <run+0x478>)
20001894:	f000 f9db 	bl	20001c4e <do_test>
20001898:	2248      	movs	r2, #72	; 0x48
2000189a:	4629      	mov	r1, r5
2000189c:	4867      	ldr	r0, [pc, #412]	; (20001a3c <run+0x47c>)
2000189e:	f000 f9d6 	bl	20001c4e <do_test>
200018a2:	2249      	movs	r2, #73	; 0x49
200018a4:	4629      	mov	r1, r5
200018a6:	4866      	ldr	r0, [pc, #408]	; (20001a40 <run+0x480>)
200018a8:	f000 f9d1 	bl	20001c4e <do_test>
200018ac:	224a      	movs	r2, #74	; 0x4a
200018ae:	4621      	mov	r1, r4
200018b0:	4864      	ldr	r0, [pc, #400]	; (20001a44 <run+0x484>)
200018b2:	f000 f9cc 	bl	20001c4e <do_test>
200018b6:	224b      	movs	r2, #75	; 0x4b
200018b8:	4621      	mov	r1, r4
200018ba:	4863      	ldr	r0, [pc, #396]	; (20001a48 <run+0x488>)
200018bc:	f000 f9c7 	bl	20001c4e <do_test>
200018c0:	224c      	movs	r2, #76	; 0x4c
200018c2:	4621      	mov	r1, r4
200018c4:	4861      	ldr	r0, [pc, #388]	; (20001a4c <run+0x48c>)
200018c6:	f000 f9c2 	bl	20001c4e <do_test>
200018ca:	224d      	movs	r2, #77	; 0x4d
200018cc:	4621      	mov	r1, r4
200018ce:	4860      	ldr	r0, [pc, #384]	; (20001a50 <run+0x490>)
200018d0:	f000 f9bd 	bl	20001c4e <do_test>
200018d4:	224e      	movs	r2, #78	; 0x4e
200018d6:	4621      	mov	r1, r4
200018d8:	485e      	ldr	r0, [pc, #376]	; (20001a54 <run+0x494>)
200018da:	f000 f9b8 	bl	20001c4e <do_test>
200018de:	224f      	movs	r2, #79	; 0x4f
200018e0:	4621      	mov	r1, r4
200018e2:	485d      	ldr	r0, [pc, #372]	; (20001a58 <run+0x498>)
200018e4:	f000 f9b3 	bl	20001c4e <do_test>
200018e8:	4e5c      	ldr	r6, [pc, #368]	; (20001a5c <run+0x49c>)
200018ea:	2250      	movs	r2, #80	; 0x50
200018ec:	4621      	mov	r1, r4
200018ee:	4630      	mov	r0, r6
200018f0:	f000 f9ad 	bl	20001c4e <do_test>
200018f4:	2251      	movs	r2, #81	; 0x51
200018f6:	4621      	mov	r1, r4
200018f8:	4630      	mov	r0, r6
200018fa:	f000 f9a8 	bl	20001c4e <do_test>
200018fe:	2252      	movs	r2, #82	; 0x52
20001900:	4621      	mov	r1, r4
20001902:	4857      	ldr	r0, [pc, #348]	; (20001a60 <run+0x4a0>)
20001904:	f000 f9a3 	bl	20001c4e <do_test>
20001908:	2253      	movs	r2, #83	; 0x53
2000190a:	4621      	mov	r1, r4
2000190c:	e0aa      	b.n	20001a64 <run+0x4a4>
2000190e:	bf00      	nop
20001910:	20002484 	.word	0x20002484
20001914:	200000ed 	.word	0x200000ed
20001918:	200000f9 	.word	0x200000f9
2000191c:	20000105 	.word	0x20000105
20001920:	20000115 	.word	0x20000115
20001924:	20000125 	.word	0x20000125
20001928:	20000135 	.word	0x20000135
2000192c:	20000145 	.word	0x20000145
20001930:	20000161 	.word	0x20000161
20001934:	2000017d 	.word	0x2000017d
20001938:	20000199 	.word	0x20000199
2000193c:	200001b5 	.word	0x200001b5
20001940:	200001c9 	.word	0x200001c9
20001944:	200001dd 	.word	0x200001dd
20001948:	200001f5 	.word	0x200001f5
2000194c:	2000020d 	.word	0x2000020d
20001950:	20000229 	.word	0x20000229
20001954:	20000245 	.word	0x20000245
20001958:	20000261 	.word	0x20000261
2000195c:	2000027d 	.word	0x2000027d
20001960:	20000291 	.word	0x20000291
20001964:	200002a5 	.word	0x200002a5
20001968:	200002bd 	.word	0x200002bd
2000196c:	200002d5 	.word	0x200002d5
20001970:	200002f1 	.word	0x200002f1
20001974:	2000030d 	.word	0x2000030d
20001978:	20000329 	.word	0x20000329
2000197c:	20000345 	.word	0x20000345
20001980:	20000365 	.word	0x20000365
20001984:	20000385 	.word	0x20000385
20001988:	200003a5 	.word	0x200003a5
2000198c:	200003c5 	.word	0x200003c5
20001990:	200003e5 	.word	0x200003e5
20001994:	20000405 	.word	0x20000405
20001998:	20000425 	.word	0x20000425
2000199c:	20000449 	.word	0x20000449
200019a0:	2000047d 	.word	0x2000047d
200019a4:	200004a5 	.word	0x200004a5
200019a8:	200023e4 	.word	0x200023e4
200019ac:	200004d5 	.word	0x200004d5
200019b0:	20000509 	.word	0x20000509
200019b4:	2000055d 	.word	0x2000055d
200019b8:	200005b1 	.word	0x200005b1
200019bc:	200005e5 	.word	0x200005e5
200019c0:	2000061d 	.word	0x2000061d
200019c4:	200006a9 	.word	0x200006a9
200019c8:	2000072d 	.word	0x2000072d
200019cc:	200022ec 	.word	0x200022ec
200019d0:	2000074d 	.word	0x2000074d
200019d4:	20000d49 	.word	0x20000d49
200019d8:	20000d57 	.word	0x20000d57
200019dc:	20000dcd 	.word	0x20000dcd
200019e0:	20000de7 	.word	0x20000de7
200019e4:	20000ed9 	.word	0x20000ed9
200019e8:	20000eef 	.word	0x20000eef
200019ec:	20000fd1 	.word	0x20000fd1
200019f0:	20000feb 	.word	0x20000feb
200019f4:	20001025 	.word	0x20001025
200019f8:	20001045 	.word	0x20001045
200019fc:	20001069 	.word	0x20001069
20001a00:	2000108f 	.word	0x2000108f
20001a04:	200010bb 	.word	0x200010bb
20001a08:	200010e1 	.word	0x200010e1
20001a0c:	20001103 	.word	0x20001103
20001a10:	20001127 	.word	0x20001127
20001a14:	2000114d 	.word	0x2000114d
20001a18:	2000117d 	.word	0x2000117d
20001a1c:	2000119d 	.word	0x2000119d
20001a20:	200011d7 	.word	0x200011d7
20001a24:	20001235 	.word	0x20001235
20001a28:	20001275 	.word	0x20001275
20001a2c:	200012b9 	.word	0x200012b9
20001a30:	200012f9 	.word	0x200012f9
20001a34:	20001345 	.word	0x20001345
20001a38:	20001377 	.word	0x20001377
20001a3c:	20000769 	.word	0x20000769
20001a40:	20000789 	.word	0x20000789
20001a44:	200007a9 	.word	0x200007a9
20001a48:	200007e9 	.word	0x200007e9
20001a4c:	20000835 	.word	0x20000835
20001a50:	20000875 	.word	0x20000875
20001a54:	200008c1 	.word	0x200008c1
20001a58:	200008d9 	.word	0x200008d9
20001a5c:	200008f1 	.word	0x200008f1
20001a60:	20000925 	.word	0x20000925
20001a64:	4852      	ldr	r0, [pc, #328]	; (20001bb0 <run+0x5f0>)
20001a66:	f000 f8f2 	bl	20001c4e <do_test>
20001a6a:	2254      	movs	r2, #84	; 0x54
20001a6c:	4621      	mov	r1, r4
20001a6e:	4851      	ldr	r0, [pc, #324]	; (20001bb4 <run+0x5f4>)
20001a70:	f000 f8ed 	bl	20001c4e <do_test>
20001a74:	4e50      	ldr	r6, [pc, #320]	; (20001bb8 <run+0x5f8>)
20001a76:	2255      	movs	r2, #85	; 0x55
20001a78:	4621      	mov	r1, r4
20001a7a:	4630      	mov	r0, r6
20001a7c:	f000 f8e7 	bl	20001c4e <do_test>
20001a80:	2256      	movs	r2, #86	; 0x56
20001a82:	4621      	mov	r1, r4
20001a84:	484d      	ldr	r0, [pc, #308]	; (20001bbc <run+0x5fc>)
20001a86:	f000 f8e2 	bl	20001c4e <do_test>
20001a8a:	2257      	movs	r2, #87	; 0x57
20001a8c:	4621      	mov	r1, r4
20001a8e:	4630      	mov	r0, r6
20001a90:	f000 f8dd 	bl	20001c4e <do_test>
20001a94:	2258      	movs	r2, #88	; 0x58
20001a96:	4621      	mov	r1, r4
20001a98:	4849      	ldr	r0, [pc, #292]	; (20001bc0 <run+0x600>)
20001a9a:	f000 f8d8 	bl	20001c4e <do_test>
20001a9e:	2259      	movs	r2, #89	; 0x59
20001aa0:	4621      	mov	r1, r4
20001aa2:	4848      	ldr	r0, [pc, #288]	; (20001bc4 <run+0x604>)
20001aa4:	f000 f8d3 	bl	20001c4e <do_test>
20001aa8:	225a      	movs	r2, #90	; 0x5a
20001aaa:	4629      	mov	r1, r5
20001aac:	4846      	ldr	r0, [pc, #280]	; (20001bc8 <run+0x608>)
20001aae:	f000 f8ce 	bl	20001c4e <do_test>
20001ab2:	225b      	movs	r2, #91	; 0x5b
20001ab4:	4629      	mov	r1, r5
20001ab6:	4845      	ldr	r0, [pc, #276]	; (20001bcc <run+0x60c>)
20001ab8:	f000 f8c9 	bl	20001c4e <do_test>
20001abc:	225c      	movs	r2, #92	; 0x5c
20001abe:	4621      	mov	r1, r4
20001ac0:	4843      	ldr	r0, [pc, #268]	; (20001bd0 <run+0x610>)
20001ac2:	f000 f8c4 	bl	20001c4e <do_test>
20001ac6:	225d      	movs	r2, #93	; 0x5d
20001ac8:	4629      	mov	r1, r5
20001aca:	4842      	ldr	r0, [pc, #264]	; (20001bd4 <run+0x614>)
20001acc:	f000 f8bf 	bl	20001c4e <do_test>
20001ad0:	225e      	movs	r2, #94	; 0x5e
20001ad2:	4629      	mov	r1, r5
20001ad4:	4840      	ldr	r0, [pc, #256]	; (20001bd8 <run+0x618>)
20001ad6:	f000 f8ba 	bl	20001c4e <do_test>
20001ada:	225f      	movs	r2, #95	; 0x5f
20001adc:	4621      	mov	r1, r4
20001ade:	483f      	ldr	r0, [pc, #252]	; (20001bdc <run+0x61c>)
20001ae0:	f000 f8b5 	bl	20001c4e <do_test>
20001ae4:	2260      	movs	r2, #96	; 0x60
20001ae6:	4621      	mov	r1, r4
20001ae8:	483d      	ldr	r0, [pc, #244]	; (20001be0 <run+0x620>)
20001aea:	f000 f8b0 	bl	20001c4e <do_test>
20001aee:	2261      	movs	r2, #97	; 0x61
20001af0:	4621      	mov	r1, r4
20001af2:	483c      	ldr	r0, [pc, #240]	; (20001be4 <run+0x624>)
20001af4:	f000 f8ab 	bl	20001c4e <do_test>
20001af8:	2262      	movs	r2, #98	; 0x62
20001afa:	4621      	mov	r1, r4
20001afc:	483a      	ldr	r0, [pc, #232]	; (20001be8 <run+0x628>)
20001afe:	f000 f8a6 	bl	20001c4e <do_test>
20001b02:	2263      	movs	r2, #99	; 0x63
20001b04:	4629      	mov	r1, r5
20001b06:	4839      	ldr	r0, [pc, #228]	; (20001bec <run+0x62c>)
20001b08:	f000 f8a1 	bl	20001c4e <do_test>
20001b0c:	2264      	movs	r2, #100	; 0x64
20001b0e:	4629      	mov	r1, r5
20001b10:	4837      	ldr	r0, [pc, #220]	; (20001bf0 <run+0x630>)
20001b12:	f000 f89c 	bl	20001c4e <do_test>
20001b16:	2265      	movs	r2, #101	; 0x65
20001b18:	4629      	mov	r1, r5
20001b1a:	4836      	ldr	r0, [pc, #216]	; (20001bf4 <run+0x634>)
20001b1c:	f000 f897 	bl	20001c4e <do_test>
20001b20:	2266      	movs	r2, #102	; 0x66
20001b22:	4629      	mov	r1, r5
20001b24:	4834      	ldr	r0, [pc, #208]	; (20001bf8 <run+0x638>)
20001b26:	f000 f892 	bl	20001c4e <do_test>
20001b2a:	2267      	movs	r2, #103	; 0x67
20001b2c:	4629      	mov	r1, r5
20001b2e:	4833      	ldr	r0, [pc, #204]	; (20001bfc <run+0x63c>)
20001b30:	f000 f88d 	bl	20001c4e <do_test>
20001b34:	2268      	movs	r2, #104	; 0x68
20001b36:	4629      	mov	r1, r5
20001b38:	4831      	ldr	r0, [pc, #196]	; (20001c00 <run+0x640>)
20001b3a:	f000 f888 	bl	20001c4e <do_test>
20001b3e:	2269      	movs	r2, #105	; 0x69
20001b40:	4621      	mov	r1, r4
20001b42:	4830      	ldr	r0, [pc, #192]	; (20001c04 <run+0x644>)
20001b44:	f000 f883 	bl	20001c4e <do_test>
20001b48:	226a      	movs	r2, #106	; 0x6a
20001b4a:	4621      	mov	r1, r4
20001b4c:	482e      	ldr	r0, [pc, #184]	; (20001c08 <run+0x648>)
20001b4e:	f000 f87e 	bl	20001c4e <do_test>
20001b52:	226b      	movs	r2, #107	; 0x6b
20001b54:	4621      	mov	r1, r4
20001b56:	482d      	ldr	r0, [pc, #180]	; (20001c0c <run+0x64c>)
20001b58:	f000 f879 	bl	20001c4e <do_test>
20001b5c:	226c      	movs	r2, #108	; 0x6c
20001b5e:	4621      	mov	r1, r4
20001b60:	482b      	ldr	r0, [pc, #172]	; (20001c10 <run+0x650>)
20001b62:	f000 f874 	bl	20001c4e <do_test>
20001b66:	226d      	movs	r2, #109	; 0x6d
20001b68:	4621      	mov	r1, r4
20001b6a:	482a      	ldr	r0, [pc, #168]	; (20001c14 <run+0x654>)
20001b6c:	f000 f86f 	bl	20001c4e <do_test>
20001b70:	226e      	movs	r2, #110	; 0x6e
20001b72:	4621      	mov	r1, r4
20001b74:	4828      	ldr	r0, [pc, #160]	; (20001c18 <run+0x658>)
20001b76:	f000 f86a 	bl	20001c4e <do_test>
20001b7a:	226f      	movs	r2, #111	; 0x6f
20001b7c:	4621      	mov	r1, r4
20001b7e:	4827      	ldr	r0, [pc, #156]	; (20001c1c <run+0x65c>)
20001b80:	f000 f865 	bl	20001c4e <do_test>
20001b84:	2270      	movs	r2, #112	; 0x70
20001b86:	4621      	mov	r1, r4
20001b88:	4825      	ldr	r0, [pc, #148]	; (20001c20 <run+0x660>)
20001b8a:	f000 f860 	bl	20001c4e <do_test>
20001b8e:	2271      	movs	r2, #113	; 0x71
20001b90:	4621      	mov	r1, r4
20001b92:	4824      	ldr	r0, [pc, #144]	; (20001c24 <run+0x664>)
20001b94:	f000 f85b 	bl	20001c4e <do_test>
20001b98:	2272      	movs	r2, #114	; 0x72
20001b9a:	4621      	mov	r1, r4
20001b9c:	4822      	ldr	r0, [pc, #136]	; (20001c28 <run+0x668>)
20001b9e:	f000 f856 	bl	20001c4e <do_test>
20001ba2:	2273      	movs	r2, #115	; 0x73
20001ba4:	4621      	mov	r1, r4
20001ba6:	4821      	ldr	r0, [pc, #132]	; (20001c2c <run+0x66c>)
20001ba8:	f000 f851 	bl	20001c4e <do_test>
20001bac:	bd70      	pop	{r4, r5, r6, pc}
20001bae:	bf00      	nop
20001bb0:	20000955 	.word	0x20000955
20001bb4:	20000985 	.word	0x20000985
20001bb8:	200009c1 	.word	0x200009c1
20001bbc:	20000a01 	.word	0x20000a01
20001bc0:	20000a3d 	.word	0x20000a3d
20001bc4:	20000a4d 	.word	0x20000a4d
20001bc8:	20000a61 	.word	0x20000a61
20001bcc:	20000a6d 	.word	0x20000a6d
20001bd0:	20000a8d 	.word	0x20000a8d
20001bd4:	200012cb 	.word	0x200012cb
20001bd8:	20001313 	.word	0x20001313
20001bdc:	20000d65 	.word	0x20000d65
20001be0:	20000e01 	.word	0x20000e01
20001be4:	20000f05 	.word	0x20000f05
20001be8:	20001003 	.word	0x20001003
20001bec:	20001499 	.word	0x20001499
20001bf0:	200014a5 	.word	0x200014a5
20001bf4:	200014b1 	.word	0x200014b1
20001bf8:	200014ed 	.word	0x200014ed
20001bfc:	20001501 	.word	0x20001501
20001c00:	20001515 	.word	0x20001515
20001c04:	20000aa5 	.word	0x20000aa5
20001c08:	20000add 	.word	0x20000add
20001c0c:	20000b15 	.word	0x20000b15
20001c10:	20000b59 	.word	0x20000b59
20001c14:	20000b9d 	.word	0x20000b9d
20001c18:	20000be1 	.word	0x20000be1
20001c1c:	20000c25 	.word	0x20000c25
20001c20:	20000c69 	.word	0x20000c69
20001c24:	20000cad 	.word	0x20000cad
20001c28:	20001551 	.word	0x20001551
20001c2c:	20001595 	.word	0x20001595

20001c30 <memset>:
20001c30:	4402      	add	r2, r0
20001c32:	4290      	cmp	r0, r2
20001c34:	d20a      	bcs.n	20001c4c <memset+0x1c>
20001c36:	b410      	push	{r4}
20001c38:	4604      	mov	r4, r0
20001c3a:	b2c9      	uxtb	r1, r1
20001c3c:	4623      	mov	r3, r4
20001c3e:	f803 1b01 	strb.w	r1, [r3], #1
20001c42:	461c      	mov	r4, r3
20001c44:	429a      	cmp	r2, r3
20001c46:	d1f9      	bne.n	20001c3c <memset+0xc>
20001c48:	bc10      	pop	{r4}
20001c4a:	4770      	bx	lr
20001c4c:	4770      	bx	lr

20001c4e <do_test>:
20001c4e:	e92d 43f0 	stmdb	sp!, {r4, r5, r6, r7, r8, r9, lr}
20001c52:	4607      	mov	r7, r0
20001c54:	460e      	mov	r6, r1
20001c56:	4614      	mov	r4, r2
20001c58:	4b16      	ldr	r3, [pc, #88]	; (20001cb4 <do_test+0x66>)
20001c5a:	2200      	movs	r2, #0
20001c5c:	601a      	str	r2, [r3, #0]
20001c5e:	609a      	str	r2, [r3, #8]
20001c60:	2205      	movs	r2, #5
20001c62:	601a      	str	r2, [r3, #0]
20001c64:	f06f 427f 	mvn.w	r2, #4278190080	; 0xff000000
20001c68:	605a      	str	r2, [r3, #4]
20001c6a:	689b      	ldr	r3, [r3, #8]
20001c6c:	b923      	cbnz	r3, 20001c78 <do_test+0x2a>
20001c6e:	4a11      	ldr	r2, [pc, #68]	; (20001cb4 <do_test+0x66>)
20001c70:	bf00      	nop
20001c72:	6893      	ldr	r3, [r2, #8]
20001c74:	2b00      	cmp	r3, #0
20001c76:	d0fb      	beq.n	20001c70 <do_test+0x22>
20001c78:	f8df 8038 	ldr.w	r8, [pc, #56]	; 20001cb4 <do_test+0x66>
20001c7c:	f8d8 5008 	ldr.w	r5, [r8, #8]
20001c80:	2300      	movs	r3, #0
20001c82:	6033      	str	r3, [r6, #0]
20001c84:	47b8      	blx	r7
20001c86:	0064      	lsls	r4, r4, #1
20001c88:	6833      	ldr	r3, [r6, #0]
20001c8a:	f8df 9030 	ldr.w	r9, [pc, #48]	; 20001cbc <do_test+0x6e>
20001c8e:	f849 3024 	str.w	r3, [r9, r4, lsl #2]
20001c92:	f04f 33ff 	mov.w	r3, #4294967295	; 0xffffffff
20001c96:	6033      	str	r3, [r6, #0]
20001c98:	47b8      	blx	r7
20001c9a:	6833      	ldr	r3, [r6, #0]
20001c9c:	3401      	adds	r4, #1
20001c9e:	f849 3024 	str.w	r3, [r9, r4, lsl #2]
20001ca2:	f8d8 1008 	ldr.w	r1, [r8, #8]
20001ca6:	4a04      	ldr	r2, [pc, #16]	; (20001cb8 <do_test+0x6a>)
20001ca8:	6813      	ldr	r3, [r2, #0]
20001caa:	442b      	add	r3, r5
20001cac:	1a5b      	subs	r3, r3, r1
20001cae:	6013      	str	r3, [r2, #0]
20001cb0:	e8bd 83f0 	ldmia.w	sp!, {r4, r5, r6, r7, r8, r9, pc}
20001cb4:	e000e010 	.word	0xe000e010
20001cb8:	20001d7c 	.word	0x20001d7c
20001cbc:	20001d80 	.word	0x20001d80

20001cc0 <main>:
20001cc0:	b500      	push	{lr}
20001cc2:	f7ff fc7d 	bl	200015c0 <run>
20001cc6:	bf00      	nop
20001cc8:	e7fd      	b.n	20001cc6 <main+0x6>
20001cca:	bf00      	nop

20001ccc <NMI_Handler>:
20001ccc:	e7fe      	b.n	20001ccc <NMI_Handler>

20001cce <HardFault_Handler>:
20001cce:	e7fe      	b.n	20001cce <HardFault_Handler>

20001cd0 <MemManage_Handler>:
20001cd0:	e7fe      	b.n	20001cd0 <MemManage_Handler>

20001cd2 <BusFault_Handler>:
20001cd2:	e7fe      	b.n	20001cd2 <BusFault_Handler>

20001cd4 <UsageFault_Handler>:
20001cd4:	e7fe      	b.n	20001cd4 <UsageFault_Handler>

20001cd6 <Reserved1_Handler>:
20001cd6:	e7fe      	b.n	20001cd6 <Reserved1_Handler>

20001cd8 <Reserved2_Handler>:
20001cd8:	e7fe      	b.n	20001cd8 <Reserved2_Handler>

20001cda <Reserved3_Handler>:
20001cda:	e7fe      	b.n	20001cda <Reserved3_Handler>

20001cdc <Reserved4_Handler>:
20001cdc:	e7fe      	b.n	20001cdc <Reserved4_Handler>

20001cde <SVCall_Handler>:
20001cde:	e7fe      	b.n	20001cde <SVCall_Handler>

20001ce0 <Debug_Handler>:
20001ce0:	e7fe      	b.n	20001ce0 <Debug_Handler>

20001ce2 <Reserved5_Handler>:
20001ce2:	e7fe      	b.n	20001ce2 <Reserved5_Handler>

20001ce4 <PendSV_Handler>:
20001ce4:	e7fe      	b.n	20001ce4 <PendSV_Handler>

20001ce6 <SysTick_Handler>:
20001ce6:	e7fe      	b.n	20001ce6 <SysTick_Handler>

20001ce8 <WWDG_IRQHandler>:
20001ce8:	e7fe      	b.n	20001ce8 <WWDG_IRQHandler>

20001cea <PVD_IRQHandler>:
20001cea:	e7fe      	b.n	20001cea <PVD_IRQHandler>

20001cec <TAMPER_IRQHandler>:
20001cec:	e7fe      	b.n	20001cec <TAMPER_IRQHandler>

20001cee <RTC_IRQHandler>:
20001cee:	e7fe      	b.n	20001cee <RTC_IRQHandler>

20001cf0 <FLASH_IRQHandler>:
20001cf0:	e7fe      	b.n	20001cf0 <FLASH_IRQHandler>

20001cf2 <RCC_IRQHandler>:
20001cf2:	e7fe      	b.n	20001cf2 <RCC_IRQHandler>

20001cf4 <EXTI0_IRQHandler>:
20001cf4:	e7fe      	b.n	20001cf4 <EXTI0_IRQHandler>

20001cf6 <EXTI1_IRQHandler>:
20001cf6:	e7fe      	b.n	20001cf6 <EXTI1_IRQHandler>

20001cf8 <EXTI2_IRQHandler>:
20001cf8:	e7fe      	b.n	20001cf8 <EXTI2_IRQHandler>

20001cfa <EXTI3_IRQHandler>:
20001cfa:	e7fe      	b.n	20001cfa <EXTI3_IRQHandler>

20001cfc <EXTI4_IRQHandler>:
20001cfc:	e7fe      	b.n	20001cfc <EXTI4_IRQHandler>

20001cfe <DMA1_Channel1_IRQHandler>:
20001cfe:	e7fe      	b.n	20001cfe <DMA1_Channel1_IRQHandler>

20001d00 <DMA1_Channel2_IRQHandler>:
20001d00:	e7fe      	b.n	20001d00 <DMA1_Channel2_IRQHandler>

20001d02 <DMA1_Channel3_IRQHandler>:
20001d02:	e7fe      	b.n	20001d02 <DMA1_Channel3_IRQHandler>

20001d04 <DMA1_Channel4_IRQHandler>:
20001d04:	e7fe      	b.n	20001d04 <DMA1_Channel4_IRQHandler>

20001d06 <DMA1_Channel5_IRQHandler>:
20001d06:	e7fe      	b.n	20001d06 <DMA1_Channel5_IRQHandler>

20001d08 <DMA1_Channel6_IRQHandler>:
20001d08:	e7fe      	b.n	20001d08 <DMA1_Channel6_IRQHandler>

20001d0a <DMA1_Channel7_IRQHandler>:
20001d0a:	e7fe      	b.n	20001d0a <DMA1_Channel7_IRQHandler>

20001d0c <ADC1_2_IRQHandler>:
20001d0c:	e7fe      	b.n	20001d0c <ADC1_2_IRQHandler>

20001d0e <USB_HP_CAN1_TX_IRQHandle>:
20001d0e:	e7fe      	b.n	20001d0e <USB_HP_CAN1_TX_IRQHandle>

20001d10 <USB_LP_CAN1_RX0_IRQHandler>:
20001d10:	e7fe      	b.n	20001d10 <USB_LP_CAN1_RX0_IRQHandler>

20001d12 <CAN1_RX1_IRQHandler>:
20001d12:	e7fe      	b.n	20001d12 <CAN1_RX1_IRQHandler>

20001d14 <CAN1_SCE_IRQHandler>:
20001d14:	e7fe      	b.n	20001d14 <CAN1_SCE_IRQHandler>

20001d16 <EXTI9_5_IRQHandler>:
20001d16:	e7fe      	b.n	20001d16 <EXTI9_5_IRQHandler>

20001d18 <TIM1_BRK_IRQHandler>:
20001d18:	e7fe      	b.n	20001d18 <TIM1_BRK_IRQHandler>

20001d1a <TIM1_UP_IRQHandler>:
20001d1a:	e7fe      	b.n	20001d1a <TIM1_UP_IRQHandler>

20001d1c <TIM1_TRG_COM_IRQHandler>:
20001d1c:	e7fe      	b.n	20001d1c <TIM1_TRG_COM_IRQHandler>

20001d1e <TIM1_CC_IRQHandler>:
20001d1e:	e7fe      	b.n	20001d1e <TIM1_CC_IRQHandler>

20001d20 <TIM2_IRQHandler>:
20001d20:	e7fe      	b.n	20001d20 <TIM2_IRQHandler>

20001d22 <TIM3_IRQHandler>:
20001d22:	e7fe      	b.n	20001d22 <TIM3_IRQHandler>

20001d24 <TIM4_IRQHandler>:
20001d24:	e7fe      	b.n	20001d24 <TIM4_IRQHandler>

20001d26 <I2C1_EV_IRQHandler>:
20001d26:	e7fe      	b.n	20001d26 <I2C1_EV_IRQHandler>

20001d28 <I2C1_ER_IRQHandler>:
20001d28:	e7fe      	b.n	20001d28 <I2C1_ER_IRQHandler>

20001d2a <I2C2_EV_IRQHandler>:
20001d2a:	e7fe      	b.n	20001d2a <I2C2_EV_IRQHandler>

20001d2c <I2C2_ER_IRQHandler>:
20001d2c:	e7fe      	b.n	20001d2c <I2C2_ER_IRQHandler>

20001d2e <SPI1_IRQHandler>:
20001d2e:	e7fe      	b.n	20001d2e <SPI1_IRQHandler>

20001d30 <SPI2_IRQHandler>:
20001d30:	e7fe      	b.n	20001d30 <SPI2_IRQHandler>

20001d32 <USART1_IRQHandler>:
20001d32:	e7fe      	b.n	20001d32 <USART1_IRQHandler>

20001d34 <USART2_IRQHandler>:
20001d34:	e7fe      	b.n	20001d34 <USART2_IRQHandler>

20001d36 <USART3_IRQHandler>:
20001d36:	e7fe      	b.n	20001d36 <USART3_IRQHandler>

20001d38 <EXTI15_10_IRQHandler>:
20001d38:	e7fe      	b.n	20001d38 <EXTI15_10_IRQHandler>

20001d3a <RTC_Alarm_IRQHandler>:
20001d3a:	e7fe      	b.n	20001d3a <RTC_Alarm_IRQHandler>

20001d3c <USBWakeUp_IRQHandler>:
20001d3c:	e7fe      	b.n	20001d3c <USBWakeUp_IRQHandler>

20001d3e <init>:
20001d3e:	4668      	mov	r0, sp
20001d40:	f020 0107 	bic.w	r1, r0, #7
20001d44:	468d      	mov	sp, r1
20001d46:	b501      	push	{r0, lr}
20001d48:	4a08      	ldr	r2, [pc, #32]	; (20001d6c <init+0x2e>)
20001d4a:	4b09      	ldr	r3, [pc, #36]	; (20001d70 <init+0x32>)
20001d4c:	429a      	cmp	r2, r3
20001d4e:	d004      	beq.n	20001d5a <init+0x1c>
20001d50:	2100      	movs	r1, #0
20001d52:	f803 1b01 	strb.w	r1, [r3], #1
20001d56:	4293      	cmp	r3, r2
20001d58:	d1fb      	bne.n	20001d52 <init+0x14>
20001d5a:	4a06      	ldr	r2, [pc, #24]	; (20001d74 <init+0x36>)
20001d5c:	4b06      	ldr	r3, [pc, #24]	; (20001d78 <init+0x3a>)
20001d5e:	609a      	str	r2, [r3, #8]
20001d60:	f7ff ffae 	bl	20001cc0 <main>
20001d64:	e8bd 4001 	ldmia.w	sp!, {r0, lr}
20001d68:	4685      	mov	sp, r0
20001d6a:	4770      	bx	lr
20001d6c:	20002120 	.word	0x20002120
20001d70:	20001d7c 	.word	0x20001d7c
20001d74:	20000000 	.word	0x20000000
20001d78:	e000ed00 	.word	0xe000ed00

Disassembly of section .bss:

20001d7c <elapsed_time>:
20001d7c:	00000000                                ....

20001d80 <results>:
	...
