
O1/raw.o:     file format elf32-littlearm


Disassembly of section .text:

00000000 <zero_reg>:
       0:	4b01      	ldr	r3, [pc, #4]	; (8 <zero_reg+0x8>)
       2:	2200      	movs	r2, #0
       4:	601a      	str	r2, [r3, #0]
       6:	4770      	bx	lr
       8:	20002484 	.word	0x20002484

0000000c <zero_array>:
       c:	4b01      	ldr	r3, [pc, #4]	; (14 <zero_array+0x8>)
       e:	2200      	movs	r2, #0
      10:	601a      	str	r2, [r3, #0]
      12:	4770      	bx	lr
      14:	200022ec 	.word	0x200022ec

00000018 <set_singl_bits_operator>:
      18:	4a02      	ldr	r2, [pc, #8]	; (24 <set_singl_bits_operator+0xc>)
      1a:	6813      	ldr	r3, [r2, #0]
      1c:	f043 0340 	orr.w	r3, r3, #64	; 0x40
      20:	6013      	str	r3, [r2, #0]
      22:	4770      	bx	lr
      24:	20002484 	.word	0x20002484

00000028 <set_singl_bits_method>:
      28:	4a02      	ldr	r2, [pc, #8]	; (34 <set_singl_bits_method+0xc>)
      2a:	6813      	ldr	r3, [r2, #0]
      2c:	f043 0340 	orr.w	r3, r3, #64	; 0x40
      30:	6013      	str	r3, [r2, #0]
      32:	4770      	bx	lr
      34:	20002484 	.word	0x20002484

00000038 <clr_singl_bits_operator>:
      38:	4a02      	ldr	r2, [pc, #8]	; (44 <clr_singl_bits_operator+0xc>)
      3a:	6813      	ldr	r3, [r2, #0]
      3c:	f023 0340 	bic.w	r3, r3, #64	; 0x40
      40:	6013      	str	r3, [r2, #0]
      42:	4770      	bx	lr
      44:	20002484 	.word	0x20002484

00000048 <clr_singl_bits_method>:
      48:	4a02      	ldr	r2, [pc, #8]	; (54 <clr_singl_bits_method+0xc>)
      4a:	6813      	ldr	r3, [r2, #0]
      4c:	f023 0340 	bic.w	r3, r3, #64	; 0x40
      50:	6013      	str	r3, [r2, #0]
      52:	4770      	bx	lr
      54:	20002484 	.word	0x20002484

00000058 <set_singl_mskd_operator>:
      58:	4a02      	ldr	r2, [pc, #8]	; (64 <set_singl_mskd_operator+0xc>)
      5a:	6813      	ldr	r3, [r2, #0]
      5c:	f043 0302 	orr.w	r3, r3, #2
      60:	6013      	str	r3, [r2, #0]
      62:	4770      	bx	lr
      64:	20002484 	.word	0x20002484

00000068 <set_singl_mskd_method>:
      68:	4a02      	ldr	r2, [pc, #8]	; (74 <set_singl_mskd_method+0xc>)
      6a:	6813      	ldr	r3, [r2, #0]
      6c:	f043 0302 	orr.w	r3, r3, #2
      70:	6013      	str	r3, [r2, #0]
      72:	4770      	bx	lr
      74:	20002484 	.word	0x20002484

00000078 <clr_singl_mskd_operator>:
      78:	4a02      	ldr	r2, [pc, #8]	; (84 <clr_singl_mskd_operator+0xc>)
      7a:	6813      	ldr	r3, [r2, #0]
      7c:	f023 0302 	bic.w	r3, r3, #2
      80:	6013      	str	r3, [r2, #0]
      82:	4770      	bx	lr
      84:	20002484 	.word	0x20002484

00000088 <clr_singl_mskd_method>:
      88:	4a02      	ldr	r2, [pc, #8]	; (94 <clr_singl_mskd_method+0xc>)
      8a:	6813      	ldr	r3, [r2, #0]
      8c:	f023 0302 	bic.w	r3, r3, #2
      90:	6013      	str	r3, [r2, #0]
      92:	4770      	bx	lr
      94:	20002484 	.word	0x20002484

00000098 <equ_singl_bits_operator>:
      98:	4b01      	ldr	r3, [pc, #4]	; (a0 <equ_singl_bits_operator+0x8>)
      9a:	2240      	movs	r2, #64	; 0x40
      9c:	601a      	str	r2, [r3, #0]
      9e:	4770      	bx	lr
      a0:	20002484 	.word	0x20002484

000000a4 <equ_singl_bits_method>:
      a4:	4b01      	ldr	r3, [pc, #4]	; (ac <equ_singl_bits_method+0x8>)
      a6:	2240      	movs	r2, #64	; 0x40
      a8:	601a      	str	r2, [r3, #0]
      aa:	4770      	bx	lr
      ac:	20002484 	.word	0x20002484

000000b0 <equ_singl_mskd_operator>:
      b0:	4b01      	ldr	r3, [pc, #4]	; (b8 <equ_singl_mskd_operator+0x8>)
      b2:	2202      	movs	r2, #2
      b4:	601a      	str	r2, [r3, #0]
      b6:	4770      	bx	lr
      b8:	20002484 	.word	0x20002484

000000bc <equ_singl_mskd_method>:
      bc:	4b01      	ldr	r3, [pc, #4]	; (c4 <equ_singl_mskd_method+0x8>)
      be:	2202      	movs	r2, #2
      c0:	601a      	str	r2, [r3, #0]
      c2:	4770      	bx	lr
      c4:	20002484 	.word	0x20002484

000000c8 <flp_singl_bits_operator>:
      c8:	4a02      	ldr	r2, [pc, #8]	; (d4 <flp_singl_bits_operator+0xc>)
      ca:	6813      	ldr	r3, [r2, #0]
      cc:	f083 0340 	eor.w	r3, r3, #64	; 0x40
      d0:	6013      	str	r3, [r2, #0]
      d2:	4770      	bx	lr
      d4:	20002484 	.word	0x20002484

000000d8 <flp_singl_bits_method>:
      d8:	4a02      	ldr	r2, [pc, #8]	; (e4 <flp_singl_bits_method+0xc>)
      da:	6813      	ldr	r3, [r2, #0]
      dc:	f083 0340 	eor.w	r3, r3, #64	; 0x40
      e0:	6013      	str	r3, [r2, #0]
      e2:	4770      	bx	lr
      e4:	20002484 	.word	0x20002484

000000e8 <flp_singl_mskd_operator>:
      e8:	4a02      	ldr	r2, [pc, #8]	; (f4 <flp_singl_mskd_operator+0xc>)
      ea:	6813      	ldr	r3, [r2, #0]
      ec:	f083 0302 	eor.w	r3, r3, #2
      f0:	6013      	str	r3, [r2, #0]
      f2:	4770      	bx	lr
      f4:	20002484 	.word	0x20002484

000000f8 <flp_singl_mskd_method>:
      f8:	4a02      	ldr	r2, [pc, #8]	; (104 <flp_singl_mskd_method+0xc>)
      fa:	6813      	ldr	r3, [r2, #0]
      fc:	f083 0302 	eor.w	r3, r3, #2
     100:	6013      	str	r3, [r2, #0]
     102:	4770      	bx	lr
     104:	20002484 	.word	0x20002484

00000108 <ins_singl_mskd_operator>:
     108:	4a03      	ldr	r2, [pc, #12]	; (118 <ins_singl_mskd_operator+0x10>)
     10a:	6813      	ldr	r3, [r2, #0]
     10c:	f023 0306 	bic.w	r3, r3, #6
     110:	f043 0304 	orr.w	r3, r3, #4
     114:	6013      	str	r3, [r2, #0]
     116:	4770      	bx	lr
     118:	20002484 	.word	0x20002484

0000011c <ins_singl_mskd_method>:
     11c:	4a03      	ldr	r2, [pc, #12]	; (12c <ins_singl_mskd_method+0x10>)
     11e:	6813      	ldr	r3, [r2, #0]
     120:	f023 0306 	bic.w	r3, r3, #6
     124:	f043 0304 	orr.w	r3, r3, #4
     128:	6013      	str	r3, [r2, #0]
     12a:	4770      	bx	lr
     12c:	20002484 	.word	0x20002484

00000130 <set_multi_bits_operator>:
     130:	4a02      	ldr	r2, [pc, #8]	; (13c <set_multi_bits_operator+0xc>)
     132:	6813      	ldr	r3, [r2, #0]
     134:	f043 0321 	orr.w	r3, r3, #33	; 0x21
     138:	6013      	str	r3, [r2, #0]
     13a:	4770      	bx	lr
     13c:	20002484 	.word	0x20002484

00000140 <set_multi_bits_method>:
     140:	4a02      	ldr	r2, [pc, #8]	; (14c <set_multi_bits_method+0xc>)
     142:	6813      	ldr	r3, [r2, #0]
     144:	f043 0321 	orr.w	r3, r3, #33	; 0x21
     148:	6013      	str	r3, [r2, #0]
     14a:	4770      	bx	lr
     14c:	20002484 	.word	0x20002484

00000150 <ins_multi_mskd_operator>:
     150:	4a04      	ldr	r2, [pc, #16]	; (164 <ins_multi_mskd_operator+0x14>)
     152:	6813      	ldr	r3, [r2, #0]
     154:	f423 6378 	bic.w	r3, r3, #3968	; 0xf80
     158:	f023 0306 	bic.w	r3, r3, #6
     15c:	f443 73c1 	orr.w	r3, r3, #386	; 0x182
     160:	6013      	str	r3, [r2, #0]
     162:	4770      	bx	lr
     164:	20002484 	.word	0x20002484

00000168 <ins_multi_mskd_method>:
     168:	4a04      	ldr	r2, [pc, #16]	; (17c <ins_multi_mskd_method+0x14>)
     16a:	6813      	ldr	r3, [r2, #0]
     16c:	f423 6378 	bic.w	r3, r3, #3968	; 0xf80
     170:	f023 0306 	bic.w	r3, r3, #6
     174:	f443 73c1 	orr.w	r3, r3, #386	; 0x182
     178:	6013      	str	r3, [r2, #0]
     17a:	4770      	bx	lr
     17c:	20002484 	.word	0x20002484

00000180 <equ_multi_bits_operator>:
     180:	4b01      	ldr	r3, [pc, #4]	; (188 <equ_multi_bits_operator+0x8>)
     182:	2260      	movs	r2, #96	; 0x60
     184:	601a      	str	r2, [r3, #0]
     186:	4770      	bx	lr
     188:	20002484 	.word	0x20002484

0000018c <equ_multi_bits_method>:
     18c:	4b01      	ldr	r3, [pc, #4]	; (194 <equ_multi_bits_method+0x8>)
     18e:	2260      	movs	r2, #96	; 0x60
     190:	601a      	str	r2, [r3, #0]
     192:	4770      	bx	lr
     194:	20002484 	.word	0x20002484

00000198 <equ_multi_mskd_operator>:
     198:	4b02      	ldr	r3, [pc, #8]	; (1a4 <equ_multi_mskd_operator+0xc>)
     19a:	f44f 7242 	mov.w	r2, #776	; 0x308
     19e:	601a      	str	r2, [r3, #0]
     1a0:	4770      	bx	lr
     1a2:	bf00      	nop
     1a4:	20002484 	.word	0x20002484

000001a8 <equ_multi_mskd_method>:
     1a8:	4b02      	ldr	r3, [pc, #8]	; (1b4 <equ_multi_mskd_method+0xc>)
     1aa:	f44f 7242 	mov.w	r2, #776	; 0x308
     1ae:	601a      	str	r2, [r3, #0]
     1b0:	4770      	bx	lr
     1b2:	bf00      	nop
     1b4:	20002484 	.word	0x20002484

000001b8 <equ_bits_mskd_operator>:
     1b8:	4b01      	ldr	r3, [pc, #4]	; (1c0 <equ_bits_mskd_operator+0x8>)
     1ba:	2222      	movs	r2, #34	; 0x22
     1bc:	601a      	str	r2, [r3, #0]
     1be:	4770      	bx	lr
     1c0:	20002484 	.word	0x20002484

000001c4 <equ_bits_mskd_method>:
     1c4:	4b01      	ldr	r3, [pc, #4]	; (1cc <equ_bits_mskd_method+0x8>)
     1c6:	2222      	movs	r2, #34	; 0x22
     1c8:	601a      	str	r2, [r3, #0]
     1ca:	4770      	bx	lr
     1cc:	20002484 	.word	0x20002484

000001d0 <equ_mskd_bits_operator>:
     1d0:	4b01      	ldr	r3, [pc, #4]	; (1d8 <equ_mskd_bits_operator+0x8>)
     1d2:	2244      	movs	r2, #68	; 0x44
     1d4:	601a      	str	r2, [r3, #0]
     1d6:	4770      	bx	lr
     1d8:	20002484 	.word	0x20002484

000001dc <equ_mskd_bits_method>:
     1dc:	4b01      	ldr	r3, [pc, #4]	; (1e4 <equ_mskd_bits_method+0x8>)
     1de:	2244      	movs	r2, #68	; 0x44
     1e0:	601a      	str	r2, [r3, #0]
     1e2:	4770      	bx	lr
     1e4:	20002484 	.word	0x20002484

000001e8 <equ_bits_var>:
     1e8:	4b02      	ldr	r3, [pc, #8]	; (1f4 <equ_bits_var+0xc>)
     1ea:	2240      	movs	r2, #64	; 0x40
     1ec:	601a      	str	r2, [r3, #0]
     1ee:	2201      	movs	r2, #1
     1f0:	601a      	str	r2, [r3, #0]
     1f2:	4770      	bx	lr
     1f4:	20002484 	.word	0x20002484

000001f8 <equ_mskd_var>:
     1f8:	4b03      	ldr	r3, [pc, #12]	; (208 <equ_mskd_var+0x10>)
     1fa:	2202      	movs	r2, #2
     1fc:	601a      	str	r2, [r3, #0]
     1fe:	f44f 72c0 	mov.w	r2, #384	; 0x180
     202:	601a      	str	r2, [r3, #0]
     204:	4770      	bx	lr
     206:	bf00      	nop
     208:	20002484 	.word	0x20002484

0000020c <cmp_equ_zero>:
     20c:	4b07      	ldr	r3, [pc, #28]	; (22c <cmp_equ_zero+0x20>)
     20e:	2200      	movs	r2, #0
     210:	601a      	str	r2, [r3, #0]
     212:	681b      	ldr	r3, [r3, #0]
     214:	b923      	cbnz	r3, 220 <cmp_equ_zero+0x14>
     216:	4b06      	ldr	r3, [pc, #24]	; (230 <cmp_equ_zero+0x24>)
     218:	f04f 5268 	mov.w	r2, #973078528	; 0x3a000000
     21c:	601a      	str	r2, [r3, #0]
     21e:	4770      	bx	lr
     220:	4b03      	ldr	r3, [pc, #12]	; (230 <cmp_equ_zero+0x24>)
     222:	f04f 5208 	mov.w	r2, #570425344	; 0x22000000
     226:	601a      	str	r2, [r3, #0]
     228:	4770      	bx	lr
     22a:	bf00      	nop
     22c:	20002484 	.word	0x20002484
     230:	200023e4 	.word	0x200023e4

00000234 <cmp_neq_zero>:
     234:	4b06      	ldr	r3, [pc, #24]	; (250 <cmp_neq_zero+0x1c>)
     236:	2200      	movs	r2, #0
     238:	601a      	str	r2, [r3, #0]
     23a:	681b      	ldr	r3, [r3, #0]
     23c:	b11b      	cbz	r3, 246 <cmp_neq_zero+0x12>
     23e:	4b04      	ldr	r3, [pc, #16]	; (250 <cmp_neq_zero+0x1c>)
     240:	2204      	movs	r2, #4
     242:	601a      	str	r2, [r3, #0]
     244:	4770      	bx	lr
     246:	4b02      	ldr	r3, [pc, #8]	; (250 <cmp_neq_zero+0x1c>)
     248:	2220      	movs	r2, #32
     24a:	601a      	str	r2, [r3, #0]
     24c:	4770      	bx	lr
     24e:	bf00      	nop
     250:	20002484 	.word	0x20002484

00000254 <cmp_equ_bits>:
     254:	4b06      	ldr	r3, [pc, #24]	; (270 <cmp_equ_bits+0x1c>)
     256:	2240      	movs	r2, #64	; 0x40
     258:	601a      	str	r2, [r3, #0]
     25a:	681b      	ldr	r3, [r3, #0]
     25c:	f013 0f40 	tst.w	r3, #64	; 0x40
     260:	4b04      	ldr	r3, [pc, #16]	; (274 <cmp_equ_bits+0x20>)
     262:	bf14      	ite	ne
     264:	f04f 52b0 	movne.w	r2, #369098752	; 0x16000000
     268:	f04f 52d0 	moveq.w	r2, #436207616	; 0x1a000000
     26c:	601a      	str	r2, [r3, #0]
     26e:	4770      	bx	lr
     270:	20002484 	.word	0x20002484
     274:	200023e4 	.word	0x200023e4

00000278 <cmp_neq_bits>:
     278:	4b05      	ldr	r3, [pc, #20]	; (290 <cmp_neq_bits+0x18>)
     27a:	2240      	movs	r2, #64	; 0x40
     27c:	601a      	str	r2, [r3, #0]
     27e:	681b      	ldr	r3, [r3, #0]
     280:	f013 0f40 	tst.w	r3, #64	; 0x40
     284:	4b02      	ldr	r3, [pc, #8]	; (290 <cmp_neq_bits+0x18>)
     286:	bf0c      	ite	eq
     288:	2202      	moveq	r2, #2
     28a:	2220      	movne	r2, #32
     28c:	601a      	str	r2, [r3, #0]
     28e:	4770      	bx	lr
     290:	20002484 	.word	0x20002484

00000294 <cmp_equ_multi_bits>:
     294:	4b06      	ldr	r3, [pc, #24]	; (2b0 <cmp_equ_multi_bits+0x1c>)
     296:	2260      	movs	r2, #96	; 0x60
     298:	601a      	str	r2, [r3, #0]
     29a:	681b      	ldr	r3, [r3, #0]
     29c:	4013      	ands	r3, r2
     29e:	4293      	cmp	r3, r2
     2a0:	4b04      	ldr	r3, [pc, #16]	; (2b4 <cmp_equ_multi_bits+0x20>)
     2a2:	bf0c      	ite	eq
     2a4:	f04f 5208 	moveq.w	r2, #570425344	; 0x22000000
     2a8:	f04f 5238 	movne.w	r2, #771751936	; 0x2e000000
     2ac:	601a      	str	r2, [r3, #0]
     2ae:	4770      	bx	lr
     2b0:	20002484 	.word	0x20002484
     2b4:	200023e4 	.word	0x200023e4

000002b8 <cmp_neq_multi_bits>:
     2b8:	4b06      	ldr	r3, [pc, #24]	; (2d4 <cmp_neq_multi_bits+0x1c>)
     2ba:	2260      	movs	r2, #96	; 0x60
     2bc:	601a      	str	r2, [r3, #0]
     2be:	681b      	ldr	r3, [r3, #0]
     2c0:	4013      	ands	r3, r2
     2c2:	4293      	cmp	r3, r2
     2c4:	4b04      	ldr	r3, [pc, #16]	; (2d8 <cmp_neq_multi_bits+0x20>)
     2c6:	bf14      	ite	ne
     2c8:	f04f 5268 	movne.w	r2, #973078528	; 0x3a000000
     2cc:	f04f 5278 	moveq.w	r2, #1040187392	; 0x3e000000
     2d0:	601a      	str	r2, [r3, #0]
     2d2:	4770      	bx	lr
     2d4:	20002484 	.word	0x20002484
     2d8:	200023e4 	.word	0x200023e4

000002dc <cmp_equ_mskd>:
     2dc:	4b09      	ldr	r3, [pc, #36]	; (304 <cmp_equ_mskd+0x28>)
     2de:	f44f 32e8 	mov.w	r2, #118784	; 0x1d000
     2e2:	601a      	str	r2, [r3, #0]
     2e4:	681b      	ldr	r3, [r3, #0]
     2e6:	f403 33f8 	and.w	r3, r3, #126976	; 0x1f000
     2ea:	f5b3 3f88 	cmp.w	r3, #69632	; 0x11000
     2ee:	4a06      	ldr	r2, [pc, #24]	; (308 <cmp_equ_mskd+0x2c>)
     2f0:	6813      	ldr	r3, [r2, #0]
     2f2:	f023 5378 	bic.w	r3, r3, #1040187392	; 0x3e000000
     2f6:	bf0c      	ite	eq
     2f8:	f043 6360 	orreq.w	r3, r3, #234881024	; 0xe000000
     2fc:	f043 5308 	orrne.w	r3, r3, #570425344	; 0x22000000
     300:	6013      	str	r3, [r2, #0]
     302:	4770      	bx	lr
     304:	20002484 	.word	0x20002484
     308:	200023e4 	.word	0x200023e4

0000030c <cmp_neq_mskd>:
     30c:	4b09      	ldr	r3, [pc, #36]	; (334 <cmp_neq_mskd+0x28>)
     30e:	f44f 32e8 	mov.w	r2, #118784	; 0x1d000
     312:	601a      	str	r2, [r3, #0]
     314:	681b      	ldr	r3, [r3, #0]
     316:	f403 33f8 	and.w	r3, r3, #126976	; 0x1f000
     31a:	f5b3 3f88 	cmp.w	r3, #69632	; 0x11000
     31e:	4a05      	ldr	r2, [pc, #20]	; (334 <cmp_neq_mskd+0x28>)
     320:	6813      	ldr	r3, [r2, #0]
     322:	bf1a      	itte	ne
     324:	f023 0306 	bicne.w	r3, r3, #6
     328:	f043 0304 	orrne.w	r3, r3, #4
     32c:	f043 0340 	orreq.w	r3, r3, #64	; 0x40
     330:	6013      	str	r3, [r2, #0]
     332:	4770      	bx	lr
     334:	20002484 	.word	0x20002484

00000338 <cmp_equ_reg>:
     338:	4b06      	ldr	r3, [pc, #24]	; (354 <cmp_equ_reg+0x1c>)
     33a:	2222      	movs	r2, #34	; 0x22
     33c:	601a      	str	r2, [r3, #0]
     33e:	681b      	ldr	r3, [r3, #0]
     340:	4293      	cmp	r3, r2
     342:	4b05      	ldr	r3, [pc, #20]	; (358 <cmp_equ_reg+0x20>)
     344:	bf0c      	ite	eq
     346:	f04f 5228 	moveq.w	r2, #704643072	; 0x2a000000
     34a:	f04f 5238 	movne.w	r2, #771751936	; 0x2e000000
     34e:	601a      	str	r2, [r3, #0]
     350:	4770      	bx	lr
     352:	bf00      	nop
     354:	20002484 	.word	0x20002484
     358:	200023e4 	.word	0x200023e4

0000035c <cmp_neq_reg>:
     35c:	4b05      	ldr	r3, [pc, #20]	; (374 <cmp_neq_reg+0x18>)
     35e:	2222      	movs	r2, #34	; 0x22
     360:	601a      	str	r2, [r3, #0]
     362:	681b      	ldr	r3, [r3, #0]
     364:	4293      	cmp	r3, r2
     366:	4b03      	ldr	r3, [pc, #12]	; (374 <cmp_neq_reg+0x18>)
     368:	bf14      	ite	ne
     36a:	2202      	movne	r2, #2
     36c:	2220      	moveq	r2, #32
     36e:	601a      	str	r2, [r3, #0]
     370:	4770      	bx	lr
     372:	bf00      	nop
     374:	20002484 	.word	0x20002484

00000378 <constexpr_bits_array>:
     378:	4b03      	ldr	r3, [pc, #12]	; (388 <constexpr_bits_array+0x10>)
     37a:	2206      	movs	r2, #6
     37c:	601a      	str	r2, [r3, #0]
     37e:	3374      	adds	r3, #116	; 0x74
     380:	f44f 5200 	mov.w	r2, #8192	; 0x2000
     384:	601a      	str	r2, [r3, #0]
     386:	4770      	bx	lr
     388:	200022ec 	.word	0x200022ec

0000038c <runtime_bits_array>:
     38c:	b081      	sub	sp, #4
     38e:	2303      	movs	r3, #3
     390:	9300      	str	r3, [sp, #0]
     392:	9a00      	ldr	r2, [sp, #0]
     394:	4b02      	ldr	r3, [pc, #8]	; (3a0 <runtime_bits_array+0x14>)
     396:	2121      	movs	r1, #33	; 0x21
     398:	f843 1022 	str.w	r1, [r3, r2, lsl #2]
     39c:	b001      	add	sp, #4
     39e:	4770      	bx	lr
     3a0:	200022e0 	.word	0x200022e0

000003a4 <prescaler_low>:
     3a4:	4b04      	ldr	r3, [pc, #16]	; (3b8 <prescaler_low+0x14>)
     3a6:	2277      	movs	r2, #119	; 0x77
     3a8:	601a      	str	r2, [r3, #0]
     3aa:	681b      	ldr	r3, [r3, #0]
     3ac:	f003 037f 	and.w	r3, r3, #127	; 0x7f
     3b0:	4a02      	ldr	r2, [pc, #8]	; (3bc <prescaler_low+0x18>)
     3b2:	6013      	str	r3, [r2, #0]
     3b4:	4770      	bx	lr
     3b6:	bf00      	nop
     3b8:	200023e4 	.word	0x200023e4
     3bc:	200022ec 	.word	0x200022ec

000003c0 <prescaler_high>:
     3c0:	4b04      	ldr	r3, [pc, #16]	; (3d4 <prescaler_high+0x14>)
     3c2:	f04f 5268 	mov.w	r2, #973078528	; 0x3a000000
     3c6:	601a      	str	r2, [r3, #0]
     3c8:	681b      	ldr	r3, [r3, #0]
     3ca:	f3c3 6344 	ubfx	r3, r3, #25, #5
     3ce:	4a02      	ldr	r2, [pc, #8]	; (3d8 <prescaler_high+0x18>)
     3d0:	6013      	str	r3, [r2, #0]
     3d2:	4770      	bx	lr
     3d4:	200023e4 	.word	0x200023e4
     3d8:	200022ec 	.word	0x200022ec

000003dc <reg_mskd_lss>:
     3dc:	4b07      	ldr	r3, [pc, #28]	; (3fc <reg_mskd_lss+0x20>)
     3de:	f04f 5258 	mov.w	r2, #905969664	; 0x36000000
     3e2:	601a      	str	r2, [r3, #0]
     3e4:	681b      	ldr	r3, [r3, #0]
     3e6:	f003 5378 	and.w	r3, r3, #1040187392	; 0x3e000000
     3ea:	f1b3 5f60 	cmp.w	r3, #939524096	; 0x38000000
     3ee:	4b04      	ldr	r3, [pc, #16]	; (400 <reg_mskd_lss+0x24>)
     3f0:	bf34      	ite	cc
     3f2:	2202      	movcc	r2, #2
     3f4:	2204      	movcs	r2, #4
     3f6:	601a      	str	r2, [r3, #0]
     3f8:	4770      	bx	lr
     3fa:	bf00      	nop
     3fc:	200023e4 	.word	0x200023e4
     400:	20002484 	.word	0x20002484

00000404 <reg_mskd_leq>:
     404:	4b0b      	ldr	r3, [pc, #44]	; (434 <reg_mskd_leq+0x30>)
     406:	f04f 5238 	mov.w	r2, #771751936	; 0x2e000000
     40a:	601a      	str	r2, [r3, #0]
     40c:	681b      	ldr	r3, [r3, #0]
     40e:	f003 5378 	and.w	r3, r3, #1040187392	; 0x3e000000
     412:	4293      	cmp	r3, r2
     414:	d80a      	bhi.n	42c <reg_mskd_leq+0x28>
     416:	4b07      	ldr	r3, [pc, #28]	; (434 <reg_mskd_leq+0x30>)
     418:	681b      	ldr	r3, [r3, #0]
     41a:	f003 5378 	and.w	r3, r3, #1040187392	; 0x3e000000
     41e:	f1b3 5f40 	cmp.w	r3, #805306368	; 0x30000000
     422:	d803      	bhi.n	42c <reg_mskd_leq+0x28>
     424:	4b04      	ldr	r3, [pc, #16]	; (438 <reg_mskd_leq+0x34>)
     426:	2202      	movs	r2, #2
     428:	601a      	str	r2, [r3, #0]
     42a:	4770      	bx	lr
     42c:	4b02      	ldr	r3, [pc, #8]	; (438 <reg_mskd_leq+0x34>)
     42e:	2204      	movs	r2, #4
     430:	601a      	str	r2, [r3, #0]
     432:	4770      	bx	lr
     434:	200023e4 	.word	0x200023e4
     438:	20002484 	.word	0x20002484

0000043c <reg_mskd_gtr>:
     43c:	4b07      	ldr	r3, [pc, #28]	; (45c <reg_mskd_gtr+0x20>)
     43e:	f04f 5218 	mov.w	r2, #637534208	; 0x26000000
     442:	601a      	str	r2, [r3, #0]
     444:	681b      	ldr	r3, [r3, #0]
     446:	f003 5378 	and.w	r3, r3, #1040187392	; 0x3e000000
     44a:	f1b3 5f10 	cmp.w	r3, #603979776	; 0x24000000
     44e:	4b04      	ldr	r3, [pc, #16]	; (460 <reg_mskd_gtr+0x24>)
     450:	bf8c      	ite	hi
     452:	2202      	movhi	r2, #2
     454:	2204      	movls	r2, #4
     456:	601a      	str	r2, [r3, #0]
     458:	4770      	bx	lr
     45a:	bf00      	nop
     45c:	200023e4 	.word	0x200023e4
     460:	20002484 	.word	0x20002484

00000464 <reg_mskd_geq>:
     464:	4b0b      	ldr	r3, [pc, #44]	; (494 <reg_mskd_geq+0x30>)
     466:	f04f 5208 	mov.w	r2, #570425344	; 0x22000000
     46a:	601a      	str	r2, [r3, #0]
     46c:	681b      	ldr	r3, [r3, #0]
     46e:	f003 5378 	and.w	r3, r3, #1040187392	; 0x3e000000
     472:	f1b3 5f00 	cmp.w	r3, #536870912	; 0x20000000
     476:	d309      	bcc.n	48c <reg_mskd_geq+0x28>
     478:	4b06      	ldr	r3, [pc, #24]	; (494 <reg_mskd_geq+0x30>)
     47a:	681b      	ldr	r3, [r3, #0]
     47c:	f003 5378 	and.w	r3, r3, #1040187392	; 0x3e000000
     480:	4293      	cmp	r3, r2
     482:	d303      	bcc.n	48c <reg_mskd_geq+0x28>
     484:	4b04      	ldr	r3, [pc, #16]	; (498 <reg_mskd_geq+0x34>)
     486:	2202      	movs	r2, #2
     488:	601a      	str	r2, [r3, #0]
     48a:	4770      	bx	lr
     48c:	4b02      	ldr	r3, [pc, #8]	; (498 <reg_mskd_geq+0x34>)
     48e:	2204      	movs	r2, #4
     490:	601a      	str	r2, [r3, #0]
     492:	4770      	bx	lr
     494:	200023e4 	.word	0x200023e4
     498:	20002484 	.word	0x20002484

0000049c <pos_cmp_eq>:
     49c:	4b01      	ldr	r3, [pc, #4]	; (4a4 <pos_cmp_eq+0x8>)
     49e:	2202      	movs	r2, #2
     4a0:	601a      	str	r2, [r3, #0]
     4a2:	4770      	bx	lr
     4a4:	20002484 	.word	0x20002484

000004a8 <pos_cmp_ne>:
     4a8:	4b01      	ldr	r3, [pc, #4]	; (4b0 <pos_cmp_ne+0x8>)
     4aa:	2202      	movs	r2, #2
     4ac:	601a      	str	r2, [r3, #0]
     4ae:	4770      	bx	lr
     4b0:	20002484 	.word	0x20002484

000004b4 <bits_extract_eq>:
     4b4:	4b05      	ldr	r3, [pc, #20]	; (4cc <bits_extract_eq+0x18>)
     4b6:	2240      	movs	r2, #64	; 0x40
     4b8:	601a      	str	r2, [r3, #0]
     4ba:	681b      	ldr	r3, [r3, #0]
     4bc:	4293      	cmp	r3, r2
     4be:	4b03      	ldr	r3, [pc, #12]	; (4cc <bits_extract_eq+0x18>)
     4c0:	bf0c      	ite	eq
     4c2:	2202      	moveq	r2, #2
     4c4:	2204      	movne	r2, #4
     4c6:	601a      	str	r2, [r3, #0]
     4c8:	4770      	bx	lr
     4ca:	bf00      	nop
     4cc:	20002484 	.word	0x20002484

000004d0 <mskd_extract_eq>:
     4d0:	4b06      	ldr	r3, [pc, #24]	; (4ec <mskd_extract_eq+0x1c>)
     4d2:	2202      	movs	r2, #2
     4d4:	601a      	str	r2, [r3, #0]
     4d6:	681b      	ldr	r3, [r3, #0]
     4d8:	f003 0306 	and.w	r3, r3, #6
     4dc:	4293      	cmp	r3, r2
     4de:	4b03      	ldr	r3, [pc, #12]	; (4ec <mskd_extract_eq+0x1c>)
     4e0:	bf0c      	ite	eq
     4e2:	2220      	moveq	r2, #32
     4e4:	2240      	movne	r2, #64	; 0x40
     4e6:	601a      	str	r2, [r3, #0]
     4e8:	4770      	bx	lr
     4ea:	bf00      	nop
     4ec:	20002484 	.word	0x20002484

000004f0 <mskd_extract_ne>:
     4f0:	4b06      	ldr	r3, [pc, #24]	; (50c <mskd_extract_ne+0x1c>)
     4f2:	2204      	movs	r2, #4
     4f4:	601a      	str	r2, [r3, #0]
     4f6:	681b      	ldr	r3, [r3, #0]
     4f8:	f003 0306 	and.w	r3, r3, #6
     4fc:	4293      	cmp	r3, r2
     4fe:	4b03      	ldr	r3, [pc, #12]	; (50c <mskd_extract_ne+0x1c>)
     500:	bf14      	ite	ne
     502:	2220      	movne	r2, #32
     504:	2240      	moveq	r2, #64	; 0x40
     506:	601a      	str	r2, [r3, #0]
     508:	4770      	bx	lr
     50a:	bf00      	nop
     50c:	20002484 	.word	0x20002484

00000510 <mskd_extract_lss>:
     510:	4b07      	ldr	r3, [pc, #28]	; (530 <mskd_extract_lss+0x20>)
     512:	f04f 52b0 	mov.w	r2, #369098752	; 0x16000000
     516:	601a      	str	r2, [r3, #0]
     518:	681b      	ldr	r3, [r3, #0]
     51a:	f003 5378 	and.w	r3, r3, #1040187392	; 0x3e000000
     51e:	f1b3 5fc0 	cmp.w	r3, #402653184	; 0x18000000
     522:	4b04      	ldr	r3, [pc, #16]	; (534 <mskd_extract_lss+0x24>)
     524:	bf34      	ite	cc
     526:	2220      	movcc	r2, #32
     528:	2240      	movcs	r2, #64	; 0x40
     52a:	601a      	str	r2, [r3, #0]
     52c:	4770      	bx	lr
     52e:	bf00      	nop
     530:	200023e4 	.word	0x200023e4
     534:	20002484 	.word	0x20002484

00000538 <mskd_extract_leq>:
     538:	4b06      	ldr	r3, [pc, #24]	; (554 <mskd_extract_leq+0x1c>)
     53a:	f04f 5238 	mov.w	r2, #771751936	; 0x2e000000
     53e:	601a      	str	r2, [r3, #0]
     540:	681b      	ldr	r3, [r3, #0]
     542:	f003 5378 	and.w	r3, r3, #1040187392	; 0x3e000000
     546:	4293      	cmp	r3, r2
     548:	4b03      	ldr	r3, [pc, #12]	; (558 <mskd_extract_leq+0x20>)
     54a:	bf94      	ite	ls
     54c:	2220      	movls	r2, #32
     54e:	2240      	movhi	r2, #64	; 0x40
     550:	601a      	str	r2, [r3, #0]
     552:	4770      	bx	lr
     554:	200023e4 	.word	0x200023e4
     558:	20002484 	.word	0x20002484

0000055c <mskd_extract_gtr>:
     55c:	4b07      	ldr	r3, [pc, #28]	; (57c <mskd_extract_gtr+0x20>)
     55e:	f04f 5218 	mov.w	r2, #637534208	; 0x26000000
     562:	601a      	str	r2, [r3, #0]
     564:	681b      	ldr	r3, [r3, #0]
     566:	f003 5378 	and.w	r3, r3, #1040187392	; 0x3e000000
     56a:	f1b3 5f10 	cmp.w	r3, #603979776	; 0x24000000
     56e:	4b04      	ldr	r3, [pc, #16]	; (580 <mskd_extract_gtr+0x24>)
     570:	bf8c      	ite	hi
     572:	2220      	movhi	r2, #32
     574:	2240      	movls	r2, #64	; 0x40
     576:	601a      	str	r2, [r3, #0]
     578:	4770      	bx	lr
     57a:	bf00      	nop
     57c:	200023e4 	.word	0x200023e4
     580:	20002484 	.word	0x20002484

00000584 <set_bits_global>:
     584:	4a02      	ldr	r2, [pc, #8]	; (590 <set_bits_global+0xc>)
     586:	6813      	ldr	r3, [r2, #0]
     588:	f043 0340 	orr.w	r3, r3, #64	; 0x40
     58c:	6013      	str	r3, [r2, #0]
     58e:	4770      	bx	lr
     590:	20002484 	.word	0x20002484

00000594 <ins_mskd_global>:
     594:	4a03      	ldr	r2, [pc, #12]	; (5a4 <ins_mskd_global+0x10>)
     596:	6813      	ldr	r3, [r2, #0]
     598:	f023 0306 	bic.w	r3, r3, #6
     59c:	f043 0302 	orr.w	r3, r3, #2
     5a0:	6013      	str	r3, [r2, #0]
     5a2:	4770      	bx	lr
     5a4:	20002484 	.word	0x20002484

000005a8 <assign_array_global>:
     5a8:	4b01      	ldr	r3, [pc, #4]	; (5b0 <assign_array_global+0x8>)
     5aa:	22bd      	movs	r2, #189	; 0xbd
     5ac:	601a      	str	r2, [r3, #0]
     5ae:	4770      	bx	lr
     5b0:	200022ec 	.word	0x200022ec

000005b4 <shifted_global>:
     5b4:	4b04      	ldr	r3, [pc, #16]	; (5c8 <shifted_global+0x14>)
     5b6:	f04f 5238 	mov.w	r2, #771751936	; 0x2e000000
     5ba:	601a      	str	r2, [r3, #0]
     5bc:	681b      	ldr	r3, [r3, #0]
     5be:	f3c3 6344 	ubfx	r3, r3, #25, #5
     5c2:	4a02      	ldr	r2, [pc, #8]	; (5cc <shifted_global+0x18>)
     5c4:	6013      	str	r3, [r2, #0]
     5c6:	4770      	bx	lr
     5c8:	200023e4 	.word	0x200023e4
     5cc:	200022ec 	.word	0x200022ec

000005d0 <assign_register_global>:
     5d0:	4b01      	ldr	r3, [pc, #4]	; (5d8 <assign_register_global+0x8>)
     5d2:	2204      	movs	r2, #4
     5d4:	601a      	str	r2, [r3, #0]
     5d6:	4770      	bx	lr
     5d8:	20002484 	.word	0x20002484

000005dc <copy_bits_equ>:
     5dc:	4b05      	ldr	r3, [pc, #20]	; (5f4 <copy_bits_equ+0x18>)
     5de:	2240      	movs	r2, #64	; 0x40
     5e0:	601a      	str	r2, [r3, #0]
     5e2:	681b      	ldr	r3, [r3, #0]
     5e4:	f013 0f40 	tst.w	r3, #64	; 0x40
     5e8:	4b02      	ldr	r3, [pc, #8]	; (5f4 <copy_bits_equ+0x18>)
     5ea:	bf14      	ite	ne
     5ec:	2202      	movne	r2, #2
     5ee:	2204      	moveq	r2, #4
     5f0:	601a      	str	r2, [r3, #0]
     5f2:	4770      	bx	lr
     5f4:	20002484 	.word	0x20002484

000005f8 <copy_bits_neq>:
     5f8:	4b05      	ldr	r3, [pc, #20]	; (610 <copy_bits_neq+0x18>)
     5fa:	2240      	movs	r2, #64	; 0x40
     5fc:	601a      	str	r2, [r3, #0]
     5fe:	681b      	ldr	r3, [r3, #0]
     600:	f013 0f40 	tst.w	r3, #64	; 0x40
     604:	4b02      	ldr	r3, [pc, #8]	; (610 <copy_bits_neq+0x18>)
     606:	bf0c      	ite	eq
     608:	2202      	moveq	r2, #2
     60a:	2204      	movne	r2, #4
     60c:	601a      	str	r2, [r3, #0]
     60e:	4770      	bx	lr
     610:	20002484 	.word	0x20002484

00000614 <copy_mskd_equ>:
     614:	4b06      	ldr	r3, [pc, #24]	; (630 <copy_mskd_equ+0x1c>)
     616:	f04f 52b0 	mov.w	r2, #369098752	; 0x16000000
     61a:	601a      	str	r2, [r3, #0]
     61c:	681b      	ldr	r3, [r3, #0]
     61e:	f003 5378 	and.w	r3, r3, #1040187392	; 0x3e000000
     622:	4293      	cmp	r3, r2
     624:	4b03      	ldr	r3, [pc, #12]	; (634 <copy_mskd_equ+0x20>)
     626:	bf0c      	ite	eq
     628:	2202      	moveq	r2, #2
     62a:	2204      	movne	r2, #4
     62c:	601a      	str	r2, [r3, #0]
     62e:	4770      	bx	lr
     630:	200023e4 	.word	0x200023e4
     634:	20002484 	.word	0x20002484

00000638 <copy_mskd_neq>:
     638:	4b06      	ldr	r3, [pc, #24]	; (654 <copy_mskd_neq+0x1c>)
     63a:	f04f 52b0 	mov.w	r2, #369098752	; 0x16000000
     63e:	601a      	str	r2, [r3, #0]
     640:	681b      	ldr	r3, [r3, #0]
     642:	f003 5378 	and.w	r3, r3, #1040187392	; 0x3e000000
     646:	4293      	cmp	r3, r2
     648:	4b03      	ldr	r3, [pc, #12]	; (658 <copy_mskd_neq+0x20>)
     64a:	bf14      	ite	ne
     64c:	2202      	movne	r2, #2
     64e:	2204      	moveq	r2, #4
     650:	601a      	str	r2, [r3, #0]
     652:	4770      	bx	lr
     654:	200023e4 	.word	0x200023e4
     658:	20002484 	.word	0x20002484

0000065c <copy_mskd_lss>:
     65c:	4b07      	ldr	r3, [pc, #28]	; (67c <copy_mskd_lss+0x20>)
     65e:	f04f 5258 	mov.w	r2, #905969664	; 0x36000000
     662:	601a      	str	r2, [r3, #0]
     664:	681b      	ldr	r3, [r3, #0]
     666:	f003 5378 	and.w	r3, r3, #1040187392	; 0x3e000000
     66a:	f1b3 5f60 	cmp.w	r3, #939524096	; 0x38000000
     66e:	4b04      	ldr	r3, [pc, #16]	; (680 <copy_mskd_lss+0x24>)
     670:	bf34      	ite	cc
     672:	2202      	movcc	r2, #2
     674:	2204      	movcs	r2, #4
     676:	601a      	str	r2, [r3, #0]
     678:	4770      	bx	lr
     67a:	bf00      	nop
     67c:	200023e4 	.word	0x200023e4
     680:	20002484 	.word	0x20002484

00000684 <copy_mskd_leq>:
     684:	4b06      	ldr	r3, [pc, #24]	; (6a0 <copy_mskd_leq+0x1c>)
     686:	f04f 5238 	mov.w	r2, #771751936	; 0x2e000000
     68a:	601a      	str	r2, [r3, #0]
     68c:	681b      	ldr	r3, [r3, #0]
     68e:	f003 5378 	and.w	r3, r3, #1040187392	; 0x3e000000
     692:	4293      	cmp	r3, r2
     694:	4b03      	ldr	r3, [pc, #12]	; (6a4 <copy_mskd_leq+0x20>)
     696:	bf94      	ite	ls
     698:	2202      	movls	r2, #2
     69a:	2204      	movhi	r2, #4
     69c:	601a      	str	r2, [r3, #0]
     69e:	4770      	bx	lr
     6a0:	200023e4 	.word	0x200023e4
     6a4:	20002484 	.word	0x20002484

000006a8 <copy_mskd_gtr>:
     6a8:	4b07      	ldr	r3, [pc, #28]	; (6c8 <copy_mskd_gtr+0x20>)
     6aa:	f04f 5218 	mov.w	r2, #637534208	; 0x26000000
     6ae:	601a      	str	r2, [r3, #0]
     6b0:	681b      	ldr	r3, [r3, #0]
     6b2:	f003 5378 	and.w	r3, r3, #1040187392	; 0x3e000000
     6b6:	f1b3 5f10 	cmp.w	r3, #603979776	; 0x24000000
     6ba:	4b04      	ldr	r3, [pc, #16]	; (6cc <copy_mskd_gtr+0x24>)
     6bc:	bf8c      	ite	hi
     6be:	2202      	movhi	r2, #2
     6c0:	2204      	movls	r2, #4
     6c2:	601a      	str	r2, [r3, #0]
     6c4:	4770      	bx	lr
     6c6:	bf00      	nop
     6c8:	200023e4 	.word	0x200023e4
     6cc:	20002484 	.word	0x20002484

000006d0 <copy_mskd_geq>:
     6d0:	4b06      	ldr	r3, [pc, #24]	; (6ec <copy_mskd_geq+0x1c>)
     6d2:	f04f 5208 	mov.w	r2, #570425344	; 0x22000000
     6d6:	601a      	str	r2, [r3, #0]
     6d8:	681b      	ldr	r3, [r3, #0]
     6da:	f003 5378 	and.w	r3, r3, #1040187392	; 0x3e000000
     6de:	4293      	cmp	r3, r2
     6e0:	4b03      	ldr	r3, [pc, #12]	; (6f0 <copy_mskd_geq+0x20>)
     6e2:	bf2c      	ite	cs
     6e4:	2202      	movcs	r2, #2
     6e6:	2204      	movcc	r2, #4
     6e8:	601a      	str	r2, [r3, #0]
     6ea:	4770      	bx	lr
     6ec:	200023e4 	.word	0x200023e4
     6f0:	20002484 	.word	0x20002484

000006f4 <copy_shifted>:
     6f4:	4b06      	ldr	r3, [pc, #24]	; (710 <copy_shifted+0x1c>)
     6f6:	f04f 52b0 	mov.w	r2, #369098752	; 0x16000000
     6fa:	601a      	str	r2, [r3, #0]
     6fc:	681b      	ldr	r3, [r3, #0]
     6fe:	f3c3 6344 	ubfx	r3, r3, #25, #5
     702:	2b0b      	cmp	r3, #11
     704:	4b03      	ldr	r3, [pc, #12]	; (714 <copy_shifted+0x20>)
     706:	bf0c      	ite	eq
     708:	2202      	moveq	r2, #2
     70a:	2204      	movne	r2, #4
     70c:	601a      	str	r2, [r3, #0]
     70e:	4770      	bx	lr
     710:	200023e4 	.word	0x200023e4
     714:	20002484 	.word	0x20002484

00000718 <bits_val>:
     718:	4b01      	ldr	r3, [pc, #4]	; (720 <bits_val+0x8>)
     71a:	6018      	str	r0, [r3, #0]
     71c:	4770      	bx	lr
     71e:	bf00      	nop
     720:	20002484 	.word	0x20002484

00000724 <call_bits_val_const>:
     724:	b500      	push	{lr}
     726:	2040      	movs	r0, #64	; 0x40
     728:	f7ff fffe 	bl	718 <bits_val>
     72c:	f85d fb04 	ldr.w	pc, [sp], #4

00000730 <call_bits_val_var>:
     730:	b500      	push	{lr}
     732:	2040      	movs	r0, #64	; 0x40
     734:	f7ff fffe 	bl	718 <bits_val>
     738:	f85d fb04 	ldr.w	pc, [sp], #4

0000073c <call_bits_val_zero>:
     73c:	b500      	push	{lr}
     73e:	2000      	movs	r0, #0
     740:	f7ff fffe 	bl	718 <bits_val>
     744:	f85d fb04 	ldr.w	pc, [sp], #4

00000748 <call_bits_val_global>:
     748:	b500      	push	{lr}
     74a:	2040      	movs	r0, #64	; 0x40
     74c:	f7ff fffe 	bl	718 <bits_val>
     750:	f85d fb04 	ldr.w	pc, [sp], #4

00000754 <bits_ref>:
     754:	6802      	ldr	r2, [r0, #0]
     756:	4b01      	ldr	r3, [pc, #4]	; (75c <bits_ref+0x8>)
     758:	601a      	str	r2, [r3, #0]
     75a:	4770      	bx	lr
     75c:	20002484 	.word	0x20002484

00000760 <call_bits_ref_const>:
     760:	b500      	push	{lr}
     762:	b081      	sub	sp, #4
     764:	2301      	movs	r3, #1
     766:	9300      	str	r3, [sp, #0]
     768:	4668      	mov	r0, sp
     76a:	f7ff fffe 	bl	754 <bits_ref>
     76e:	b001      	add	sp, #4
     770:	f85d fb04 	ldr.w	pc, [sp], #4

00000774 <call_bits_ref_var>:
     774:	b500      	push	{lr}
     776:	b081      	sub	sp, #4
     778:	2301      	movs	r3, #1
     77a:	9300      	str	r3, [sp, #0]
     77c:	4668      	mov	r0, sp
     77e:	f7ff fffe 	bl	754 <bits_ref>
     782:	b001      	add	sp, #4
     784:	f85d fb04 	ldr.w	pc, [sp], #4

00000788 <call_bits_ref_zero>:
     788:	b500      	push	{lr}
     78a:	b081      	sub	sp, #4
     78c:	2300      	movs	r3, #0
     78e:	9300      	str	r3, [sp, #0]
     790:	4668      	mov	r0, sp
     792:	f7ff fffe 	bl	754 <bits_ref>
     796:	b001      	add	sp, #4
     798:	f85d fb04 	ldr.w	pc, [sp], #4

0000079c <call_bits_ref_global>:
     79c:	b500      	push	{lr}
     79e:	b081      	sub	sp, #4
     7a0:	2340      	movs	r3, #64	; 0x40
     7a2:	9300      	str	r3, [sp, #0]
     7a4:	4668      	mov	r0, sp
     7a6:	f7ff fffe 	bl	754 <bits_ref>
     7aa:	b001      	add	sp, #4
     7ac:	f85d fb04 	ldr.w	pc, [sp], #4

000007b0 <mskd_val>:
     7b0:	4a03      	ldr	r2, [pc, #12]	; (7c0 <mskd_val+0x10>)
     7b2:	6813      	ldr	r3, [r2, #0]
     7b4:	ea23 0000 	bic.w	r0, r3, r0
     7b8:	4308      	orrs	r0, r1
     7ba:	6010      	str	r0, [r2, #0]
     7bc:	4770      	bx	lr
     7be:	bf00      	nop
     7c0:	20002484 	.word	0x20002484

000007c4 <call_mskd_val_const>:
     7c4:	b500      	push	{lr}
     7c6:	2102      	movs	r1, #2
     7c8:	2006      	movs	r0, #6
     7ca:	f7ff fffe 	bl	7b0 <mskd_val>
     7ce:	2102      	movs	r1, #2
     7d0:	2006      	movs	r0, #6
     7d2:	f7ff fffe 	bl	7b0 <mskd_val>
     7d6:	f85d fb04 	ldr.w	pc, [sp], #4

000007da <call_mskd_val_var>:
     7da:	b500      	push	{lr}
     7dc:	2102      	movs	r1, #2
     7de:	2006      	movs	r0, #6
     7e0:	f7ff fffe 	bl	7b0 <mskd_val>
     7e4:	2102      	movs	r1, #2
     7e6:	2006      	movs	r0, #6
     7e8:	f7ff fffe 	bl	7b0 <mskd_val>
     7ec:	f85d fb04 	ldr.w	pc, [sp], #4

000007f0 <call_mskd_val_global>:
     7f0:	b500      	push	{lr}
     7f2:	2102      	movs	r1, #2
     7f4:	2006      	movs	r0, #6
     7f6:	f7ff fffe 	bl	7b0 <mskd_val>
     7fa:	f85d fb04 	ldr.w	pc, [sp], #4

000007fe <mskd_ref>:
     7fe:	4a04      	ldr	r2, [pc, #16]	; (810 <mskd_ref+0x12>)
     800:	6813      	ldr	r3, [r2, #0]
     802:	6801      	ldr	r1, [r0, #0]
     804:	ea23 0301 	bic.w	r3, r3, r1
     808:	6841      	ldr	r1, [r0, #4]
     80a:	430b      	orrs	r3, r1
     80c:	6013      	str	r3, [r2, #0]
     80e:	4770      	bx	lr
     810:	20002484 	.word	0x20002484

00000814 <call_mskd_ref_const>:
     814:	b500      	push	{lr}
     816:	b082      	sub	sp, #8
     818:	4b04      	ldr	r3, [pc, #16]	; (82c <call_mskd_ref_const+0x18>)
     81a:	cb0c      	ldmia	r3, {r2, r3}
     81c:	e88d 000c 	stmia.w	sp, {r2, r3}
     820:	4668      	mov	r0, sp
     822:	f7ff fffe 	bl	7fe <mskd_ref>
     826:	b002      	add	sp, #8
     828:	f85d fb04 	ldr.w	pc, [sp], #4
     82c:	00000000 	.word	0x00000000

00000830 <call_mskd_ref_var>:
     830:	b500      	push	{lr}
     832:	b082      	sub	sp, #8
     834:	4b05      	ldr	r3, [pc, #20]	; (84c <call_mskd_ref_var+0x1c>)
     836:	f103 0308 	add.w	r3, r3, #8
     83a:	cb0c      	ldmia	r3, {r2, r3}
     83c:	e88d 000c 	stmia.w	sp, {r2, r3}
     840:	4668      	mov	r0, sp
     842:	f7ff fffe 	bl	7fe <mskd_ref>
     846:	b002      	add	sp, #8
     848:	f85d fb04 	ldr.w	pc, [sp], #4
     84c:	00000000 	.word	0x00000000

00000850 <call_mskd_ref_global>:
     850:	b500      	push	{lr}
     852:	b082      	sub	sp, #8
     854:	4b05      	ldr	r3, [pc, #20]	; (86c <call_mskd_ref_global+0x1c>)
     856:	f103 0308 	add.w	r3, r3, #8
     85a:	cb0c      	ldmia	r3, {r2, r3}
     85c:	e88d 000c 	stmia.w	sp, {r2, r3}
     860:	4668      	mov	r0, sp
     862:	f7ff fffe 	bl	7fe <mskd_ref>
     866:	b002      	add	sp, #8
     868:	f85d fb04 	ldr.w	pc, [sp], #4
     86c:	00000000 	.word	0x00000000

00000870 <periph_bits>:
     870:	6843      	ldr	r3, [r0, #4]
     872:	f043 0340 	orr.w	r3, r3, #64	; 0x40
     876:	6043      	str	r3, [r0, #4]
     878:	4770      	bx	lr

0000087a <call_periph_bits>:
     87a:	b500      	push	{lr}
     87c:	4802      	ldr	r0, [pc, #8]	; (888 <call_periph_bits+0xe>)
     87e:	f7ff fffe 	bl	870 <periph_bits>
     882:	f85d fb04 	ldr.w	pc, [sp], #4
     886:	bf00      	nop
     888:	20002480 	.word	0x20002480

0000088c <periph_bits_val>:
     88c:	6843      	ldr	r3, [r0, #4]
     88e:	4319      	orrs	r1, r3
     890:	6041      	str	r1, [r0, #4]
     892:	4770      	bx	lr

00000894 <call_periph_bits_val>:
     894:	b500      	push	{lr}
     896:	2140      	movs	r1, #64	; 0x40
     898:	4802      	ldr	r0, [pc, #8]	; (8a4 <call_periph_bits_val+0x10>)
     89a:	f7ff fffe 	bl	88c <periph_bits_val>
     89e:	f85d fb04 	ldr.w	pc, [sp], #4
     8a2:	bf00      	nop
     8a4:	20002480 	.word	0x20002480

000008a8 <reg_bits_val>:
     8a8:	6803      	ldr	r3, [r0, #0]
     8aa:	4319      	orrs	r1, r3
     8ac:	6001      	str	r1, [r0, #0]
     8ae:	4770      	bx	lr

000008b0 <call_reg_bits_val>:
     8b0:	b500      	push	{lr}
     8b2:	2140      	movs	r1, #64	; 0x40
     8b4:	4802      	ldr	r0, [pc, #8]	; (8c0 <call_reg_bits_val+0x10>)
     8b6:	f7ff fffe 	bl	8a8 <reg_bits_val>
     8ba:	f85d fb04 	ldr.w	pc, [sp], #4
     8be:	bf00      	nop
     8c0:	20002484 	.word	0x20002484

000008c4 <periph_bits_ref>:
     8c4:	6843      	ldr	r3, [r0, #4]
     8c6:	680a      	ldr	r2, [r1, #0]
     8c8:	4313      	orrs	r3, r2
     8ca:	6043      	str	r3, [r0, #4]
     8cc:	4770      	bx	lr

000008ce <call_periph_bits_ref>:
     8ce:	b500      	push	{lr}
     8d0:	b081      	sub	sp, #4
     8d2:	2340      	movs	r3, #64	; 0x40
     8d4:	9300      	str	r3, [sp, #0]
     8d6:	4669      	mov	r1, sp
     8d8:	4802      	ldr	r0, [pc, #8]	; (8e4 <call_periph_bits_ref+0x16>)
     8da:	f7ff fffe 	bl	8c4 <periph_bits_ref>
     8de:	b001      	add	sp, #4
     8e0:	f85d fb04 	ldr.w	pc, [sp], #4
     8e4:	20002480 	.word	0x20002480

000008e8 <reg_bits_ref>:
     8e8:	6803      	ldr	r3, [r0, #0]
     8ea:	680a      	ldr	r2, [r1, #0]
     8ec:	4313      	orrs	r3, r2
     8ee:	6003      	str	r3, [r0, #0]
     8f0:	4770      	bx	lr

000008f2 <call_reg_bits_ref>:
     8f2:	b500      	push	{lr}
     8f4:	b081      	sub	sp, #4
     8f6:	2340      	movs	r3, #64	; 0x40
     8f8:	9300      	str	r3, [sp, #0]
     8fa:	4669      	mov	r1, sp
     8fc:	4802      	ldr	r0, [pc, #8]	; (908 <call_reg_bits_ref+0x16>)
     8fe:	f7ff fffe 	bl	8e8 <reg_bits_ref>
     902:	b001      	add	sp, #4
     904:	f85d fb04 	ldr.w	pc, [sp], #4
     908:	20002484 	.word	0x20002484

0000090c <periph_mskd>:
     90c:	6843      	ldr	r3, [r0, #4]
     90e:	f023 0306 	bic.w	r3, r3, #6
     912:	f043 0302 	orr.w	r3, r3, #2
     916:	6043      	str	r3, [r0, #4]
     918:	4770      	bx	lr

0000091a <call_periph_mskd>:
     91a:	b500      	push	{lr}
     91c:	4802      	ldr	r0, [pc, #8]	; (928 <call_periph_mskd+0xe>)
     91e:	f7ff fffe 	bl	90c <periph_mskd>
     922:	f85d fb04 	ldr.w	pc, [sp], #4
     926:	bf00      	nop
     928:	20002480 	.word	0x20002480

0000092c <periph_mskd_val>:
     92c:	6843      	ldr	r3, [r0, #4]
     92e:	ea23 0101 	bic.w	r1, r3, r1
     932:	4311      	orrs	r1, r2
     934:	6041      	str	r1, [r0, #4]
     936:	4770      	bx	lr

00000938 <call_periph_mskd_val>:
     938:	b500      	push	{lr}
     93a:	2202      	movs	r2, #2
     93c:	2106      	movs	r1, #6
     93e:	4802      	ldr	r0, [pc, #8]	; (948 <call_periph_mskd_val+0x10>)
     940:	f7ff fffe 	bl	92c <periph_mskd_val>
     944:	f85d fb04 	ldr.w	pc, [sp], #4
     948:	20002480 	.word	0x20002480

0000094c <reg_mskd_val>:
     94c:	6803      	ldr	r3, [r0, #0]
     94e:	ea23 0101 	bic.w	r1, r3, r1
     952:	4311      	orrs	r1, r2
     954:	6001      	str	r1, [r0, #0]
     956:	4770      	bx	lr

00000958 <call_reg_mskd_val>:
     958:	b500      	push	{lr}
     95a:	2202      	movs	r2, #2
     95c:	2106      	movs	r1, #6
     95e:	4802      	ldr	r0, [pc, #8]	; (968 <call_reg_mskd_val+0x10>)
     960:	f7ff fffe 	bl	94c <reg_mskd_val>
     964:	f85d fb04 	ldr.w	pc, [sp], #4
     968:	20002484 	.word	0x20002484

0000096c <periph_mskd_ref>:
     96c:	6843      	ldr	r3, [r0, #4]
     96e:	680a      	ldr	r2, [r1, #0]
     970:	ea23 0302 	bic.w	r3, r3, r2
     974:	684a      	ldr	r2, [r1, #4]
     976:	4313      	orrs	r3, r2
     978:	6043      	str	r3, [r0, #4]
     97a:	4770      	bx	lr

0000097c <call_periph_mskd_ref>:
     97c:	b500      	push	{lr}
     97e:	b082      	sub	sp, #8
     980:	4b06      	ldr	r3, [pc, #24]	; (99c <call_periph_mskd_ref+0x20>)
     982:	f103 0308 	add.w	r3, r3, #8
     986:	cb0c      	ldmia	r3, {r2, r3}
     988:	e88d 000c 	stmia.w	sp, {r2, r3}
     98c:	4669      	mov	r1, sp
     98e:	4804      	ldr	r0, [pc, #16]	; (9a0 <call_periph_mskd_ref+0x24>)
     990:	f7ff fffe 	bl	96c <periph_mskd_ref>
     994:	b002      	add	sp, #8
     996:	f85d fb04 	ldr.w	pc, [sp], #4
     99a:	bf00      	nop
     99c:	00000000 	.word	0x00000000
     9a0:	20002480 	.word	0x20002480

000009a4 <reg_mskd_ref>:
     9a4:	6803      	ldr	r3, [r0, #0]
     9a6:	680a      	ldr	r2, [r1, #0]
     9a8:	ea23 0302 	bic.w	r3, r3, r2
     9ac:	684a      	ldr	r2, [r1, #4]
     9ae:	4313      	orrs	r3, r2
     9b0:	6003      	str	r3, [r0, #0]
     9b2:	4770      	bx	lr

000009b4 <call_reg_mskd_ref>:
     9b4:	b500      	push	{lr}
     9b6:	b082      	sub	sp, #8
     9b8:	4b06      	ldr	r3, [pc, #24]	; (9d4 <call_reg_mskd_ref+0x20>)
     9ba:	f103 0308 	add.w	r3, r3, #8
     9be:	cb0c      	ldmia	r3, {r2, r3}
     9c0:	e88d 000c 	stmia.w	sp, {r2, r3}
     9c4:	4669      	mov	r1, sp
     9c6:	4804      	ldr	r0, [pc, #16]	; (9d8 <call_reg_mskd_ref+0x24>)
     9c8:	f7ff fffe 	bl	9a4 <reg_mskd_ref>
     9cc:	b002      	add	sp, #8
     9ce:	f85d fb04 	ldr.w	pc, [sp], #4
     9d2:	bf00      	nop
     9d4:	00000000 	.word	0x00000000
     9d8:	20002484 	.word	0x20002484

000009dc <return_bits>:
     9dc:	2020      	movs	r0, #32
     9de:	4770      	bx	lr

000009e0 <call_return_bits>:
     9e0:	b500      	push	{lr}
     9e2:	f7ff fffe 	bl	9dc <return_bits>
     9e6:	2820      	cmp	r0, #32
     9e8:	4b04      	ldr	r3, [pc, #16]	; (9fc <call_return_bits+0x1c>)
     9ea:	bf0c      	ite	eq
     9ec:	f04f 5228 	moveq.w	r2, #704643072	; 0x2a000000
     9f0:	f04f 5278 	movne.w	r2, #1040187392	; 0x3e000000
     9f4:	601a      	str	r2, [r3, #0]
     9f6:	f85d fb04 	ldr.w	pc, [sp], #4
     9fa:	bf00      	nop
     9fc:	200023e4 	.word	0x200023e4

00000a00 <return_mskd>:
     a00:	2318      	movs	r3, #24
     a02:	6003      	str	r3, [r0, #0]
     a04:	2308      	movs	r3, #8
     a06:	600b      	str	r3, [r1, #0]
     a08:	4770      	bx	lr

00000a0a <call_return_mskd>:
     a0a:	b500      	push	{lr}
     a0c:	b082      	sub	sp, #8
     a0e:	4669      	mov	r1, sp
     a10:	a801      	add	r0, sp, #4
     a12:	f7ff fffe 	bl	a00 <return_mskd>
     a16:	9b01      	ldr	r3, [sp, #4]
     a18:	2b18      	cmp	r3, #24
     a1a:	d006      	beq.n	a2a <call_return_mskd+0x20>
     a1c:	4b07      	ldr	r3, [pc, #28]	; (a3c <call_return_mskd+0x32>)
     a1e:	f04f 5218 	mov.w	r2, #637534208	; 0x26000000
     a22:	601a      	str	r2, [r3, #0]
     a24:	b002      	add	sp, #8
     a26:	f85d fb04 	ldr.w	pc, [sp], #4
     a2a:	9b00      	ldr	r3, [sp, #0]
     a2c:	2b08      	cmp	r3, #8
     a2e:	d1f5      	bne.n	a1c <call_return_mskd+0x12>
     a30:	4b02      	ldr	r3, [pc, #8]	; (a3c <call_return_mskd+0x32>)
     a32:	f04f 5208 	mov.w	r2, #570425344	; 0x22000000
     a36:	601a      	str	r2, [r3, #0]
     a38:	e7f4      	b.n	a24 <call_return_mskd+0x1a>
     a3a:	bf00      	nop
     a3c:	200023e4 	.word	0x200023e4

00000a40 <return_reg>:
     a40:	4801      	ldr	r0, [pc, #4]	; (a48 <return_reg+0x8>)
     a42:	2340      	movs	r3, #64	; 0x40
     a44:	6003      	str	r3, [r0, #0]
     a46:	4770      	bx	lr
     a48:	20002484 	.word	0x20002484

00000a4c <call_return_reg>:
     a4c:	b500      	push	{lr}
     a4e:	f7ff fffe 	bl	a40 <return_reg>
     a52:	6803      	ldr	r3, [r0, #0]
     a54:	2b40      	cmp	r3, #64	; 0x40
     a56:	4b04      	ldr	r3, [pc, #16]	; (a68 <call_return_reg+0x1c>)
     a58:	bf0c      	ite	eq
     a5a:	f04f 52f0 	moveq.w	r2, #503316480	; 0x1e000000
     a5e:	f04f 5238 	movne.w	r2, #771751936	; 0x2e000000
     a62:	601a      	str	r2, [r3, #0]
     a64:	f85d fb04 	ldr.w	pc, [sp], #4
     a68:	200023e4 	.word	0x200023e4

00000a6c <return_periph>:
     a6c:	4b02      	ldr	r3, [pc, #8]	; (a78 <return_periph+0xc>)
     a6e:	2240      	movs	r2, #64	; 0x40
     a70:	601a      	str	r2, [r3, #0]
     a72:	4802      	ldr	r0, [pc, #8]	; (a7c <return_periph+0x10>)
     a74:	4770      	bx	lr
     a76:	bf00      	nop
     a78:	20002484 	.word	0x20002484
     a7c:	20002480 	.word	0x20002480

00000a80 <call_return_periph>:
     a80:	b500      	push	{lr}
     a82:	f7ff fffe 	bl	a6c <return_periph>
     a86:	6843      	ldr	r3, [r0, #4]
     a88:	2b40      	cmp	r3, #64	; 0x40
     a8a:	4b04      	ldr	r3, [pc, #16]	; (a9c <call_return_periph+0x1c>)
     a8c:	bf0c      	ite	eq
     a8e:	f04f 5218 	moveq.w	r2, #637534208	; 0x26000000
     a92:	f04f 5228 	movne.w	r2, #704643072	; 0x2a000000
     a96:	601a      	str	r2, [r3, #0]
     a98:	f85d fb04 	ldr.w	pc, [sp], #4
     a9c:	200023e4 	.word	0x200023e4

00000aa0 <pos_val>:
     aa0:	b2c0      	uxtb	r0, r0
     aa2:	2805      	cmp	r0, #5
     aa4:	d006      	beq.n	ab4 <pos_val+0x14>
     aa6:	2806      	cmp	r0, #6
     aa8:	4b04      	ldr	r3, [pc, #16]	; (abc <pos_val+0x1c>)
     aaa:	bf0c      	ite	eq
     aac:	2244      	moveq	r2, #68	; 0x44
     aae:	2255      	movne	r2, #85	; 0x55
     ab0:	601a      	str	r2, [r3, #0]
     ab2:	4770      	bx	lr
     ab4:	4b01      	ldr	r3, [pc, #4]	; (abc <pos_val+0x1c>)
     ab6:	2233      	movs	r2, #51	; 0x33
     ab8:	601a      	str	r2, [r3, #0]
     aba:	4770      	bx	lr
     abc:	200022ec 	.word	0x200022ec

00000ac0 <call_pos_val>:
     ac0:	b500      	push	{lr}
     ac2:	2005      	movs	r0, #5
     ac4:	f7ff fffe 	bl	aa0 <pos_val>
     ac8:	2006      	movs	r0, #6
     aca:	f7ff fffe 	bl	aa0 <pos_val>
     ace:	f85d fb04 	ldr.w	pc, [sp], #4

00000ad2 <call_pos_val_global>:
     ad2:	b500      	push	{lr}
     ad4:	2006      	movs	r0, #6
     ad6:	f7ff fffe 	bl	aa0 <pos_val>
     ada:	f85d fb04 	ldr.w	pc, [sp], #4

00000ade <pos_ref>:
     ade:	7803      	ldrb	r3, [r0, #0]
     ae0:	2b05      	cmp	r3, #5
     ae2:	d006      	beq.n	af2 <pos_ref+0x14>
     ae4:	2b06      	cmp	r3, #6
     ae6:	4b05      	ldr	r3, [pc, #20]	; (afc <pos_ref+0x1e>)
     ae8:	bf0c      	ite	eq
     aea:	2277      	moveq	r2, #119	; 0x77
     aec:	2288      	movne	r2, #136	; 0x88
     aee:	601a      	str	r2, [r3, #0]
     af0:	4770      	bx	lr
     af2:	4b02      	ldr	r3, [pc, #8]	; (afc <pos_ref+0x1e>)
     af4:	2266      	movs	r2, #102	; 0x66
     af6:	601a      	str	r2, [r3, #0]
     af8:	4770      	bx	lr
     afa:	bf00      	nop
     afc:	200022ec 	.word	0x200022ec

00000b00 <call_pos_ref>:
     b00:	b500      	push	{lr}
     b02:	b081      	sub	sp, #4
     b04:	2305      	movs	r3, #5
     b06:	f88d 3003 	strb.w	r3, [sp, #3]
     b0a:	f10d 0003 	add.w	r0, sp, #3
     b0e:	f7ff fffe 	bl	ade <pos_ref>
     b12:	f10d 0003 	add.w	r0, sp, #3
     b16:	f7ff fffe 	bl	ade <pos_ref>
     b1a:	b001      	add	sp, #4
     b1c:	f85d fb04 	ldr.w	pc, [sp], #4

00000b20 <call_pos_ref_global>:
     b20:	b500      	push	{lr}
     b22:	b081      	sub	sp, #4
     b24:	2306      	movs	r3, #6
     b26:	f88d 3003 	strb.w	r3, [sp, #3]
     b2a:	f10d 0003 	add.w	r0, sp, #3
     b2e:	f7ff fffe 	bl	ade <pos_ref>
     b32:	b001      	add	sp, #4
     b34:	f85d fb04 	ldr.w	pc, [sp], #4

00000b38 <runtime_range_val>:
     b38:	4a03      	ldr	r2, [pc, #12]	; (b48 <runtime_range_val+0x10>)
     b3a:	6813      	ldr	r3, [r2, #0]
     b3c:	ea23 0000 	bic.w	r0, r3, r0
     b40:	4308      	orrs	r0, r1
     b42:	6010      	str	r0, [r2, #0]
     b44:	4770      	bx	lr
     b46:	bf00      	nop
     b48:	20002484 	.word	0x20002484

00000b4c <call_range_val>:
     b4c:	b500      	push	{lr}
     b4e:	0301      	lsls	r1, r0, #12
     b50:	f401 31f8 	and.w	r1, r1, #126976	; 0x1f000
     b54:	f44f 30f8 	mov.w	r0, #126976	; 0x1f000
     b58:	f7ff fffe 	bl	b38 <runtime_range_val>
     b5c:	f85d fb04 	ldr.w	pc, [sp], #4

00000b60 <call_range_val_port>:
     b60:	b500      	push	{lr}
     b62:	201f      	movs	r0, #31
     b64:	f7ff fffe 	bl	b4c <call_range_val>
     b68:	f85d fb04 	ldr.w	pc, [sp], #4

00000b6c <runtime_range_ref>:
     b6c:	4a04      	ldr	r2, [pc, #16]	; (b80 <runtime_range_ref+0x14>)
     b6e:	6813      	ldr	r3, [r2, #0]
     b70:	6801      	ldr	r1, [r0, #0]
     b72:	ea23 0301 	bic.w	r3, r3, r1
     b76:	6841      	ldr	r1, [r0, #4]
     b78:	430b      	orrs	r3, r1
     b7a:	6013      	str	r3, [r2, #0]
     b7c:	4770      	bx	lr
     b7e:	bf00      	nop
     b80:	20002484 	.word	0x20002484

00000b84 <call_range_ref>:
     b84:	b500      	push	{lr}
     b86:	b082      	sub	sp, #8
     b88:	f44f 33f8 	mov.w	r3, #126976	; 0x1f000
     b8c:	9300      	str	r3, [sp, #0]
     b8e:	0300      	lsls	r0, r0, #12
     b90:	4018      	ands	r0, r3
     b92:	9001      	str	r0, [sp, #4]
     b94:	4668      	mov	r0, sp
     b96:	f7ff fffe 	bl	b6c <runtime_range_ref>
     b9a:	b002      	add	sp, #8
     b9c:	f85d fb04 	ldr.w	pc, [sp], #4

00000ba0 <call_range_ref_port>:
     ba0:	b500      	push	{lr}
     ba2:	200c      	movs	r0, #12
     ba4:	f7ff fffe 	bl	b84 <call_range_ref>
     ba8:	f85d fb04 	ldr.w	pc, [sp], #4

00000bac <check_array_range_pass>:
     bac:	2816      	cmp	r0, #22
     bae:	4b03      	ldr	r3, [pc, #12]	; (bbc <check_array_range_pass+0x10>)
     bb0:	bf94      	ite	ls
     bb2:	227f      	movls	r2, #127	; 0x7f
     bb4:	2283      	movhi	r2, #131	; 0x83
     bb6:	601a      	str	r2, [r3, #0]
     bb8:	4770      	bx	lr
     bba:	bf00      	nop
     bbc:	200022ec 	.word	0x200022ec

00000bc0 <check_array_range_fail>:
     bc0:	2816      	cmp	r0, #22
     bc2:	4b03      	ldr	r3, [pc, #12]	; (bd0 <check_array_range_fail+0x10>)
     bc4:	bf94      	ite	ls
     bc6:	2295      	movls	r2, #149	; 0x95
     bc8:	2297      	movhi	r2, #151	; 0x97
     bca:	601a      	str	r2, [r3, #0]
     bcc:	4770      	bx	lr
     bce:	bf00      	nop
     bd0:	200022ec 	.word	0x200022ec

00000bd4 <check_bits_range_pass>:
     bd4:	280f      	cmp	r0, #15
     bd6:	4b03      	ldr	r3, [pc, #12]	; (be4 <check_bits_range_pass+0x10>)
     bd8:	bf94      	ite	ls
     bda:	229d      	movls	r2, #157	; 0x9d
     bdc:	22a3      	movhi	r2, #163	; 0xa3
     bde:	601a      	str	r2, [r3, #0]
     be0:	4770      	bx	lr
     be2:	bf00      	nop
     be4:	200022ec 	.word	0x200022ec

00000be8 <check_bits_range_fail>:
     be8:	280f      	cmp	r0, #15
     bea:	4b03      	ldr	r3, [pc, #12]	; (bf8 <check_bits_range_fail+0x10>)
     bec:	bf94      	ite	ls
     bee:	22a7      	movls	r2, #167	; 0xa7
     bf0:	22ad      	movhi	r2, #173	; 0xad
     bf2:	601a      	str	r2, [r3, #0]
     bf4:	4770      	bx	lr
     bf6:	bf00      	nop
     bf8:	200022ec 	.word	0x200022ec

00000bfc <check_mskd_range_pass>:
     bfc:	281f      	cmp	r0, #31
     bfe:	4b03      	ldr	r3, [pc, #12]	; (c0c <check_mskd_range_pass+0x10>)
     c00:	bf94      	ite	ls
     c02:	22b3      	movls	r2, #179	; 0xb3
     c04:	22b5      	movhi	r2, #181	; 0xb5
     c06:	601a      	str	r2, [r3, #0]
     c08:	4770      	bx	lr
     c0a:	bf00      	nop
     c0c:	200022ec 	.word	0x200022ec

00000c10 <check_mskd_range_fail>:
     c10:	281f      	cmp	r0, #31
     c12:	4b03      	ldr	r3, [pc, #12]	; (c20 <check_mskd_range_fail+0x10>)
     c14:	bf94      	ite	ls
     c16:	22bf      	movls	r2, #191	; 0xbf
     c18:	22c1      	movhi	r2, #193	; 0xc1
     c1a:	601a      	str	r2, [r3, #0]
     c1c:	4770      	bx	lr
     c1e:	bf00      	nop
     c20:	200022ec 	.word	0x200022ec

00000c24 <bits_extract_ne>:
     c24:	4b05      	ldr	r3, [pc, #20]	; (c3c <bits_extract_ne+0x18>)
     c26:	2220      	movs	r2, #32
     c28:	601a      	str	r2, [r3, #0]
     c2a:	681b      	ldr	r3, [r3, #0]
     c2c:	4293      	cmp	r3, r2
     c2e:	4b03      	ldr	r3, [pc, #12]	; (c3c <bits_extract_ne+0x18>)
     c30:	bf14      	ite	ne
     c32:	2202      	movne	r2, #2
     c34:	2204      	moveq	r2, #4
     c36:	601a      	str	r2, [r3, #0]
     c38:	4770      	bx	lr
     c3a:	bf00      	nop
     c3c:	20002484 	.word	0x20002484

00000c40 <mskd_extract_geq>:
     c40:	4b06      	ldr	r3, [pc, #24]	; (c5c <mskd_extract_geq+0x1c>)
     c42:	f04f 52b0 	mov.w	r2, #369098752	; 0x16000000
     c46:	601a      	str	r2, [r3, #0]
     c48:	681b      	ldr	r3, [r3, #0]
     c4a:	f003 5378 	and.w	r3, r3, #1040187392	; 0x3e000000
     c4e:	4293      	cmp	r3, r2
     c50:	4b03      	ldr	r3, [pc, #12]	; (c60 <mskd_extract_geq+0x20>)
     c52:	bf2c      	ite	cs
     c54:	2220      	movcs	r2, #32
     c56:	2240      	movcc	r2, #64	; 0x40
     c58:	601a      	str	r2, [r3, #0]
     c5a:	4770      	bx	lr
     c5c:	200023e4 	.word	0x200023e4
     c60:	20002484 	.word	0x20002484

00000c64 <shifted_val>:
     c64:	4b04      	ldr	r3, [pc, #16]	; (c78 <shifted_val+0x14>)
     c66:	f04f 5238 	mov.w	r2, #771751936	; 0x2e000000
     c6a:	601a      	str	r2, [r3, #0]
     c6c:	681b      	ldr	r3, [r3, #0]
     c6e:	4018      	ands	r0, r3
     c70:	40c8      	lsrs	r0, r1
     c72:	4b02      	ldr	r3, [pc, #8]	; (c7c <shifted_val+0x18>)
     c74:	6018      	str	r0, [r3, #0]
     c76:	4770      	bx	lr
     c78:	200023e4 	.word	0x200023e4
     c7c:	200022ec 	.word	0x200022ec

00000c80 <call_shifted_const_val>:
     c80:	b500      	push	{lr}
     c82:	2119      	movs	r1, #25
     c84:	f04f 5078 	mov.w	r0, #1040187392	; 0x3e000000
     c88:	f7ff fffe 	bl	c64 <shifted_val>
     c8c:	f85d fb04 	ldr.w	pc, [sp], #4

00000c90 <call_shifted_var_val>:
     c90:	b500      	push	{lr}
     c92:	2119      	movs	r1, #25
     c94:	f04f 5078 	mov.w	r0, #1040187392	; 0x3e000000
     c98:	f7ff fffe 	bl	c64 <shifted_val>
     c9c:	f85d fb04 	ldr.w	pc, [sp], #4

00000ca0 <call_shifted_global_val>:
     ca0:	b500      	push	{lr}
     ca2:	2119      	movs	r1, #25
     ca4:	f04f 5078 	mov.w	r0, #1040187392	; 0x3e000000
     ca8:	f7ff fffe 	bl	c64 <shifted_val>
     cac:	f85d fb04 	ldr.w	pc, [sp], #4

00000cb0 <shifted_ref>:
     cb0:	4b05      	ldr	r3, [pc, #20]	; (cc8 <shifted_ref+0x18>)
     cb2:	f04f 5238 	mov.w	r2, #771751936	; 0x2e000000
     cb6:	601a      	str	r2, [r3, #0]
     cb8:	681b      	ldr	r3, [r3, #0]
     cba:	6802      	ldr	r2, [r0, #0]
     cbc:	4013      	ands	r3, r2
     cbe:	6842      	ldr	r2, [r0, #4]
     cc0:	40d3      	lsrs	r3, r2
     cc2:	4a02      	ldr	r2, [pc, #8]	; (ccc <shifted_ref+0x1c>)
     cc4:	6013      	str	r3, [r2, #0]
     cc6:	4770      	bx	lr
     cc8:	200023e4 	.word	0x200023e4
     ccc:	200022ec 	.word	0x200022ec

00000cd0 <call_shifted_const_ref>:
     cd0:	b500      	push	{lr}
     cd2:	b082      	sub	sp, #8
     cd4:	4b05      	ldr	r3, [pc, #20]	; (cec <call_shifted_const_ref+0x1c>)
     cd6:	f103 0310 	add.w	r3, r3, #16
     cda:	cb0c      	ldmia	r3, {r2, r3}
     cdc:	e88d 000c 	stmia.w	sp, {r2, r3}
     ce0:	4668      	mov	r0, sp
     ce2:	f7ff fffe 	bl	cb0 <shifted_ref>
     ce6:	b002      	add	sp, #8
     ce8:	f85d fb04 	ldr.w	pc, [sp], #4
     cec:	00000000 	.word	0x00000000

00000cf0 <call_shifted_var_ref>:
     cf0:	b500      	push	{lr}
     cf2:	b082      	sub	sp, #8
     cf4:	4b05      	ldr	r3, [pc, #20]	; (d0c <call_shifted_var_ref+0x1c>)
     cf6:	f103 0310 	add.w	r3, r3, #16
     cfa:	cb0c      	ldmia	r3, {r2, r3}
     cfc:	e88d 000c 	stmia.w	sp, {r2, r3}
     d00:	4668      	mov	r0, sp
     d02:	f7ff fffe 	bl	cb0 <shifted_ref>
     d06:	b002      	add	sp, #8
     d08:	f85d fb04 	ldr.w	pc, [sp], #4
     d0c:	00000000 	.word	0x00000000

00000d10 <call_shifted_global_ref>:
     d10:	b500      	push	{lr}
     d12:	b082      	sub	sp, #8
     d14:	4b05      	ldr	r3, [pc, #20]	; (d2c <call_shifted_global_ref+0x1c>)
     d16:	f103 0310 	add.w	r3, r3, #16
     d1a:	cb0c      	ldmia	r3, {r2, r3}
     d1c:	e88d 000c 	stmia.w	sp, {r2, r3}
     d20:	4668      	mov	r0, sp
     d22:	f7ff fffe 	bl	cb0 <shifted_ref>
     d26:	b002      	add	sp, #8
     d28:	f85d fb04 	ldr.w	pc, [sp], #4
     d2c:	00000000 	.word	0x00000000

00000d30 <copy_bits_val>:
     d30:	f010 0f40 	tst.w	r0, #64	; 0x40
     d34:	4b02      	ldr	r3, [pc, #8]	; (d40 <copy_bits_val+0x10>)
     d36:	bf14      	ite	ne
     d38:	2202      	movne	r2, #2
     d3a:	2204      	moveq	r2, #4
     d3c:	601a      	str	r2, [r3, #0]
     d3e:	4770      	bx	lr
     d40:	20002484 	.word	0x20002484

00000d44 <call_copy_bits_val>:
     d44:	b500      	push	{lr}
     d46:	4b04      	ldr	r3, [pc, #16]	; (d58 <call_copy_bits_val+0x14>)
     d48:	2240      	movs	r2, #64	; 0x40
     d4a:	601a      	str	r2, [r3, #0]
     d4c:	6818      	ldr	r0, [r3, #0]
     d4e:	f7ff fffe 	bl	d30 <copy_bits_val>
     d52:	f85d fb04 	ldr.w	pc, [sp], #4
     d56:	bf00      	nop
     d58:	20002484 	.word	0x20002484

00000d5c <copy_bits_ref>:
     d5c:	6803      	ldr	r3, [r0, #0]
     d5e:	f013 0f40 	tst.w	r3, #64	; 0x40
     d62:	4b03      	ldr	r3, [pc, #12]	; (d70 <copy_bits_ref+0x14>)
     d64:	bf14      	ite	ne
     d66:	2202      	movne	r2, #2
     d68:	2204      	moveq	r2, #4
     d6a:	601a      	str	r2, [r3, #0]
     d6c:	4770      	bx	lr
     d6e:	bf00      	nop
     d70:	20002484 	.word	0x20002484

00000d74 <call_copy_bits_ref>:
     d74:	b500      	push	{lr}
     d76:	b081      	sub	sp, #4
     d78:	4b05      	ldr	r3, [pc, #20]	; (d90 <call_copy_bits_ref+0x1c>)
     d7a:	2240      	movs	r2, #64	; 0x40
     d7c:	601a      	str	r2, [r3, #0]
     d7e:	681b      	ldr	r3, [r3, #0]
     d80:	9300      	str	r3, [sp, #0]
     d82:	4668      	mov	r0, sp
     d84:	f7ff fffe 	bl	d5c <copy_bits_ref>
     d88:	b001      	add	sp, #4
     d8a:	f85d fb04 	ldr.w	pc, [sp], #4
     d8e:	bf00      	nop
     d90:	20002484 	.word	0x20002484

00000d94 <run>:
     d94:	b570      	push	{r4, r5, r6, lr}
     d96:	4cd3      	ldr	r4, [pc, #844]	; (10e4 <run+0x350>)
     d98:	2200      	movs	r2, #0
     d9a:	4621      	mov	r1, r4
     d9c:	48d2      	ldr	r0, [pc, #840]	; (10e8 <run+0x354>)
     d9e:	f7ff fffe 	bl	0 <do_test>
     da2:	2201      	movs	r2, #1
     da4:	4621      	mov	r1, r4
     da6:	48d1      	ldr	r0, [pc, #836]	; (10ec <run+0x358>)
     da8:	f7ff fffe 	bl	0 <do_test>
     dac:	2202      	movs	r2, #2
     dae:	4621      	mov	r1, r4
     db0:	48cf      	ldr	r0, [pc, #828]	; (10f0 <run+0x35c>)
     db2:	f7ff fffe 	bl	0 <do_test>
     db6:	2203      	movs	r2, #3
     db8:	4621      	mov	r1, r4
     dba:	48ce      	ldr	r0, [pc, #824]	; (10f4 <run+0x360>)
     dbc:	f7ff fffe 	bl	0 <do_test>
     dc0:	2204      	movs	r2, #4
     dc2:	4621      	mov	r1, r4
     dc4:	48cc      	ldr	r0, [pc, #816]	; (10f8 <run+0x364>)
     dc6:	f7ff fffe 	bl	0 <do_test>
     dca:	2205      	movs	r2, #5
     dcc:	4621      	mov	r1, r4
     dce:	48cb      	ldr	r0, [pc, #812]	; (10fc <run+0x368>)
     dd0:	f7ff fffe 	bl	0 <do_test>
     dd4:	2206      	movs	r2, #6
     dd6:	4621      	mov	r1, r4
     dd8:	48c9      	ldr	r0, [pc, #804]	; (1100 <run+0x36c>)
     dda:	f7ff fffe 	bl	0 <do_test>
     dde:	2207      	movs	r2, #7
     de0:	4621      	mov	r1, r4
     de2:	48c8      	ldr	r0, [pc, #800]	; (1104 <run+0x370>)
     de4:	f7ff fffe 	bl	0 <do_test>
     de8:	2208      	movs	r2, #8
     dea:	4621      	mov	r1, r4
     dec:	48c6      	ldr	r0, [pc, #792]	; (1108 <run+0x374>)
     dee:	f7ff fffe 	bl	0 <do_test>
     df2:	2209      	movs	r2, #9
     df4:	4621      	mov	r1, r4
     df6:	48c5      	ldr	r0, [pc, #788]	; (110c <run+0x378>)
     df8:	f7ff fffe 	bl	0 <do_test>
     dfc:	220a      	movs	r2, #10
     dfe:	4621      	mov	r1, r4
     e00:	48c3      	ldr	r0, [pc, #780]	; (1110 <run+0x37c>)
     e02:	f7ff fffe 	bl	0 <do_test>
     e06:	220b      	movs	r2, #11
     e08:	4621      	mov	r1, r4
     e0a:	48c2      	ldr	r0, [pc, #776]	; (1114 <run+0x380>)
     e0c:	f7ff fffe 	bl	0 <do_test>
     e10:	220c      	movs	r2, #12
     e12:	4621      	mov	r1, r4
     e14:	48c0      	ldr	r0, [pc, #768]	; (1118 <run+0x384>)
     e16:	f7ff fffe 	bl	0 <do_test>
     e1a:	220d      	movs	r2, #13
     e1c:	4621      	mov	r1, r4
     e1e:	48bf      	ldr	r0, [pc, #764]	; (111c <run+0x388>)
     e20:	f7ff fffe 	bl	0 <do_test>
     e24:	220e      	movs	r2, #14
     e26:	4621      	mov	r1, r4
     e28:	48bd      	ldr	r0, [pc, #756]	; (1120 <run+0x38c>)
     e2a:	f7ff fffe 	bl	0 <do_test>
     e2e:	220f      	movs	r2, #15
     e30:	4621      	mov	r1, r4
     e32:	48bc      	ldr	r0, [pc, #752]	; (1124 <run+0x390>)
     e34:	f7ff fffe 	bl	0 <do_test>
     e38:	2210      	movs	r2, #16
     e3a:	4621      	mov	r1, r4
     e3c:	48ba      	ldr	r0, [pc, #744]	; (1128 <run+0x394>)
     e3e:	f7ff fffe 	bl	0 <do_test>
     e42:	2211      	movs	r2, #17
     e44:	4621      	mov	r1, r4
     e46:	48b9      	ldr	r0, [pc, #740]	; (112c <run+0x398>)
     e48:	f7ff fffe 	bl	0 <do_test>
     e4c:	2212      	movs	r2, #18
     e4e:	4621      	mov	r1, r4
     e50:	48b7      	ldr	r0, [pc, #732]	; (1130 <run+0x39c>)
     e52:	f7ff fffe 	bl	0 <do_test>
     e56:	2213      	movs	r2, #19
     e58:	4621      	mov	r1, r4
     e5a:	48b6      	ldr	r0, [pc, #728]	; (1134 <run+0x3a0>)
     e5c:	f7ff fffe 	bl	0 <do_test>
     e60:	2214      	movs	r2, #20
     e62:	4621      	mov	r1, r4
     e64:	48b4      	ldr	r0, [pc, #720]	; (1138 <run+0x3a4>)
     e66:	f7ff fffe 	bl	0 <do_test>
     e6a:	2215      	movs	r2, #21
     e6c:	4621      	mov	r1, r4
     e6e:	48b3      	ldr	r0, [pc, #716]	; (113c <run+0x3a8>)
     e70:	f7ff fffe 	bl	0 <do_test>
     e74:	2216      	movs	r2, #22
     e76:	4621      	mov	r1, r4
     e78:	48b1      	ldr	r0, [pc, #708]	; (1140 <run+0x3ac>)
     e7a:	f7ff fffe 	bl	0 <do_test>
     e7e:	2217      	movs	r2, #23
     e80:	4621      	mov	r1, r4
     e82:	48b0      	ldr	r0, [pc, #704]	; (1144 <run+0x3b0>)
     e84:	f7ff fffe 	bl	0 <do_test>
     e88:	2218      	movs	r2, #24
     e8a:	4621      	mov	r1, r4
     e8c:	48ae      	ldr	r0, [pc, #696]	; (1148 <run+0x3b4>)
     e8e:	f7ff fffe 	bl	0 <do_test>
     e92:	2219      	movs	r2, #25
     e94:	4621      	mov	r1, r4
     e96:	48ad      	ldr	r0, [pc, #692]	; (114c <run+0x3b8>)
     e98:	f7ff fffe 	bl	0 <do_test>
     e9c:	221a      	movs	r2, #26
     e9e:	4621      	mov	r1, r4
     ea0:	48ab      	ldr	r0, [pc, #684]	; (1150 <run+0x3bc>)
     ea2:	f7ff fffe 	bl	0 <do_test>
     ea6:	221b      	movs	r2, #27
     ea8:	4621      	mov	r1, r4
     eaa:	48aa      	ldr	r0, [pc, #680]	; (1154 <run+0x3c0>)
     eac:	f7ff fffe 	bl	0 <do_test>
     eb0:	221c      	movs	r2, #28
     eb2:	4621      	mov	r1, r4
     eb4:	48a8      	ldr	r0, [pc, #672]	; (1158 <run+0x3c4>)
     eb6:	f7ff fffe 	bl	0 <do_test>
     eba:	221d      	movs	r2, #29
     ebc:	4621      	mov	r1, r4
     ebe:	48a7      	ldr	r0, [pc, #668]	; (115c <run+0x3c8>)
     ec0:	f7ff fffe 	bl	0 <do_test>
     ec4:	221e      	movs	r2, #30
     ec6:	4621      	mov	r1, r4
     ec8:	48a5      	ldr	r0, [pc, #660]	; (1160 <run+0x3cc>)
     eca:	f7ff fffe 	bl	0 <do_test>
     ece:	221f      	movs	r2, #31
     ed0:	4621      	mov	r1, r4
     ed2:	48a4      	ldr	r0, [pc, #656]	; (1164 <run+0x3d0>)
     ed4:	f7ff fffe 	bl	0 <do_test>
     ed8:	2220      	movs	r2, #32
     eda:	4621      	mov	r1, r4
     edc:	48a2      	ldr	r0, [pc, #648]	; (1168 <run+0x3d4>)
     ede:	f7ff fffe 	bl	0 <do_test>
     ee2:	2221      	movs	r2, #33	; 0x21
     ee4:	4621      	mov	r1, r4
     ee6:	48a1      	ldr	r0, [pc, #644]	; (116c <run+0x3d8>)
     ee8:	f7ff fffe 	bl	0 <do_test>
     eec:	2222      	movs	r2, #34	; 0x22
     eee:	4621      	mov	r1, r4
     ef0:	489f      	ldr	r0, [pc, #636]	; (1170 <run+0x3dc>)
     ef2:	f7ff fffe 	bl	0 <do_test>
     ef6:	2223      	movs	r2, #35	; 0x23
     ef8:	4621      	mov	r1, r4
     efa:	489e      	ldr	r0, [pc, #632]	; (1174 <run+0x3e0>)
     efc:	f7ff fffe 	bl	0 <do_test>
     f00:	2224      	movs	r2, #36	; 0x24
     f02:	4621      	mov	r1, r4
     f04:	489c      	ldr	r0, [pc, #624]	; (1178 <run+0x3e4>)
     f06:	f7ff fffe 	bl	0 <do_test>
     f0a:	4e9c      	ldr	r6, [pc, #624]	; (117c <run+0x3e8>)
     f0c:	2225      	movs	r2, #37	; 0x25
     f0e:	4631      	mov	r1, r6
     f10:	489b      	ldr	r0, [pc, #620]	; (1180 <run+0x3ec>)
     f12:	f7ff fffe 	bl	0 <do_test>
     f16:	2226      	movs	r2, #38	; 0x26
     f18:	4631      	mov	r1, r6
     f1a:	489a      	ldr	r0, [pc, #616]	; (1184 <run+0x3f0>)
     f1c:	f7ff fffe 	bl	0 <do_test>
     f20:	2227      	movs	r2, #39	; 0x27
     f22:	4631      	mov	r1, r6
     f24:	4898      	ldr	r0, [pc, #608]	; (1188 <run+0x3f4>)
     f26:	f7ff fffe 	bl	0 <do_test>
     f2a:	2228      	movs	r2, #40	; 0x28
     f2c:	4621      	mov	r1, r4
     f2e:	4897      	ldr	r0, [pc, #604]	; (118c <run+0x3f8>)
     f30:	f7ff fffe 	bl	0 <do_test>
     f34:	2229      	movs	r2, #41	; 0x29
     f36:	4621      	mov	r1, r4
     f38:	4895      	ldr	r0, [pc, #596]	; (1190 <run+0x3fc>)
     f3a:	f7ff fffe 	bl	0 <do_test>
     f3e:	222a      	movs	r2, #42	; 0x2a
     f40:	4621      	mov	r1, r4
     f42:	4894      	ldr	r0, [pc, #592]	; (1194 <run+0x400>)
     f44:	f7ff fffe 	bl	0 <do_test>
     f48:	222b      	movs	r2, #43	; 0x2b
     f4a:	4621      	mov	r1, r4
     f4c:	4892      	ldr	r0, [pc, #584]	; (1198 <run+0x404>)
     f4e:	f7ff fffe 	bl	0 <do_test>
     f52:	222c      	movs	r2, #44	; 0x2c
     f54:	4621      	mov	r1, r4
     f56:	4891      	ldr	r0, [pc, #580]	; (119c <run+0x408>)
     f58:	f7ff fffe 	bl	0 <do_test>
     f5c:	4d90      	ldr	r5, [pc, #576]	; (11a0 <run+0x40c>)
     f5e:	222d      	movs	r2, #45	; 0x2d
     f60:	4629      	mov	r1, r5
     f62:	4890      	ldr	r0, [pc, #576]	; (11a4 <run+0x410>)
     f64:	f7ff fffe 	bl	0 <do_test>
     f68:	222e      	movs	r2, #46	; 0x2e
     f6a:	4621      	mov	r1, r4
     f6c:	488e      	ldr	r0, [pc, #568]	; (11a8 <run+0x414>)
     f6e:	f7ff fffe 	bl	0 <do_test>
     f72:	222f      	movs	r2, #47	; 0x2f
     f74:	4621      	mov	r1, r4
     f76:	488d      	ldr	r0, [pc, #564]	; (11ac <run+0x418>)
     f78:	f7ff fffe 	bl	0 <do_test>
     f7c:	2230      	movs	r2, #48	; 0x30
     f7e:	4621      	mov	r1, r4
     f80:	488b      	ldr	r0, [pc, #556]	; (11b0 <run+0x41c>)
     f82:	f7ff fffe 	bl	0 <do_test>
     f86:	2231      	movs	r2, #49	; 0x31
     f88:	4621      	mov	r1, r4
     f8a:	488a      	ldr	r0, [pc, #552]	; (11b4 <run+0x420>)
     f8c:	f7ff fffe 	bl	0 <do_test>
     f90:	2232      	movs	r2, #50	; 0x32
     f92:	4621      	mov	r1, r4
     f94:	4888      	ldr	r0, [pc, #544]	; (11b8 <run+0x424>)
     f96:	f7ff fffe 	bl	0 <do_test>
     f9a:	2233      	movs	r2, #51	; 0x33
     f9c:	4621      	mov	r1, r4
     f9e:	4887      	ldr	r0, [pc, #540]	; (11bc <run+0x428>)
     fa0:	f7ff fffe 	bl	0 <do_test>
     fa4:	2234      	movs	r2, #52	; 0x34
     fa6:	4621      	mov	r1, r4
     fa8:	4885      	ldr	r0, [pc, #532]	; (11c0 <run+0x42c>)
     faa:	f7ff fffe 	bl	0 <do_test>
     fae:	2235      	movs	r2, #53	; 0x35
     fb0:	4621      	mov	r1, r4
     fb2:	4884      	ldr	r0, [pc, #528]	; (11c4 <run+0x430>)
     fb4:	f7ff fffe 	bl	0 <do_test>
     fb8:	2236      	movs	r2, #54	; 0x36
     fba:	4621      	mov	r1, r4
     fbc:	4882      	ldr	r0, [pc, #520]	; (11c8 <run+0x434>)
     fbe:	f7ff fffe 	bl	0 <do_test>
     fc2:	2237      	movs	r2, #55	; 0x37
     fc4:	4621      	mov	r1, r4
     fc6:	4881      	ldr	r0, [pc, #516]	; (11cc <run+0x438>)
     fc8:	f7ff fffe 	bl	0 <do_test>
     fcc:	2238      	movs	r2, #56	; 0x38
     fce:	4621      	mov	r1, r4
     fd0:	487f      	ldr	r0, [pc, #508]	; (11d0 <run+0x43c>)
     fd2:	f7ff fffe 	bl	0 <do_test>
     fd6:	2239      	movs	r2, #57	; 0x39
     fd8:	4621      	mov	r1, r4
     fda:	487e      	ldr	r0, [pc, #504]	; (11d4 <run+0x440>)
     fdc:	f7ff fffe 	bl	0 <do_test>
     fe0:	223a      	movs	r2, #58	; 0x3a
     fe2:	4621      	mov	r1, r4
     fe4:	487c      	ldr	r0, [pc, #496]	; (11d8 <run+0x444>)
     fe6:	f7ff fffe 	bl	0 <do_test>
     fea:	223b      	movs	r2, #59	; 0x3b
     fec:	4621      	mov	r1, r4
     fee:	487b      	ldr	r0, [pc, #492]	; (11dc <run+0x448>)
     ff0:	f7ff fffe 	bl	0 <do_test>
     ff4:	223c      	movs	r2, #60	; 0x3c
     ff6:	4621      	mov	r1, r4
     ff8:	4879      	ldr	r0, [pc, #484]	; (11e0 <run+0x44c>)
     ffa:	f7ff fffe 	bl	0 <do_test>
     ffe:	223d      	movs	r2, #61	; 0x3d
    1000:	4621      	mov	r1, r4
    1002:	4878      	ldr	r0, [pc, #480]	; (11e4 <run+0x450>)
    1004:	f7ff fffe 	bl	0 <do_test>
    1008:	223e      	movs	r2, #62	; 0x3e
    100a:	4621      	mov	r1, r4
    100c:	4876      	ldr	r0, [pc, #472]	; (11e8 <run+0x454>)
    100e:	f7ff fffe 	bl	0 <do_test>
    1012:	223f      	movs	r2, #63	; 0x3f
    1014:	4621      	mov	r1, r4
    1016:	4875      	ldr	r0, [pc, #468]	; (11ec <run+0x458>)
    1018:	f7ff fffe 	bl	0 <do_test>
    101c:	2240      	movs	r2, #64	; 0x40
    101e:	4621      	mov	r1, r4
    1020:	4873      	ldr	r0, [pc, #460]	; (11f0 <run+0x45c>)
    1022:	f7ff fffe 	bl	0 <do_test>
    1026:	2241      	movs	r2, #65	; 0x41
    1028:	4621      	mov	r1, r4
    102a:	4872      	ldr	r0, [pc, #456]	; (11f4 <run+0x460>)
    102c:	f7ff fffe 	bl	0 <do_test>
    1030:	2242      	movs	r2, #66	; 0x42
    1032:	4631      	mov	r1, r6
    1034:	4870      	ldr	r0, [pc, #448]	; (11f8 <run+0x464>)
    1036:	f7ff fffe 	bl	0 <do_test>
    103a:	2243      	movs	r2, #67	; 0x43
    103c:	4631      	mov	r1, r6
    103e:	486f      	ldr	r0, [pc, #444]	; (11fc <run+0x468>)
    1040:	f7ff fffe 	bl	0 <do_test>
    1044:	2244      	movs	r2, #68	; 0x44
    1046:	4631      	mov	r1, r6
    1048:	486d      	ldr	r0, [pc, #436]	; (1200 <run+0x46c>)
    104a:	f7ff fffe 	bl	0 <do_test>
    104e:	2245      	movs	r2, #69	; 0x45
    1050:	4621      	mov	r1, r4
    1052:	486c      	ldr	r0, [pc, #432]	; (1204 <run+0x470>)
    1054:	f7ff fffe 	bl	0 <do_test>
    1058:	2246      	movs	r2, #70	; 0x46
    105a:	4629      	mov	r1, r5
    105c:	486a      	ldr	r0, [pc, #424]	; (1208 <run+0x474>)
    105e:	f7ff fffe 	bl	0 <do_test>
    1062:	2247      	movs	r2, #71	; 0x47
    1064:	4629      	mov	r1, r5
    1066:	4869      	ldr	r0, [pc, #420]	; (120c <run+0x478>)
    1068:	f7ff fffe 	bl	0 <do_test>
    106c:	2248      	movs	r2, #72	; 0x48
    106e:	4621      	mov	r1, r4
    1070:	4867      	ldr	r0, [pc, #412]	; (1210 <run+0x47c>)
    1072:	f7ff fffe 	bl	0 <do_test>
    1076:	2249      	movs	r2, #73	; 0x49
    1078:	4621      	mov	r1, r4
    107a:	4866      	ldr	r0, [pc, #408]	; (1214 <run+0x480>)
    107c:	f7ff fffe 	bl	0 <do_test>
    1080:	224a      	movs	r2, #74	; 0x4a
    1082:	4629      	mov	r1, r5
    1084:	4864      	ldr	r0, [pc, #400]	; (1218 <run+0x484>)
    1086:	f7ff fffe 	bl	0 <do_test>
    108a:	224b      	movs	r2, #75	; 0x4b
    108c:	4629      	mov	r1, r5
    108e:	4863      	ldr	r0, [pc, #396]	; (121c <run+0x488>)
    1090:	f7ff fffe 	bl	0 <do_test>
    1094:	224c      	movs	r2, #76	; 0x4c
    1096:	4621      	mov	r1, r4
    1098:	4861      	ldr	r0, [pc, #388]	; (1220 <run+0x48c>)
    109a:	f7ff fffe 	bl	0 <do_test>
    109e:	224d      	movs	r2, #77	; 0x4d
    10a0:	4621      	mov	r1, r4
    10a2:	4860      	ldr	r0, [pc, #384]	; (1224 <run+0x490>)
    10a4:	f7ff fffe 	bl	0 <do_test>
    10a8:	224e      	movs	r2, #78	; 0x4e
    10aa:	4621      	mov	r1, r4
    10ac:	485e      	ldr	r0, [pc, #376]	; (1228 <run+0x494>)
    10ae:	f7ff fffe 	bl	0 <do_test>
    10b2:	224f      	movs	r2, #79	; 0x4f
    10b4:	4621      	mov	r1, r4
    10b6:	485d      	ldr	r0, [pc, #372]	; (122c <run+0x498>)
    10b8:	f7ff fffe 	bl	0 <do_test>
    10bc:	2250      	movs	r2, #80	; 0x50
    10be:	4621      	mov	r1, r4
    10c0:	485b      	ldr	r0, [pc, #364]	; (1230 <run+0x49c>)
    10c2:	f7ff fffe 	bl	0 <do_test>
    10c6:	2251      	movs	r2, #81	; 0x51
    10c8:	4621      	mov	r1, r4
    10ca:	485a      	ldr	r0, [pc, #360]	; (1234 <run+0x4a0>)
    10cc:	f7ff fffe 	bl	0 <do_test>
    10d0:	4e59      	ldr	r6, [pc, #356]	; (1238 <run+0x4a4>)
    10d2:	2252      	movs	r2, #82	; 0x52
    10d4:	4621      	mov	r1, r4
    10d6:	4630      	mov	r0, r6
    10d8:	f7ff fffe 	bl	0 <do_test>
    10dc:	2253      	movs	r2, #83	; 0x53
    10de:	4621      	mov	r1, r4
    10e0:	4630      	mov	r0, r6
    10e2:	e0ab      	b.n	123c <run+0x4a8>
    10e4:	20002484 	.word	0x20002484
	...
    117c:	200023e4 	.word	0x200023e4
	...
    11a0:	200022ec 	.word	0x200022ec
	...
    123c:	f7ff fffe 	bl	0 <do_test>
    1240:	2254      	movs	r2, #84	; 0x54
    1242:	4621      	mov	r1, r4
    1244:	4854      	ldr	r0, [pc, #336]	; (1398 <run+0x604>)
    1246:	f7ff fffe 	bl	0 <do_test>
    124a:	2255      	movs	r2, #85	; 0x55
    124c:	4621      	mov	r1, r4
    124e:	4853      	ldr	r0, [pc, #332]	; (139c <run+0x608>)
    1250:	f7ff fffe 	bl	0 <do_test>
    1254:	2256      	movs	r2, #86	; 0x56
    1256:	4621      	mov	r1, r4
    1258:	4851      	ldr	r0, [pc, #324]	; (13a0 <run+0x60c>)
    125a:	f7ff fffe 	bl	0 <do_test>
    125e:	4e51      	ldr	r6, [pc, #324]	; (13a4 <run+0x610>)
    1260:	2257      	movs	r2, #87	; 0x57
    1262:	4621      	mov	r1, r4
    1264:	4630      	mov	r0, r6
    1266:	f7ff fffe 	bl	0 <do_test>
    126a:	2258      	movs	r2, #88	; 0x58
    126c:	4621      	mov	r1, r4
    126e:	484e      	ldr	r0, [pc, #312]	; (13a8 <run+0x614>)
    1270:	f7ff fffe 	bl	0 <do_test>
    1274:	2259      	movs	r2, #89	; 0x59
    1276:	4621      	mov	r1, r4
    1278:	4630      	mov	r0, r6
    127a:	f7ff fffe 	bl	0 <do_test>
    127e:	225a      	movs	r2, #90	; 0x5a
    1280:	4621      	mov	r1, r4
    1282:	484a      	ldr	r0, [pc, #296]	; (13ac <run+0x618>)
    1284:	f7ff fffe 	bl	0 <do_test>
    1288:	225b      	movs	r2, #91	; 0x5b
    128a:	4621      	mov	r1, r4
    128c:	4848      	ldr	r0, [pc, #288]	; (13b0 <run+0x61c>)
    128e:	f7ff fffe 	bl	0 <do_test>
    1292:	225c      	movs	r2, #92	; 0x5c
    1294:	4629      	mov	r1, r5
    1296:	4847      	ldr	r0, [pc, #284]	; (13b4 <run+0x620>)
    1298:	f7ff fffe 	bl	0 <do_test>
    129c:	225d      	movs	r2, #93	; 0x5d
    129e:	4629      	mov	r1, r5
    12a0:	4845      	ldr	r0, [pc, #276]	; (13b8 <run+0x624>)
    12a2:	f7ff fffe 	bl	0 <do_test>
    12a6:	225e      	movs	r2, #94	; 0x5e
    12a8:	4621      	mov	r1, r4
    12aa:	4844      	ldr	r0, [pc, #272]	; (13bc <run+0x628>)
    12ac:	f7ff fffe 	bl	0 <do_test>
    12b0:	225f      	movs	r2, #95	; 0x5f
    12b2:	4629      	mov	r1, r5
    12b4:	4842      	ldr	r0, [pc, #264]	; (13c0 <run+0x62c>)
    12b6:	f7ff fffe 	bl	0 <do_test>
    12ba:	2260      	movs	r2, #96	; 0x60
    12bc:	4629      	mov	r1, r5
    12be:	4841      	ldr	r0, [pc, #260]	; (13c4 <run+0x630>)
    12c0:	f7ff fffe 	bl	0 <do_test>
    12c4:	2261      	movs	r2, #97	; 0x61
    12c6:	4621      	mov	r1, r4
    12c8:	483f      	ldr	r0, [pc, #252]	; (13c8 <run+0x634>)
    12ca:	f7ff fffe 	bl	0 <do_test>
    12ce:	2262      	movs	r2, #98	; 0x62
    12d0:	4621      	mov	r1, r4
    12d2:	483e      	ldr	r0, [pc, #248]	; (13cc <run+0x638>)
    12d4:	f7ff fffe 	bl	0 <do_test>
    12d8:	2263      	movs	r2, #99	; 0x63
    12da:	4621      	mov	r1, r4
    12dc:	483c      	ldr	r0, [pc, #240]	; (13d0 <run+0x63c>)
    12de:	f7ff fffe 	bl	0 <do_test>
    12e2:	2264      	movs	r2, #100	; 0x64
    12e4:	4621      	mov	r1, r4
    12e6:	483b      	ldr	r0, [pc, #236]	; (13d4 <run+0x640>)
    12e8:	f7ff fffe 	bl	0 <do_test>
    12ec:	2265      	movs	r2, #101	; 0x65
    12ee:	4629      	mov	r1, r5
    12f0:	4839      	ldr	r0, [pc, #228]	; (13d8 <run+0x644>)
    12f2:	f7ff fffe 	bl	0 <do_test>
    12f6:	2266      	movs	r2, #102	; 0x66
    12f8:	4629      	mov	r1, r5
    12fa:	4838      	ldr	r0, [pc, #224]	; (13dc <run+0x648>)
    12fc:	f7ff fffe 	bl	0 <do_test>
    1300:	2267      	movs	r2, #103	; 0x67
    1302:	4629      	mov	r1, r5
    1304:	4836      	ldr	r0, [pc, #216]	; (13e0 <run+0x64c>)
    1306:	f7ff fffe 	bl	0 <do_test>
    130a:	2268      	movs	r2, #104	; 0x68
    130c:	4629      	mov	r1, r5
    130e:	4835      	ldr	r0, [pc, #212]	; (13e4 <run+0x650>)
    1310:	f7ff fffe 	bl	0 <do_test>
    1314:	2269      	movs	r2, #105	; 0x69
    1316:	4629      	mov	r1, r5
    1318:	4833      	ldr	r0, [pc, #204]	; (13e8 <run+0x654>)
    131a:	f7ff fffe 	bl	0 <do_test>
    131e:	226a      	movs	r2, #106	; 0x6a
    1320:	4629      	mov	r1, r5
    1322:	4832      	ldr	r0, [pc, #200]	; (13ec <run+0x658>)
    1324:	f7ff fffe 	bl	0 <do_test>
    1328:	226b      	movs	r2, #107	; 0x6b
    132a:	4621      	mov	r1, r4
    132c:	4830      	ldr	r0, [pc, #192]	; (13f0 <run+0x65c>)
    132e:	f7ff fffe 	bl	0 <do_test>
    1332:	226c      	movs	r2, #108	; 0x6c
    1334:	4621      	mov	r1, r4
    1336:	482f      	ldr	r0, [pc, #188]	; (13f4 <run+0x660>)
    1338:	f7ff fffe 	bl	0 <do_test>
    133c:	226d      	movs	r2, #109	; 0x6d
    133e:	4621      	mov	r1, r4
    1340:	482d      	ldr	r0, [pc, #180]	; (13f8 <run+0x664>)
    1342:	f7ff fffe 	bl	0 <do_test>
    1346:	226e      	movs	r2, #110	; 0x6e
    1348:	4621      	mov	r1, r4
    134a:	482c      	ldr	r0, [pc, #176]	; (13fc <run+0x668>)
    134c:	f7ff fffe 	bl	0 <do_test>
    1350:	226f      	movs	r2, #111	; 0x6f
    1352:	4621      	mov	r1, r4
    1354:	482a      	ldr	r0, [pc, #168]	; (1400 <run+0x66c>)
    1356:	f7ff fffe 	bl	0 <do_test>
    135a:	2270      	movs	r2, #112	; 0x70
    135c:	4621      	mov	r1, r4
    135e:	4829      	ldr	r0, [pc, #164]	; (1404 <run+0x670>)
    1360:	f7ff fffe 	bl	0 <do_test>
    1364:	2271      	movs	r2, #113	; 0x71
    1366:	4621      	mov	r1, r4
    1368:	4827      	ldr	r0, [pc, #156]	; (1408 <run+0x674>)
    136a:	f7ff fffe 	bl	0 <do_test>
    136e:	2272      	movs	r2, #114	; 0x72
    1370:	4621      	mov	r1, r4
    1372:	4826      	ldr	r0, [pc, #152]	; (140c <run+0x678>)
    1374:	f7ff fffe 	bl	0 <do_test>
    1378:	2273      	movs	r2, #115	; 0x73
    137a:	4621      	mov	r1, r4
    137c:	4824      	ldr	r0, [pc, #144]	; (1410 <run+0x67c>)
    137e:	f7ff fffe 	bl	0 <do_test>
    1382:	2274      	movs	r2, #116	; 0x74
    1384:	4621      	mov	r1, r4
    1386:	4823      	ldr	r0, [pc, #140]	; (1414 <run+0x680>)
    1388:	f7ff fffe 	bl	0 <do_test>
    138c:	2275      	movs	r2, #117	; 0x75
    138e:	4621      	mov	r1, r4
    1390:	4821      	ldr	r0, [pc, #132]	; (1418 <run+0x684>)
    1392:	f7ff fffe 	bl	0 <do_test>
    1396:	bd70      	pop	{r4, r5, r6, pc}
	...
