
bitfield.elf:     file format elf64-x86-64


Disassembly of section .text:

00000000004006c0 <_start>:
  4006c0:	31 ed                	xor    %ebp,%ebp
  4006c2:	49 89 d1             	mov    %rdx,%r9
  4006c5:	5e                   	pop    %rsi
  4006c6:	48 89 e2             	mov    %rsp,%rdx
  4006c9:	48 83 e4 f0          	and    $0xfffffffffffffff0,%rsp
  4006cd:	50                   	push   %rax
  4006ce:	54                   	push   %rsp
  4006cf:	49 c7 c0 f0 31 40 00 	mov    $0x4031f0,%r8
  4006d6:	48 c7 c1 80 31 40 00 	mov    $0x403180,%rcx
  4006dd:	48 c7 c7 f9 30 40 00 	mov    $0x4030f9,%rdi
  4006e4:	e8 77 ff ff ff       	callq  400660 <__libc_start_main@plt>
  4006e9:	f4                   	hlt    
  4006ea:	66 0f 1f 44 00 00    	nopw   0x0(%rax,%rax,1)

00000000004006f0 <deregister_tm_clones>:
  4006f0:	b8 5f 50 60 00       	mov    $0x60505f,%eax
  4006f5:	55                   	push   %rbp
  4006f6:	48 2d 58 50 60 00    	sub    $0x605058,%rax
  4006fc:	48 83 f8 0e          	cmp    $0xe,%rax
  400700:	48 89 e5             	mov    %rsp,%rbp
  400703:	77 02                	ja     400707 <deregister_tm_clones+0x17>
  400705:	5d                   	pop    %rbp
  400706:	c3                   	retq   
  400707:	b8 00 00 00 00       	mov    $0x0,%eax
  40070c:	48 85 c0             	test   %rax,%rax
  40070f:	74 f4                	je     400705 <deregister_tm_clones+0x15>
  400711:	5d                   	pop    %rbp
  400712:	bf 58 50 60 00       	mov    $0x605058,%edi
  400717:	ff e0                	jmpq   *%rax
  400719:	0f 1f 80 00 00 00 00 	nopl   0x0(%rax)

0000000000400720 <register_tm_clones>:
  400720:	b8 58 50 60 00       	mov    $0x605058,%eax
  400725:	55                   	push   %rbp
  400726:	48 2d 58 50 60 00    	sub    $0x605058,%rax
  40072c:	48 c1 f8 03          	sar    $0x3,%rax
  400730:	48 89 e5             	mov    %rsp,%rbp
  400733:	48 89 c2             	mov    %rax,%rdx
  400736:	48 c1 ea 3f          	shr    $0x3f,%rdx
  40073a:	48 01 d0             	add    %rdx,%rax
  40073d:	48 d1 f8             	sar    %rax
  400740:	75 02                	jne    400744 <register_tm_clones+0x24>
  400742:	5d                   	pop    %rbp
  400743:	c3                   	retq   
  400744:	ba 00 00 00 00       	mov    $0x0,%edx
  400749:	48 85 d2             	test   %rdx,%rdx
  40074c:	74 f4                	je     400742 <register_tm_clones+0x22>
  40074e:	5d                   	pop    %rbp
  40074f:	48 89 c6             	mov    %rax,%rsi
  400752:	bf 58 50 60 00       	mov    $0x605058,%edi
  400757:	ff e2                	jmpq   *%rdx
  400759:	0f 1f 80 00 00 00 00 	nopl   0x0(%rax)

0000000000400760 <__do_global_dtors_aux>:
  400760:	80 3d 01 49 20 00 00 	cmpb   $0x0,0x204901(%rip)        # 605068 <completed.6337>
  400767:	75 11                	jne    40077a <__do_global_dtors_aux+0x1a>
  400769:	55                   	push   %rbp
  40076a:	48 89 e5             	mov    %rsp,%rbp
  40076d:	e8 7e ff ff ff       	callq  4006f0 <deregister_tm_clones>
  400772:	5d                   	pop    %rbp
  400773:	c6 05 ee 48 20 00 01 	movb   $0x1,0x2048ee(%rip)        # 605068 <completed.6337>
  40077a:	f3 c3                	repz retq 
  40077c:	0f 1f 40 00          	nopl   0x0(%rax)

0000000000400780 <frame_dummy>:
  400780:	48 83 3d 58 46 20 00 	cmpq   $0x0,0x204658(%rip)        # 604de0 <__JCR_END__>
  400787:	00 
  400788:	74 1e                	je     4007a8 <frame_dummy+0x28>
  40078a:	b8 00 00 00 00       	mov    $0x0,%eax
  40078f:	48 85 c0             	test   %rax,%rax
  400792:	74 14                	je     4007a8 <frame_dummy+0x28>
  400794:	55                   	push   %rbp
  400795:	bf e0 4d 60 00       	mov    $0x604de0,%edi
  40079a:	48 89 e5             	mov    %rsp,%rbp
  40079d:	ff d0                	callq  *%rax
  40079f:	5d                   	pop    %rbp
  4007a0:	e9 7b ff ff ff       	jmpq   400720 <register_tm_clones>
  4007a5:	0f 1f 00             	nopl   (%rax)
  4007a8:	e9 73 ff ff ff       	jmpq   400720 <register_tm_clones>

00000000004007ad <zero_reg>:
  4007ad:	c7 04 25 c4 02 70 00 	movl   $0x0,0x7002c4
  4007b4:	00 00 00 00 
  4007b8:	c3                   	retq   

00000000004007b9 <zero_array>:
  4007b9:	c7 04 25 2c 01 70 00 	movl   $0x0,0x70012c
  4007c0:	00 00 00 00 
  4007c4:	c3                   	retq   

00000000004007c5 <set_singl_bits_operator>:
  4007c5:	8b 04 25 c4 02 70 00 	mov    0x7002c4,%eax
  4007cc:	83 c8 40             	or     $0x40,%eax
  4007cf:	89 04 25 c4 02 70 00 	mov    %eax,0x7002c4
  4007d6:	c3                   	retq   

00000000004007d7 <set_singl_bits_method>:
  4007d7:	8b 04 25 c4 02 70 00 	mov    0x7002c4,%eax
  4007de:	83 c8 40             	or     $0x40,%eax
  4007e1:	89 04 25 c4 02 70 00 	mov    %eax,0x7002c4
  4007e8:	c3                   	retq   

00000000004007e9 <clr_singl_bits_operator>:
  4007e9:	8b 04 25 c4 02 70 00 	mov    0x7002c4,%eax
  4007f0:	83 e0 bf             	and    $0xffffffbf,%eax
  4007f3:	89 04 25 c4 02 70 00 	mov    %eax,0x7002c4
  4007fa:	c3                   	retq   

00000000004007fb <clr_singl_bits_method>:
  4007fb:	8b 04 25 c4 02 70 00 	mov    0x7002c4,%eax
  400802:	83 e0 bf             	and    $0xffffffbf,%eax
  400805:	89 04 25 c4 02 70 00 	mov    %eax,0x7002c4
  40080c:	c3                   	retq   

000000000040080d <set_singl_mskd_operator>:
  40080d:	48 8b 14 25 c0 02 70 	mov    0x7002c0,%rdx
  400814:	00 
  400815:	48 c1 ea 21          	shr    $0x21,%rdx
  400819:	83 e2 02             	and    $0x2,%edx
  40081c:	83 ca 01             	or     $0x1,%edx
  40081f:	01 d2                	add    %edx,%edx
  400821:	8b 04 25 c4 02 70 00 	mov    0x7002c4,%eax
  400828:	83 e0 f9             	and    $0xfffffff9,%eax
  40082b:	09 d0                	or     %edx,%eax
  40082d:	89 04 25 c4 02 70 00 	mov    %eax,0x7002c4
  400834:	c3                   	retq   

0000000000400835 <set_singl_mskd_method>:
  400835:	48 8b 14 25 c0 02 70 	mov    0x7002c0,%rdx
  40083c:	00 
  40083d:	48 c1 ea 21          	shr    $0x21,%rdx
  400841:	83 e2 02             	and    $0x2,%edx
  400844:	83 ca 01             	or     $0x1,%edx
  400847:	01 d2                	add    %edx,%edx
  400849:	8b 04 25 c4 02 70 00 	mov    0x7002c4,%eax
  400850:	83 e0 f9             	and    $0xfffffff9,%eax
  400853:	09 d0                	or     %edx,%eax
  400855:	89 04 25 c4 02 70 00 	mov    %eax,0x7002c4
  40085c:	c3                   	retq   

000000000040085d <clr_singl_mskd_operator>:
  40085d:	48 8b 14 25 c0 02 70 	mov    0x7002c0,%rdx
  400864:	00 
  400865:	48 c1 ea 21          	shr    $0x21,%rdx
  400869:	83 e2 02             	and    $0x2,%edx
  40086c:	0f b6 d2             	movzbl %dl,%edx
  40086f:	83 e2 03             	and    $0x3,%edx
  400872:	01 d2                	add    %edx,%edx
  400874:	8b 04 25 c4 02 70 00 	mov    0x7002c4,%eax
  40087b:	83 e0 f9             	and    $0xfffffff9,%eax
  40087e:	09 d0                	or     %edx,%eax
  400880:	89 04 25 c4 02 70 00 	mov    %eax,0x7002c4
  400887:	c3                   	retq   

0000000000400888 <clr_singl_mskd_method>:
  400888:	48 8b 14 25 c0 02 70 	mov    0x7002c0,%rdx
  40088f:	00 
  400890:	48 c1 ea 21          	shr    $0x21,%rdx
  400894:	83 e2 02             	and    $0x2,%edx
  400897:	0f b6 d2             	movzbl %dl,%edx
  40089a:	83 e2 03             	and    $0x3,%edx
  40089d:	01 d2                	add    %edx,%edx
  40089f:	8b 04 25 c4 02 70 00 	mov    0x7002c4,%eax
  4008a6:	83 e0 f9             	and    $0xfffffff9,%eax
  4008a9:	09 d0                	or     %edx,%eax
  4008ab:	89 04 25 c4 02 70 00 	mov    %eax,0x7002c4
  4008b2:	c3                   	retq   

00000000004008b3 <equ_singl_bits_operator>:
  4008b3:	c7 04 25 c4 02 70 00 	movl   $0x0,0x7002c4
  4008ba:	00 00 00 00 
  4008be:	8b 04 25 c4 02 70 00 	mov    0x7002c4,%eax
  4008c5:	83 c8 40             	or     $0x40,%eax
  4008c8:	89 04 25 c4 02 70 00 	mov    %eax,0x7002c4
  4008cf:	c3                   	retq   

00000000004008d0 <equ_singl_bits_method>:
  4008d0:	c7 04 25 c4 02 70 00 	movl   $0x0,0x7002c4
  4008d7:	00 00 00 00 
  4008db:	8b 04 25 c4 02 70 00 	mov    0x7002c4,%eax
  4008e2:	83 c8 40             	or     $0x40,%eax
  4008e5:	89 04 25 c4 02 70 00 	mov    %eax,0x7002c4
  4008ec:	c3                   	retq   

00000000004008ed <equ_singl_mskd_operator>:
  4008ed:	c7 04 25 c4 02 70 00 	movl   $0x0,0x7002c4
  4008f4:	00 00 00 00 
  4008f8:	8b 04 25 c4 02 70 00 	mov    0x7002c4,%eax
  4008ff:	83 e0 f9             	and    $0xfffffff9,%eax
  400902:	83 c8 02             	or     $0x2,%eax
  400905:	89 04 25 c4 02 70 00 	mov    %eax,0x7002c4
  40090c:	c3                   	retq   

000000000040090d <equ_singl_mskd_method>:
  40090d:	c7 04 25 c4 02 70 00 	movl   $0x0,0x7002c4
  400914:	00 00 00 00 
  400918:	8b 04 25 c4 02 70 00 	mov    0x7002c4,%eax
  40091f:	83 e0 f9             	and    $0xfffffff9,%eax
  400922:	83 c8 02             	or     $0x2,%eax
  400925:	89 04 25 c4 02 70 00 	mov    %eax,0x7002c4
  40092c:	c3                   	retq   

000000000040092d <flp_singl_bits_operator>:
  40092d:	8b 14 25 c4 02 70 00 	mov    0x7002c4,%edx
  400934:	c1 ea 06             	shr    $0x6,%edx
  400937:	83 f2 01             	xor    $0x1,%edx
  40093a:	83 e2 01             	and    $0x1,%edx
  40093d:	c1 e2 06             	shl    $0x6,%edx
  400940:	8b 04 25 c4 02 70 00 	mov    0x7002c4,%eax
  400947:	83 e0 bf             	and    $0xffffffbf,%eax
  40094a:	09 d0                	or     %edx,%eax
  40094c:	89 04 25 c4 02 70 00 	mov    %eax,0x7002c4
  400953:	c3                   	retq   

0000000000400954 <flp_singl_bits_method>:
  400954:	8b 14 25 c4 02 70 00 	mov    0x7002c4,%edx
  40095b:	c1 ea 06             	shr    $0x6,%edx
  40095e:	83 f2 01             	xor    $0x1,%edx
  400961:	83 e2 01             	and    $0x1,%edx
  400964:	c1 e2 06             	shl    $0x6,%edx
  400967:	8b 04 25 c4 02 70 00 	mov    0x7002c4,%eax
  40096e:	83 e0 bf             	and    $0xffffffbf,%eax
  400971:	09 d0                	or     %edx,%eax
  400973:	89 04 25 c4 02 70 00 	mov    %eax,0x7002c4
  40097a:	c3                   	retq   

000000000040097b <flp_singl_mskd_operator>:
  40097b:	48 8b 14 25 c0 02 70 	mov    0x7002c0,%rdx
  400982:	00 
  400983:	48 c1 ea 21          	shr    $0x21,%rdx
  400987:	83 e2 03             	and    $0x3,%edx
  40098a:	83 f2 01             	xor    $0x1,%edx
  40098d:	01 d2                	add    %edx,%edx
  40098f:	8b 04 25 c4 02 70 00 	mov    0x7002c4,%eax
  400996:	83 e0 f9             	and    $0xfffffff9,%eax
  400999:	09 d0                	or     %edx,%eax
  40099b:	89 04 25 c4 02 70 00 	mov    %eax,0x7002c4
  4009a2:	c3                   	retq   

00000000004009a3 <flp_singl_mskd_method>:
  4009a3:	48 8b 14 25 c0 02 70 	mov    0x7002c0,%rdx
  4009aa:	00 
  4009ab:	48 c1 ea 21          	shr    $0x21,%rdx
  4009af:	83 e2 03             	and    $0x3,%edx
  4009b2:	83 f2 01             	xor    $0x1,%edx
  4009b5:	01 d2                	add    %edx,%edx
  4009b7:	8b 04 25 c4 02 70 00 	mov    0x7002c4,%eax
  4009be:	83 e0 f9             	and    $0xfffffff9,%eax
  4009c1:	09 d0                	or     %edx,%eax
  4009c3:	89 04 25 c4 02 70 00 	mov    %eax,0x7002c4
  4009ca:	c3                   	retq   

00000000004009cb <ins_singl_mskd_operator>:
  4009cb:	8b 04 25 c4 02 70 00 	mov    0x7002c4,%eax
  4009d2:	83 e0 f9             	and    $0xfffffff9,%eax
  4009d5:	83 c8 04             	or     $0x4,%eax
  4009d8:	89 04 25 c4 02 70 00 	mov    %eax,0x7002c4
  4009df:	c3                   	retq   

00000000004009e0 <ins_singl_mskd_method>:
  4009e0:	8b 04 25 c4 02 70 00 	mov    0x7002c4,%eax
  4009e7:	83 e0 f9             	and    $0xfffffff9,%eax
  4009ea:	83 c8 04             	or     $0x4,%eax
  4009ed:	89 04 25 c4 02 70 00 	mov    %eax,0x7002c4
  4009f4:	c3                   	retq   

00000000004009f5 <set_multi_bits_operator>:
  4009f5:	8b 04 25 c4 02 70 00 	mov    0x7002c4,%eax
  4009fc:	83 c8 01             	or     $0x1,%eax
  4009ff:	89 04 25 c4 02 70 00 	mov    %eax,0x7002c4
  400a06:	8b 04 25 c4 02 70 00 	mov    0x7002c4,%eax
  400a0d:	83 c8 20             	or     $0x20,%eax
  400a10:	89 04 25 c4 02 70 00 	mov    %eax,0x7002c4
  400a17:	c3                   	retq   

0000000000400a18 <set_multi_bits_method>:
  400a18:	8b 04 25 c4 02 70 00 	mov    0x7002c4,%eax
  400a1f:	83 c8 01             	or     $0x1,%eax
  400a22:	89 04 25 c4 02 70 00 	mov    %eax,0x7002c4
  400a29:	8b 04 25 c4 02 70 00 	mov    0x7002c4,%eax
  400a30:	83 c8 20             	or     $0x20,%eax
  400a33:	89 04 25 c4 02 70 00 	mov    %eax,0x7002c4
  400a3a:	c3                   	retq   

0000000000400a3b <ins_multi_mskd_operator>:
  400a3b:	8b 04 25 c4 02 70 00 	mov    0x7002c4,%eax
  400a42:	25 7f f0 ff ff       	and    $0xfffff07f,%eax
  400a47:	0d 80 01 00 00       	or     $0x180,%eax
  400a4c:	89 04 25 c4 02 70 00 	mov    %eax,0x7002c4
  400a53:	8b 04 25 c4 02 70 00 	mov    0x7002c4,%eax
  400a5a:	83 e0 f9             	and    $0xfffffff9,%eax
  400a5d:	83 c8 02             	or     $0x2,%eax
  400a60:	89 04 25 c4 02 70 00 	mov    %eax,0x7002c4
  400a67:	c3                   	retq   

0000000000400a68 <ins_multi_mskd_method>:
  400a68:	8b 04 25 c4 02 70 00 	mov    0x7002c4,%eax
  400a6f:	25 7f f0 ff ff       	and    $0xfffff07f,%eax
  400a74:	0d 80 01 00 00       	or     $0x180,%eax
  400a79:	89 04 25 c4 02 70 00 	mov    %eax,0x7002c4
  400a80:	8b 04 25 c4 02 70 00 	mov    0x7002c4,%eax
  400a87:	83 e0 f9             	and    $0xfffffff9,%eax
  400a8a:	83 c8 02             	or     $0x2,%eax
  400a8d:	89 04 25 c4 02 70 00 	mov    %eax,0x7002c4
  400a94:	c3                   	retq   

0000000000400a95 <equ_multi_bits_operator>:
  400a95:	c7 04 25 c4 02 70 00 	movl   $0x0,0x7002c4
  400a9c:	00 00 00 00 
  400aa0:	8b 04 25 c4 02 70 00 	mov    0x7002c4,%eax
  400aa7:	83 c8 20             	or     $0x20,%eax
  400aaa:	89 04 25 c4 02 70 00 	mov    %eax,0x7002c4
  400ab1:	8b 04 25 c4 02 70 00 	mov    0x7002c4,%eax
  400ab8:	83 c8 40             	or     $0x40,%eax
  400abb:	89 04 25 c4 02 70 00 	mov    %eax,0x7002c4
  400ac2:	c3                   	retq   

0000000000400ac3 <equ_multi_bits_method>:
  400ac3:	c7 04 25 c4 02 70 00 	movl   $0x0,0x7002c4
  400aca:	00 00 00 00 
  400ace:	8b 04 25 c4 02 70 00 	mov    0x7002c4,%eax
  400ad5:	83 c8 20             	or     $0x20,%eax
  400ad8:	89 04 25 c4 02 70 00 	mov    %eax,0x7002c4
  400adf:	8b 04 25 c4 02 70 00 	mov    0x7002c4,%eax
  400ae6:	83 c8 40             	or     $0x40,%eax
  400ae9:	89 04 25 c4 02 70 00 	mov    %eax,0x7002c4
  400af0:	c3                   	retq   

0000000000400af1 <equ_multi_mskd_operator>:
  400af1:	c7 04 25 c4 02 70 00 	movl   $0x0,0x7002c4
  400af8:	00 00 00 00 
  400afc:	8b 04 25 c4 02 70 00 	mov    0x7002c4,%eax
  400b03:	83 e0 e7             	and    $0xffffffe7,%eax
  400b06:	83 c8 08             	or     $0x8,%eax
  400b09:	89 04 25 c4 02 70 00 	mov    %eax,0x7002c4
  400b10:	8b 04 25 c4 02 70 00 	mov    0x7002c4,%eax
  400b17:	25 7f f0 ff ff       	and    $0xfffff07f,%eax
  400b1c:	80 cc 03             	or     $0x3,%ah
  400b1f:	89 04 25 c4 02 70 00 	mov    %eax,0x7002c4
  400b26:	c3                   	retq   

0000000000400b27 <equ_multi_mskd_method>:
  400b27:	c7 04 25 c4 02 70 00 	movl   $0x0,0x7002c4
  400b2e:	00 00 00 00 
  400b32:	8b 04 25 c4 02 70 00 	mov    0x7002c4,%eax
  400b39:	83 e0 e7             	and    $0xffffffe7,%eax
  400b3c:	83 c8 08             	or     $0x8,%eax
  400b3f:	89 04 25 c4 02 70 00 	mov    %eax,0x7002c4
  400b46:	8b 04 25 c4 02 70 00 	mov    0x7002c4,%eax
  400b4d:	25 7f f0 ff ff       	and    $0xfffff07f,%eax
  400b52:	80 cc 03             	or     $0x3,%ah
  400b55:	89 04 25 c4 02 70 00 	mov    %eax,0x7002c4
  400b5c:	c3                   	retq   

0000000000400b5d <equ_bits_mskd_operator>:
  400b5d:	c7 04 25 c4 02 70 00 	movl   $0x0,0x7002c4
  400b64:	00 00 00 00 
  400b68:	8b 04 25 c4 02 70 00 	mov    0x7002c4,%eax
  400b6f:	83 c8 20             	or     $0x20,%eax
  400b72:	89 04 25 c4 02 70 00 	mov    %eax,0x7002c4
  400b79:	8b 04 25 c4 02 70 00 	mov    0x7002c4,%eax
  400b80:	83 e0 f9             	and    $0xfffffff9,%eax
  400b83:	83 c8 02             	or     $0x2,%eax
  400b86:	89 04 25 c4 02 70 00 	mov    %eax,0x7002c4
  400b8d:	c3                   	retq   

0000000000400b8e <equ_bits_mskd_method>:
  400b8e:	c7 04 25 c4 02 70 00 	movl   $0x0,0x7002c4
  400b95:	00 00 00 00 
  400b99:	8b 04 25 c4 02 70 00 	mov    0x7002c4,%eax
  400ba0:	83 c8 20             	or     $0x20,%eax
  400ba3:	89 04 25 c4 02 70 00 	mov    %eax,0x7002c4
  400baa:	8b 04 25 c4 02 70 00 	mov    0x7002c4,%eax
  400bb1:	83 e0 f9             	and    $0xfffffff9,%eax
  400bb4:	83 c8 02             	or     $0x2,%eax
  400bb7:	89 04 25 c4 02 70 00 	mov    %eax,0x7002c4
  400bbe:	c3                   	retq   

0000000000400bbf <equ_mskd_bits_operator>:
  400bbf:	c7 04 25 c4 02 70 00 	movl   $0x0,0x7002c4
  400bc6:	00 00 00 00 
  400bca:	8b 04 25 c4 02 70 00 	mov    0x7002c4,%eax
  400bd1:	83 e0 f9             	and    $0xfffffff9,%eax
  400bd4:	83 c8 04             	or     $0x4,%eax
  400bd7:	89 04 25 c4 02 70 00 	mov    %eax,0x7002c4
  400bde:	8b 04 25 c4 02 70 00 	mov    0x7002c4,%eax
  400be5:	83 c8 40             	or     $0x40,%eax
  400be8:	89 04 25 c4 02 70 00 	mov    %eax,0x7002c4
  400bef:	c3                   	retq   

0000000000400bf0 <equ_mskd_bits_method>:
  400bf0:	c7 04 25 c4 02 70 00 	movl   $0x0,0x7002c4
  400bf7:	00 00 00 00 
  400bfb:	8b 04 25 c4 02 70 00 	mov    0x7002c4,%eax
  400c02:	83 e0 f9             	and    $0xfffffff9,%eax
  400c05:	83 c8 04             	or     $0x4,%eax
  400c08:	89 04 25 c4 02 70 00 	mov    %eax,0x7002c4
  400c0f:	8b 04 25 c4 02 70 00 	mov    0x7002c4,%eax
  400c16:	83 c8 40             	or     $0x40,%eax
  400c19:	89 04 25 c4 02 70 00 	mov    %eax,0x7002c4
  400c20:	c3                   	retq   

0000000000400c21 <equ_bits_var>:
  400c21:	c7 04 25 c4 02 70 00 	movl   $0x0,0x7002c4
  400c28:	00 00 00 00 
  400c2c:	8b 04 25 c4 02 70 00 	mov    0x7002c4,%eax
  400c33:	83 c8 40             	or     $0x40,%eax
  400c36:	89 04 25 c4 02 70 00 	mov    %eax,0x7002c4
  400c3d:	c7 04 25 c4 02 70 00 	movl   $0x0,0x7002c4
  400c44:	00 00 00 00 
  400c48:	8b 04 25 c4 02 70 00 	mov    0x7002c4,%eax
  400c4f:	83 c8 01             	or     $0x1,%eax
  400c52:	89 04 25 c4 02 70 00 	mov    %eax,0x7002c4
  400c59:	c3                   	retq   

0000000000400c5a <equ_mskd_var>:
  400c5a:	c7 04 25 c4 02 70 00 	movl   $0x0,0x7002c4
  400c61:	00 00 00 00 
  400c65:	8b 04 25 c4 02 70 00 	mov    0x7002c4,%eax
  400c6c:	83 e0 f9             	and    $0xfffffff9,%eax
  400c6f:	83 c8 02             	or     $0x2,%eax
  400c72:	89 04 25 c4 02 70 00 	mov    %eax,0x7002c4
  400c79:	c7 04 25 c4 02 70 00 	movl   $0x0,0x7002c4
  400c80:	00 00 00 00 
  400c84:	8b 04 25 c4 02 70 00 	mov    0x7002c4,%eax
  400c8b:	25 7f f0 ff ff       	and    $0xfffff07f,%eax
  400c90:	0d 80 01 00 00       	or     $0x180,%eax
  400c95:	89 04 25 c4 02 70 00 	mov    %eax,0x7002c4
  400c9c:	c3                   	retq   

0000000000400c9d <cmp_equ_zero>:
  400c9d:	c7 04 25 c4 02 70 00 	movl   $0x0,0x7002c4
  400ca4:	00 00 00 00 
  400ca8:	c7 04 25 24 02 70 00 	movl   $0x0,0x700224
  400caf:	00 00 00 00 
  400cb3:	8b 04 25 c4 02 70 00 	mov    0x7002c4,%eax
  400cba:	85 c0                	test   %eax,%eax
  400cbc:	75 19                	jne    400cd7 <cmp_equ_zero+0x3a>
  400cbe:	8b 04 25 24 02 70 00 	mov    0x700224,%eax
  400cc5:	25 ff ff ff c1       	and    $0xc1ffffff,%eax
  400cca:	0d 00 00 00 3a       	or     $0x3a000000,%eax
  400ccf:	89 04 25 24 02 70 00 	mov    %eax,0x700224
  400cd6:	c3                   	retq   
  400cd7:	8b 04 25 24 02 70 00 	mov    0x700224,%eax
  400cde:	25 ff ff ff c1       	and    $0xc1ffffff,%eax
  400ce3:	0d 00 00 00 22       	or     $0x22000000,%eax
  400ce8:	89 04 25 24 02 70 00 	mov    %eax,0x700224
  400cef:	c3                   	retq   

0000000000400cf0 <cmp_neq_zero>:
  400cf0:	c7 04 25 c4 02 70 00 	movl   $0x0,0x7002c4
  400cf7:	00 00 00 00 
  400cfb:	8b 04 25 c4 02 70 00 	mov    0x7002c4,%eax
  400d02:	85 c0                	test   %eax,%eax
  400d04:	74 15                	je     400d1b <cmp_neq_zero+0x2b>
  400d06:	8b 04 25 c4 02 70 00 	mov    0x7002c4,%eax
  400d0d:	83 e0 f9             	and    $0xfffffff9,%eax
  400d10:	83 c8 04             	or     $0x4,%eax
  400d13:	89 04 25 c4 02 70 00 	mov    %eax,0x7002c4
  400d1a:	c3                   	retq   
  400d1b:	8b 04 25 c4 02 70 00 	mov    0x7002c4,%eax
  400d22:	83 c8 20             	or     $0x20,%eax
  400d25:	89 04 25 c4 02 70 00 	mov    %eax,0x7002c4
  400d2c:	c3                   	retq   

0000000000400d2d <cmp_equ_bits>:
  400d2d:	c7 04 25 c4 02 70 00 	movl   $0x0,0x7002c4
  400d34:	00 00 00 00 
  400d38:	8b 04 25 c4 02 70 00 	mov    0x7002c4,%eax
  400d3f:	83 c8 40             	or     $0x40,%eax
  400d42:	89 04 25 c4 02 70 00 	mov    %eax,0x7002c4
  400d49:	8b 04 25 c4 02 70 00 	mov    0x7002c4,%eax
  400d50:	a8 40                	test   $0x40,%al
  400d52:	74 19                	je     400d6d <cmp_equ_bits+0x40>
  400d54:	8b 04 25 24 02 70 00 	mov    0x700224,%eax
  400d5b:	25 ff ff ff c1       	and    $0xc1ffffff,%eax
  400d60:	0d 00 00 00 16       	or     $0x16000000,%eax
  400d65:	89 04 25 24 02 70 00 	mov    %eax,0x700224
  400d6c:	c3                   	retq   
  400d6d:	8b 04 25 24 02 70 00 	mov    0x700224,%eax
  400d74:	25 ff ff ff c1       	and    $0xc1ffffff,%eax
  400d79:	0d 00 00 00 1a       	or     $0x1a000000,%eax
  400d7e:	89 04 25 24 02 70 00 	mov    %eax,0x700224
  400d85:	c3                   	retq   

0000000000400d86 <cmp_neq_bits>:
  400d86:	c7 04 25 c4 02 70 00 	movl   $0x0,0x7002c4
  400d8d:	00 00 00 00 
  400d91:	8b 04 25 c4 02 70 00 	mov    0x7002c4,%eax
  400d98:	83 c8 40             	or     $0x40,%eax
  400d9b:	89 04 25 c4 02 70 00 	mov    %eax,0x7002c4
  400da2:	8b 04 25 c4 02 70 00 	mov    0x7002c4,%eax
  400da9:	a8 40                	test   $0x40,%al
  400dab:	75 20                	jne    400dcd <cmp_neq_bits+0x47>
  400dad:	c7 04 25 c4 02 70 00 	movl   $0x0,0x7002c4
  400db4:	00 00 00 00 
  400db8:	8b 04 25 c4 02 70 00 	mov    0x7002c4,%eax
  400dbf:	83 e0 f9             	and    $0xfffffff9,%eax
  400dc2:	83 c8 02             	or     $0x2,%eax
  400dc5:	89 04 25 c4 02 70 00 	mov    %eax,0x7002c4
  400dcc:	c3                   	retq   
  400dcd:	c7 04 25 c4 02 70 00 	movl   $0x0,0x7002c4
  400dd4:	00 00 00 00 
  400dd8:	8b 04 25 c4 02 70 00 	mov    0x7002c4,%eax
  400ddf:	83 c8 20             	or     $0x20,%eax
  400de2:	89 04 25 c4 02 70 00 	mov    %eax,0x7002c4
  400de9:	c3                   	retq   

0000000000400dea <cmp_equ_multi_bits>:
  400dea:	c7 04 25 c4 02 70 00 	movl   $0x0,0x7002c4
  400df1:	00 00 00 00 
  400df5:	8b 04 25 c4 02 70 00 	mov    0x7002c4,%eax
  400dfc:	83 c8 20             	or     $0x20,%eax
  400dff:	89 04 25 c4 02 70 00 	mov    %eax,0x7002c4
  400e06:	8b 04 25 c4 02 70 00 	mov    0x7002c4,%eax
  400e0d:	83 c8 40             	or     $0x40,%eax
  400e10:	89 04 25 c4 02 70 00 	mov    %eax,0x7002c4
  400e17:	8b 04 25 c4 02 70 00 	mov    0x7002c4,%eax
  400e1e:	a8 20                	test   $0x20,%al
  400e20:	74 2f                	je     400e51 <cmp_equ_multi_bits+0x67>
  400e22:	8b 04 25 c4 02 70 00 	mov    0x7002c4,%eax
  400e29:	a8 40                	test   $0x40,%al
  400e2b:	74 24                	je     400e51 <cmp_equ_multi_bits+0x67>
  400e2d:	c7 04 25 24 02 70 00 	movl   $0x0,0x700224
  400e34:	00 00 00 00 
  400e38:	8b 04 25 24 02 70 00 	mov    0x700224,%eax
  400e3f:	25 ff ff ff c1       	and    $0xc1ffffff,%eax
  400e44:	0d 00 00 00 22       	or     $0x22000000,%eax
  400e49:	89 04 25 24 02 70 00 	mov    %eax,0x700224
  400e50:	c3                   	retq   
  400e51:	c7 04 25 24 02 70 00 	movl   $0x0,0x700224
  400e58:	00 00 00 00 
  400e5c:	8b 04 25 24 02 70 00 	mov    0x700224,%eax
  400e63:	25 ff ff ff c1       	and    $0xc1ffffff,%eax
  400e68:	0d 00 00 00 2e       	or     $0x2e000000,%eax
  400e6d:	89 04 25 24 02 70 00 	mov    %eax,0x700224
  400e74:	c3                   	retq   

0000000000400e75 <cmp_neq_multi_bits>:
  400e75:	c7 04 25 c4 02 70 00 	movl   $0x0,0x7002c4
  400e7c:	00 00 00 00 
  400e80:	8b 04 25 c4 02 70 00 	mov    0x7002c4,%eax
  400e87:	83 c8 20             	or     $0x20,%eax
  400e8a:	89 04 25 c4 02 70 00 	mov    %eax,0x7002c4
  400e91:	8b 04 25 c4 02 70 00 	mov    0x7002c4,%eax
  400e98:	83 c8 40             	or     $0x40,%eax
  400e9b:	89 04 25 c4 02 70 00 	mov    %eax,0x7002c4
  400ea2:	8b 04 25 c4 02 70 00 	mov    0x7002c4,%eax
  400ea9:	a8 20                	test   $0x20,%al
  400eab:	75 2f                	jne    400edc <cmp_neq_multi_bits+0x67>
  400ead:	8b 04 25 c4 02 70 00 	mov    0x7002c4,%eax
  400eb4:	a8 40                	test   $0x40,%al
  400eb6:	75 24                	jne    400edc <cmp_neq_multi_bits+0x67>
  400eb8:	c7 04 25 24 02 70 00 	movl   $0x0,0x700224
  400ebf:	00 00 00 00 
  400ec3:	8b 04 25 24 02 70 00 	mov    0x700224,%eax
  400eca:	25 ff ff ff c1       	and    $0xc1ffffff,%eax
  400ecf:	0d 00 00 00 3a       	or     $0x3a000000,%eax
  400ed4:	89 04 25 24 02 70 00 	mov    %eax,0x700224
  400edb:	c3                   	retq   
  400edc:	c7 04 25 24 02 70 00 	movl   $0x0,0x700224
  400ee3:	00 00 00 00 
  400ee7:	8b 04 25 24 02 70 00 	mov    0x700224,%eax
  400eee:	0d 00 00 00 3e       	or     $0x3e000000,%eax
  400ef3:	89 04 25 24 02 70 00 	mov    %eax,0x700224
  400efa:	c3                   	retq   

0000000000400efb <cmp_equ_mskd>:
  400efb:	c7 04 25 c4 02 70 00 	movl   $0x0,0x7002c4
  400f02:	00 00 00 00 
  400f06:	8b 04 25 c4 02 70 00 	mov    0x7002c4,%eax
  400f0d:	25 ff 0f fe ff       	and    $0xfffe0fff,%eax
  400f12:	0d 00 d0 01 00       	or     $0x1d000,%eax
  400f17:	89 04 25 c4 02 70 00 	mov    %eax,0x7002c4
  400f1e:	8b 04 25 c4 02 70 00 	mov    0x7002c4,%eax
  400f25:	25 00 f0 01 00       	and    $0x1f000,%eax
  400f2a:	3d 00 10 01 00       	cmp    $0x11000,%eax
  400f2f:	75 19                	jne    400f4a <cmp_equ_mskd+0x4f>
  400f31:	8b 04 25 24 02 70 00 	mov    0x700224,%eax
  400f38:	25 ff ff ff c1       	and    $0xc1ffffff,%eax
  400f3d:	0d 00 00 00 0e       	or     $0xe000000,%eax
  400f42:	89 04 25 24 02 70 00 	mov    %eax,0x700224
  400f49:	c3                   	retq   
  400f4a:	8b 04 25 24 02 70 00 	mov    0x700224,%eax
  400f51:	25 ff ff ff c1       	and    $0xc1ffffff,%eax
  400f56:	0d 00 00 00 22       	or     $0x22000000,%eax
  400f5b:	89 04 25 24 02 70 00 	mov    %eax,0x700224
  400f62:	c3                   	retq   

0000000000400f63 <cmp_neq_mskd>:
  400f63:	c7 04 25 c4 02 70 00 	movl   $0x0,0x7002c4
  400f6a:	00 00 00 00 
  400f6e:	8b 04 25 c4 02 70 00 	mov    0x7002c4,%eax
  400f75:	25 ff 0f fe ff       	and    $0xfffe0fff,%eax
  400f7a:	0d 00 d0 01 00       	or     $0x1d000,%eax
  400f7f:	89 04 25 c4 02 70 00 	mov    %eax,0x7002c4
  400f86:	8b 04 25 c4 02 70 00 	mov    0x7002c4,%eax
  400f8d:	25 00 f0 01 00       	and    $0x1f000,%eax
  400f92:	3d 00 10 01 00       	cmp    $0x11000,%eax
  400f97:	74 15                	je     400fae <cmp_neq_mskd+0x4b>
  400f99:	8b 04 25 c4 02 70 00 	mov    0x7002c4,%eax
  400fa0:	83 e0 f9             	and    $0xfffffff9,%eax
  400fa3:	83 c8 04             	or     $0x4,%eax
  400fa6:	89 04 25 c4 02 70 00 	mov    %eax,0x7002c4
  400fad:	c3                   	retq   
  400fae:	8b 04 25 c4 02 70 00 	mov    0x7002c4,%eax
  400fb5:	83 c8 40             	or     $0x40,%eax
  400fb8:	89 04 25 c4 02 70 00 	mov    %eax,0x7002c4
  400fbf:	c3                   	retq   

0000000000400fc0 <cmp_equ_reg>:
  400fc0:	c7 04 25 c4 02 70 00 	movl   $0x0,0x7002c4
  400fc7:	00 00 00 00 
  400fcb:	8b 04 25 c4 02 70 00 	mov    0x7002c4,%eax
  400fd2:	83 c8 20             	or     $0x20,%eax
  400fd5:	89 04 25 c4 02 70 00 	mov    %eax,0x7002c4
  400fdc:	8b 04 25 c4 02 70 00 	mov    0x7002c4,%eax
  400fe3:	83 e0 f9             	and    $0xfffffff9,%eax
  400fe6:	83 c8 02             	or     $0x2,%eax
  400fe9:	89 04 25 c4 02 70 00 	mov    %eax,0x7002c4
  400ff0:	8b 04 25 c4 02 70 00 	mov    0x7002c4,%eax
  400ff7:	a8 01                	test   $0x1,%al
  400ff9:	75 70                	jne    40106b <cmp_equ_reg+0xab>
  400ffb:	8b 04 25 c4 02 70 00 	mov    0x7002c4,%eax
  401002:	83 e0 06             	and    $0x6,%eax
  401005:	83 f8 02             	cmp    $0x2,%eax
  401008:	75 61                	jne    40106b <cmp_equ_reg+0xab>
  40100a:	8b 04 25 c4 02 70 00 	mov    0x7002c4,%eax
  401011:	a8 01                	test   $0x1,%al
  401013:	75 56                	jne    40106b <cmp_equ_reg+0xab>
  401015:	8b 04 25 c4 02 70 00 	mov    0x7002c4,%eax
  40101c:	a8 20                	test   $0x20,%al
  40101e:	74 4b                	je     40106b <cmp_equ_reg+0xab>
  401020:	8b 04 25 c4 02 70 00 	mov    0x7002c4,%eax
  401027:	a8 40                	test   $0x40,%al
  401029:	75 40                	jne    40106b <cmp_equ_reg+0xab>
  40102b:	8b 04 25 c4 02 70 00 	mov    0x7002c4,%eax
  401032:	a9 80 0f 00 00       	test   $0xf80,%eax
  401037:	75 32                	jne    40106b <cmp_equ_reg+0xab>
  401039:	8b 04 25 c4 02 70 00 	mov    0x7002c4,%eax
  401040:	a9 00 f0 01 00       	test   $0x1f000,%eax
  401045:	75 24                	jne    40106b <cmp_equ_reg+0xab>
  401047:	c7 04 25 24 02 70 00 	movl   $0x0,0x700224
  40104e:	00 00 00 00 
  401052:	8b 04 25 24 02 70 00 	mov    0x700224,%eax
  401059:	25 ff ff ff c1       	and    $0xc1ffffff,%eax
  40105e:	0d 00 00 00 2a       	or     $0x2a000000,%eax
  401063:	89 04 25 24 02 70 00 	mov    %eax,0x700224
  40106a:	c3                   	retq   
  40106b:	c7 04 25 24 02 70 00 	movl   $0x0,0x700224
  401072:	00 00 00 00 
  401076:	8b 04 25 24 02 70 00 	mov    0x700224,%eax
  40107d:	25 ff ff ff c1       	and    $0xc1ffffff,%eax
  401082:	0d 00 00 00 2e       	or     $0x2e000000,%eax
  401087:	89 04 25 24 02 70 00 	mov    %eax,0x700224
  40108e:	c3                   	retq   

000000000040108f <cmp_neq_reg>:
  40108f:	c7 04 25 c4 02 70 00 	movl   $0x0,0x7002c4
  401096:	00 00 00 00 
  40109a:	8b 04 25 c4 02 70 00 	mov    0x7002c4,%eax
  4010a1:	83 c8 20             	or     $0x20,%eax
  4010a4:	89 04 25 c4 02 70 00 	mov    %eax,0x7002c4
  4010ab:	8b 04 25 c4 02 70 00 	mov    0x7002c4,%eax
  4010b2:	83 e0 f9             	and    $0xfffffff9,%eax
  4010b5:	83 c8 02             	or     $0x2,%eax
  4010b8:	89 04 25 c4 02 70 00 	mov    %eax,0x7002c4
  4010bf:	8b 04 25 c4 02 70 00 	mov    0x7002c4,%eax
  4010c6:	a8 01                	test   $0x1,%al
  4010c8:	75 4c                	jne    401116 <cmp_neq_reg+0x87>
  4010ca:	8b 04 25 c4 02 70 00 	mov    0x7002c4,%eax
  4010d1:	83 e0 06             	and    $0x6,%eax
  4010d4:	83 f8 02             	cmp    $0x2,%eax
  4010d7:	75 3d                	jne    401116 <cmp_neq_reg+0x87>
  4010d9:	8b 04 25 c4 02 70 00 	mov    0x7002c4,%eax
  4010e0:	a8 01                	test   $0x1,%al
  4010e2:	75 32                	jne    401116 <cmp_neq_reg+0x87>
  4010e4:	8b 04 25 c4 02 70 00 	mov    0x7002c4,%eax
  4010eb:	a8 20                	test   $0x20,%al
  4010ed:	74 27                	je     401116 <cmp_neq_reg+0x87>
  4010ef:	8b 04 25 c4 02 70 00 	mov    0x7002c4,%eax
  4010f6:	a8 40                	test   $0x40,%al
  4010f8:	75 1c                	jne    401116 <cmp_neq_reg+0x87>
  4010fa:	8b 04 25 c4 02 70 00 	mov    0x7002c4,%eax
  401101:	a9 80 0f 00 00       	test   $0xf80,%eax
  401106:	75 0e                	jne    401116 <cmp_neq_reg+0x87>
  401108:	8b 04 25 c4 02 70 00 	mov    0x7002c4,%eax
  40110f:	a9 00 f0 01 00       	test   $0x1f000,%eax
  401114:	74 20                	je     401136 <cmp_neq_reg+0xa7>
  401116:	c7 04 25 c4 02 70 00 	movl   $0x0,0x7002c4
  40111d:	00 00 00 00 
  401121:	8b 04 25 c4 02 70 00 	mov    0x7002c4,%eax
  401128:	83 e0 f9             	and    $0xfffffff9,%eax
  40112b:	83 c8 02             	or     $0x2,%eax
  40112e:	89 04 25 c4 02 70 00 	mov    %eax,0x7002c4
  401135:	c3                   	retq   
  401136:	c7 04 25 c4 02 70 00 	movl   $0x0,0x7002c4
  40113d:	00 00 00 00 
  401141:	8b 04 25 c4 02 70 00 	mov    0x7002c4,%eax
  401148:	83 c8 20             	or     $0x20,%eax
  40114b:	89 04 25 c4 02 70 00 	mov    %eax,0x7002c4
  401152:	c3                   	retq   

0000000000401153 <constexpr_bits_array>:
  401153:	c7 04 25 2c 01 70 00 	movl   $0x6,0x70012c
  40115a:	06 00 00 00 
  40115e:	c7 04 25 a0 01 70 00 	movl   $0x0,0x7001a0
  401165:	00 00 00 00 
  401169:	8b 04 25 a0 01 70 00 	mov    0x7001a0,%eax
  401170:	80 cc 20             	or     $0x20,%ah
  401173:	89 04 25 a0 01 70 00 	mov    %eax,0x7001a0
  40117a:	c3                   	retq   

000000000040117b <runtime_bits_array>:
  40117b:	c7 44 24 fc 03 00 00 	movl   $0x3,-0x4(%rsp)
  401182:	00 
  401183:	8b 44 24 fc          	mov    -0x4(%rsp),%eax
  401187:	89 c0                	mov    %eax,%eax
  401189:	48 83 c0 08          	add    $0x8,%rax
  40118d:	c7 04 85 00 01 70 00 	movl   $0x21,0x700100(,%rax,4)
  401194:	21 00 00 00 
  401198:	c7 44 24 fc 07 00 00 	movl   $0x7,-0x4(%rsp)
  40119f:	00 
  4011a0:	c7 04 25 a0 01 70 00 	movl   $0x0,0x7001a0
  4011a7:	00 00 00 00 
  4011ab:	8b 44 24 fc          	mov    -0x4(%rsp),%eax
  4011af:	83 f8 07             	cmp    $0x7,%eax
  4011b2:	75 10                	jne    4011c4 <runtime_bits_array+0x49>
  4011b4:	8b 04 25 a0 01 70 00 	mov    0x7001a0,%eax
  4011bb:	0c 80                	or     $0x80,%al
  4011bd:	89 04 25 a0 01 70 00 	mov    %eax,0x7001a0
  4011c4:	f3 c3                	repz retq 

00000000004011c6 <prescaler_low>:
  4011c6:	8b 04 25 24 02 70 00 	mov    0x700224,%eax
  4011cd:	83 e0 80             	and    $0xffffff80,%eax
  4011d0:	83 c8 77             	or     $0x77,%eax
  4011d3:	89 04 25 24 02 70 00 	mov    %eax,0x700224
  4011da:	48 8b 04 25 20 02 70 	mov    0x700220,%rax
  4011e1:	00 
  4011e2:	48 c1 e8 20          	shr    $0x20,%rax
  4011e6:	83 e0 7f             	and    $0x7f,%eax
  4011e9:	89 04 25 2c 01 70 00 	mov    %eax,0x70012c
  4011f0:	c3                   	retq   

00000000004011f1 <prescaler_high>:
  4011f1:	8b 04 25 24 02 70 00 	mov    0x700224,%eax
  4011f8:	25 ff ff ff c1       	and    $0xc1ffffff,%eax
  4011fd:	0d 00 00 00 3a       	or     $0x3a000000,%eax
  401202:	89 04 25 24 02 70 00 	mov    %eax,0x700224
  401209:	48 8b 04 25 20 02 70 	mov    0x700220,%rax
  401210:	00 
  401211:	48 c1 e8 39          	shr    $0x39,%rax
  401215:	83 e0 1f             	and    $0x1f,%eax
  401218:	89 04 25 2c 01 70 00 	mov    %eax,0x70012c
  40121f:	c3                   	retq   

0000000000401220 <reg_mskd_lss>:
  401220:	8b 04 25 24 02 70 00 	mov    0x700224,%eax
  401227:	25 ff ff ff c1       	and    $0xc1ffffff,%eax
  40122c:	0d 00 00 00 36       	or     $0x36000000,%eax
  401231:	89 04 25 24 02 70 00 	mov    %eax,0x700224
  401238:	c7 04 25 c4 02 70 00 	movl   $0x0,0x7002c4
  40123f:	00 00 00 00 
  401243:	48 8b 04 25 20 02 70 	mov    0x700220,%rax
  40124a:	00 
  40124b:	48 c1 e8 39          	shr    $0x39,%rax
  40124f:	83 e0 1f             	and    $0x1f,%eax
  401252:	83 f8 1b             	cmp    $0x1b,%eax
  401255:	7f 15                	jg     40126c <reg_mskd_lss+0x4c>
  401257:	8b 04 25 c4 02 70 00 	mov    0x7002c4,%eax
  40125e:	83 e0 f9             	and    $0xfffffff9,%eax
  401261:	83 c8 02             	or     $0x2,%eax
  401264:	89 04 25 c4 02 70 00 	mov    %eax,0x7002c4
  40126b:	c3                   	retq   
  40126c:	8b 04 25 c4 02 70 00 	mov    0x7002c4,%eax
  401273:	83 e0 f9             	and    $0xfffffff9,%eax
  401276:	83 c8 04             	or     $0x4,%eax
  401279:	89 04 25 c4 02 70 00 	mov    %eax,0x7002c4
  401280:	c3                   	retq   

0000000000401281 <reg_mskd_leq>:
  401281:	8b 04 25 24 02 70 00 	mov    0x700224,%eax
  401288:	25 ff ff ff c1       	and    $0xc1ffffff,%eax
  40128d:	0d 00 00 00 2e       	or     $0x2e000000,%eax
  401292:	89 04 25 24 02 70 00 	mov    %eax,0x700224
  401299:	c7 04 25 c4 02 70 00 	movl   $0x0,0x7002c4
  4012a0:	00 00 00 00 
  4012a4:	48 8b 04 25 20 02 70 	mov    0x700220,%rax
  4012ab:	00 
  4012ac:	48 c1 e8 39          	shr    $0x39,%rax
  4012b0:	83 e0 1f             	and    $0x1f,%eax
  4012b3:	83 f8 17             	cmp    $0x17,%eax
  4012b6:	7f 29                	jg     4012e1 <reg_mskd_leq+0x60>
  4012b8:	48 8b 04 25 20 02 70 	mov    0x700220,%rax
  4012bf:	00 
  4012c0:	48 c1 e8 39          	shr    $0x39,%rax
  4012c4:	83 e0 1f             	and    $0x1f,%eax
  4012c7:	83 f8 18             	cmp    $0x18,%eax
  4012ca:	7f 15                	jg     4012e1 <reg_mskd_leq+0x60>
  4012cc:	8b 04 25 c4 02 70 00 	mov    0x7002c4,%eax
  4012d3:	83 e0 f9             	and    $0xfffffff9,%eax
  4012d6:	83 c8 02             	or     $0x2,%eax
  4012d9:	89 04 25 c4 02 70 00 	mov    %eax,0x7002c4
  4012e0:	c3                   	retq   
  4012e1:	8b 04 25 c4 02 70 00 	mov    0x7002c4,%eax
  4012e8:	83 e0 f9             	and    $0xfffffff9,%eax
  4012eb:	83 c8 04             	or     $0x4,%eax
  4012ee:	89 04 25 c4 02 70 00 	mov    %eax,0x7002c4
  4012f5:	c3                   	retq   

00000000004012f6 <reg_mskd_gtr>:
  4012f6:	8b 04 25 24 02 70 00 	mov    0x700224,%eax
  4012fd:	25 ff ff ff c1       	and    $0xc1ffffff,%eax
  401302:	0d 00 00 00 26       	or     $0x26000000,%eax
  401307:	89 04 25 24 02 70 00 	mov    %eax,0x700224
  40130e:	c7 04 25 c4 02 70 00 	movl   $0x0,0x7002c4
  401315:	00 00 00 00 
  401319:	48 8b 04 25 20 02 70 	mov    0x700220,%rax
  401320:	00 
  401321:	48 c1 e8 39          	shr    $0x39,%rax
  401325:	83 e0 1f             	and    $0x1f,%eax
  401328:	83 f8 12             	cmp    $0x12,%eax
  40132b:	7e 15                	jle    401342 <reg_mskd_gtr+0x4c>
  40132d:	8b 04 25 c4 02 70 00 	mov    0x7002c4,%eax
  401334:	83 e0 f9             	and    $0xfffffff9,%eax
  401337:	83 c8 02             	or     $0x2,%eax
  40133a:	89 04 25 c4 02 70 00 	mov    %eax,0x7002c4
  401341:	c3                   	retq   
  401342:	8b 04 25 c4 02 70 00 	mov    0x7002c4,%eax
  401349:	83 e0 f9             	and    $0xfffffff9,%eax
  40134c:	83 c8 04             	or     $0x4,%eax
  40134f:	89 04 25 c4 02 70 00 	mov    %eax,0x7002c4
  401356:	c3                   	retq   

0000000000401357 <reg_mskd_geq>:
  401357:	8b 04 25 24 02 70 00 	mov    0x700224,%eax
  40135e:	25 ff ff ff c1       	and    $0xc1ffffff,%eax
  401363:	0d 00 00 00 22       	or     $0x22000000,%eax
  401368:	89 04 25 24 02 70 00 	mov    %eax,0x700224
  40136f:	c7 04 25 c4 02 70 00 	movl   $0x0,0x7002c4
  401376:	00 00 00 00 
  40137a:	48 8b 04 25 20 02 70 	mov    0x700220,%rax
  401381:	00 
  401382:	48 c1 e8 39          	shr    $0x39,%rax
  401386:	83 e0 1f             	and    $0x1f,%eax
  401389:	83 f8 0f             	cmp    $0xf,%eax
  40138c:	7e 29                	jle    4013b7 <reg_mskd_geq+0x60>
  40138e:	48 8b 04 25 20 02 70 	mov    0x700220,%rax
  401395:	00 
  401396:	48 c1 e8 39          	shr    $0x39,%rax
  40139a:	83 e0 1f             	and    $0x1f,%eax
  40139d:	83 f8 10             	cmp    $0x10,%eax
  4013a0:	7e 15                	jle    4013b7 <reg_mskd_geq+0x60>
  4013a2:	8b 04 25 c4 02 70 00 	mov    0x7002c4,%eax
  4013a9:	83 e0 f9             	and    $0xfffffff9,%eax
  4013ac:	83 c8 02             	or     $0x2,%eax
  4013af:	89 04 25 c4 02 70 00 	mov    %eax,0x7002c4
  4013b6:	c3                   	retq   
  4013b7:	8b 04 25 c4 02 70 00 	mov    0x7002c4,%eax
  4013be:	83 e0 f9             	and    $0xfffffff9,%eax
  4013c1:	83 c8 04             	or     $0x4,%eax
  4013c4:	89 04 25 c4 02 70 00 	mov    %eax,0x7002c4
  4013cb:	c3                   	retq   

00000000004013cc <pos_cmp_eq>:
  4013cc:	c7 04 25 c4 02 70 00 	movl   $0x0,0x7002c4
  4013d3:	00 00 00 00 
  4013d7:	8b 04 25 c4 02 70 00 	mov    0x7002c4,%eax
  4013de:	83 e0 f9             	and    $0xfffffff9,%eax
  4013e1:	83 c8 02             	or     $0x2,%eax
  4013e4:	89 04 25 c4 02 70 00 	mov    %eax,0x7002c4
  4013eb:	c3                   	retq   

00000000004013ec <pos_cmp_ne>:
  4013ec:	c7 04 25 c4 02 70 00 	movl   $0x0,0x7002c4
  4013f3:	00 00 00 00 
  4013f7:	8b 04 25 c4 02 70 00 	mov    0x7002c4,%eax
  4013fe:	83 e0 f9             	and    $0xfffffff9,%eax
  401401:	83 c8 02             	or     $0x2,%eax
  401404:	89 04 25 c4 02 70 00 	mov    %eax,0x7002c4
  40140b:	c3                   	retq   

000000000040140c <bits_extract_eq>:
  40140c:	8b 04 25 c4 02 70 00 	mov    0x7002c4,%eax
  401413:	83 c8 40             	or     $0x40,%eax
  401416:	89 04 25 c4 02 70 00 	mov    %eax,0x7002c4
  40141d:	8b 04 25 c4 02 70 00 	mov    0x7002c4,%eax
  401424:	c7 04 25 c4 02 70 00 	movl   $0x0,0x7002c4
  40142b:	00 00 00 00 
  40142f:	a8 40                	test   $0x40,%al
  401431:	74 15                	je     401448 <bits_extract_eq+0x3c>
  401433:	8b 04 25 c4 02 70 00 	mov    0x7002c4,%eax
  40143a:	83 e0 f9             	and    $0xfffffff9,%eax
  40143d:	83 c8 02             	or     $0x2,%eax
  401440:	89 04 25 c4 02 70 00 	mov    %eax,0x7002c4
  401447:	c3                   	retq   
  401448:	8b 04 25 c4 02 70 00 	mov    0x7002c4,%eax
  40144f:	83 e0 f9             	and    $0xfffffff9,%eax
  401452:	83 c8 04             	or     $0x4,%eax
  401455:	89 04 25 c4 02 70 00 	mov    %eax,0x7002c4
  40145c:	c3                   	retq   

000000000040145d <mskd_extract_eq>:
  40145d:	8b 04 25 c4 02 70 00 	mov    0x7002c4,%eax
  401464:	83 e0 f9             	and    $0xfffffff9,%eax
  401467:	83 c8 02             	or     $0x2,%eax
  40146a:	89 04 25 c4 02 70 00 	mov    %eax,0x7002c4
  401471:	8b 04 25 c4 02 70 00 	mov    0x7002c4,%eax
  401478:	c7 04 25 c4 02 70 00 	movl   $0x0,0x7002c4
  40147f:	00 00 00 00 
  401483:	83 e0 06             	and    $0x6,%eax
  401486:	83 f8 02             	cmp    $0x2,%eax
  401489:	75 12                	jne    40149d <mskd_extract_eq+0x40>
  40148b:	8b 04 25 c4 02 70 00 	mov    0x7002c4,%eax
  401492:	83 c8 20             	or     $0x20,%eax
  401495:	89 04 25 c4 02 70 00 	mov    %eax,0x7002c4
  40149c:	c3                   	retq   
  40149d:	8b 04 25 c4 02 70 00 	mov    0x7002c4,%eax
  4014a4:	83 c8 40             	or     $0x40,%eax
  4014a7:	89 04 25 c4 02 70 00 	mov    %eax,0x7002c4
  4014ae:	c3                   	retq   

00000000004014af <mskd_extract_ne>:
  4014af:	c7 04 25 c4 02 70 00 	movl   $0x0,0x7002c4
  4014b6:	00 00 00 00 
  4014ba:	8b 04 25 c4 02 70 00 	mov    0x7002c4,%eax
  4014c1:	83 e0 f9             	and    $0xfffffff9,%eax
  4014c4:	83 c8 04             	or     $0x4,%eax
  4014c7:	89 04 25 c4 02 70 00 	mov    %eax,0x7002c4
  4014ce:	8b 04 25 c4 02 70 00 	mov    0x7002c4,%eax
  4014d5:	c7 04 25 c4 02 70 00 	movl   $0x0,0x7002c4
  4014dc:	00 00 00 00 
  4014e0:	83 e0 06             	and    $0x6,%eax
  4014e3:	83 f8 04             	cmp    $0x4,%eax
  4014e6:	74 12                	je     4014fa <mskd_extract_ne+0x4b>
  4014e8:	8b 04 25 c4 02 70 00 	mov    0x7002c4,%eax
  4014ef:	83 c8 20             	or     $0x20,%eax
  4014f2:	89 04 25 c4 02 70 00 	mov    %eax,0x7002c4
  4014f9:	c3                   	retq   
  4014fa:	8b 04 25 c4 02 70 00 	mov    0x7002c4,%eax
  401501:	83 c8 40             	or     $0x40,%eax
  401504:	89 04 25 c4 02 70 00 	mov    %eax,0x7002c4
  40150b:	c3                   	retq   

000000000040150c <mskd_extract_lss>:
  40150c:	c7 04 25 24 02 70 00 	movl   $0x0,0x700224
  401513:	00 00 00 00 
  401517:	8b 04 25 24 02 70 00 	mov    0x700224,%eax
  40151e:	25 ff ff ff c1       	and    $0xc1ffffff,%eax
  401523:	0d 00 00 00 16       	or     $0x16000000,%eax
  401528:	89 04 25 24 02 70 00 	mov    %eax,0x700224
  40152f:	8b 04 25 24 02 70 00 	mov    0x700224,%eax
  401536:	c7 04 25 c4 02 70 00 	movl   $0x0,0x7002c4
  40153d:	00 00 00 00 
  401541:	c1 e8 19             	shr    $0x19,%eax
  401544:	83 e0 1f             	and    $0x1f,%eax
  401547:	83 f8 0b             	cmp    $0xb,%eax
  40154a:	7f 12                	jg     40155e <mskd_extract_lss+0x52>
  40154c:	8b 04 25 c4 02 70 00 	mov    0x7002c4,%eax
  401553:	83 c8 20             	or     $0x20,%eax
  401556:	89 04 25 c4 02 70 00 	mov    %eax,0x7002c4
  40155d:	c3                   	retq   
  40155e:	8b 04 25 c4 02 70 00 	mov    0x7002c4,%eax
  401565:	83 c8 40             	or     $0x40,%eax
  401568:	89 04 25 c4 02 70 00 	mov    %eax,0x7002c4
  40156f:	c3                   	retq   

0000000000401570 <mskd_extract_leq>:
  401570:	c7 04 25 24 02 70 00 	movl   $0x0,0x700224
  401577:	00 00 00 00 
  40157b:	8b 04 25 24 02 70 00 	mov    0x700224,%eax
  401582:	25 ff ff ff c1       	and    $0xc1ffffff,%eax
  401587:	0d 00 00 00 2e       	or     $0x2e000000,%eax
  40158c:	89 04 25 24 02 70 00 	mov    %eax,0x700224
  401593:	8b 04 25 24 02 70 00 	mov    0x700224,%eax
  40159a:	c7 04 25 c4 02 70 00 	movl   $0x0,0x7002c4
  4015a1:	00 00 00 00 
  4015a5:	89 c2                	mov    %eax,%edx
  4015a7:	c1 ea 19             	shr    $0x19,%edx
  4015aa:	83 e2 1f             	and    $0x1f,%edx
  4015ad:	83 fa 17             	cmp    $0x17,%edx
  4015b0:	7f 17                	jg     4015c9 <mskd_extract_leq+0x59>
  4015b2:	83 fa 18             	cmp    $0x18,%edx
  4015b5:	7f 12                	jg     4015c9 <mskd_extract_leq+0x59>
  4015b7:	8b 04 25 c4 02 70 00 	mov    0x7002c4,%eax
  4015be:	83 c8 20             	or     $0x20,%eax
  4015c1:	89 04 25 c4 02 70 00 	mov    %eax,0x7002c4
  4015c8:	c3                   	retq   
  4015c9:	8b 04 25 c4 02 70 00 	mov    0x7002c4,%eax
  4015d0:	83 c8 40             	or     $0x40,%eax
  4015d3:	89 04 25 c4 02 70 00 	mov    %eax,0x7002c4
  4015da:	c3                   	retq   

00000000004015db <mskd_extract_gtr>:
  4015db:	c7 04 25 24 02 70 00 	movl   $0x0,0x700224
  4015e2:	00 00 00 00 
  4015e6:	8b 04 25 24 02 70 00 	mov    0x700224,%eax
  4015ed:	25 ff ff ff c1       	and    $0xc1ffffff,%eax
  4015f2:	0d 00 00 00 26       	or     $0x26000000,%eax
  4015f7:	89 04 25 24 02 70 00 	mov    %eax,0x700224
  4015fe:	8b 04 25 24 02 70 00 	mov    0x700224,%eax
  401605:	c7 04 25 c4 02 70 00 	movl   $0x0,0x7002c4
  40160c:	00 00 00 00 
  401610:	c1 e8 19             	shr    $0x19,%eax
  401613:	83 e0 1f             	and    $0x1f,%eax
  401616:	83 f8 12             	cmp    $0x12,%eax
  401619:	7e 12                	jle    40162d <mskd_extract_gtr+0x52>
  40161b:	8b 04 25 c4 02 70 00 	mov    0x7002c4,%eax
  401622:	83 c8 20             	or     $0x20,%eax
  401625:	89 04 25 c4 02 70 00 	mov    %eax,0x7002c4
  40162c:	c3                   	retq   
  40162d:	8b 04 25 c4 02 70 00 	mov    0x7002c4,%eax
  401634:	83 c8 40             	or     $0x40,%eax
  401637:	89 04 25 c4 02 70 00 	mov    %eax,0x7002c4
  40163e:	c3                   	retq   

000000000040163f <set_bits_global>:
  40163f:	8b 04 25 c4 02 70 00 	mov    0x7002c4,%eax
  401646:	83 c8 40             	or     $0x40,%eax
  401649:	89 04 25 c4 02 70 00 	mov    %eax,0x7002c4
  401650:	c3                   	retq   

0000000000401651 <ins_mskd_global>:
  401651:	8b 04 25 c4 02 70 00 	mov    0x7002c4,%eax
  401658:	83 e0 f9             	and    $0xfffffff9,%eax
  40165b:	83 c8 02             	or     $0x2,%eax
  40165e:	89 04 25 c4 02 70 00 	mov    %eax,0x7002c4
  401665:	c3                   	retq   

0000000000401666 <assign_array_global>:
  401666:	c7 04 25 2c 01 70 00 	movl   $0xbd,0x70012c
  40166d:	bd 00 00 00 
  401671:	c3                   	retq   

0000000000401672 <shifted_global>:
  401672:	8b 04 25 24 02 70 00 	mov    0x700224,%eax
  401679:	25 ff ff ff c1       	and    $0xc1ffffff,%eax
  40167e:	0d 00 00 00 2e       	or     $0x2e000000,%eax
  401683:	89 04 25 24 02 70 00 	mov    %eax,0x700224
  40168a:	48 8b 04 25 20 02 70 	mov    0x700220,%rax
  401691:	00 
  401692:	48 c1 e8 39          	shr    $0x39,%rax
  401696:	83 e0 1f             	and    $0x1f,%eax
  401699:	89 04 25 2c 01 70 00 	mov    %eax,0x70012c
  4016a0:	c3                   	retq   

00000000004016a1 <assign_register_global>:
  4016a1:	c7 04 25 c4 02 70 00 	movl   $0x0,0x7002c4
  4016a8:	00 00 00 00 
  4016ac:	8b 04 25 c4 02 70 00 	mov    0x7002c4,%eax
  4016b3:	83 e0 f9             	and    $0xfffffff9,%eax
  4016b6:	83 c8 04             	or     $0x4,%eax
  4016b9:	89 04 25 c4 02 70 00 	mov    %eax,0x7002c4
  4016c0:	c3                   	retq   

00000000004016c1 <copy_bits_equ>:
  4016c1:	c7 04 25 c4 02 70 00 	movl   $0x0,0x7002c4
  4016c8:	00 00 00 00 
  4016cc:	8b 04 25 c4 02 70 00 	mov    0x7002c4,%eax
  4016d3:	83 c8 40             	or     $0x40,%eax
  4016d6:	89 04 25 c4 02 70 00 	mov    %eax,0x7002c4
  4016dd:	48 8b 04 25 c0 02 70 	mov    0x7002c0,%rax
  4016e4:	00 
  4016e5:	48 c1 e8 26          	shr    $0x26,%rax
  4016e9:	c7 04 25 c4 02 70 00 	movl   $0x0,0x7002c4
  4016f0:	00 00 00 00 
  4016f4:	a8 01                	test   $0x1,%al
  4016f6:	74 15                	je     40170d <copy_bits_equ+0x4c>
  4016f8:	8b 04 25 c4 02 70 00 	mov    0x7002c4,%eax
  4016ff:	83 e0 f9             	and    $0xfffffff9,%eax
  401702:	83 c8 02             	or     $0x2,%eax
  401705:	89 04 25 c4 02 70 00 	mov    %eax,0x7002c4
  40170c:	c3                   	retq   
  40170d:	8b 04 25 c4 02 70 00 	mov    0x7002c4,%eax
  401714:	83 e0 f9             	and    $0xfffffff9,%eax
  401717:	83 c8 04             	or     $0x4,%eax
  40171a:	89 04 25 c4 02 70 00 	mov    %eax,0x7002c4
  401721:	c3                   	retq   

0000000000401722 <copy_bits_neq>:
  401722:	c7 04 25 c4 02 70 00 	movl   $0x0,0x7002c4
  401729:	00 00 00 00 
  40172d:	8b 04 25 c4 02 70 00 	mov    0x7002c4,%eax
  401734:	83 c8 40             	or     $0x40,%eax
  401737:	89 04 25 c4 02 70 00 	mov    %eax,0x7002c4
  40173e:	48 8b 04 25 c0 02 70 	mov    0x7002c0,%rax
  401745:	00 
  401746:	48 c1 e8 26          	shr    $0x26,%rax
  40174a:	c7 04 25 c4 02 70 00 	movl   $0x0,0x7002c4
  401751:	00 00 00 00 
  401755:	a8 01                	test   $0x1,%al
  401757:	75 15                	jne    40176e <copy_bits_neq+0x4c>
  401759:	8b 04 25 c4 02 70 00 	mov    0x7002c4,%eax
  401760:	83 e0 f9             	and    $0xfffffff9,%eax
  401763:	83 c8 02             	or     $0x2,%eax
  401766:	89 04 25 c4 02 70 00 	mov    %eax,0x7002c4
  40176d:	c3                   	retq   
  40176e:	8b 04 25 c4 02 70 00 	mov    0x7002c4,%eax
  401775:	83 e0 f9             	and    $0xfffffff9,%eax
  401778:	83 c8 04             	or     $0x4,%eax
  40177b:	89 04 25 c4 02 70 00 	mov    %eax,0x7002c4
  401782:	c3                   	retq   

0000000000401783 <copy_mskd_equ>:
  401783:	c7 04 25 24 02 70 00 	movl   $0x0,0x700224
  40178a:	00 00 00 00 
  40178e:	8b 04 25 24 02 70 00 	mov    0x700224,%eax
  401795:	25 ff ff ff c1       	and    $0xc1ffffff,%eax
  40179a:	0d 00 00 00 16       	or     $0x16000000,%eax
  40179f:	89 04 25 24 02 70 00 	mov    %eax,0x700224
  4017a6:	48 8b 04 25 20 02 70 	mov    0x700220,%rax
  4017ad:	00 
  4017ae:	48 c1 e8 39          	shr    $0x39,%rax
  4017b2:	83 e0 1f             	and    $0x1f,%eax
  4017b5:	c7 04 25 c4 02 70 00 	movl   $0x0,0x7002c4
  4017bc:	00 00 00 00 
  4017c0:	3c 0b                	cmp    $0xb,%al
  4017c2:	75 15                	jne    4017d9 <copy_mskd_equ+0x56>
  4017c4:	8b 04 25 c4 02 70 00 	mov    0x7002c4,%eax
  4017cb:	83 e0 f9             	and    $0xfffffff9,%eax
  4017ce:	83 c8 02             	or     $0x2,%eax
  4017d1:	89 04 25 c4 02 70 00 	mov    %eax,0x7002c4
  4017d8:	c3                   	retq   
  4017d9:	8b 04 25 c4 02 70 00 	mov    0x7002c4,%eax
  4017e0:	83 e0 f9             	and    $0xfffffff9,%eax
  4017e3:	83 c8 04             	or     $0x4,%eax
  4017e6:	89 04 25 c4 02 70 00 	mov    %eax,0x7002c4
  4017ed:	c3                   	retq   

00000000004017ee <copy_mskd_neq>:
  4017ee:	c7 04 25 24 02 70 00 	movl   $0x0,0x700224
  4017f5:	00 00 00 00 
  4017f9:	8b 04 25 24 02 70 00 	mov    0x700224,%eax
  401800:	25 ff ff ff c1       	and    $0xc1ffffff,%eax
  401805:	0d 00 00 00 1a       	or     $0x1a000000,%eax
  40180a:	89 04 25 24 02 70 00 	mov    %eax,0x700224
  401811:	48 8b 04 25 20 02 70 	mov    0x700220,%rax
  401818:	00 
  401819:	48 c1 e8 39          	shr    $0x39,%rax
  40181d:	83 e0 1f             	and    $0x1f,%eax
  401820:	c7 04 25 c4 02 70 00 	movl   $0x0,0x7002c4
  401827:	00 00 00 00 
  40182b:	3c 0d                	cmp    $0xd,%al
  40182d:	74 15                	je     401844 <copy_mskd_neq+0x56>
  40182f:	8b 04 25 c4 02 70 00 	mov    0x7002c4,%eax
  401836:	83 e0 f9             	and    $0xfffffff9,%eax
  401839:	83 c8 02             	or     $0x2,%eax
  40183c:	89 04 25 c4 02 70 00 	mov    %eax,0x7002c4
  401843:	c3                   	retq   
  401844:	8b 04 25 c4 02 70 00 	mov    0x7002c4,%eax
  40184b:	83 e0 f9             	and    $0xfffffff9,%eax
  40184e:	83 c8 04             	or     $0x4,%eax
  401851:	89 04 25 c4 02 70 00 	mov    %eax,0x7002c4
  401858:	c3                   	retq   

0000000000401859 <copy_mskd_lss>:
  401859:	c7 04 25 24 02 70 00 	movl   $0x0,0x700224
  401860:	00 00 00 00 
  401864:	8b 04 25 24 02 70 00 	mov    0x700224,%eax
  40186b:	25 ff ff ff c1       	and    $0xc1ffffff,%eax
  401870:	0d 00 00 00 36       	or     $0x36000000,%eax
  401875:	89 04 25 24 02 70 00 	mov    %eax,0x700224
  40187c:	48 8b 04 25 20 02 70 	mov    0x700220,%rax
  401883:	00 
  401884:	48 c1 e8 39          	shr    $0x39,%rax
  401888:	83 e0 1f             	and    $0x1f,%eax
  40188b:	c7 04 25 c4 02 70 00 	movl   $0x0,0x7002c4
  401892:	00 00 00 00 
  401896:	3c 1b                	cmp    $0x1b,%al
  401898:	77 15                	ja     4018af <copy_mskd_lss+0x56>
  40189a:	8b 04 25 c4 02 70 00 	mov    0x7002c4,%eax
  4018a1:	83 e0 f9             	and    $0xfffffff9,%eax
  4018a4:	83 c8 02             	or     $0x2,%eax
  4018a7:	89 04 25 c4 02 70 00 	mov    %eax,0x7002c4
  4018ae:	c3                   	retq   
  4018af:	8b 04 25 c4 02 70 00 	mov    0x7002c4,%eax
  4018b6:	83 e0 f9             	and    $0xfffffff9,%eax
  4018b9:	83 c8 04             	or     $0x4,%eax
  4018bc:	89 04 25 c4 02 70 00 	mov    %eax,0x7002c4
  4018c3:	c3                   	retq   

00000000004018c4 <copy_mskd_leq>:
  4018c4:	c7 04 25 24 02 70 00 	movl   $0x0,0x700224
  4018cb:	00 00 00 00 
  4018cf:	8b 04 25 24 02 70 00 	mov    0x700224,%eax
  4018d6:	25 ff ff ff c1       	and    $0xc1ffffff,%eax
  4018db:	0d 00 00 00 2e       	or     $0x2e000000,%eax
  4018e0:	89 04 25 24 02 70 00 	mov    %eax,0x700224
  4018e7:	48 8b 04 25 20 02 70 	mov    0x700220,%rax
  4018ee:	00 
  4018ef:	48 c1 e8 39          	shr    $0x39,%rax
  4018f3:	83 e0 1f             	and    $0x1f,%eax
  4018f6:	c7 04 25 c4 02 70 00 	movl   $0x0,0x7002c4
  4018fd:	00 00 00 00 
  401901:	3c 17                	cmp    $0x17,%al
  401903:	77 15                	ja     40191a <copy_mskd_leq+0x56>
  401905:	8b 04 25 c4 02 70 00 	mov    0x7002c4,%eax
  40190c:	83 e0 f9             	and    $0xfffffff9,%eax
  40190f:	83 c8 02             	or     $0x2,%eax
  401912:	89 04 25 c4 02 70 00 	mov    %eax,0x7002c4
  401919:	c3                   	retq   
  40191a:	8b 04 25 c4 02 70 00 	mov    0x7002c4,%eax
  401921:	83 e0 f9             	and    $0xfffffff9,%eax
  401924:	83 c8 04             	or     $0x4,%eax
  401927:	89 04 25 c4 02 70 00 	mov    %eax,0x7002c4
  40192e:	c3                   	retq   

000000000040192f <copy_mskd_gtr>:
  40192f:	c7 04 25 24 02 70 00 	movl   $0x0,0x700224
  401936:	00 00 00 00 
  40193a:	8b 04 25 24 02 70 00 	mov    0x700224,%eax
  401941:	25 ff ff ff c1       	and    $0xc1ffffff,%eax
  401946:	0d 00 00 00 26       	or     $0x26000000,%eax
  40194b:	89 04 25 24 02 70 00 	mov    %eax,0x700224
  401952:	48 8b 04 25 20 02 70 	mov    0x700220,%rax
  401959:	00 
  40195a:	48 c1 e8 39          	shr    $0x39,%rax
  40195e:	83 e0 1f             	and    $0x1f,%eax
  401961:	c7 04 25 c4 02 70 00 	movl   $0x0,0x7002c4
  401968:	00 00 00 00 
  40196c:	3c 12                	cmp    $0x12,%al
  40196e:	76 15                	jbe    401985 <copy_mskd_gtr+0x56>
  401970:	8b 04 25 c4 02 70 00 	mov    0x7002c4,%eax
  401977:	83 e0 f9             	and    $0xfffffff9,%eax
  40197a:	83 c8 02             	or     $0x2,%eax
  40197d:	89 04 25 c4 02 70 00 	mov    %eax,0x7002c4
  401984:	c3                   	retq   
  401985:	8b 04 25 c4 02 70 00 	mov    0x7002c4,%eax
  40198c:	83 e0 f9             	and    $0xfffffff9,%eax
  40198f:	83 c8 04             	or     $0x4,%eax
  401992:	89 04 25 c4 02 70 00 	mov    %eax,0x7002c4
  401999:	c3                   	retq   

000000000040199a <copy_mskd_geq>:
  40199a:	c7 04 25 24 02 70 00 	movl   $0x0,0x700224
  4019a1:	00 00 00 00 
  4019a5:	8b 04 25 24 02 70 00 	mov    0x700224,%eax
  4019ac:	25 ff ff ff c1       	and    $0xc1ffffff,%eax
  4019b1:	0d 00 00 00 22       	or     $0x22000000,%eax
  4019b6:	89 04 25 24 02 70 00 	mov    %eax,0x700224
  4019bd:	48 8b 04 25 20 02 70 	mov    0x700220,%rax
  4019c4:	00 
  4019c5:	48 c1 e8 39          	shr    $0x39,%rax
  4019c9:	83 e0 1f             	and    $0x1f,%eax
  4019cc:	c7 04 25 c4 02 70 00 	movl   $0x0,0x7002c4
  4019d3:	00 00 00 00 
  4019d7:	3c 10                	cmp    $0x10,%al
  4019d9:	76 15                	jbe    4019f0 <copy_mskd_geq+0x56>
  4019db:	8b 04 25 c4 02 70 00 	mov    0x7002c4,%eax
  4019e2:	83 e0 f9             	and    $0xfffffff9,%eax
  4019e5:	83 c8 02             	or     $0x2,%eax
  4019e8:	89 04 25 c4 02 70 00 	mov    %eax,0x7002c4
  4019ef:	c3                   	retq   
  4019f0:	8b 04 25 c4 02 70 00 	mov    0x7002c4,%eax
  4019f7:	83 e0 f9             	and    $0xfffffff9,%eax
  4019fa:	83 c8 04             	or     $0x4,%eax
  4019fd:	89 04 25 c4 02 70 00 	mov    %eax,0x7002c4
  401a04:	c3                   	retq   

0000000000401a05 <copy_shifted>:
  401a05:	c7 04 25 24 02 70 00 	movl   $0x0,0x700224
  401a0c:	00 00 00 00 
  401a10:	8b 04 25 24 02 70 00 	mov    0x700224,%eax
  401a17:	25 ff ff ff c1       	and    $0xc1ffffff,%eax
  401a1c:	0d 00 00 00 16       	or     $0x16000000,%eax
  401a21:	89 04 25 24 02 70 00 	mov    %eax,0x700224
  401a28:	48 8b 04 25 20 02 70 	mov    0x700220,%rax
  401a2f:	00 
  401a30:	48 c1 e8 39          	shr    $0x39,%rax
  401a34:	83 e0 1f             	and    $0x1f,%eax
  401a37:	c7 04 25 c4 02 70 00 	movl   $0x0,0x7002c4
  401a3e:	00 00 00 00 
  401a42:	3c 0b                	cmp    $0xb,%al
  401a44:	75 15                	jne    401a5b <copy_shifted+0x56>
  401a46:	8b 04 25 c4 02 70 00 	mov    0x7002c4,%eax
  401a4d:	83 e0 f9             	and    $0xfffffff9,%eax
  401a50:	83 c8 02             	or     $0x2,%eax
  401a53:	89 04 25 c4 02 70 00 	mov    %eax,0x7002c4
  401a5a:	c3                   	retq   
  401a5b:	8b 04 25 c4 02 70 00 	mov    0x7002c4,%eax
  401a62:	83 e0 f9             	and    $0xfffffff9,%eax
  401a65:	83 c8 04             	or     $0x4,%eax
  401a68:	89 04 25 c4 02 70 00 	mov    %eax,0x7002c4
  401a6f:	c3                   	retq   

0000000000401a70 <bits_val>:
  401a70:	83 ff 03             	cmp    $0x3,%edi
  401a73:	74 64                	je     401ad9 <bits_val+0x69>
  401a75:	83 ff 04             	cmp    $0x4,%edi
  401a78:	74 32                	je     401aac <bits_val+0x3c>
  401a7a:	85 ff                	test   %edi,%edi
  401a7c:	0f 85 83 00 00 00    	jne    401b05 <bits_val+0x95>
  401a82:	83 e6 01             	and    $0x1,%esi
  401a85:	8b 04 25 c4 02 70 00 	mov    0x7002c4,%eax
  401a8c:	83 e0 fe             	and    $0xfffffffe,%eax
  401a8f:	09 f0                	or     %esi,%eax
  401a91:	89 04 25 c4 02 70 00 	mov    %eax,0x7002c4
  401a98:	8b 04 25 c4 02 70 00 	mov    0x7002c4,%eax
  401a9f:	83 e0 fe             	and    $0xfffffffe,%eax
  401aa2:	09 c6                	or     %eax,%esi
  401aa4:	89 34 25 c4 02 70 00 	mov    %esi,0x7002c4
  401aab:	c3                   	retq   
  401aac:	83 e6 01             	and    $0x1,%esi
  401aaf:	c1 e6 06             	shl    $0x6,%esi
  401ab2:	8b 04 25 c4 02 70 00 	mov    0x7002c4,%eax
  401ab9:	83 e0 bf             	and    $0xffffffbf,%eax
  401abc:	09 f0                	or     %esi,%eax
  401abe:	89 04 25 c4 02 70 00 	mov    %eax,0x7002c4
  401ac5:	8b 04 25 c4 02 70 00 	mov    0x7002c4,%eax
  401acc:	83 e0 bf             	and    $0xffffffbf,%eax
  401acf:	09 c6                	or     %eax,%esi
  401ad1:	89 34 25 c4 02 70 00 	mov    %esi,0x7002c4
  401ad8:	c3                   	retq   
  401ad9:	83 e6 01             	and    $0x1,%esi
  401adc:	c1 e6 05             	shl    $0x5,%esi
  401adf:	8b 04 25 c4 02 70 00 	mov    0x7002c4,%eax
  401ae6:	83 e0 df             	and    $0xffffffdf,%eax
  401ae9:	09 f0                	or     %esi,%eax
  401aeb:	89 04 25 c4 02 70 00 	mov    %eax,0x7002c4
  401af2:	8b 04 25 c4 02 70 00 	mov    0x7002c4,%eax
  401af9:	83 e0 df             	and    $0xffffffdf,%eax
  401afc:	09 c6                	or     %eax,%esi
  401afe:	89 34 25 c4 02 70 00 	mov    %esi,0x7002c4
  401b05:	f3 c3                	repz retq 

0000000000401b07 <call_bits_val_const>:
  401b07:	be 01 00 00 00       	mov    $0x1,%esi
  401b0c:	bf 04 00 00 00       	mov    $0x4,%edi
  401b11:	e8 5a ff ff ff       	callq  401a70 <bits_val>
  401b16:	f3 c3                	repz retq 

0000000000401b18 <call_bits_val_var>:
  401b18:	be 01 00 00 00       	mov    $0x1,%esi
  401b1d:	bf 04 00 00 00       	mov    $0x4,%edi
  401b22:	e8 49 ff ff ff       	callq  401a70 <bits_val>
  401b27:	f3 c3                	repz retq 

0000000000401b29 <call_bits_val_global>:
  401b29:	be 01 00 00 00       	mov    $0x1,%esi
  401b2e:	bf 04 00 00 00       	mov    $0x4,%edi
  401b33:	e8 38 ff ff ff       	callq  401a70 <bits_val>
  401b38:	f3 c3                	repz retq 

0000000000401b3a <bits_ref>:
  401b3a:	8b 07                	mov    (%rdi),%eax
  401b3c:	83 f8 03             	cmp    $0x3,%eax
  401b3f:	74 75                	je     401bb6 <bits_ref+0x7c>
  401b41:	83 f8 04             	cmp    $0x4,%eax
  401b44:	74 39                	je     401b7f <bits_ref+0x45>
  401b46:	85 c0                	test   %eax,%eax
  401b48:	0f 85 9e 00 00 00    	jne    401bec <bits_ref+0xb2>
  401b4e:	8b 16                	mov    (%rsi),%edx
  401b50:	83 e2 01             	and    $0x1,%edx
  401b53:	8b 04 25 c4 02 70 00 	mov    0x7002c4,%eax
  401b5a:	83 e0 fe             	and    $0xfffffffe,%eax
  401b5d:	09 d0                	or     %edx,%eax
  401b5f:	89 04 25 c4 02 70 00 	mov    %eax,0x7002c4
  401b66:	8b 16                	mov    (%rsi),%edx
  401b68:	83 e2 01             	and    $0x1,%edx
  401b6b:	8b 04 25 c4 02 70 00 	mov    0x7002c4,%eax
  401b72:	83 e0 fe             	and    $0xfffffffe,%eax
  401b75:	09 d0                	or     %edx,%eax
  401b77:	89 04 25 c4 02 70 00 	mov    %eax,0x7002c4
  401b7e:	c3                   	retq   
  401b7f:	8b 16                	mov    (%rsi),%edx
  401b81:	83 e2 01             	and    $0x1,%edx
  401b84:	c1 e2 06             	shl    $0x6,%edx
  401b87:	8b 04 25 c4 02 70 00 	mov    0x7002c4,%eax
  401b8e:	83 e0 bf             	and    $0xffffffbf,%eax
  401b91:	09 d0                	or     %edx,%eax
  401b93:	89 04 25 c4 02 70 00 	mov    %eax,0x7002c4
  401b9a:	8b 16                	mov    (%rsi),%edx
  401b9c:	83 e2 01             	and    $0x1,%edx
  401b9f:	c1 e2 06             	shl    $0x6,%edx
  401ba2:	8b 04 25 c4 02 70 00 	mov    0x7002c4,%eax
  401ba9:	83 e0 bf             	and    $0xffffffbf,%eax
  401bac:	09 d0                	or     %edx,%eax
  401bae:	89 04 25 c4 02 70 00 	mov    %eax,0x7002c4
  401bb5:	c3                   	retq   
  401bb6:	8b 16                	mov    (%rsi),%edx
  401bb8:	83 e2 01             	and    $0x1,%edx
  401bbb:	c1 e2 05             	shl    $0x5,%edx
  401bbe:	8b 04 25 c4 02 70 00 	mov    0x7002c4,%eax
  401bc5:	83 e0 df             	and    $0xffffffdf,%eax
  401bc8:	09 d0                	or     %edx,%eax
  401bca:	89 04 25 c4 02 70 00 	mov    %eax,0x7002c4
  401bd1:	8b 16                	mov    (%rsi),%edx
  401bd3:	83 e2 01             	and    $0x1,%edx
  401bd6:	c1 e2 05             	shl    $0x5,%edx
  401bd9:	8b 04 25 c4 02 70 00 	mov    0x7002c4,%eax
  401be0:	83 e0 df             	and    $0xffffffdf,%eax
  401be3:	09 d0                	or     %edx,%eax
  401be5:	89 04 25 c4 02 70 00 	mov    %eax,0x7002c4
  401bec:	f3 c3                	repz retq 

0000000000401bee <call_bits_ref_const>:
  401bee:	48 83 ec 10          	sub    $0x10,%rsp
  401bf2:	c7 44 24 0c 00 00 00 	movl   $0x0,0xc(%rsp)
  401bf9:	00 
  401bfa:	c7 44 24 08 01 00 00 	movl   $0x1,0x8(%rsp)
  401c01:	00 
  401c02:	48 8d 74 24 08       	lea    0x8(%rsp),%rsi
  401c07:	48 8d 7c 24 0c       	lea    0xc(%rsp),%rdi
  401c0c:	e8 29 ff ff ff       	callq  401b3a <bits_ref>
  401c11:	48 83 c4 10          	add    $0x10,%rsp
  401c15:	c3                   	retq   

0000000000401c16 <call_bits_ref_var>:
  401c16:	48 83 ec 10          	sub    $0x10,%rsp
  401c1a:	c7 44 24 0c 00 00 00 	movl   $0x0,0xc(%rsp)
  401c21:	00 
  401c22:	c7 44 24 08 01 00 00 	movl   $0x1,0x8(%rsp)
  401c29:	00 
  401c2a:	48 8d 74 24 08       	lea    0x8(%rsp),%rsi
  401c2f:	48 8d 7c 24 0c       	lea    0xc(%rsp),%rdi
  401c34:	e8 01 ff ff ff       	callq  401b3a <bits_ref>
  401c39:	48 83 c4 10          	add    $0x10,%rsp
  401c3d:	c3                   	retq   

0000000000401c3e <call_bits_ref_global>:
  401c3e:	48 83 ec 10          	sub    $0x10,%rsp
  401c42:	c7 44 24 0c 04 00 00 	movl   $0x4,0xc(%rsp)
  401c49:	00 
  401c4a:	c7 44 24 08 01 00 00 	movl   $0x1,0x8(%rsp)
  401c51:	00 
  401c52:	48 8d 74 24 08       	lea    0x8(%rsp),%rsi
  401c57:	48 8d 7c 24 0c       	lea    0xc(%rsp),%rdi
  401c5c:	e8 d9 fe ff ff       	callq  401b3a <bits_ref>
  401c61:	48 83 c4 10          	add    $0x10,%rsp
  401c65:	c3                   	retq   

0000000000401c66 <mskd_val>:
  401c66:	83 ff 06             	cmp    $0x6,%edi
  401c69:	0f 87 47 01 00 00    	ja     401db6 <mskd_val+0x150>
  401c6f:	89 ff                	mov    %edi,%edi
  401c71:	ff 24 fd 08 32 40 00 	jmpq   *0x403208(,%rdi,8)
  401c78:	83 e6 01             	and    $0x1,%esi
  401c7b:	8b 04 25 c4 02 70 00 	mov    0x7002c4,%eax
  401c82:	83 e0 fe             	and    $0xfffffffe,%eax
  401c85:	09 f0                	or     %esi,%eax
  401c87:	89 04 25 c4 02 70 00 	mov    %eax,0x7002c4
  401c8e:	8b 04 25 c4 02 70 00 	mov    0x7002c4,%eax
  401c95:	83 e0 fe             	and    $0xfffffffe,%eax
  401c98:	09 c6                	or     %eax,%esi
  401c9a:	89 34 25 c4 02 70 00 	mov    %esi,0x7002c4
  401ca1:	c3                   	retq   
  401ca2:	83 e6 03             	and    $0x3,%esi
  401ca5:	01 f6                	add    %esi,%esi
  401ca7:	8b 04 25 c4 02 70 00 	mov    0x7002c4,%eax
  401cae:	83 e0 f9             	and    $0xfffffff9,%eax
  401cb1:	09 f0                	or     %esi,%eax
  401cb3:	89 04 25 c4 02 70 00 	mov    %eax,0x7002c4
  401cba:	8b 04 25 c4 02 70 00 	mov    0x7002c4,%eax
  401cc1:	83 e0 f9             	and    $0xfffffff9,%eax
  401cc4:	09 c6                	or     %eax,%esi
  401cc6:	89 34 25 c4 02 70 00 	mov    %esi,0x7002c4
  401ccd:	c3                   	retq   
  401cce:	83 e6 03             	and    $0x3,%esi
  401cd1:	c1 e6 03             	shl    $0x3,%esi
  401cd4:	8b 04 25 c4 02 70 00 	mov    0x7002c4,%eax
  401cdb:	83 e0 e7             	and    $0xffffffe7,%eax
  401cde:	09 f0                	or     %esi,%eax
  401ce0:	89 04 25 c4 02 70 00 	mov    %eax,0x7002c4
  401ce7:	8b 04 25 c4 02 70 00 	mov    0x7002c4,%eax
  401cee:	83 e0 e7             	and    $0xffffffe7,%eax
  401cf1:	09 c6                	or     %eax,%esi
  401cf3:	89 34 25 c4 02 70 00 	mov    %esi,0x7002c4
  401cfa:	c3                   	retq   
  401cfb:	83 e6 01             	and    $0x1,%esi
  401cfe:	c1 e6 05             	shl    $0x5,%esi
  401d01:	8b 04 25 c4 02 70 00 	mov    0x7002c4,%eax
  401d08:	83 e0 df             	and    $0xffffffdf,%eax
  401d0b:	09 f0                	or     %esi,%eax
  401d0d:	89 04 25 c4 02 70 00 	mov    %eax,0x7002c4
  401d14:	8b 04 25 c4 02 70 00 	mov    0x7002c4,%eax
  401d1b:	83 e0 df             	and    $0xffffffdf,%eax
  401d1e:	09 c6                	or     %eax,%esi
  401d20:	89 34 25 c4 02 70 00 	mov    %esi,0x7002c4
  401d27:	c3                   	retq   
  401d28:	83 e6 03             	and    $0x3,%esi
  401d2b:	c1 e6 03             	shl    $0x3,%esi
  401d2e:	8b 04 25 c4 02 70 00 	mov    0x7002c4,%eax
  401d35:	83 e0 e7             	and    $0xffffffe7,%eax
  401d38:	09 f0                	or     %esi,%eax
  401d3a:	89 04 25 c4 02 70 00 	mov    %eax,0x7002c4
  401d41:	8b 04 25 c4 02 70 00 	mov    0x7002c4,%eax
  401d48:	83 e0 e7             	and    $0xffffffe7,%eax
  401d4b:	09 c6                	or     %eax,%esi
  401d4d:	89 34 25 c4 02 70 00 	mov    %esi,0x7002c4
  401d54:	c3                   	retq   
  401d55:	83 e6 1f             	and    $0x1f,%esi
  401d58:	c1 e6 07             	shl    $0x7,%esi
  401d5b:	8b 04 25 c4 02 70 00 	mov    0x7002c4,%eax
  401d62:	25 7f f0 ff ff       	and    $0xfffff07f,%eax
  401d67:	09 f0                	or     %esi,%eax
  401d69:	89 04 25 c4 02 70 00 	mov    %eax,0x7002c4
  401d70:	8b 04 25 c4 02 70 00 	mov    0x7002c4,%eax
  401d77:	25 7f f0 ff ff       	and    $0xfffff07f,%eax
  401d7c:	09 c6                	or     %eax,%esi
  401d7e:	89 34 25 c4 02 70 00 	mov    %esi,0x7002c4
  401d85:	c3                   	retq   
  401d86:	83 e6 1f             	and    $0x1f,%esi
  401d89:	c1 e6 0c             	shl    $0xc,%esi
  401d8c:	8b 04 25 c4 02 70 00 	mov    0x7002c4,%eax
  401d93:	25 ff 0f fe ff       	and    $0xfffe0fff,%eax
  401d98:	09 f0                	or     %esi,%eax
  401d9a:	89 04 25 c4 02 70 00 	mov    %eax,0x7002c4
  401da1:	8b 04 25 c4 02 70 00 	mov    0x7002c4,%eax
  401da8:	25 ff 0f fe ff       	and    $0xfffe0fff,%eax
  401dad:	09 c6                	or     %eax,%esi
  401daf:	89 34 25 c4 02 70 00 	mov    %esi,0x7002c4
  401db6:	f3 c3                	repz retq 

0000000000401db8 <call_mskd_val_const>:
  401db8:	be 01 00 00 00       	mov    $0x1,%esi
  401dbd:	bf 01 00 00 00       	mov    $0x1,%edi
  401dc2:	e8 9f fe ff ff       	callq  401c66 <mskd_val>
  401dc7:	be 01 00 00 00       	mov    $0x1,%esi
  401dcc:	bf 01 00 00 00       	mov    $0x1,%edi
  401dd1:	e8 90 fe ff ff       	callq  401c66 <mskd_val>
  401dd6:	f3 c3                	repz retq 

0000000000401dd8 <call_mskd_val_var>:
  401dd8:	be 01 00 00 00       	mov    $0x1,%esi
  401ddd:	bf 01 00 00 00       	mov    $0x1,%edi
  401de2:	e8 7f fe ff ff       	callq  401c66 <mskd_val>
  401de7:	be 01 00 00 00       	mov    $0x1,%esi
  401dec:	bf 01 00 00 00       	mov    $0x1,%edi
  401df1:	e8 70 fe ff ff       	callq  401c66 <mskd_val>
  401df6:	f3 c3                	repz retq 

0000000000401df8 <call_mskd_val_global>:
  401df8:	be 01 00 00 00       	mov    $0x1,%esi
  401dfd:	bf 01 00 00 00       	mov    $0x1,%edi
  401e02:	e8 5f fe ff ff       	callq  401c66 <mskd_val>
  401e07:	f3 c3                	repz retq 

0000000000401e09 <mskd_ref>:
  401e09:	83 3f 06             	cmpl   $0x6,(%rdi)
  401e0c:	0f 87 89 01 00 00    	ja     401f9b <mskd_ref+0x192>
  401e12:	8b 07                	mov    (%rdi),%eax
  401e14:	ff 24 c5 40 32 40 00 	jmpq   *0x403240(,%rax,8)
  401e1b:	8b 16                	mov    (%rsi),%edx
  401e1d:	83 e2 01             	and    $0x1,%edx
  401e20:	8b 04 25 c4 02 70 00 	mov    0x7002c4,%eax
  401e27:	83 e0 fe             	and    $0xfffffffe,%eax
  401e2a:	09 d0                	or     %edx,%eax
  401e2c:	89 04 25 c4 02 70 00 	mov    %eax,0x7002c4
  401e33:	8b 16                	mov    (%rsi),%edx
  401e35:	83 e2 01             	and    $0x1,%edx
  401e38:	8b 04 25 c4 02 70 00 	mov    0x7002c4,%eax
  401e3f:	83 e0 fe             	and    $0xfffffffe,%eax
  401e42:	09 d0                	or     %edx,%eax
  401e44:	89 04 25 c4 02 70 00 	mov    %eax,0x7002c4
  401e4b:	c3                   	retq   
  401e4c:	8b 16                	mov    (%rsi),%edx
  401e4e:	83 e2 03             	and    $0x3,%edx
  401e51:	01 d2                	add    %edx,%edx
  401e53:	8b 04 25 c4 02 70 00 	mov    0x7002c4,%eax
  401e5a:	83 e0 f9             	and    $0xfffffff9,%eax
  401e5d:	09 d0                	or     %edx,%eax
  401e5f:	89 04 25 c4 02 70 00 	mov    %eax,0x7002c4
  401e66:	8b 16                	mov    (%rsi),%edx
  401e68:	83 e2 03             	and    $0x3,%edx
  401e6b:	01 d2                	add    %edx,%edx
  401e6d:	8b 04 25 c4 02 70 00 	mov    0x7002c4,%eax
  401e74:	83 e0 f9             	and    $0xfffffff9,%eax
  401e77:	09 d0                	or     %edx,%eax
  401e79:	89 04 25 c4 02 70 00 	mov    %eax,0x7002c4
  401e80:	c3                   	retq   
  401e81:	8b 16                	mov    (%rsi),%edx
  401e83:	83 e2 03             	and    $0x3,%edx
  401e86:	c1 e2 03             	shl    $0x3,%edx
  401e89:	8b 04 25 c4 02 70 00 	mov    0x7002c4,%eax
  401e90:	83 e0 e7             	and    $0xffffffe7,%eax
  401e93:	09 d0                	or     %edx,%eax
  401e95:	89 04 25 c4 02 70 00 	mov    %eax,0x7002c4
  401e9c:	8b 16                	mov    (%rsi),%edx
  401e9e:	83 e2 03             	and    $0x3,%edx
  401ea1:	c1 e2 03             	shl    $0x3,%edx
  401ea4:	8b 04 25 c4 02 70 00 	mov    0x7002c4,%eax
  401eab:	83 e0 e7             	and    $0xffffffe7,%eax
  401eae:	09 d0                	or     %edx,%eax
  401eb0:	89 04 25 c4 02 70 00 	mov    %eax,0x7002c4
  401eb7:	c3                   	retq   
  401eb8:	8b 16                	mov    (%rsi),%edx
  401eba:	83 e2 01             	and    $0x1,%edx
  401ebd:	c1 e2 05             	shl    $0x5,%edx
  401ec0:	8b 04 25 c4 02 70 00 	mov    0x7002c4,%eax
  401ec7:	83 e0 df             	and    $0xffffffdf,%eax
  401eca:	09 d0                	or     %edx,%eax
  401ecc:	89 04 25 c4 02 70 00 	mov    %eax,0x7002c4
  401ed3:	8b 16                	mov    (%rsi),%edx
  401ed5:	83 e2 01             	and    $0x1,%edx
  401ed8:	c1 e2 05             	shl    $0x5,%edx
  401edb:	8b 04 25 c4 02 70 00 	mov    0x7002c4,%eax
  401ee2:	83 e0 df             	and    $0xffffffdf,%eax
  401ee5:	09 d0                	or     %edx,%eax
  401ee7:	89 04 25 c4 02 70 00 	mov    %eax,0x7002c4
  401eee:	c3                   	retq   
  401eef:	8b 16                	mov    (%rsi),%edx
  401ef1:	83 e2 03             	and    $0x3,%edx
  401ef4:	c1 e2 03             	shl    $0x3,%edx
  401ef7:	8b 04 25 c4 02 70 00 	mov    0x7002c4,%eax
  401efe:	83 e0 e7             	and    $0xffffffe7,%eax
  401f01:	09 d0                	or     %edx,%eax
  401f03:	89 04 25 c4 02 70 00 	mov    %eax,0x7002c4
  401f0a:	8b 16                	mov    (%rsi),%edx
  401f0c:	83 e2 03             	and    $0x3,%edx
  401f0f:	c1 e2 03             	shl    $0x3,%edx
  401f12:	8b 04 25 c4 02 70 00 	mov    0x7002c4,%eax
  401f19:	83 e0 e7             	and    $0xffffffe7,%eax
  401f1c:	09 d0                	or     %edx,%eax
  401f1e:	89 04 25 c4 02 70 00 	mov    %eax,0x7002c4
  401f25:	c3                   	retq   
  401f26:	8b 16                	mov    (%rsi),%edx
  401f28:	83 e2 1f             	and    $0x1f,%edx
  401f2b:	c1 e2 07             	shl    $0x7,%edx
  401f2e:	8b 04 25 c4 02 70 00 	mov    0x7002c4,%eax
  401f35:	25 7f f0 ff ff       	and    $0xfffff07f,%eax
  401f3a:	09 d0                	or     %edx,%eax
  401f3c:	89 04 25 c4 02 70 00 	mov    %eax,0x7002c4
  401f43:	8b 16                	mov    (%rsi),%edx
  401f45:	83 e2 1f             	and    $0x1f,%edx
  401f48:	c1 e2 07             	shl    $0x7,%edx
  401f4b:	8b 04 25 c4 02 70 00 	mov    0x7002c4,%eax
  401f52:	25 7f f0 ff ff       	and    $0xfffff07f,%eax
  401f57:	09 d0                	or     %edx,%eax
  401f59:	89 04 25 c4 02 70 00 	mov    %eax,0x7002c4
  401f60:	c3                   	retq   
  401f61:	8b 16                	mov    (%rsi),%edx
  401f63:	83 e2 1f             	and    $0x1f,%edx
  401f66:	c1 e2 0c             	shl    $0xc,%edx
  401f69:	8b 04 25 c4 02 70 00 	mov    0x7002c4,%eax
  401f70:	25 ff 0f fe ff       	and    $0xfffe0fff,%eax
  401f75:	09 d0                	or     %edx,%eax
  401f77:	89 04 25 c4 02 70 00 	mov    %eax,0x7002c4
  401f7e:	8b 16                	mov    (%rsi),%edx
  401f80:	83 e2 1f             	and    $0x1f,%edx
  401f83:	c1 e2 0c             	shl    $0xc,%edx
  401f86:	8b 04 25 c4 02 70 00 	mov    0x7002c4,%eax
  401f8d:	25 ff 0f fe ff       	and    $0xfffe0fff,%eax
  401f92:	09 d0                	or     %edx,%eax
  401f94:	89 04 25 c4 02 70 00 	mov    %eax,0x7002c4
  401f9b:	f3 c3                	repz retq 

0000000000401f9d <call_mskd_ref_const>:
  401f9d:	48 83 ec 10          	sub    $0x10,%rsp
  401fa1:	c7 44 24 0c 01 00 00 	movl   $0x1,0xc(%rsp)
  401fa8:	00 
  401fa9:	c7 44 24 08 02 00 00 	movl   $0x2,0x8(%rsp)
  401fb0:	00 
  401fb1:	48 8d 74 24 08       	lea    0x8(%rsp),%rsi
  401fb6:	48 8d 7c 24 0c       	lea    0xc(%rsp),%rdi
  401fbb:	e8 49 fe ff ff       	callq  401e09 <mskd_ref>
  401fc0:	48 83 c4 10          	add    $0x10,%rsp
  401fc4:	c3                   	retq   

0000000000401fc5 <call_mskd_ref_var>:
  401fc5:	48 83 ec 10          	sub    $0x10,%rsp
  401fc9:	c7 44 24 0c 01 00 00 	movl   $0x1,0xc(%rsp)
  401fd0:	00 
  401fd1:	c7 44 24 08 01 00 00 	movl   $0x1,0x8(%rsp)
  401fd8:	00 
  401fd9:	48 8d 74 24 08       	lea    0x8(%rsp),%rsi
  401fde:	48 8d 7c 24 0c       	lea    0xc(%rsp),%rdi
  401fe3:	e8 21 fe ff ff       	callq  401e09 <mskd_ref>
  401fe8:	48 83 c4 10          	add    $0x10,%rsp
  401fec:	c3                   	retq   

0000000000401fed <call_mskd_ref_global>:
  401fed:	48 83 ec 10          	sub    $0x10,%rsp
  401ff1:	c7 44 24 0c 01 00 00 	movl   $0x1,0xc(%rsp)
  401ff8:	00 
  401ff9:	c7 44 24 08 01 00 00 	movl   $0x1,0x8(%rsp)
  402000:	00 
  402001:	48 8d 74 24 08       	lea    0x8(%rsp),%rsi
  402006:	48 8d 7c 24 0c       	lea    0xc(%rsp),%rdi
  40200b:	e8 f9 fd ff ff       	callq  401e09 <mskd_ref>
  402010:	48 83 c4 10          	add    $0x10,%rsp
  402014:	c3                   	retq   

0000000000402015 <periph_bits>:
  402015:	8b 47 04             	mov    0x4(%rdi),%eax
  402018:	83 c8 40             	or     $0x40,%eax
  40201b:	89 47 04             	mov    %eax,0x4(%rdi)
  40201e:	c3                   	retq   

000000000040201f <call_periph_bits>:
  40201f:	bf c0 02 70 00       	mov    $0x7002c0,%edi
  402024:	e8 ec ff ff ff       	callq  402015 <periph_bits>
  402029:	f3 c3                	repz retq 

000000000040202b <periph_bits_val>:
  40202b:	83 fe 04             	cmp    $0x4,%esi
  40202e:	75 09                	jne    402039 <periph_bits_val+0xe>
  402030:	8b 47 04             	mov    0x4(%rdi),%eax
  402033:	83 c8 40             	or     $0x40,%eax
  402036:	89 47 04             	mov    %eax,0x4(%rdi)
  402039:	f3 c3                	repz retq 

000000000040203b <call_periph_bits_val>:
  40203b:	be 04 00 00 00       	mov    $0x4,%esi
  402040:	bf c0 02 70 00       	mov    $0x7002c0,%edi
  402045:	e8 e1 ff ff ff       	callq  40202b <periph_bits_val>
  40204a:	f3 c3                	repz retq 

000000000040204c <reg_bits_val>:
  40204c:	83 fe 04             	cmp    $0x4,%esi
  40204f:	75 07                	jne    402058 <reg_bits_val+0xc>
  402051:	8b 07                	mov    (%rdi),%eax
  402053:	83 c8 40             	or     $0x40,%eax
  402056:	89 07                	mov    %eax,(%rdi)
  402058:	f3 c3                	repz retq 

000000000040205a <call_reg_bits_val>:
  40205a:	be 04 00 00 00       	mov    $0x4,%esi
  40205f:	bf c4 02 70 00       	mov    $0x7002c4,%edi
  402064:	e8 e3 ff ff ff       	callq  40204c <reg_bits_val>
  402069:	f3 c3                	repz retq 

000000000040206b <periph_bits_ref>:
  40206b:	83 3e 04             	cmpl   $0x4,(%rsi)
  40206e:	75 09                	jne    402079 <periph_bits_ref+0xe>
  402070:	8b 47 04             	mov    0x4(%rdi),%eax
  402073:	83 c8 40             	or     $0x40,%eax
  402076:	89 47 04             	mov    %eax,0x4(%rdi)
  402079:	f3 c3                	repz retq 

000000000040207b <call_periph_bits_ref>:
  40207b:	48 83 ec 10          	sub    $0x10,%rsp
  40207f:	c7 44 24 0c 04 00 00 	movl   $0x4,0xc(%rsp)
  402086:	00 
  402087:	48 8d 74 24 0c       	lea    0xc(%rsp),%rsi
  40208c:	bf c0 02 70 00       	mov    $0x7002c0,%edi
  402091:	e8 d5 ff ff ff       	callq  40206b <periph_bits_ref>
  402096:	48 83 c4 10          	add    $0x10,%rsp
  40209a:	c3                   	retq   

000000000040209b <reg_bits_ref>:
  40209b:	83 3e 04             	cmpl   $0x4,(%rsi)
  40209e:	75 07                	jne    4020a7 <reg_bits_ref+0xc>
  4020a0:	8b 07                	mov    (%rdi),%eax
  4020a2:	83 c8 40             	or     $0x40,%eax
  4020a5:	89 07                	mov    %eax,(%rdi)
  4020a7:	f3 c3                	repz retq 

00000000004020a9 <call_reg_bits_ref>:
  4020a9:	48 83 ec 10          	sub    $0x10,%rsp
  4020ad:	c7 44 24 0c 04 00 00 	movl   $0x4,0xc(%rsp)
  4020b4:	00 
  4020b5:	48 8d 74 24 0c       	lea    0xc(%rsp),%rsi
  4020ba:	bf c4 02 70 00       	mov    $0x7002c4,%edi
  4020bf:	e8 d7 ff ff ff       	callq  40209b <reg_bits_ref>
  4020c4:	48 83 c4 10          	add    $0x10,%rsp
  4020c8:	c3                   	retq   

00000000004020c9 <periph_mskd>:
  4020c9:	8b 47 04             	mov    0x4(%rdi),%eax
  4020cc:	83 e0 f9             	and    $0xfffffff9,%eax
  4020cf:	83 c8 02             	or     $0x2,%eax
  4020d2:	89 47 04             	mov    %eax,0x4(%rdi)
  4020d5:	c3                   	retq   

00000000004020d6 <call_periph_mskd>:
  4020d6:	bf c0 02 70 00       	mov    $0x7002c0,%edi
  4020db:	e8 e9 ff ff ff       	callq  4020c9 <periph_mskd>
  4020e0:	f3 c3                	repz retq 

00000000004020e2 <periph_mskd_val>:
  4020e2:	83 fe 01             	cmp    $0x1,%esi
  4020e5:	75 0c                	jne    4020f3 <periph_mskd_val+0x11>
  4020e7:	8b 47 04             	mov    0x4(%rdi),%eax
  4020ea:	83 e0 f9             	and    $0xfffffff9,%eax
  4020ed:	83 c8 02             	or     $0x2,%eax
  4020f0:	89 47 04             	mov    %eax,0x4(%rdi)
  4020f3:	f3 c3                	repz retq 

00000000004020f5 <call_periph_mskd_val>:
  4020f5:	be 01 00 00 00       	mov    $0x1,%esi
  4020fa:	bf c0 02 70 00       	mov    $0x7002c0,%edi
  4020ff:	e8 de ff ff ff       	callq  4020e2 <periph_mskd_val>
  402104:	f3 c3                	repz retq 

0000000000402106 <reg_mskd_val>:
  402106:	83 fe 01             	cmp    $0x1,%esi
  402109:	75 0a                	jne    402115 <reg_mskd_val+0xf>
  40210b:	8b 07                	mov    (%rdi),%eax
  40210d:	83 e0 f9             	and    $0xfffffff9,%eax
  402110:	83 c8 02             	or     $0x2,%eax
  402113:	89 07                	mov    %eax,(%rdi)
  402115:	f3 c3                	repz retq 

0000000000402117 <call_reg_mskd_val>:
  402117:	be 01 00 00 00       	mov    $0x1,%esi
  40211c:	bf c4 02 70 00       	mov    $0x7002c4,%edi
  402121:	e8 e0 ff ff ff       	callq  402106 <reg_mskd_val>
  402126:	f3 c3                	repz retq 

0000000000402128 <periph_mskd_ref>:
  402128:	83 3e 01             	cmpl   $0x1,(%rsi)
  40212b:	75 0c                	jne    402139 <periph_mskd_ref+0x11>
  40212d:	8b 47 04             	mov    0x4(%rdi),%eax
  402130:	83 e0 f9             	and    $0xfffffff9,%eax
  402133:	83 c8 02             	or     $0x2,%eax
  402136:	89 47 04             	mov    %eax,0x4(%rdi)
  402139:	f3 c3                	repz retq 

000000000040213b <call_periph_mskd_ref>:
  40213b:	48 83 ec 10          	sub    $0x10,%rsp
  40213f:	c7 44 24 0c 01 00 00 	movl   $0x1,0xc(%rsp)
  402146:	00 
  402147:	48 8d 74 24 0c       	lea    0xc(%rsp),%rsi
  40214c:	bf c0 02 70 00       	mov    $0x7002c0,%edi
  402151:	e8 d2 ff ff ff       	callq  402128 <periph_mskd_ref>
  402156:	48 83 c4 10          	add    $0x10,%rsp
  40215a:	c3                   	retq   

000000000040215b <reg_mskd_ref>:
  40215b:	83 3e 01             	cmpl   $0x1,(%rsi)
  40215e:	75 0a                	jne    40216a <reg_mskd_ref+0xf>
  402160:	8b 07                	mov    (%rdi),%eax
  402162:	83 e0 f9             	and    $0xfffffff9,%eax
  402165:	83 c8 02             	or     $0x2,%eax
  402168:	89 07                	mov    %eax,(%rdi)
  40216a:	f3 c3                	repz retq 

000000000040216c <call_reg_mskd_ref>:
  40216c:	48 83 ec 10          	sub    $0x10,%rsp
  402170:	c7 44 24 0c 01 00 00 	movl   $0x1,0xc(%rsp)
  402177:	00 
  402178:	48 8d 74 24 0c       	lea    0xc(%rsp),%rsi
  40217d:	bf c4 02 70 00       	mov    $0x7002c4,%edi
  402182:	e8 d4 ff ff ff       	callq  40215b <reg_mskd_ref>
  402187:	48 83 c4 10          	add    $0x10,%rsp
  40218b:	c3                   	retq   

000000000040218c <return_bits>:
  40218c:	b8 01 00 00 00       	mov    $0x1,%eax
  402191:	c3                   	retq   

0000000000402192 <call_return_bits>:
  402192:	b8 00 00 00 00       	mov    $0x0,%eax
  402197:	e8 f0 ff ff ff       	callq  40218c <return_bits>
  40219c:	c7 04 25 24 02 70 00 	movl   $0x0,0x700224
  4021a3:	00 00 00 00 
  4021a7:	83 f8 01             	cmp    $0x1,%eax
  4021aa:	75 19                	jne    4021c5 <call_return_bits+0x33>
  4021ac:	8b 04 25 24 02 70 00 	mov    0x700224,%eax
  4021b3:	25 ff ff ff c1       	and    $0xc1ffffff,%eax
  4021b8:	0d 00 00 00 2a       	or     $0x2a000000,%eax
  4021bd:	89 04 25 24 02 70 00 	mov    %eax,0x700224
  4021c4:	c3                   	retq   
  4021c5:	8b 04 25 24 02 70 00 	mov    0x700224,%eax
  4021cc:	0d 00 00 00 3e       	or     $0x3e000000,%eax
  4021d1:	89 04 25 24 02 70 00 	mov    %eax,0x700224
  4021d8:	c3                   	retq   

00000000004021d9 <return_mskd>:
  4021d9:	c7 07 02 00 00 00    	movl   $0x2,(%rdi)
  4021df:	c7 06 01 00 00 00    	movl   $0x1,(%rsi)
  4021e5:	c3                   	retq   

00000000004021e6 <call_return_mskd>:
  4021e6:	48 83 ec 10          	sub    $0x10,%rsp
  4021ea:	48 8d 74 24 08       	lea    0x8(%rsp),%rsi
  4021ef:	48 8d 7c 24 0c       	lea    0xc(%rsp),%rdi
  4021f4:	e8 e0 ff ff ff       	callq  4021d9 <return_mskd>
  4021f9:	c7 04 25 24 02 70 00 	movl   $0x0,0x700224
  402200:	00 00 00 00 
  402204:	83 7c 24 0c 02       	cmpl   $0x2,0xc(%rsp)
  402209:	75 21                	jne    40222c <call_return_mskd+0x46>
  40220b:	83 7c 24 08 01       	cmpl   $0x1,0x8(%rsp)
  402210:	75 1a                	jne    40222c <call_return_mskd+0x46>
  402212:	8b 04 25 24 02 70 00 	mov    0x700224,%eax
  402219:	25 ff ff ff c1       	and    $0xc1ffffff,%eax
  40221e:	0d 00 00 00 22       	or     $0x22000000,%eax
  402223:	89 04 25 24 02 70 00 	mov    %eax,0x700224
  40222a:	eb 18                	jmp    402244 <call_return_mskd+0x5e>
  40222c:	8b 04 25 24 02 70 00 	mov    0x700224,%eax
  402233:	25 ff ff ff c1       	and    $0xc1ffffff,%eax
  402238:	0d 00 00 00 26       	or     $0x26000000,%eax
  40223d:	89 04 25 24 02 70 00 	mov    %eax,0x700224
  402244:	48 83 c4 10          	add    $0x10,%rsp
  402248:	c3                   	retq   

0000000000402249 <return_reg>:
  402249:	c7 04 25 c4 02 70 00 	movl   $0x0,0x7002c4
  402250:	00 00 00 00 
  402254:	8b 04 25 c4 02 70 00 	mov    0x7002c4,%eax
  40225b:	83 c8 40             	or     $0x40,%eax
  40225e:	89 04 25 c4 02 70 00 	mov    %eax,0x7002c4
  402265:	b8 c4 02 70 00       	mov    $0x7002c4,%eax
  40226a:	c3                   	retq   

000000000040226b <call_return_reg>:
  40226b:	b8 00 00 00 00       	mov    $0x0,%eax
  402270:	e8 d4 ff ff ff       	callq  402249 <return_reg>
  402275:	c7 04 25 24 02 70 00 	movl   $0x0,0x700224
  40227c:	00 00 00 00 
  402280:	8b 00                	mov    (%rax),%eax
  402282:	a8 40                	test   $0x40,%al
  402284:	74 19                	je     40229f <call_return_reg+0x34>
  402286:	8b 04 25 24 02 70 00 	mov    0x700224,%eax
  40228d:	25 ff ff ff c1       	and    $0xc1ffffff,%eax
  402292:	0d 00 00 00 1e       	or     $0x1e000000,%eax
  402297:	89 04 25 24 02 70 00 	mov    %eax,0x700224
  40229e:	c3                   	retq   
  40229f:	8b 04 25 24 02 70 00 	mov    0x700224,%eax
  4022a6:	25 ff ff ff c1       	and    $0xc1ffffff,%eax
  4022ab:	0d 00 00 00 2e       	or     $0x2e000000,%eax
  4022b0:	89 04 25 24 02 70 00 	mov    %eax,0x700224
  4022b7:	c3                   	retq   

00000000004022b8 <return_periph>:
  4022b8:	c7 04 25 c4 02 70 00 	movl   $0x0,0x7002c4
  4022bf:	00 00 00 00 
  4022c3:	8b 04 25 c4 02 70 00 	mov    0x7002c4,%eax
  4022ca:	83 c8 40             	or     $0x40,%eax
  4022cd:	89 04 25 c4 02 70 00 	mov    %eax,0x7002c4
  4022d4:	b8 c0 02 70 00       	mov    $0x7002c0,%eax
  4022d9:	c3                   	retq   

00000000004022da <call_return_periph>:
  4022da:	b8 00 00 00 00       	mov    $0x0,%eax
  4022df:	e8 d4 ff ff ff       	callq  4022b8 <return_periph>
  4022e4:	8b 40 04             	mov    0x4(%rax),%eax
  4022e7:	a8 40                	test   $0x40,%al
  4022e9:	74 19                	je     402304 <call_return_periph+0x2a>
  4022eb:	8b 04 25 24 02 70 00 	mov    0x700224,%eax
  4022f2:	25 ff ff ff c1       	and    $0xc1ffffff,%eax
  4022f7:	0d 00 00 00 26       	or     $0x26000000,%eax
  4022fc:	89 04 25 24 02 70 00 	mov    %eax,0x700224
  402303:	c3                   	retq   
  402304:	8b 04 25 24 02 70 00 	mov    0x700224,%eax
  40230b:	25 ff ff ff c1       	and    $0xc1ffffff,%eax
  402310:	0d 00 00 00 2a       	or     $0x2a000000,%eax
  402315:	89 04 25 24 02 70 00 	mov    %eax,0x700224
  40231c:	c3                   	retq   

000000000040231d <pos_val>:
  40231d:	83 ff 03             	cmp    $0x3,%edi
  402320:	75 0c                	jne    40232e <pos_val+0x11>
  402322:	c7 04 25 2c 01 70 00 	movl   $0x33,0x70012c
  402329:	33 00 00 00 
  40232d:	c3                   	retq   
  40232e:	83 ff 04             	cmp    $0x4,%edi
  402331:	75 0c                	jne    40233f <pos_val+0x22>
  402333:	c7 04 25 2c 01 70 00 	movl   $0x44,0x70012c
  40233a:	44 00 00 00 
  40233e:	c3                   	retq   
  40233f:	c7 04 25 2c 01 70 00 	movl   $0x55,0x70012c
  402346:	55 00 00 00 
  40234a:	c3                   	retq   

000000000040234b <call_pos_val>:
  40234b:	bf 03 00 00 00       	mov    $0x3,%edi
  402350:	e8 c8 ff ff ff       	callq  40231d <pos_val>
  402355:	bf 04 00 00 00       	mov    $0x4,%edi
  40235a:	e8 be ff ff ff       	callq  40231d <pos_val>
  40235f:	f3 c3                	repz retq 

0000000000402361 <call_pos_val_global>:
  402361:	bf 04 00 00 00       	mov    $0x4,%edi
  402366:	e8 b2 ff ff ff       	callq  40231d <pos_val>
  40236b:	f3 c3                	repz retq 

000000000040236d <pos_ref>:
  40236d:	8b 07                	mov    (%rdi),%eax
  40236f:	83 f8 03             	cmp    $0x3,%eax
  402372:	75 0c                	jne    402380 <pos_ref+0x13>
  402374:	c7 04 25 2c 01 70 00 	movl   $0x66,0x70012c
  40237b:	66 00 00 00 
  40237f:	c3                   	retq   
  402380:	83 f8 04             	cmp    $0x4,%eax
  402383:	75 0c                	jne    402391 <pos_ref+0x24>
  402385:	c7 04 25 2c 01 70 00 	movl   $0x77,0x70012c
  40238c:	77 00 00 00 
  402390:	c3                   	retq   
  402391:	c7 04 25 2c 01 70 00 	movl   $0x88,0x70012c
  402398:	88 00 00 00 
  40239c:	c3                   	retq   

000000000040239d <call_pos_ref>:
  40239d:	48 83 ec 10          	sub    $0x10,%rsp
  4023a1:	c7 44 24 0c 03 00 00 	movl   $0x3,0xc(%rsp)
  4023a8:	00 
  4023a9:	48 8d 7c 24 0c       	lea    0xc(%rsp),%rdi
  4023ae:	e8 ba ff ff ff       	callq  40236d <pos_ref>
  4023b3:	48 8d 7c 24 0c       	lea    0xc(%rsp),%rdi
  4023b8:	e8 b0 ff ff ff       	callq  40236d <pos_ref>
  4023bd:	48 83 c4 10          	add    $0x10,%rsp
  4023c1:	c3                   	retq   

00000000004023c2 <call_pos_ref_global>:
  4023c2:	48 83 ec 10          	sub    $0x10,%rsp
  4023c6:	c7 44 24 0c 04 00 00 	movl   $0x4,0xc(%rsp)
  4023cd:	00 
  4023ce:	48 8d 7c 24 0c       	lea    0xc(%rsp),%rdi
  4023d3:	e8 95 ff ff ff       	callq  40236d <pos_ref>
  4023d8:	48 83 c4 10          	add    $0x10,%rsp
  4023dc:	c3                   	retq   

00000000004023dd <runtime_range_val>:
  4023dd:	89 f8                	mov    %edi,%eax
  4023df:	83 e0 1f             	and    $0x1f,%eax
  4023e2:	c1 e0 0c             	shl    $0xc,%eax
  4023e5:	8b 3c 25 c4 02 70 00 	mov    0x7002c4,%edi
  4023ec:	81 e7 ff 0f fe ff    	and    $0xfffe0fff,%edi
  4023f2:	09 c7                	or     %eax,%edi
  4023f4:	89 3c 25 c4 02 70 00 	mov    %edi,0x7002c4
  4023fb:	c3                   	retq   

00000000004023fc <call_range_val>:
  4023fc:	40 0f b6 ff          	movzbl %dil,%edi
  402400:	e8 d8 ff ff ff       	callq  4023dd <runtime_range_val>
  402405:	f3 c3                	repz retq 

0000000000402407 <call_range_val_port>:
  402407:	bf 1f 00 00 00       	mov    $0x1f,%edi
  40240c:	e8 eb ff ff ff       	callq  4023fc <call_range_val>
  402411:	f3 c3                	repz retq 

0000000000402413 <runtime_range_ref>:
  402413:	8b 17                	mov    (%rdi),%edx
  402415:	83 e2 1f             	and    $0x1f,%edx
  402418:	c1 e2 0c             	shl    $0xc,%edx
  40241b:	8b 04 25 c4 02 70 00 	mov    0x7002c4,%eax
  402422:	25 ff 0f fe ff       	and    $0xfffe0fff,%eax
  402427:	09 d0                	or     %edx,%eax
  402429:	89 04 25 c4 02 70 00 	mov    %eax,0x7002c4
  402430:	c3                   	retq   

0000000000402431 <call_range_ref>:
  402431:	48 83 ec 08          	sub    $0x8,%rsp
  402435:	89 7c 24 04          	mov    %edi,0x4(%rsp)
  402439:	48 8d 7c 24 04       	lea    0x4(%rsp),%rdi
  40243e:	e8 d0 ff ff ff       	callq  402413 <runtime_range_ref>
  402443:	48 83 c4 08          	add    $0x8,%rsp
  402447:	c3                   	retq   

0000000000402448 <call_range_ref_port>:
  402448:	bf 0c 00 00 00       	mov    $0xc,%edi
  40244d:	e8 df ff ff ff       	callq  402431 <call_range_ref>
  402452:	f3 c3                	repz retq 

0000000000402454 <check_array_range_pass>:
  402454:	83 ff 16             	cmp    $0x16,%edi
  402457:	77 0c                	ja     402465 <check_array_range_pass+0x11>
  402459:	c7 04 25 2c 01 70 00 	movl   $0x7f,0x70012c
  402460:	7f 00 00 00 
  402464:	c3                   	retq   
  402465:	c7 04 25 2c 01 70 00 	movl   $0x83,0x70012c
  40246c:	83 00 00 00 
  402470:	c3                   	retq   

0000000000402471 <check_array_range_fail>:
  402471:	83 ff 16             	cmp    $0x16,%edi
  402474:	77 0c                	ja     402482 <check_array_range_fail+0x11>
  402476:	c7 04 25 2c 01 70 00 	movl   $0x95,0x70012c
  40247d:	95 00 00 00 
  402481:	c3                   	retq   
  402482:	c7 04 25 2c 01 70 00 	movl   $0x97,0x70012c
  402489:	97 00 00 00 
  40248d:	c3                   	retq   

000000000040248e <check_bits_range_pass>:
  40248e:	83 ff 0f             	cmp    $0xf,%edi
  402491:	77 0c                	ja     40249f <check_bits_range_pass+0x11>
  402493:	c7 04 25 2c 01 70 00 	movl   $0x9d,0x70012c
  40249a:	9d 00 00 00 
  40249e:	c3                   	retq   
  40249f:	c7 04 25 2c 01 70 00 	movl   $0xa3,0x70012c
  4024a6:	a3 00 00 00 
  4024aa:	c3                   	retq   

00000000004024ab <check_bits_range_fail>:
  4024ab:	83 ff 0f             	cmp    $0xf,%edi
  4024ae:	77 0c                	ja     4024bc <check_bits_range_fail+0x11>
  4024b0:	c7 04 25 2c 01 70 00 	movl   $0xa7,0x70012c
  4024b7:	a7 00 00 00 
  4024bb:	c3                   	retq   
  4024bc:	c7 04 25 2c 01 70 00 	movl   $0xad,0x70012c
  4024c3:	ad 00 00 00 
  4024c7:	c3                   	retq   

00000000004024c8 <check_mskd_range_pass>:
  4024c8:	83 ff 1f             	cmp    $0x1f,%edi
  4024cb:	77 0c                	ja     4024d9 <check_mskd_range_pass+0x11>
  4024cd:	c7 04 25 2c 01 70 00 	movl   $0xb3,0x70012c
  4024d4:	b3 00 00 00 
  4024d8:	c3                   	retq   
  4024d9:	c7 04 25 2c 01 70 00 	movl   $0xb5,0x70012c
  4024e0:	b5 00 00 00 
  4024e4:	c3                   	retq   

00000000004024e5 <check_mskd_range_fail>:
  4024e5:	83 ff 1f             	cmp    $0x1f,%edi
  4024e8:	77 0c                	ja     4024f6 <check_mskd_range_fail+0x11>
  4024ea:	c7 04 25 2c 01 70 00 	movl   $0xbf,0x70012c
  4024f1:	bf 00 00 00 
  4024f5:	c3                   	retq   
  4024f6:	c7 04 25 2c 01 70 00 	movl   $0xc1,0x70012c
  4024fd:	c1 00 00 00 
  402501:	c3                   	retq   

0000000000402502 <bits_extract_ne>:
  402502:	8b 04 25 c4 02 70 00 	mov    0x7002c4,%eax
  402509:	83 c8 20             	or     $0x20,%eax
  40250c:	89 04 25 c4 02 70 00 	mov    %eax,0x7002c4
  402513:	8b 04 25 c4 02 70 00 	mov    0x7002c4,%eax
  40251a:	c7 04 25 c4 02 70 00 	movl   $0x0,0x7002c4
  402521:	00 00 00 00 
  402525:	a8 20                	test   $0x20,%al
  402527:	75 15                	jne    40253e <bits_extract_ne+0x3c>
  402529:	8b 04 25 c4 02 70 00 	mov    0x7002c4,%eax
  402530:	83 e0 f9             	and    $0xfffffff9,%eax
  402533:	83 c8 02             	or     $0x2,%eax
  402536:	89 04 25 c4 02 70 00 	mov    %eax,0x7002c4
  40253d:	c3                   	retq   
  40253e:	8b 04 25 c4 02 70 00 	mov    0x7002c4,%eax
  402545:	83 e0 f9             	and    $0xfffffff9,%eax
  402548:	83 c8 04             	or     $0x4,%eax
  40254b:	89 04 25 c4 02 70 00 	mov    %eax,0x7002c4
  402552:	c3                   	retq   

0000000000402553 <mskd_extract_geq>:
  402553:	c7 04 25 24 02 70 00 	movl   $0x0,0x700224
  40255a:	00 00 00 00 
  40255e:	8b 04 25 24 02 70 00 	mov    0x700224,%eax
  402565:	25 ff ff ff c1       	and    $0xc1ffffff,%eax
  40256a:	0d 00 00 00 16       	or     $0x16000000,%eax
  40256f:	89 04 25 24 02 70 00 	mov    %eax,0x700224
  402576:	8b 04 25 24 02 70 00 	mov    0x700224,%eax
  40257d:	c7 04 25 c4 02 70 00 	movl   $0x0,0x7002c4
  402584:	00 00 00 00 
  402588:	89 c2                	mov    %eax,%edx
  40258a:	c1 ea 19             	shr    $0x19,%edx
  40258d:	83 e2 1f             	and    $0x1f,%edx
  402590:	83 fa 09             	cmp    $0x9,%edx
  402593:	7e 17                	jle    4025ac <mskd_extract_geq+0x59>
  402595:	83 fa 0a             	cmp    $0xa,%edx
  402598:	7e 12                	jle    4025ac <mskd_extract_geq+0x59>
  40259a:	8b 04 25 c4 02 70 00 	mov    0x7002c4,%eax
  4025a1:	83 c8 20             	or     $0x20,%eax
  4025a4:	89 04 25 c4 02 70 00 	mov    %eax,0x7002c4
  4025ab:	c3                   	retq   
  4025ac:	8b 04 25 c4 02 70 00 	mov    0x7002c4,%eax
  4025b3:	83 c8 40             	or     $0x40,%eax
  4025b6:	89 04 25 c4 02 70 00 	mov    %eax,0x7002c4
  4025bd:	c3                   	retq   

00000000004025be <shifted_val>:
  4025be:	c7 04 25 24 02 70 00 	movl   $0x0,0x700224
  4025c5:	00 00 00 00 
  4025c9:	8b 04 25 24 02 70 00 	mov    0x700224,%eax
  4025d0:	25 ff ff ff c1       	and    $0xc1ffffff,%eax
  4025d5:	0d 00 00 00 2e       	or     $0x2e000000,%eax
  4025da:	89 04 25 24 02 70 00 	mov    %eax,0x700224
  4025e1:	83 ff 01             	cmp    $0x1,%edi
  4025e4:	75 16                	jne    4025fc <shifted_val+0x3e>
  4025e6:	48 8b 04 25 20 02 70 	mov    0x700220,%rax
  4025ed:	00 
  4025ee:	48 c1 e8 39          	shr    $0x39,%rax
  4025f2:	83 e0 1f             	and    $0x1f,%eax
  4025f5:	89 04 25 2c 01 70 00 	mov    %eax,0x70012c
  4025fc:	f3 c3                	repz retq 

00000000004025fe <call_shifted_const_val>:
  4025fe:	bf 01 00 00 00       	mov    $0x1,%edi
  402603:	e8 b6 ff ff ff       	callq  4025be <shifted_val>
  402608:	f3 c3                	repz retq 

000000000040260a <call_shifted_var_val>:
  40260a:	bf 01 00 00 00       	mov    $0x1,%edi
  40260f:	e8 aa ff ff ff       	callq  4025be <shifted_val>
  402614:	f3 c3                	repz retq 

0000000000402616 <call_shifted_global_val>:
  402616:	bf 01 00 00 00       	mov    $0x1,%edi
  40261b:	e8 9e ff ff ff       	callq  4025be <shifted_val>
  402620:	f3 c3                	repz retq 

0000000000402622 <shifted_ref>:
  402622:	c7 04 25 24 02 70 00 	movl   $0x0,0x700224
  402629:	00 00 00 00 
  40262d:	8b 04 25 24 02 70 00 	mov    0x700224,%eax
  402634:	25 ff ff ff c1       	and    $0xc1ffffff,%eax
  402639:	0d 00 00 00 2e       	or     $0x2e000000,%eax
  40263e:	89 04 25 24 02 70 00 	mov    %eax,0x700224
  402645:	83 3f 01             	cmpl   $0x1,(%rdi)
  402648:	75 16                	jne    402660 <shifted_ref+0x3e>
  40264a:	48 8b 04 25 20 02 70 	mov    0x700220,%rax
  402651:	00 
  402652:	48 c1 e8 39          	shr    $0x39,%rax
  402656:	83 e0 1f             	and    $0x1f,%eax
  402659:	89 04 25 2c 01 70 00 	mov    %eax,0x70012c
  402660:	f3 c3                	repz retq 

0000000000402662 <call_shifted_const_ref>:
  402662:	48 83 ec 10          	sub    $0x10,%rsp
  402666:	c7 44 24 0c 01 00 00 	movl   $0x1,0xc(%rsp)
  40266d:	00 
  40266e:	48 8d 7c 24 0c       	lea    0xc(%rsp),%rdi
  402673:	e8 aa ff ff ff       	callq  402622 <shifted_ref>
  402678:	48 83 c4 10          	add    $0x10,%rsp
  40267c:	c3                   	retq   

000000000040267d <call_shifted_var_ref>:
  40267d:	48 83 ec 10          	sub    $0x10,%rsp
  402681:	c7 44 24 0c 01 00 00 	movl   $0x1,0xc(%rsp)
  402688:	00 
  402689:	48 8d 7c 24 0c       	lea    0xc(%rsp),%rdi
  40268e:	e8 8f ff ff ff       	callq  402622 <shifted_ref>
  402693:	48 83 c4 10          	add    $0x10,%rsp
  402697:	c3                   	retq   

0000000000402698 <call_shifted_global_ref>:
  402698:	48 83 ec 10          	sub    $0x10,%rsp
  40269c:	c7 44 24 0c 01 00 00 	movl   $0x1,0xc(%rsp)
  4026a3:	00 
  4026a4:	48 8d 7c 24 0c       	lea    0xc(%rsp),%rdi
  4026a9:	e8 74 ff ff ff       	callq  402622 <shifted_ref>
  4026ae:	48 83 c4 10          	add    $0x10,%rsp
  4026b2:	c3                   	retq   

00000000004026b3 <copy_bits_val>:
  4026b3:	c7 04 25 c4 02 70 00 	movl   $0x0,0x7002c4
  4026ba:	00 00 00 00 
  4026be:	83 ff 01             	cmp    $0x1,%edi
  4026c1:	75 15                	jne    4026d8 <copy_bits_val+0x25>
  4026c3:	8b 04 25 c4 02 70 00 	mov    0x7002c4,%eax
  4026ca:	83 e0 f9             	and    $0xfffffff9,%eax
  4026cd:	83 c8 02             	or     $0x2,%eax
  4026d0:	89 04 25 c4 02 70 00 	mov    %eax,0x7002c4
  4026d7:	c3                   	retq   
  4026d8:	8b 04 25 c4 02 70 00 	mov    0x7002c4,%eax
  4026df:	83 e0 f9             	and    $0xfffffff9,%eax
  4026e2:	83 c8 04             	or     $0x4,%eax
  4026e5:	89 04 25 c4 02 70 00 	mov    %eax,0x7002c4
  4026ec:	c3                   	retq   

00000000004026ed <call_copy_bits_val>:
  4026ed:	c7 04 25 c4 02 70 00 	movl   $0x0,0x7002c4
  4026f4:	00 00 00 00 
  4026f8:	8b 04 25 c4 02 70 00 	mov    0x7002c4,%eax
  4026ff:	83 c8 40             	or     $0x40,%eax
  402702:	89 04 25 c4 02 70 00 	mov    %eax,0x7002c4
  402709:	48 8b 3c 25 c0 02 70 	mov    0x7002c0,%rdi
  402710:	00 
  402711:	48 c1 ef 26          	shr    $0x26,%rdi
  402715:	83 e7 01             	and    $0x1,%edi
  402718:	e8 96 ff ff ff       	callq  4026b3 <copy_bits_val>
  40271d:	f3 c3                	repz retq 

000000000040271f <copy_bits_ref>:
  40271f:	c7 04 25 c4 02 70 00 	movl   $0x0,0x7002c4
  402726:	00 00 00 00 
  40272a:	83 3f 01             	cmpl   $0x1,(%rdi)
  40272d:	75 15                	jne    402744 <copy_bits_ref+0x25>
  40272f:	8b 04 25 c4 02 70 00 	mov    0x7002c4,%eax
  402736:	83 e0 f9             	and    $0xfffffff9,%eax
  402739:	83 c8 02             	or     $0x2,%eax
  40273c:	89 04 25 c4 02 70 00 	mov    %eax,0x7002c4
  402743:	c3                   	retq   
  402744:	8b 04 25 c4 02 70 00 	mov    0x7002c4,%eax
  40274b:	83 e0 f9             	and    $0xfffffff9,%eax
  40274e:	83 c8 04             	or     $0x4,%eax
  402751:	89 04 25 c4 02 70 00 	mov    %eax,0x7002c4
  402758:	c3                   	retq   

0000000000402759 <call_copy_bits_ref>:
  402759:	48 83 ec 10          	sub    $0x10,%rsp
  40275d:	c7 04 25 c4 02 70 00 	movl   $0x0,0x7002c4
  402764:	00 00 00 00 
  402768:	8b 04 25 c4 02 70 00 	mov    0x7002c4,%eax
  40276f:	83 c8 40             	or     $0x40,%eax
  402772:	89 04 25 c4 02 70 00 	mov    %eax,0x7002c4
  402779:	48 8b 04 25 c0 02 70 	mov    0x7002c0,%rax
  402780:	00 
  402781:	48 c1 e8 26          	shr    $0x26,%rax
  402785:	83 e0 01             	and    $0x1,%eax
  402788:	89 44 24 0c          	mov    %eax,0xc(%rsp)
  40278c:	48 8d 7c 24 0c       	lea    0xc(%rsp),%rdi
  402791:	e8 89 ff ff ff       	callq  40271f <copy_bits_ref>
  402796:	48 83 c4 10          	add    $0x10,%rsp
  40279a:	c3                   	retq   

000000000040279b <run>:
  40279b:	48 83 ec 08          	sub    $0x8,%rsp
  40279f:	ba 00 00 00 00       	mov    $0x0,%edx
  4027a4:	be c4 02 70 00       	mov    $0x7002c4,%esi
  4027a9:	bf ad 07 40 00       	mov    $0x4007ad,%edi
  4027ae:	e8 01 09 00 00       	callq  4030b4 <do_test>
  4027b3:	ba 01 00 00 00       	mov    $0x1,%edx
  4027b8:	be c4 02 70 00       	mov    $0x7002c4,%esi
  4027bd:	bf b9 07 40 00       	mov    $0x4007b9,%edi
  4027c2:	e8 ed 08 00 00       	callq  4030b4 <do_test>
  4027c7:	ba 02 00 00 00       	mov    $0x2,%edx
  4027cc:	be c4 02 70 00       	mov    $0x7002c4,%esi
  4027d1:	bf c5 07 40 00       	mov    $0x4007c5,%edi
  4027d6:	e8 d9 08 00 00       	callq  4030b4 <do_test>
  4027db:	ba 03 00 00 00       	mov    $0x3,%edx
  4027e0:	be c4 02 70 00       	mov    $0x7002c4,%esi
  4027e5:	bf d7 07 40 00       	mov    $0x4007d7,%edi
  4027ea:	e8 c5 08 00 00       	callq  4030b4 <do_test>
  4027ef:	ba 04 00 00 00       	mov    $0x4,%edx
  4027f4:	be c4 02 70 00       	mov    $0x7002c4,%esi
  4027f9:	bf e9 07 40 00       	mov    $0x4007e9,%edi
  4027fe:	e8 b1 08 00 00       	callq  4030b4 <do_test>
  402803:	ba 05 00 00 00       	mov    $0x5,%edx
  402808:	be c4 02 70 00       	mov    $0x7002c4,%esi
  40280d:	bf fb 07 40 00       	mov    $0x4007fb,%edi
  402812:	e8 9d 08 00 00       	callq  4030b4 <do_test>
  402817:	ba 06 00 00 00       	mov    $0x6,%edx
  40281c:	be c4 02 70 00       	mov    $0x7002c4,%esi
  402821:	bf 0d 08 40 00       	mov    $0x40080d,%edi
  402826:	e8 89 08 00 00       	callq  4030b4 <do_test>
  40282b:	ba 07 00 00 00       	mov    $0x7,%edx
  402830:	be c4 02 70 00       	mov    $0x7002c4,%esi
  402835:	bf 35 08 40 00       	mov    $0x400835,%edi
  40283a:	e8 75 08 00 00       	callq  4030b4 <do_test>
  40283f:	ba 08 00 00 00       	mov    $0x8,%edx
  402844:	be c4 02 70 00       	mov    $0x7002c4,%esi
  402849:	bf 5d 08 40 00       	mov    $0x40085d,%edi
  40284e:	e8 61 08 00 00       	callq  4030b4 <do_test>
  402853:	ba 09 00 00 00       	mov    $0x9,%edx
  402858:	be c4 02 70 00       	mov    $0x7002c4,%esi
  40285d:	bf 88 08 40 00       	mov    $0x400888,%edi
  402862:	e8 4d 08 00 00       	callq  4030b4 <do_test>
  402867:	ba 0a 00 00 00       	mov    $0xa,%edx
  40286c:	be c4 02 70 00       	mov    $0x7002c4,%esi
  402871:	bf b3 08 40 00       	mov    $0x4008b3,%edi
  402876:	e8 39 08 00 00       	callq  4030b4 <do_test>
  40287b:	ba 0b 00 00 00       	mov    $0xb,%edx
  402880:	be c4 02 70 00       	mov    $0x7002c4,%esi
  402885:	bf d0 08 40 00       	mov    $0x4008d0,%edi
  40288a:	e8 25 08 00 00       	callq  4030b4 <do_test>
  40288f:	ba 0c 00 00 00       	mov    $0xc,%edx
  402894:	be c4 02 70 00       	mov    $0x7002c4,%esi
  402899:	bf ed 08 40 00       	mov    $0x4008ed,%edi
  40289e:	e8 11 08 00 00       	callq  4030b4 <do_test>
  4028a3:	ba 0d 00 00 00       	mov    $0xd,%edx
  4028a8:	be c4 02 70 00       	mov    $0x7002c4,%esi
  4028ad:	bf 0d 09 40 00       	mov    $0x40090d,%edi
  4028b2:	e8 fd 07 00 00       	callq  4030b4 <do_test>
  4028b7:	ba 0e 00 00 00       	mov    $0xe,%edx
  4028bc:	be c4 02 70 00       	mov    $0x7002c4,%esi
  4028c1:	bf 2d 09 40 00       	mov    $0x40092d,%edi
  4028c6:	e8 e9 07 00 00       	callq  4030b4 <do_test>
  4028cb:	ba 0f 00 00 00       	mov    $0xf,%edx
  4028d0:	be c4 02 70 00       	mov    $0x7002c4,%esi
  4028d5:	bf 54 09 40 00       	mov    $0x400954,%edi
  4028da:	e8 d5 07 00 00       	callq  4030b4 <do_test>
  4028df:	ba 10 00 00 00       	mov    $0x10,%edx
  4028e4:	be c4 02 70 00       	mov    $0x7002c4,%esi
  4028e9:	bf 7b 09 40 00       	mov    $0x40097b,%edi
  4028ee:	e8 c1 07 00 00       	callq  4030b4 <do_test>
  4028f3:	ba 11 00 00 00       	mov    $0x11,%edx
  4028f8:	be c4 02 70 00       	mov    $0x7002c4,%esi
  4028fd:	bf a3 09 40 00       	mov    $0x4009a3,%edi
  402902:	e8 ad 07 00 00       	callq  4030b4 <do_test>
  402907:	ba 12 00 00 00       	mov    $0x12,%edx
  40290c:	be c4 02 70 00       	mov    $0x7002c4,%esi
  402911:	bf cb 09 40 00       	mov    $0x4009cb,%edi
  402916:	e8 99 07 00 00       	callq  4030b4 <do_test>
  40291b:	ba 13 00 00 00       	mov    $0x13,%edx
  402920:	be c4 02 70 00       	mov    $0x7002c4,%esi
  402925:	bf e0 09 40 00       	mov    $0x4009e0,%edi
  40292a:	e8 85 07 00 00       	callq  4030b4 <do_test>
  40292f:	ba 14 00 00 00       	mov    $0x14,%edx
  402934:	be c4 02 70 00       	mov    $0x7002c4,%esi
  402939:	bf f5 09 40 00       	mov    $0x4009f5,%edi
  40293e:	e8 71 07 00 00       	callq  4030b4 <do_test>
  402943:	ba 15 00 00 00       	mov    $0x15,%edx
  402948:	be c4 02 70 00       	mov    $0x7002c4,%esi
  40294d:	bf 18 0a 40 00       	mov    $0x400a18,%edi
  402952:	e8 5d 07 00 00       	callq  4030b4 <do_test>
  402957:	ba 16 00 00 00       	mov    $0x16,%edx
  40295c:	be c4 02 70 00       	mov    $0x7002c4,%esi
  402961:	bf 3b 0a 40 00       	mov    $0x400a3b,%edi
  402966:	e8 49 07 00 00       	callq  4030b4 <do_test>
  40296b:	ba 17 00 00 00       	mov    $0x17,%edx
  402970:	be c4 02 70 00       	mov    $0x7002c4,%esi
  402975:	bf 68 0a 40 00       	mov    $0x400a68,%edi
  40297a:	e8 35 07 00 00       	callq  4030b4 <do_test>
  40297f:	ba 18 00 00 00       	mov    $0x18,%edx
  402984:	be c4 02 70 00       	mov    $0x7002c4,%esi
  402989:	bf 95 0a 40 00       	mov    $0x400a95,%edi
  40298e:	e8 21 07 00 00       	callq  4030b4 <do_test>
  402993:	ba 19 00 00 00       	mov    $0x19,%edx
  402998:	be c4 02 70 00       	mov    $0x7002c4,%esi
  40299d:	bf c3 0a 40 00       	mov    $0x400ac3,%edi
  4029a2:	e8 0d 07 00 00       	callq  4030b4 <do_test>
  4029a7:	ba 1a 00 00 00       	mov    $0x1a,%edx
  4029ac:	be c4 02 70 00       	mov    $0x7002c4,%esi
  4029b1:	bf f1 0a 40 00       	mov    $0x400af1,%edi
  4029b6:	e8 f9 06 00 00       	callq  4030b4 <do_test>
  4029bb:	ba 1b 00 00 00       	mov    $0x1b,%edx
  4029c0:	be c4 02 70 00       	mov    $0x7002c4,%esi
  4029c5:	bf 27 0b 40 00       	mov    $0x400b27,%edi
  4029ca:	e8 e5 06 00 00       	callq  4030b4 <do_test>
  4029cf:	ba 1c 00 00 00       	mov    $0x1c,%edx
  4029d4:	be c4 02 70 00       	mov    $0x7002c4,%esi
  4029d9:	bf 5d 0b 40 00       	mov    $0x400b5d,%edi
  4029de:	e8 d1 06 00 00       	callq  4030b4 <do_test>
  4029e3:	ba 1d 00 00 00       	mov    $0x1d,%edx
  4029e8:	be c4 02 70 00       	mov    $0x7002c4,%esi
  4029ed:	bf 8e 0b 40 00       	mov    $0x400b8e,%edi
  4029f2:	e8 bd 06 00 00       	callq  4030b4 <do_test>
  4029f7:	ba 1e 00 00 00       	mov    $0x1e,%edx
  4029fc:	be c4 02 70 00       	mov    $0x7002c4,%esi
  402a01:	bf bf 0b 40 00       	mov    $0x400bbf,%edi
  402a06:	e8 a9 06 00 00       	callq  4030b4 <do_test>
  402a0b:	ba 1f 00 00 00       	mov    $0x1f,%edx
  402a10:	be c4 02 70 00       	mov    $0x7002c4,%esi
  402a15:	bf f0 0b 40 00       	mov    $0x400bf0,%edi
  402a1a:	e8 95 06 00 00       	callq  4030b4 <do_test>
  402a1f:	ba 20 00 00 00       	mov    $0x20,%edx
  402a24:	be c4 02 70 00       	mov    $0x7002c4,%esi
  402a29:	bf 21 0c 40 00       	mov    $0x400c21,%edi
  402a2e:	e8 81 06 00 00       	callq  4030b4 <do_test>
  402a33:	ba 21 00 00 00       	mov    $0x21,%edx
  402a38:	be c4 02 70 00       	mov    $0x7002c4,%esi
  402a3d:	bf 5a 0c 40 00       	mov    $0x400c5a,%edi
  402a42:	e8 6d 06 00 00       	callq  4030b4 <do_test>
  402a47:	ba 22 00 00 00       	mov    $0x22,%edx
  402a4c:	be c4 02 70 00       	mov    $0x7002c4,%esi
  402a51:	bf 9d 0c 40 00       	mov    $0x400c9d,%edi
  402a56:	e8 59 06 00 00       	callq  4030b4 <do_test>
  402a5b:	ba 23 00 00 00       	mov    $0x23,%edx
  402a60:	be c4 02 70 00       	mov    $0x7002c4,%esi
  402a65:	bf f0 0c 40 00       	mov    $0x400cf0,%edi
  402a6a:	e8 45 06 00 00       	callq  4030b4 <do_test>
  402a6f:	ba 24 00 00 00       	mov    $0x24,%edx
  402a74:	be c4 02 70 00       	mov    $0x7002c4,%esi
  402a79:	bf 2d 0d 40 00       	mov    $0x400d2d,%edi
  402a7e:	e8 31 06 00 00       	callq  4030b4 <do_test>
  402a83:	ba 25 00 00 00       	mov    $0x25,%edx
  402a88:	be 24 02 70 00       	mov    $0x700224,%esi
  402a8d:	bf 86 0d 40 00       	mov    $0x400d86,%edi
  402a92:	e8 1d 06 00 00       	callq  4030b4 <do_test>
  402a97:	ba 26 00 00 00       	mov    $0x26,%edx
  402a9c:	be 24 02 70 00       	mov    $0x700224,%esi
  402aa1:	bf ea 0d 40 00       	mov    $0x400dea,%edi
  402aa6:	e8 09 06 00 00       	callq  4030b4 <do_test>
  402aab:	ba 27 00 00 00       	mov    $0x27,%edx
  402ab0:	be 24 02 70 00       	mov    $0x700224,%esi
  402ab5:	bf 75 0e 40 00       	mov    $0x400e75,%edi
  402aba:	e8 f5 05 00 00       	callq  4030b4 <do_test>
  402abf:	ba 28 00 00 00       	mov    $0x28,%edx
  402ac4:	be c4 02 70 00       	mov    $0x7002c4,%esi
  402ac9:	bf fb 0e 40 00       	mov    $0x400efb,%edi
  402ace:	e8 e1 05 00 00       	callq  4030b4 <do_test>
  402ad3:	ba 29 00 00 00       	mov    $0x29,%edx
  402ad8:	be c4 02 70 00       	mov    $0x7002c4,%esi
  402add:	bf 63 0f 40 00       	mov    $0x400f63,%edi
  402ae2:	e8 cd 05 00 00       	callq  4030b4 <do_test>
  402ae7:	ba 2a 00 00 00       	mov    $0x2a,%edx
  402aec:	be c4 02 70 00       	mov    $0x7002c4,%esi
  402af1:	bf c0 0f 40 00       	mov    $0x400fc0,%edi
  402af6:	e8 b9 05 00 00       	callq  4030b4 <do_test>
  402afb:	ba 2b 00 00 00       	mov    $0x2b,%edx
  402b00:	be c4 02 70 00       	mov    $0x7002c4,%esi
  402b05:	bf 8f 10 40 00       	mov    $0x40108f,%edi
  402b0a:	e8 a5 05 00 00       	callq  4030b4 <do_test>
  402b0f:	ba 2c 00 00 00       	mov    $0x2c,%edx
  402b14:	be c4 02 70 00       	mov    $0x7002c4,%esi
  402b19:	bf 53 11 40 00       	mov    $0x401153,%edi
  402b1e:	e8 91 05 00 00       	callq  4030b4 <do_test>
  402b23:	ba 2d 00 00 00       	mov    $0x2d,%edx
  402b28:	be a0 01 70 00       	mov    $0x7001a0,%esi
  402b2d:	bf 7b 11 40 00       	mov    $0x40117b,%edi
  402b32:	e8 7d 05 00 00       	callq  4030b4 <do_test>
  402b37:	ba 2e 00 00 00       	mov    $0x2e,%edx
  402b3c:	be c4 02 70 00       	mov    $0x7002c4,%esi
  402b41:	bf 07 1b 40 00       	mov    $0x401b07,%edi
  402b46:	e8 69 05 00 00       	callq  4030b4 <do_test>
  402b4b:	ba 2f 00 00 00       	mov    $0x2f,%edx
  402b50:	be c4 02 70 00       	mov    $0x7002c4,%esi
  402b55:	bf 18 1b 40 00       	mov    $0x401b18,%edi
  402b5a:	e8 55 05 00 00       	callq  4030b4 <do_test>
  402b5f:	ba 30 00 00 00       	mov    $0x30,%edx
  402b64:	be c4 02 70 00       	mov    $0x7002c4,%esi
  402b69:	bf ee 1b 40 00       	mov    $0x401bee,%edi
  402b6e:	e8 41 05 00 00       	callq  4030b4 <do_test>
  402b73:	ba 31 00 00 00       	mov    $0x31,%edx
  402b78:	be c4 02 70 00       	mov    $0x7002c4,%esi
  402b7d:	bf 16 1c 40 00       	mov    $0x401c16,%edi
  402b82:	e8 2d 05 00 00       	callq  4030b4 <do_test>
  402b87:	ba 32 00 00 00       	mov    $0x32,%edx
  402b8c:	be c4 02 70 00       	mov    $0x7002c4,%esi
  402b91:	bf b8 1d 40 00       	mov    $0x401db8,%edi
  402b96:	e8 19 05 00 00       	callq  4030b4 <do_test>
  402b9b:	ba 33 00 00 00       	mov    $0x33,%edx
  402ba0:	be c4 02 70 00       	mov    $0x7002c4,%esi
  402ba5:	bf d8 1d 40 00       	mov    $0x401dd8,%edi
  402baa:	e8 05 05 00 00       	callq  4030b4 <do_test>
  402baf:	ba 34 00 00 00       	mov    $0x34,%edx
  402bb4:	be c4 02 70 00       	mov    $0x7002c4,%esi
  402bb9:	bf 9d 1f 40 00       	mov    $0x401f9d,%edi
  402bbe:	e8 f1 04 00 00       	callq  4030b4 <do_test>
  402bc3:	ba 35 00 00 00       	mov    $0x35,%edx
  402bc8:	be c4 02 70 00       	mov    $0x7002c4,%esi
  402bcd:	bf c5 1f 40 00       	mov    $0x401fc5,%edi
  402bd2:	e8 dd 04 00 00       	callq  4030b4 <do_test>
  402bd7:	ba 36 00 00 00       	mov    $0x36,%edx
  402bdc:	be c4 02 70 00       	mov    $0x7002c4,%esi
  402be1:	bf 1f 20 40 00       	mov    $0x40201f,%edi
  402be6:	e8 c9 04 00 00       	callq  4030b4 <do_test>
  402beb:	ba 37 00 00 00       	mov    $0x37,%edx
  402bf0:	be c4 02 70 00       	mov    $0x7002c4,%esi
  402bf5:	bf 3b 20 40 00       	mov    $0x40203b,%edi
  402bfa:	e8 b5 04 00 00       	callq  4030b4 <do_test>
  402bff:	ba 38 00 00 00       	mov    $0x38,%edx
  402c04:	be c4 02 70 00       	mov    $0x7002c4,%esi
  402c09:	bf 5a 20 40 00       	mov    $0x40205a,%edi
  402c0e:	e8 a1 04 00 00       	callq  4030b4 <do_test>
  402c13:	ba 39 00 00 00       	mov    $0x39,%edx
  402c18:	be c4 02 70 00       	mov    $0x7002c4,%esi
  402c1d:	bf 7b 20 40 00       	mov    $0x40207b,%edi
  402c22:	e8 8d 04 00 00       	callq  4030b4 <do_test>
  402c27:	ba 3a 00 00 00       	mov    $0x3a,%edx
  402c2c:	be c4 02 70 00       	mov    $0x7002c4,%esi
  402c31:	bf a9 20 40 00       	mov    $0x4020a9,%edi
  402c36:	e8 79 04 00 00       	callq  4030b4 <do_test>
  402c3b:	ba 3b 00 00 00       	mov    $0x3b,%edx
  402c40:	be c4 02 70 00       	mov    $0x7002c4,%esi
  402c45:	bf d6 20 40 00       	mov    $0x4020d6,%edi
  402c4a:	e8 65 04 00 00       	callq  4030b4 <do_test>
  402c4f:	ba 3c 00 00 00       	mov    $0x3c,%edx
  402c54:	be c4 02 70 00       	mov    $0x7002c4,%esi
  402c59:	bf f5 20 40 00       	mov    $0x4020f5,%edi
  402c5e:	e8 51 04 00 00       	callq  4030b4 <do_test>
  402c63:	ba 3d 00 00 00       	mov    $0x3d,%edx
  402c68:	be c4 02 70 00       	mov    $0x7002c4,%esi
  402c6d:	bf 17 21 40 00       	mov    $0x402117,%edi
  402c72:	e8 3d 04 00 00       	callq  4030b4 <do_test>
  402c77:	ba 3e 00 00 00       	mov    $0x3e,%edx
  402c7c:	be c4 02 70 00       	mov    $0x7002c4,%esi
  402c81:	bf 3b 21 40 00       	mov    $0x40213b,%edi
  402c86:	e8 29 04 00 00       	callq  4030b4 <do_test>
  402c8b:	ba 3f 00 00 00       	mov    $0x3f,%edx
  402c90:	be c4 02 70 00       	mov    $0x7002c4,%esi
  402c95:	bf 6c 21 40 00       	mov    $0x40216c,%edi
  402c9a:	e8 15 04 00 00       	callq  4030b4 <do_test>
  402c9f:	ba 40 00 00 00       	mov    $0x40,%edx
  402ca4:	be 24 02 70 00       	mov    $0x700224,%esi
  402ca9:	bf 92 21 40 00       	mov    $0x402192,%edi
  402cae:	e8 01 04 00 00       	callq  4030b4 <do_test>
  402cb3:	ba 41 00 00 00       	mov    $0x41,%edx
  402cb8:	be 24 02 70 00       	mov    $0x700224,%esi
  402cbd:	bf e6 21 40 00       	mov    $0x4021e6,%edi
  402cc2:	e8 ed 03 00 00       	callq  4030b4 <do_test>
  402cc7:	ba 42 00 00 00       	mov    $0x42,%edx
  402ccc:	be 24 02 70 00       	mov    $0x700224,%esi
  402cd1:	bf 6b 22 40 00       	mov    $0x40226b,%edi
  402cd6:	e8 d9 03 00 00       	callq  4030b4 <do_test>
  402cdb:	ba 43 00 00 00       	mov    $0x43,%edx
  402ce0:	be c4 02 70 00       	mov    $0x7002c4,%esi
  402ce5:	bf da 22 40 00       	mov    $0x4022da,%edi
  402cea:	e8 c5 03 00 00       	callq  4030b4 <do_test>
  402cef:	ba 44 00 00 00       	mov    $0x44,%edx
  402cf4:	be 2c 01 70 00       	mov    $0x70012c,%esi
  402cf9:	bf 4b 23 40 00       	mov    $0x40234b,%edi
  402cfe:	e8 b1 03 00 00       	callq  4030b4 <do_test>
  402d03:	ba 45 00 00 00       	mov    $0x45,%edx
  402d08:	be 2c 01 70 00       	mov    $0x70012c,%esi
  402d0d:	bf 9d 23 40 00       	mov    $0x40239d,%edi
  402d12:	e8 9d 03 00 00       	callq  4030b4 <do_test>
  402d17:	ba 46 00 00 00       	mov    $0x46,%edx
  402d1c:	be c4 02 70 00       	mov    $0x7002c4,%esi
  402d21:	bf 07 24 40 00       	mov    $0x402407,%edi
  402d26:	e8 89 03 00 00       	callq  4030b4 <do_test>
  402d2b:	ba 47 00 00 00       	mov    $0x47,%edx
  402d30:	be c4 02 70 00       	mov    $0x7002c4,%esi
  402d35:	bf 48 24 40 00       	mov    $0x402448,%edi
  402d3a:	e8 75 03 00 00       	callq  4030b4 <do_test>
  402d3f:	ba 48 00 00 00       	mov    $0x48,%edx
  402d44:	be 2c 01 70 00       	mov    $0x70012c,%esi
  402d49:	bf c6 11 40 00       	mov    $0x4011c6,%edi
  402d4e:	e8 61 03 00 00       	callq  4030b4 <do_test>
  402d53:	ba 49 00 00 00       	mov    $0x49,%edx
  402d58:	be 2c 01 70 00       	mov    $0x70012c,%esi
  402d5d:	bf f1 11 40 00       	mov    $0x4011f1,%edi
  402d62:	e8 4d 03 00 00       	callq  4030b4 <do_test>
  402d67:	ba 4a 00 00 00       	mov    $0x4a,%edx
  402d6c:	be c4 02 70 00       	mov    $0x7002c4,%esi
  402d71:	bf 20 12 40 00       	mov    $0x401220,%edi
  402d76:	e8 39 03 00 00       	callq  4030b4 <do_test>
  402d7b:	ba 4b 00 00 00       	mov    $0x4b,%edx
  402d80:	be c4 02 70 00       	mov    $0x7002c4,%esi
  402d85:	bf 81 12 40 00       	mov    $0x401281,%edi
  402d8a:	e8 25 03 00 00       	callq  4030b4 <do_test>
  402d8f:	ba 4c 00 00 00       	mov    $0x4c,%edx
  402d94:	be c4 02 70 00       	mov    $0x7002c4,%esi
  402d99:	bf f6 12 40 00       	mov    $0x4012f6,%edi
  402d9e:	e8 11 03 00 00       	callq  4030b4 <do_test>
  402da3:	ba 4d 00 00 00       	mov    $0x4d,%edx
  402da8:	be c4 02 70 00       	mov    $0x7002c4,%esi
  402dad:	bf 57 13 40 00       	mov    $0x401357,%edi
  402db2:	e8 fd 02 00 00       	callq  4030b4 <do_test>
  402db7:	ba 4e 00 00 00       	mov    $0x4e,%edx
  402dbc:	be c4 02 70 00       	mov    $0x7002c4,%esi
  402dc1:	bf cc 13 40 00       	mov    $0x4013cc,%edi
  402dc6:	e8 e9 02 00 00       	callq  4030b4 <do_test>
  402dcb:	ba 4f 00 00 00       	mov    $0x4f,%edx
  402dd0:	be c4 02 70 00       	mov    $0x7002c4,%esi
  402dd5:	bf ec 13 40 00       	mov    $0x4013ec,%edi
  402dda:	e8 d5 02 00 00       	callq  4030b4 <do_test>
  402ddf:	ba 50 00 00 00       	mov    $0x50,%edx
  402de4:	be c4 02 70 00       	mov    $0x7002c4,%esi
  402de9:	bf 0c 14 40 00       	mov    $0x40140c,%edi
  402dee:	e8 c1 02 00 00       	callq  4030b4 <do_test>
  402df3:	ba 51 00 00 00       	mov    $0x51,%edx
  402df8:	be c4 02 70 00       	mov    $0x7002c4,%esi
  402dfd:	bf 0c 14 40 00       	mov    $0x40140c,%edi
  402e02:	e8 ad 02 00 00       	callq  4030b4 <do_test>
  402e07:	ba 52 00 00 00       	mov    $0x52,%edx
  402e0c:	be c4 02 70 00       	mov    $0x7002c4,%esi
  402e11:	bf 5d 14 40 00       	mov    $0x40145d,%edi
  402e16:	e8 99 02 00 00       	callq  4030b4 <do_test>
  402e1b:	ba 53 00 00 00       	mov    $0x53,%edx
  402e20:	be c4 02 70 00       	mov    $0x7002c4,%esi
  402e25:	bf af 14 40 00       	mov    $0x4014af,%edi
  402e2a:	e8 85 02 00 00       	callq  4030b4 <do_test>
  402e2f:	ba 54 00 00 00       	mov    $0x54,%edx
  402e34:	be c4 02 70 00       	mov    $0x7002c4,%esi
  402e39:	bf 0c 15 40 00       	mov    $0x40150c,%edi
  402e3e:	e8 71 02 00 00       	callq  4030b4 <do_test>
  402e43:	ba 55 00 00 00       	mov    $0x55,%edx
  402e48:	be c4 02 70 00       	mov    $0x7002c4,%esi
  402e4d:	bf 70 15 40 00       	mov    $0x401570,%edi
  402e52:	e8 5d 02 00 00       	callq  4030b4 <do_test>
  402e57:	ba 56 00 00 00       	mov    $0x56,%edx
  402e5c:	be c4 02 70 00       	mov    $0x7002c4,%esi
  402e61:	bf db 15 40 00       	mov    $0x4015db,%edi
  402e66:	e8 49 02 00 00       	callq  4030b4 <do_test>
  402e6b:	ba 57 00 00 00       	mov    $0x57,%edx
  402e70:	be c4 02 70 00       	mov    $0x7002c4,%esi
  402e75:	bf 70 15 40 00       	mov    $0x401570,%edi
  402e7a:	e8 35 02 00 00       	callq  4030b4 <do_test>
  402e7f:	ba 58 00 00 00       	mov    $0x58,%edx
  402e84:	be c4 02 70 00       	mov    $0x7002c4,%esi
  402e89:	bf 3f 16 40 00       	mov    $0x40163f,%edi
  402e8e:	e8 21 02 00 00       	callq  4030b4 <do_test>
  402e93:	ba 59 00 00 00       	mov    $0x59,%edx
  402e98:	be c4 02 70 00       	mov    $0x7002c4,%esi
  402e9d:	bf 51 16 40 00       	mov    $0x401651,%edi
  402ea2:	e8 0d 02 00 00       	callq  4030b4 <do_test>
  402ea7:	ba 5a 00 00 00       	mov    $0x5a,%edx
  402eac:	be 2c 01 70 00       	mov    $0x70012c,%esi
  402eb1:	bf 66 16 40 00       	mov    $0x401666,%edi
  402eb6:	e8 f9 01 00 00       	callq  4030b4 <do_test>
  402ebb:	ba 5b 00 00 00       	mov    $0x5b,%edx
  402ec0:	be 2c 01 70 00       	mov    $0x70012c,%esi
  402ec5:	bf 72 16 40 00       	mov    $0x401672,%edi
  402eca:	e8 e5 01 00 00       	callq  4030b4 <do_test>
  402ecf:	ba 5c 00 00 00       	mov    $0x5c,%edx
  402ed4:	be c4 02 70 00       	mov    $0x7002c4,%esi
  402ed9:	bf a1 16 40 00       	mov    $0x4016a1,%edi
  402ede:	e8 d1 01 00 00       	callq  4030b4 <do_test>
  402ee3:	ba 5d 00 00 00       	mov    $0x5d,%edx
  402ee8:	be 2c 01 70 00       	mov    $0x70012c,%esi
  402eed:	bf 61 23 40 00       	mov    $0x402361,%edi
  402ef2:	e8 bd 01 00 00       	callq  4030b4 <do_test>
  402ef7:	ba 5e 00 00 00       	mov    $0x5e,%edx
  402efc:	be 2c 01 70 00       	mov    $0x70012c,%esi
  402f01:	bf c2 23 40 00       	mov    $0x4023c2,%edi
  402f06:	e8 a9 01 00 00       	callq  4030b4 <do_test>
  402f0b:	ba 5f 00 00 00       	mov    $0x5f,%edx
  402f10:	be c4 02 70 00       	mov    $0x7002c4,%esi
  402f15:	bf 29 1b 40 00       	mov    $0x401b29,%edi
  402f1a:	e8 95 01 00 00       	callq  4030b4 <do_test>
  402f1f:	ba 60 00 00 00       	mov    $0x60,%edx
  402f24:	be c4 02 70 00       	mov    $0x7002c4,%esi
  402f29:	bf 3e 1c 40 00       	mov    $0x401c3e,%edi
  402f2e:	e8 81 01 00 00       	callq  4030b4 <do_test>
  402f33:	ba 61 00 00 00       	mov    $0x61,%edx
  402f38:	be c4 02 70 00       	mov    $0x7002c4,%esi
  402f3d:	bf f8 1d 40 00       	mov    $0x401df8,%edi
  402f42:	e8 6d 01 00 00       	callq  4030b4 <do_test>
  402f47:	ba 62 00 00 00       	mov    $0x62,%edx
  402f4c:	be c4 02 70 00       	mov    $0x7002c4,%esi
  402f51:	bf ed 1f 40 00       	mov    $0x401fed,%edi
  402f56:	e8 59 01 00 00       	callq  4030b4 <do_test>
  402f5b:	ba 63 00 00 00       	mov    $0x63,%edx
  402f60:	be 2c 01 70 00       	mov    $0x70012c,%esi
  402f65:	bf fe 25 40 00       	mov    $0x4025fe,%edi
  402f6a:	e8 45 01 00 00       	callq  4030b4 <do_test>
  402f6f:	ba 64 00 00 00       	mov    $0x64,%edx
  402f74:	be 2c 01 70 00       	mov    $0x70012c,%esi
  402f79:	bf 0a 26 40 00       	mov    $0x40260a,%edi
  402f7e:	e8 31 01 00 00       	callq  4030b4 <do_test>
  402f83:	ba 65 00 00 00       	mov    $0x65,%edx
  402f88:	be 2c 01 70 00       	mov    $0x70012c,%esi
  402f8d:	bf 16 26 40 00       	mov    $0x402616,%edi
  402f92:	e8 1d 01 00 00       	callq  4030b4 <do_test>
  402f97:	ba 66 00 00 00       	mov    $0x66,%edx
  402f9c:	be 2c 01 70 00       	mov    $0x70012c,%esi
  402fa1:	bf 62 26 40 00       	mov    $0x402662,%edi
  402fa6:	e8 09 01 00 00       	callq  4030b4 <do_test>
  402fab:	ba 67 00 00 00       	mov    $0x67,%edx
  402fb0:	be 2c 01 70 00       	mov    $0x70012c,%esi
  402fb5:	bf 7d 26 40 00       	mov    $0x40267d,%edi
  402fba:	e8 f5 00 00 00       	callq  4030b4 <do_test>
  402fbf:	ba 68 00 00 00       	mov    $0x68,%edx
  402fc4:	be 2c 01 70 00       	mov    $0x70012c,%esi
  402fc9:	bf 98 26 40 00       	mov    $0x402698,%edi
  402fce:	e8 e1 00 00 00       	callq  4030b4 <do_test>
  402fd3:	ba 69 00 00 00       	mov    $0x69,%edx
  402fd8:	be c4 02 70 00       	mov    $0x7002c4,%esi
  402fdd:	bf c1 16 40 00       	mov    $0x4016c1,%edi
  402fe2:	e8 cd 00 00 00       	callq  4030b4 <do_test>
  402fe7:	ba 6a 00 00 00       	mov    $0x6a,%edx
  402fec:	be c4 02 70 00       	mov    $0x7002c4,%esi
  402ff1:	bf 22 17 40 00       	mov    $0x401722,%edi
  402ff6:	e8 b9 00 00 00       	callq  4030b4 <do_test>
  402ffb:	ba 6b 00 00 00       	mov    $0x6b,%edx
  403000:	be c4 02 70 00       	mov    $0x7002c4,%esi
  403005:	bf 83 17 40 00       	mov    $0x401783,%edi
  40300a:	e8 a5 00 00 00       	callq  4030b4 <do_test>
  40300f:	ba 6c 00 00 00       	mov    $0x6c,%edx
  403014:	be c4 02 70 00       	mov    $0x7002c4,%esi
  403019:	bf ee 17 40 00       	mov    $0x4017ee,%edi
  40301e:	e8 91 00 00 00       	callq  4030b4 <do_test>
  403023:	ba 6d 00 00 00       	mov    $0x6d,%edx
  403028:	be c4 02 70 00       	mov    $0x7002c4,%esi
  40302d:	bf 59 18 40 00       	mov    $0x401859,%edi
  403032:	e8 7d 00 00 00       	callq  4030b4 <do_test>
  403037:	ba 6e 00 00 00       	mov    $0x6e,%edx
  40303c:	be c4 02 70 00       	mov    $0x7002c4,%esi
  403041:	bf c4 18 40 00       	mov    $0x4018c4,%edi
  403046:	e8 69 00 00 00       	callq  4030b4 <do_test>
  40304b:	ba 6f 00 00 00       	mov    $0x6f,%edx
  403050:	be c4 02 70 00       	mov    $0x7002c4,%esi
  403055:	bf 2f 19 40 00       	mov    $0x40192f,%edi
  40305a:	e8 55 00 00 00       	callq  4030b4 <do_test>
  40305f:	ba 70 00 00 00       	mov    $0x70,%edx
  403064:	be c4 02 70 00       	mov    $0x7002c4,%esi
  403069:	bf 9a 19 40 00       	mov    $0x40199a,%edi
  40306e:	e8 41 00 00 00       	callq  4030b4 <do_test>
  403073:	ba 71 00 00 00       	mov    $0x71,%edx
  403078:	be c4 02 70 00       	mov    $0x7002c4,%esi
  40307d:	bf 05 1a 40 00       	mov    $0x401a05,%edi
  403082:	e8 2d 00 00 00       	callq  4030b4 <do_test>
  403087:	ba 72 00 00 00       	mov    $0x72,%edx
  40308c:	be c4 02 70 00       	mov    $0x7002c4,%esi
  403091:	bf ed 26 40 00       	mov    $0x4026ed,%edi
  403096:	e8 19 00 00 00       	callq  4030b4 <do_test>
  40309b:	ba 73 00 00 00       	mov    $0x73,%edx
  4030a0:	be c4 02 70 00       	mov    $0x7002c4,%esi
  4030a5:	bf 59 27 40 00       	mov    $0x402759,%edi
  4030aa:	e8 05 00 00 00       	callq  4030b4 <do_test>
  4030af:	48 83 c4 08          	add    $0x8,%rsp
  4030b3:	c3                   	retq   

00000000004030b4 <do_test>:
  4030b4:	41 54                	push   %r12
  4030b6:	55                   	push   %rbp
  4030b7:	53                   	push   %rbx
  4030b8:	49 89 fc             	mov    %rdi,%r12
  4030bb:	48 89 f3             	mov    %rsi,%rbx
  4030be:	89 d5                	mov    %edx,%ebp
  4030c0:	c7 06 00 00 00 00    	movl   $0x0,(%rsi)
  4030c6:	b8 00 00 00 00       	mov    $0x0,%eax
  4030cb:	ff d7                	callq  *%rdi
  4030cd:	01 ed                	add    %ebp,%ebp
  4030cf:	8b 13                	mov    (%rbx),%edx
  4030d1:	89 e8                	mov    %ebp,%eax
  4030d3:	89 14 85 80 50 60 00 	mov    %edx,0x605080(,%rax,4)
  4030da:	c7 03 ff ff ff ff    	movl   $0xffffffff,(%rbx)
  4030e0:	b8 00 00 00 00       	mov    $0x0,%eax
  4030e5:	41 ff d4             	callq  *%r12
  4030e8:	8b 13                	mov    (%rbx),%edx
  4030ea:	8d 45 01             	lea    0x1(%rbp),%eax
  4030ed:	89 14 85 80 50 60 00 	mov    %edx,0x605080(,%rax,4)
  4030f4:	5b                   	pop    %rbx
  4030f5:	5d                   	pop    %rbp
  4030f6:	41 5c                	pop    %r12
  4030f8:	c3                   	retq   

00000000004030f9 <main>:
  4030f9:	55                   	push   %rbp
  4030fa:	53                   	push   %rbx
  4030fb:	48 83 ec 28          	sub    $0x28,%rsp
  4030ff:	bf 00 00 80 00       	mov    $0x800000,%edi
  403104:	e8 87 d5 ff ff       	callq  400690 <brk@plt>
  403109:	89 c5                	mov    %eax,%ebp
  40310b:	85 c0                	test   %eax,%eax
  40310d:	74 36                	je     403145 <main+0x4c>
  40310f:	e8 6c d5 ff ff       	callq  400680 <__errno_location@plt>
  403114:	8b 18                	mov    (%rax),%ebx
  403116:	89 df                	mov    %ebx,%edi
  403118:	e8 53 d5 ff ff       	callq  400670 <strerror@plt>
  40311d:	41 89 d8             	mov    %ebx,%r8d
  403120:	48 89 c1             	mov    %rax,%rcx
  403123:	ba 00 00 80 00       	mov    $0x800000,%edx
  403128:	be 78 32 40 00       	mov    $0x403278,%esi
  40312d:	48 8b 3d 2c 1f 20 00 	mov    0x201f2c(%rip),%rdi        # 605060 <stdout@@GLIBC_2.2.5>
  403134:	b8 00 00 00 00       	mov    $0x0,%eax
  403139:	e8 62 d5 ff ff       	callq  4006a0 <fprintf@plt>
  40313e:	bd 01 00 00 00       	mov    $0x1,%ebp
  403143:	eb 30                	jmp    403175 <main+0x7c>
  403145:	48 8d 74 24 10       	lea    0x10(%rsp),%rsi
  40314a:	bf 00 00 00 00       	mov    $0x0,%edi
  40314f:	e8 fc d4 ff ff       	callq  400650 <clock_gettime@plt>
  403154:	bb a0 86 01 00       	mov    $0x186a0,%ebx
  403159:	b8 00 00 00 00       	mov    $0x0,%eax
  40315e:	e8 38 f6 ff ff       	callq  40279b <run>
  403163:	83 eb 01             	sub    $0x1,%ebx
  403166:	75 f1                	jne    403159 <main+0x60>
  403168:	48 89 e6             	mov    %rsp,%rsi
  40316b:	bf 00 00 00 00       	mov    $0x0,%edi
  403170:	e8 db d4 ff ff       	callq  400650 <clock_gettime@plt>
  403175:	89 e8                	mov    %ebp,%eax
  403177:	48 83 c4 28          	add    $0x28,%rsp
  40317b:	5b                   	pop    %rbx
  40317c:	5d                   	pop    %rbp
  40317d:	c3                   	retq   
  40317e:	66 90                	xchg   %ax,%ax

0000000000403180 <__libc_csu_init>:
  403180:	41 57                	push   %r15
  403182:	41 89 ff             	mov    %edi,%r15d
  403185:	41 56                	push   %r14
  403187:	49 89 f6             	mov    %rsi,%r14
  40318a:	41 55                	push   %r13
  40318c:	49 89 d5             	mov    %rdx,%r13
  40318f:	41 54                	push   %r12
  403191:	4c 8d 25 38 1c 20 00 	lea    0x201c38(%rip),%r12        # 604dd0 <__frame_dummy_init_array_entry>
  403198:	55                   	push   %rbp
  403199:	48 8d 2d 38 1c 20 00 	lea    0x201c38(%rip),%rbp        # 604dd8 <__init_array_end>
  4031a0:	53                   	push   %rbx
  4031a1:	4c 29 e5             	sub    %r12,%rbp
  4031a4:	31 db                	xor    %ebx,%ebx
  4031a6:	48 c1 fd 03          	sar    $0x3,%rbp
  4031aa:	48 83 ec 08          	sub    $0x8,%rsp
  4031ae:	e8 6d d4 ff ff       	callq  400620 <_init>
  4031b3:	48 85 ed             	test   %rbp,%rbp
  4031b6:	74 1e                	je     4031d6 <__libc_csu_init+0x56>
  4031b8:	0f 1f 84 00 00 00 00 	nopl   0x0(%rax,%rax,1)
  4031bf:	00 
  4031c0:	4c 89 ea             	mov    %r13,%rdx
  4031c3:	4c 89 f6             	mov    %r14,%rsi
  4031c6:	44 89 ff             	mov    %r15d,%edi
  4031c9:	41 ff 14 dc          	callq  *(%r12,%rbx,8)
  4031cd:	48 83 c3 01          	add    $0x1,%rbx
  4031d1:	48 39 eb             	cmp    %rbp,%rbx
  4031d4:	75 ea                	jne    4031c0 <__libc_csu_init+0x40>
  4031d6:	48 83 c4 08          	add    $0x8,%rsp
  4031da:	5b                   	pop    %rbx
  4031db:	5d                   	pop    %rbp
  4031dc:	41 5c                	pop    %r12
  4031de:	41 5d                	pop    %r13
  4031e0:	41 5e                	pop    %r14
  4031e2:	41 5f                	pop    %r15
  4031e4:	c3                   	retq   
  4031e5:	90                   	nop
  4031e6:	66 2e 0f 1f 84 00 00 	nopw   %cs:0x0(%rax,%rax,1)
  4031ed:	00 00 00 

00000000004031f0 <__libc_csu_fini>:
  4031f0:	f3 c3                	repz retq 

Disassembly of section .rodata:

0000000000403200 <_IO_stdin_used>:
  403200:	01 00 02 00 00 00 00 00 78 1c 40 00 00 00 00 00     ........x.@.....
  403210:	a2 1c 40 00 00 00 00 00 ce 1c 40 00 00 00 00 00     ..@.......@.....
  403220:	fb 1c 40 00 00 00 00 00 28 1d 40 00 00 00 00 00     ..@.....(.@.....
  403230:	55 1d 40 00 00 00 00 00 86 1d 40 00 00 00 00 00     U.@.......@.....
  403240:	1b 1e 40 00 00 00 00 00 4c 1e 40 00 00 00 00 00     ..@.....L.@.....
  403250:	81 1e 40 00 00 00 00 00 b8 1e 40 00 00 00 00 00     ..@.......@.....
  403260:	ef 1e 40 00 00 00 00 00 26 1f 40 00 00 00 00 00     ..@.....&.@.....
  403270:	61 1f 40 00 00 00 00 00 62 72 6b 28 30 78 25 78     a.@.....brk(0x%x
  403280:	29 20 66 61 69 6c 65 64 3a 20 25 73 28 25 64 29     ) failed: %s(%d)
  403290:	0a 00                                               ..

Disassembly of section .data:

0000000000605048 <__data_start>:
	...

0000000000605050 <__dso_handle>:
	...
