
bitfield.elf:     file format elf64-x86-64


Disassembly of section .text:

00000000004006c0 <main>:
  4006c0:	55                   	push   %rbp
  4006c1:	bf 00 00 80 00       	mov    $0x800000,%edi
  4006c6:	53                   	push   %rbx
  4006c7:	48 83 ec 28          	sub    $0x28,%rsp
  4006cb:	e8 c0 ff ff ff       	callq  400690 <brk@plt>
  4006d0:	85 c0                	test   %eax,%eax
  4006d2:	89 c5                	mov    %eax,%ebp
  4006d4:	75 33                	jne    400709 <main+0x49>
  4006d6:	48 89 e6             	mov    %rsp,%rsi
  4006d9:	31 ff                	xor    %edi,%edi
  4006db:	bb a0 86 01 00       	mov    $0x186a0,%ebx
  4006e0:	e8 6b ff ff ff       	callq  400650 <clock_gettime@plt>
  4006e5:	0f 1f 00             	nopl   (%rax)
  4006e8:	31 c0                	xor    %eax,%eax
  4006ea:	e8 c1 27 00 00       	callq  402eb0 <run>
  4006ef:	83 eb 01             	sub    $0x1,%ebx
  4006f2:	75 f4                	jne    4006e8 <main+0x28>
  4006f4:	48 8d 74 24 10       	lea    0x10(%rsp),%rsi
  4006f9:	31 ff                	xor    %edi,%edi
  4006fb:	e8 50 ff ff ff       	callq  400650 <clock_gettime@plt>
  400700:	48 83 c4 28          	add    $0x28,%rsp
  400704:	89 e8                	mov    %ebp,%eax
  400706:	5b                   	pop    %rbx
  400707:	5d                   	pop    %rbp
  400708:	c3                   	retq   
  400709:	e8 72 ff ff ff       	callq  400680 <__errno_location@plt>
  40070e:	8b 18                	mov    (%rax),%ebx
  400710:	bd 01 00 00 00       	mov    $0x1,%ebp
  400715:	89 df                	mov    %ebx,%edi
  400717:	e8 54 ff ff ff       	callq  400670 <strerror@plt>
  40071c:	48 8b 3d 3d 59 20 00 	mov    0x20593d(%rip),%rdi        # 606060 <stdout@@GLIBC_2.2.5>
  400723:	48 89 c1             	mov    %rax,%rcx
  400726:	41 89 d8             	mov    %ebx,%r8d
  400729:	ba 00 00 80 00       	mov    $0x800000,%edx
  40072e:	be 18 39 40 00       	mov    $0x403918,%esi
  400733:	31 c0                	xor    %eax,%eax
  400735:	e8 66 ff ff ff       	callq  4006a0 <fprintf@plt>
  40073a:	eb c4                	jmp    400700 <main+0x40>

000000000040073c <_start>:
  40073c:	31 ed                	xor    %ebp,%ebp
  40073e:	49 89 d1             	mov    %rdx,%r9
  400741:	5e                   	pop    %rsi
  400742:	48 89 e2             	mov    %rsp,%rdx
  400745:	48 83 e4 f0          	and    $0xfffffffffffffff0,%rsp
  400749:	50                   	push   %rax
  40074a:	54                   	push   %rsp
  40074b:	49 c7 c0 90 38 40 00 	mov    $0x403890,%r8
  400752:	48 c7 c1 20 38 40 00 	mov    $0x403820,%rcx
  400759:	48 c7 c7 c0 06 40 00 	mov    $0x4006c0,%rdi
  400760:	e8 fb fe ff ff       	callq  400660 <__libc_start_main@plt>
  400765:	f4                   	hlt    
  400766:	66 2e 0f 1f 84 00 00 	nopw   %cs:0x0(%rax,%rax,1)
  40076d:	00 00 00 

0000000000400770 <deregister_tm_clones>:
  400770:	b8 5f 60 60 00       	mov    $0x60605f,%eax
  400775:	55                   	push   %rbp
  400776:	48 2d 58 60 60 00    	sub    $0x606058,%rax
  40077c:	48 83 f8 0e          	cmp    $0xe,%rax
  400780:	48 89 e5             	mov    %rsp,%rbp
  400783:	77 02                	ja     400787 <deregister_tm_clones+0x17>
  400785:	5d                   	pop    %rbp
  400786:	c3                   	retq   
  400787:	b8 00 00 00 00       	mov    $0x0,%eax
  40078c:	48 85 c0             	test   %rax,%rax
  40078f:	74 f4                	je     400785 <deregister_tm_clones+0x15>
  400791:	5d                   	pop    %rbp
  400792:	bf 58 60 60 00       	mov    $0x606058,%edi
  400797:	ff e0                	jmpq   *%rax
  400799:	0f 1f 80 00 00 00 00 	nopl   0x0(%rax)

00000000004007a0 <register_tm_clones>:
  4007a0:	b8 58 60 60 00       	mov    $0x606058,%eax
  4007a5:	55                   	push   %rbp
  4007a6:	48 2d 58 60 60 00    	sub    $0x606058,%rax
  4007ac:	48 c1 f8 03          	sar    $0x3,%rax
  4007b0:	48 89 e5             	mov    %rsp,%rbp
  4007b3:	48 89 c2             	mov    %rax,%rdx
  4007b6:	48 c1 ea 3f          	shr    $0x3f,%rdx
  4007ba:	48 01 d0             	add    %rdx,%rax
  4007bd:	48 d1 f8             	sar    %rax
  4007c0:	75 02                	jne    4007c4 <register_tm_clones+0x24>
  4007c2:	5d                   	pop    %rbp
  4007c3:	c3                   	retq   
  4007c4:	ba 00 00 00 00       	mov    $0x0,%edx
  4007c9:	48 85 d2             	test   %rdx,%rdx
  4007cc:	74 f4                	je     4007c2 <register_tm_clones+0x22>
  4007ce:	5d                   	pop    %rbp
  4007cf:	48 89 c6             	mov    %rax,%rsi
  4007d2:	bf 58 60 60 00       	mov    $0x606058,%edi
  4007d7:	ff e2                	jmpq   *%rdx
  4007d9:	0f 1f 80 00 00 00 00 	nopl   0x0(%rax)

00000000004007e0 <__do_global_dtors_aux>:
  4007e0:	80 3d 81 58 20 00 00 	cmpb   $0x0,0x205881(%rip)        # 606068 <completed.6337>
  4007e7:	75 11                	jne    4007fa <__do_global_dtors_aux+0x1a>
  4007e9:	55                   	push   %rbp
  4007ea:	48 89 e5             	mov    %rsp,%rbp
  4007ed:	e8 7e ff ff ff       	callq  400770 <deregister_tm_clones>
  4007f2:	5d                   	pop    %rbp
  4007f3:	c6 05 6e 58 20 00 01 	movb   $0x1,0x20586e(%rip)        # 606068 <completed.6337>
  4007fa:	f3 c3                	repz retq 
  4007fc:	0f 1f 40 00          	nopl   0x0(%rax)

0000000000400800 <frame_dummy>:
  400800:	48 83 3d d8 55 20 00 	cmpq   $0x0,0x2055d8(%rip)        # 605de0 <__JCR_END__>
  400807:	00 
  400808:	74 1e                	je     400828 <frame_dummy+0x28>
  40080a:	b8 00 00 00 00       	mov    $0x0,%eax
  40080f:	48 85 c0             	test   %rax,%rax
  400812:	74 14                	je     400828 <frame_dummy+0x28>
  400814:	55                   	push   %rbp
  400815:	bf e0 5d 60 00       	mov    $0x605de0,%edi
  40081a:	48 89 e5             	mov    %rsp,%rbp
  40081d:	ff d0                	callq  *%rax
  40081f:	5d                   	pop    %rbp
  400820:	e9 7b ff ff ff       	jmpq   4007a0 <register_tm_clones>
  400825:	0f 1f 00             	nopl   (%rax)
  400828:	e9 73 ff ff ff       	jmpq   4007a0 <register_tm_clones>
  40082d:	0f 1f 00             	nopl   (%rax)

0000000000400830 <zero_reg>:
  400830:	c7 04 25 c4 02 70 00 	movl   $0x0,0x7002c4
  400837:	00 00 00 00 
  40083b:	c3                   	retq   
  40083c:	0f 1f 40 00          	nopl   0x0(%rax)

0000000000400840 <zero_array>:
  400840:	c7 04 25 2c 01 70 00 	movl   $0x0,0x70012c
  400847:	00 00 00 00 
  40084b:	c3                   	retq   
  40084c:	0f 1f 40 00          	nopl   0x0(%rax)

0000000000400850 <set_singl_bits_operator>:
  400850:	8b 04 25 c4 02 70 00 	mov    0x7002c4,%eax
  400857:	83 c8 40             	or     $0x40,%eax
  40085a:	89 04 25 c4 02 70 00 	mov    %eax,0x7002c4
  400861:	c3                   	retq   
  400862:	0f 1f 40 00          	nopl   0x0(%rax)
  400866:	66 2e 0f 1f 84 00 00 	nopw   %cs:0x0(%rax,%rax,1)
  40086d:	00 00 00 

0000000000400870 <set_singl_bits_method>:
  400870:	8b 04 25 c4 02 70 00 	mov    0x7002c4,%eax
  400877:	83 c8 40             	or     $0x40,%eax
  40087a:	89 04 25 c4 02 70 00 	mov    %eax,0x7002c4
  400881:	c3                   	retq   
  400882:	0f 1f 40 00          	nopl   0x0(%rax)
  400886:	66 2e 0f 1f 84 00 00 	nopw   %cs:0x0(%rax,%rax,1)
  40088d:	00 00 00 

0000000000400890 <clr_singl_bits_operator>:
  400890:	8b 04 25 c4 02 70 00 	mov    0x7002c4,%eax
  400897:	83 e0 bf             	and    $0xffffffbf,%eax
  40089a:	89 04 25 c4 02 70 00 	mov    %eax,0x7002c4
  4008a1:	c3                   	retq   
  4008a2:	0f 1f 40 00          	nopl   0x0(%rax)
  4008a6:	66 2e 0f 1f 84 00 00 	nopw   %cs:0x0(%rax,%rax,1)
  4008ad:	00 00 00 

00000000004008b0 <clr_singl_bits_method>:
  4008b0:	8b 04 25 c4 02 70 00 	mov    0x7002c4,%eax
  4008b7:	83 e0 bf             	and    $0xffffffbf,%eax
  4008ba:	89 04 25 c4 02 70 00 	mov    %eax,0x7002c4
  4008c1:	c3                   	retq   
  4008c2:	0f 1f 40 00          	nopl   0x0(%rax)
  4008c6:	66 2e 0f 1f 84 00 00 	nopw   %cs:0x0(%rax,%rax,1)
  4008cd:	00 00 00 

00000000004008d0 <set_singl_mskd_operator>:
  4008d0:	48 8b 04 25 c0 02 70 	mov    0x7002c0,%rax
  4008d7:	00 
  4008d8:	48 c1 e8 21          	shr    $0x21,%rax
  4008dc:	83 e0 02             	and    $0x2,%eax
  4008df:	83 c8 01             	or     $0x1,%eax
  4008e2:	8d 14 00             	lea    (%rax,%rax,1),%edx
  4008e5:	8b 04 25 c4 02 70 00 	mov    0x7002c4,%eax
  4008ec:	83 e0 f9             	and    $0xfffffff9,%eax
  4008ef:	09 d0                	or     %edx,%eax
  4008f1:	89 04 25 c4 02 70 00 	mov    %eax,0x7002c4
  4008f8:	c3                   	retq   
  4008f9:	0f 1f 80 00 00 00 00 	nopl   0x0(%rax)

0000000000400900 <set_singl_mskd_method>:
  400900:	48 8b 04 25 c0 02 70 	mov    0x7002c0,%rax
  400907:	00 
  400908:	48 c1 e8 21          	shr    $0x21,%rax
  40090c:	83 e0 02             	and    $0x2,%eax
  40090f:	83 c8 01             	or     $0x1,%eax
  400912:	8d 14 00             	lea    (%rax,%rax,1),%edx
  400915:	8b 04 25 c4 02 70 00 	mov    0x7002c4,%eax
  40091c:	83 e0 f9             	and    $0xfffffff9,%eax
  40091f:	09 d0                	or     %edx,%eax
  400921:	89 04 25 c4 02 70 00 	mov    %eax,0x7002c4
  400928:	c3                   	retq   
  400929:	0f 1f 80 00 00 00 00 	nopl   0x0(%rax)

0000000000400930 <clr_singl_mskd_operator>:
  400930:	48 8b 04 25 c0 02 70 	mov    0x7002c0,%rax
  400937:	00 
  400938:	48 c1 e8 21          	shr    $0x21,%rax
  40093c:	83 e0 02             	and    $0x2,%eax
  40093f:	0f b6 d0             	movzbl %al,%edx
  400942:	8b 04 25 c4 02 70 00 	mov    0x7002c4,%eax
  400949:	01 d2                	add    %edx,%edx
  40094b:	83 e0 f9             	and    $0xfffffff9,%eax
  40094e:	09 d0                	or     %edx,%eax
  400950:	89 04 25 c4 02 70 00 	mov    %eax,0x7002c4
  400957:	c3                   	retq   
  400958:	0f 1f 84 00 00 00 00 	nopl   0x0(%rax,%rax,1)
  40095f:	00 

0000000000400960 <clr_singl_mskd_method>:
  400960:	48 8b 04 25 c0 02 70 	mov    0x7002c0,%rax
  400967:	00 
  400968:	48 c1 e8 21          	shr    $0x21,%rax
  40096c:	83 e0 02             	and    $0x2,%eax
  40096f:	0f b6 d0             	movzbl %al,%edx
  400972:	8b 04 25 c4 02 70 00 	mov    0x7002c4,%eax
  400979:	01 d2                	add    %edx,%edx
  40097b:	83 e0 f9             	and    $0xfffffff9,%eax
  40097e:	09 d0                	or     %edx,%eax
  400980:	89 04 25 c4 02 70 00 	mov    %eax,0x7002c4
  400987:	c3                   	retq   
  400988:	0f 1f 84 00 00 00 00 	nopl   0x0(%rax,%rax,1)
  40098f:	00 

0000000000400990 <equ_singl_bits_operator>:
  400990:	c7 04 25 c4 02 70 00 	movl   $0x0,0x7002c4
  400997:	00 00 00 00 
  40099b:	8b 04 25 c4 02 70 00 	mov    0x7002c4,%eax
  4009a2:	83 c8 40             	or     $0x40,%eax
  4009a5:	89 04 25 c4 02 70 00 	mov    %eax,0x7002c4
  4009ac:	c3                   	retq   
  4009ad:	0f 1f 00             	nopl   (%rax)

00000000004009b0 <equ_singl_bits_method>:
  4009b0:	c7 04 25 c4 02 70 00 	movl   $0x0,0x7002c4
  4009b7:	00 00 00 00 
  4009bb:	8b 04 25 c4 02 70 00 	mov    0x7002c4,%eax
  4009c2:	83 c8 40             	or     $0x40,%eax
  4009c5:	89 04 25 c4 02 70 00 	mov    %eax,0x7002c4
  4009cc:	c3                   	retq   
  4009cd:	0f 1f 00             	nopl   (%rax)

00000000004009d0 <equ_singl_mskd_operator>:
  4009d0:	c7 04 25 c4 02 70 00 	movl   $0x0,0x7002c4
  4009d7:	00 00 00 00 
  4009db:	8b 04 25 c4 02 70 00 	mov    0x7002c4,%eax
  4009e2:	83 e0 f9             	and    $0xfffffff9,%eax
  4009e5:	83 c8 02             	or     $0x2,%eax
  4009e8:	89 04 25 c4 02 70 00 	mov    %eax,0x7002c4
  4009ef:	c3                   	retq   

00000000004009f0 <equ_singl_mskd_method>:
  4009f0:	c7 04 25 c4 02 70 00 	movl   $0x0,0x7002c4
  4009f7:	00 00 00 00 
  4009fb:	8b 04 25 c4 02 70 00 	mov    0x7002c4,%eax
  400a02:	83 e0 f9             	and    $0xfffffff9,%eax
  400a05:	83 c8 02             	or     $0x2,%eax
  400a08:	89 04 25 c4 02 70 00 	mov    %eax,0x7002c4
  400a0f:	c3                   	retq   

0000000000400a10 <flp_singl_bits_operator>:
  400a10:	8b 14 25 c4 02 70 00 	mov    0x7002c4,%edx
  400a17:	8b 04 25 c4 02 70 00 	mov    0x7002c4,%eax
  400a1e:	f7 d2                	not    %edx
  400a20:	83 e0 bf             	and    $0xffffffbf,%eax
  400a23:	83 e2 40             	and    $0x40,%edx
  400a26:	09 d0                	or     %edx,%eax
  400a28:	89 04 25 c4 02 70 00 	mov    %eax,0x7002c4
  400a2f:	c3                   	retq   

0000000000400a30 <flp_singl_bits_method>:
  400a30:	8b 14 25 c4 02 70 00 	mov    0x7002c4,%edx
  400a37:	8b 04 25 c4 02 70 00 	mov    0x7002c4,%eax
  400a3e:	f7 d2                	not    %edx
  400a40:	83 e0 bf             	and    $0xffffffbf,%eax
  400a43:	83 e2 40             	and    $0x40,%edx
  400a46:	09 d0                	or     %edx,%eax
  400a48:	89 04 25 c4 02 70 00 	mov    %eax,0x7002c4
  400a4f:	c3                   	retq   

0000000000400a50 <flp_singl_mskd_operator>:
  400a50:	48 8b 04 25 c0 02 70 	mov    0x7002c0,%rax
  400a57:	00 
  400a58:	48 c1 e8 21          	shr    $0x21,%rax
  400a5c:	83 e0 03             	and    $0x3,%eax
  400a5f:	83 f0 01             	xor    $0x1,%eax
  400a62:	8d 14 00             	lea    (%rax,%rax,1),%edx
  400a65:	8b 04 25 c4 02 70 00 	mov    0x7002c4,%eax
  400a6c:	83 e0 f9             	and    $0xfffffff9,%eax
  400a6f:	09 d0                	or     %edx,%eax
  400a71:	89 04 25 c4 02 70 00 	mov    %eax,0x7002c4
  400a78:	c3                   	retq   
  400a79:	0f 1f 80 00 00 00 00 	nopl   0x0(%rax)

0000000000400a80 <flp_singl_mskd_method>:
  400a80:	48 8b 04 25 c0 02 70 	mov    0x7002c0,%rax
  400a87:	00 
  400a88:	48 c1 e8 21          	shr    $0x21,%rax
  400a8c:	83 e0 03             	and    $0x3,%eax
  400a8f:	83 f0 01             	xor    $0x1,%eax
  400a92:	8d 14 00             	lea    (%rax,%rax,1),%edx
  400a95:	8b 04 25 c4 02 70 00 	mov    0x7002c4,%eax
  400a9c:	83 e0 f9             	and    $0xfffffff9,%eax
  400a9f:	09 d0                	or     %edx,%eax
  400aa1:	89 04 25 c4 02 70 00 	mov    %eax,0x7002c4
  400aa8:	c3                   	retq   
  400aa9:	0f 1f 80 00 00 00 00 	nopl   0x0(%rax)

0000000000400ab0 <ins_singl_mskd_operator>:
  400ab0:	8b 04 25 c4 02 70 00 	mov    0x7002c4,%eax
  400ab7:	83 e0 f9             	and    $0xfffffff9,%eax
  400aba:	83 c8 04             	or     $0x4,%eax
  400abd:	89 04 25 c4 02 70 00 	mov    %eax,0x7002c4
  400ac4:	c3                   	retq   
  400ac5:	90                   	nop
  400ac6:	66 2e 0f 1f 84 00 00 	nopw   %cs:0x0(%rax,%rax,1)
  400acd:	00 00 00 

0000000000400ad0 <ins_singl_mskd_method>:
  400ad0:	8b 04 25 c4 02 70 00 	mov    0x7002c4,%eax
  400ad7:	83 e0 f9             	and    $0xfffffff9,%eax
  400ada:	83 c8 04             	or     $0x4,%eax
  400add:	89 04 25 c4 02 70 00 	mov    %eax,0x7002c4
  400ae4:	c3                   	retq   
  400ae5:	90                   	nop
  400ae6:	66 2e 0f 1f 84 00 00 	nopw   %cs:0x0(%rax,%rax,1)
  400aed:	00 00 00 

0000000000400af0 <set_multi_bits_operator>:
  400af0:	8b 04 25 c4 02 70 00 	mov    0x7002c4,%eax
  400af7:	83 c8 01             	or     $0x1,%eax
  400afa:	89 04 25 c4 02 70 00 	mov    %eax,0x7002c4
  400b01:	8b 04 25 c4 02 70 00 	mov    0x7002c4,%eax
  400b08:	83 c8 20             	or     $0x20,%eax
  400b0b:	89 04 25 c4 02 70 00 	mov    %eax,0x7002c4
  400b12:	c3                   	retq   
  400b13:	0f 1f 00             	nopl   (%rax)
  400b16:	66 2e 0f 1f 84 00 00 	nopw   %cs:0x0(%rax,%rax,1)
  400b1d:	00 00 00 

0000000000400b20 <set_multi_bits_method>:
  400b20:	8b 04 25 c4 02 70 00 	mov    0x7002c4,%eax
  400b27:	83 c8 01             	or     $0x1,%eax
  400b2a:	89 04 25 c4 02 70 00 	mov    %eax,0x7002c4
  400b31:	8b 04 25 c4 02 70 00 	mov    0x7002c4,%eax
  400b38:	83 c8 20             	or     $0x20,%eax
  400b3b:	89 04 25 c4 02 70 00 	mov    %eax,0x7002c4
  400b42:	c3                   	retq   
  400b43:	0f 1f 00             	nopl   (%rax)
  400b46:	66 2e 0f 1f 84 00 00 	nopw   %cs:0x0(%rax,%rax,1)
  400b4d:	00 00 00 

0000000000400b50 <ins_multi_mskd_operator>:
  400b50:	8b 04 25 c4 02 70 00 	mov    0x7002c4,%eax
  400b57:	25 7f f0 ff ff       	and    $0xfffff07f,%eax
  400b5c:	0d 80 01 00 00       	or     $0x180,%eax
  400b61:	89 04 25 c4 02 70 00 	mov    %eax,0x7002c4
  400b68:	8b 04 25 c4 02 70 00 	mov    0x7002c4,%eax
  400b6f:	83 e0 f9             	and    $0xfffffff9,%eax
  400b72:	83 c8 02             	or     $0x2,%eax
  400b75:	89 04 25 c4 02 70 00 	mov    %eax,0x7002c4
  400b7c:	c3                   	retq   
  400b7d:	0f 1f 00             	nopl   (%rax)

0000000000400b80 <ins_multi_mskd_method>:
  400b80:	8b 04 25 c4 02 70 00 	mov    0x7002c4,%eax
  400b87:	25 7f f0 ff ff       	and    $0xfffff07f,%eax
  400b8c:	0d 80 01 00 00       	or     $0x180,%eax
  400b91:	89 04 25 c4 02 70 00 	mov    %eax,0x7002c4
  400b98:	8b 04 25 c4 02 70 00 	mov    0x7002c4,%eax
  400b9f:	83 e0 f9             	and    $0xfffffff9,%eax
  400ba2:	83 c8 02             	or     $0x2,%eax
  400ba5:	89 04 25 c4 02 70 00 	mov    %eax,0x7002c4
  400bac:	c3                   	retq   
  400bad:	0f 1f 00             	nopl   (%rax)

0000000000400bb0 <equ_multi_bits_operator>:
  400bb0:	c7 04 25 c4 02 70 00 	movl   $0x0,0x7002c4
  400bb7:	00 00 00 00 
  400bbb:	8b 04 25 c4 02 70 00 	mov    0x7002c4,%eax
  400bc2:	83 c8 20             	or     $0x20,%eax
  400bc5:	89 04 25 c4 02 70 00 	mov    %eax,0x7002c4
  400bcc:	8b 04 25 c4 02 70 00 	mov    0x7002c4,%eax
  400bd3:	83 c8 40             	or     $0x40,%eax
  400bd6:	89 04 25 c4 02 70 00 	mov    %eax,0x7002c4
  400bdd:	c3                   	retq   
  400bde:	66 90                	xchg   %ax,%ax

0000000000400be0 <equ_multi_bits_method>:
  400be0:	c7 04 25 c4 02 70 00 	movl   $0x0,0x7002c4
  400be7:	00 00 00 00 
  400beb:	8b 04 25 c4 02 70 00 	mov    0x7002c4,%eax
  400bf2:	83 c8 20             	or     $0x20,%eax
  400bf5:	89 04 25 c4 02 70 00 	mov    %eax,0x7002c4
  400bfc:	8b 04 25 c4 02 70 00 	mov    0x7002c4,%eax
  400c03:	83 c8 40             	or     $0x40,%eax
  400c06:	89 04 25 c4 02 70 00 	mov    %eax,0x7002c4
  400c0d:	c3                   	retq   
  400c0e:	66 90                	xchg   %ax,%ax

0000000000400c10 <equ_multi_mskd_operator>:
  400c10:	c7 04 25 c4 02 70 00 	movl   $0x0,0x7002c4
  400c17:	00 00 00 00 
  400c1b:	8b 04 25 c4 02 70 00 	mov    0x7002c4,%eax
  400c22:	83 e0 e7             	and    $0xffffffe7,%eax
  400c25:	83 c8 08             	or     $0x8,%eax
  400c28:	89 04 25 c4 02 70 00 	mov    %eax,0x7002c4
  400c2f:	8b 04 25 c4 02 70 00 	mov    0x7002c4,%eax
  400c36:	25 7f f0 ff ff       	and    $0xfffff07f,%eax
  400c3b:	80 cc 03             	or     $0x3,%ah
  400c3e:	89 04 25 c4 02 70 00 	mov    %eax,0x7002c4
  400c45:	c3                   	retq   
  400c46:	66 2e 0f 1f 84 00 00 	nopw   %cs:0x0(%rax,%rax,1)
  400c4d:	00 00 00 

0000000000400c50 <equ_multi_mskd_method>:
  400c50:	c7 04 25 c4 02 70 00 	movl   $0x0,0x7002c4
  400c57:	00 00 00 00 
  400c5b:	8b 04 25 c4 02 70 00 	mov    0x7002c4,%eax
  400c62:	83 e0 e7             	and    $0xffffffe7,%eax
  400c65:	83 c8 08             	or     $0x8,%eax
  400c68:	89 04 25 c4 02 70 00 	mov    %eax,0x7002c4
  400c6f:	8b 04 25 c4 02 70 00 	mov    0x7002c4,%eax
  400c76:	25 7f f0 ff ff       	and    $0xfffff07f,%eax
  400c7b:	80 cc 03             	or     $0x3,%ah
  400c7e:	89 04 25 c4 02 70 00 	mov    %eax,0x7002c4
  400c85:	c3                   	retq   
  400c86:	66 2e 0f 1f 84 00 00 	nopw   %cs:0x0(%rax,%rax,1)
  400c8d:	00 00 00 

0000000000400c90 <equ_bits_mskd_operator>:
  400c90:	c7 04 25 c4 02 70 00 	movl   $0x0,0x7002c4
  400c97:	00 00 00 00 
  400c9b:	8b 04 25 c4 02 70 00 	mov    0x7002c4,%eax
  400ca2:	83 c8 20             	or     $0x20,%eax
  400ca5:	89 04 25 c4 02 70 00 	mov    %eax,0x7002c4
  400cac:	8b 04 25 c4 02 70 00 	mov    0x7002c4,%eax
  400cb3:	83 e0 f9             	and    $0xfffffff9,%eax
  400cb6:	83 c8 02             	or     $0x2,%eax
  400cb9:	89 04 25 c4 02 70 00 	mov    %eax,0x7002c4
  400cc0:	c3                   	retq   
  400cc1:	0f 1f 44 00 00       	nopl   0x0(%rax,%rax,1)
  400cc6:	66 2e 0f 1f 84 00 00 	nopw   %cs:0x0(%rax,%rax,1)
  400ccd:	00 00 00 

0000000000400cd0 <equ_bits_mskd_method>:
  400cd0:	c7 04 25 c4 02 70 00 	movl   $0x0,0x7002c4
  400cd7:	00 00 00 00 
  400cdb:	8b 04 25 c4 02 70 00 	mov    0x7002c4,%eax
  400ce2:	83 c8 20             	or     $0x20,%eax
  400ce5:	89 04 25 c4 02 70 00 	mov    %eax,0x7002c4
  400cec:	8b 04 25 c4 02 70 00 	mov    0x7002c4,%eax
  400cf3:	83 e0 f9             	and    $0xfffffff9,%eax
  400cf6:	83 c8 02             	or     $0x2,%eax
  400cf9:	89 04 25 c4 02 70 00 	mov    %eax,0x7002c4
  400d00:	c3                   	retq   
  400d01:	0f 1f 44 00 00       	nopl   0x0(%rax,%rax,1)
  400d06:	66 2e 0f 1f 84 00 00 	nopw   %cs:0x0(%rax,%rax,1)
  400d0d:	00 00 00 

0000000000400d10 <equ_mskd_bits_operator>:
  400d10:	c7 04 25 c4 02 70 00 	movl   $0x0,0x7002c4
  400d17:	00 00 00 00 
  400d1b:	8b 04 25 c4 02 70 00 	mov    0x7002c4,%eax
  400d22:	83 e0 f9             	and    $0xfffffff9,%eax
  400d25:	83 c8 04             	or     $0x4,%eax
  400d28:	89 04 25 c4 02 70 00 	mov    %eax,0x7002c4
  400d2f:	8b 04 25 c4 02 70 00 	mov    0x7002c4,%eax
  400d36:	83 c8 40             	or     $0x40,%eax
  400d39:	89 04 25 c4 02 70 00 	mov    %eax,0x7002c4
  400d40:	c3                   	retq   
  400d41:	0f 1f 44 00 00       	nopl   0x0(%rax,%rax,1)
  400d46:	66 2e 0f 1f 84 00 00 	nopw   %cs:0x0(%rax,%rax,1)
  400d4d:	00 00 00 

0000000000400d50 <equ_mskd_bits_method>:
  400d50:	c7 04 25 c4 02 70 00 	movl   $0x0,0x7002c4
  400d57:	00 00 00 00 
  400d5b:	8b 04 25 c4 02 70 00 	mov    0x7002c4,%eax
  400d62:	83 e0 f9             	and    $0xfffffff9,%eax
  400d65:	83 c8 04             	or     $0x4,%eax
  400d68:	89 04 25 c4 02 70 00 	mov    %eax,0x7002c4
  400d6f:	8b 04 25 c4 02 70 00 	mov    0x7002c4,%eax
  400d76:	83 c8 40             	or     $0x40,%eax
  400d79:	89 04 25 c4 02 70 00 	mov    %eax,0x7002c4
  400d80:	c3                   	retq   
  400d81:	0f 1f 44 00 00       	nopl   0x0(%rax,%rax,1)
  400d86:	66 2e 0f 1f 84 00 00 	nopw   %cs:0x0(%rax,%rax,1)
  400d8d:	00 00 00 

0000000000400d90 <equ_bits_var>:
  400d90:	c7 04 25 c4 02 70 00 	movl   $0x0,0x7002c4
  400d97:	00 00 00 00 
  400d9b:	8b 04 25 c4 02 70 00 	mov    0x7002c4,%eax
  400da2:	83 c8 40             	or     $0x40,%eax
  400da5:	89 04 25 c4 02 70 00 	mov    %eax,0x7002c4
  400dac:	c7 04 25 c4 02 70 00 	movl   $0x0,0x7002c4
  400db3:	00 00 00 00 
  400db7:	8b 04 25 c4 02 70 00 	mov    0x7002c4,%eax
  400dbe:	83 c8 01             	or     $0x1,%eax
  400dc1:	89 04 25 c4 02 70 00 	mov    %eax,0x7002c4
  400dc8:	c3                   	retq   
  400dc9:	0f 1f 80 00 00 00 00 	nopl   0x0(%rax)

0000000000400dd0 <equ_mskd_var>:
  400dd0:	c7 04 25 c4 02 70 00 	movl   $0x0,0x7002c4
  400dd7:	00 00 00 00 
  400ddb:	8b 04 25 c4 02 70 00 	mov    0x7002c4,%eax
  400de2:	83 e0 f9             	and    $0xfffffff9,%eax
  400de5:	83 c8 02             	or     $0x2,%eax
  400de8:	89 04 25 c4 02 70 00 	mov    %eax,0x7002c4
  400def:	c7 04 25 c4 02 70 00 	movl   $0x0,0x7002c4
  400df6:	00 00 00 00 
  400dfa:	8b 04 25 c4 02 70 00 	mov    0x7002c4,%eax
  400e01:	25 7f f0 ff ff       	and    $0xfffff07f,%eax
  400e06:	0d 80 01 00 00       	or     $0x180,%eax
  400e0b:	89 04 25 c4 02 70 00 	mov    %eax,0x7002c4
  400e12:	c3                   	retq   
  400e13:	0f 1f 00             	nopl   (%rax)
  400e16:	66 2e 0f 1f 84 00 00 	nopw   %cs:0x0(%rax,%rax,1)
  400e1d:	00 00 00 

0000000000400e20 <cmp_equ_zero>:
  400e20:	c7 04 25 c4 02 70 00 	movl   $0x0,0x7002c4
  400e27:	00 00 00 00 
  400e2b:	c7 04 25 24 02 70 00 	movl   $0x0,0x700224
  400e32:	00 00 00 00 
  400e36:	8b 04 25 c4 02 70 00 	mov    0x7002c4,%eax
  400e3d:	85 c0                	test   %eax,%eax
  400e3f:	8b 04 25 24 02 70 00 	mov    0x700224,%eax
  400e46:	74 18                	je     400e60 <cmp_equ_zero+0x40>
  400e48:	25 ff ff ff c1       	and    $0xc1ffffff,%eax
  400e4d:	0d 00 00 00 22       	or     $0x22000000,%eax
  400e52:	89 04 25 24 02 70 00 	mov    %eax,0x700224
  400e59:	c3                   	retq   
  400e5a:	66 0f 1f 44 00 00    	nopw   0x0(%rax,%rax,1)
  400e60:	25 ff ff ff c1       	and    $0xc1ffffff,%eax
  400e65:	0d 00 00 00 3a       	or     $0x3a000000,%eax
  400e6a:	89 04 25 24 02 70 00 	mov    %eax,0x700224
  400e71:	c3                   	retq   
  400e72:	0f 1f 40 00          	nopl   0x0(%rax)
  400e76:	66 2e 0f 1f 84 00 00 	nopw   %cs:0x0(%rax,%rax,1)
  400e7d:	00 00 00 

0000000000400e80 <cmp_neq_zero>:
  400e80:	c7 04 25 c4 02 70 00 	movl   $0x0,0x7002c4
  400e87:	00 00 00 00 
  400e8b:	8b 04 25 c4 02 70 00 	mov    0x7002c4,%eax
  400e92:	85 c0                	test   %eax,%eax
  400e94:	8b 04 25 c4 02 70 00 	mov    0x7002c4,%eax
  400e9b:	75 13                	jne    400eb0 <cmp_neq_zero+0x30>
  400e9d:	83 c8 20             	or     $0x20,%eax
  400ea0:	89 04 25 c4 02 70 00 	mov    %eax,0x7002c4
  400ea7:	c3                   	retq   
  400ea8:	0f 1f 84 00 00 00 00 	nopl   0x0(%rax,%rax,1)
  400eaf:	00 
  400eb0:	83 e0 f9             	and    $0xfffffff9,%eax
  400eb3:	83 c8 04             	or     $0x4,%eax
  400eb6:	89 04 25 c4 02 70 00 	mov    %eax,0x7002c4
  400ebd:	c3                   	retq   
  400ebe:	66 90                	xchg   %ax,%ax

0000000000400ec0 <cmp_equ_bits>:
  400ec0:	c7 04 25 c4 02 70 00 	movl   $0x0,0x7002c4
  400ec7:	00 00 00 00 
  400ecb:	8b 04 25 c4 02 70 00 	mov    0x7002c4,%eax
  400ed2:	83 c8 40             	or     $0x40,%eax
  400ed5:	89 04 25 c4 02 70 00 	mov    %eax,0x7002c4
  400edc:	8b 04 25 c4 02 70 00 	mov    0x7002c4,%eax
  400ee3:	a8 40                	test   $0x40,%al
  400ee5:	8b 04 25 24 02 70 00 	mov    0x700224,%eax
  400eec:	75 12                	jne    400f00 <cmp_equ_bits+0x40>
  400eee:	25 ff ff ff c1       	and    $0xc1ffffff,%eax
  400ef3:	0d 00 00 00 1a       	or     $0x1a000000,%eax
  400ef8:	89 04 25 24 02 70 00 	mov    %eax,0x700224
  400eff:	c3                   	retq   
  400f00:	25 ff ff ff c1       	and    $0xc1ffffff,%eax
  400f05:	0d 00 00 00 16       	or     $0x16000000,%eax
  400f0a:	89 04 25 24 02 70 00 	mov    %eax,0x700224
  400f11:	c3                   	retq   
  400f12:	0f 1f 40 00          	nopl   0x0(%rax)
  400f16:	66 2e 0f 1f 84 00 00 	nopw   %cs:0x0(%rax,%rax,1)
  400f1d:	00 00 00 

0000000000400f20 <cmp_neq_bits>:
  400f20:	c7 04 25 c4 02 70 00 	movl   $0x0,0x7002c4
  400f27:	00 00 00 00 
  400f2b:	8b 04 25 c4 02 70 00 	mov    0x7002c4,%eax
  400f32:	83 c8 40             	or     $0x40,%eax
  400f35:	89 04 25 c4 02 70 00 	mov    %eax,0x7002c4
  400f3c:	8b 04 25 c4 02 70 00 	mov    0x7002c4,%eax
  400f43:	c7 04 25 c4 02 70 00 	movl   $0x0,0x7002c4
  400f4a:	00 00 00 00 
  400f4e:	a8 40                	test   $0x40,%al
  400f50:	8b 04 25 c4 02 70 00 	mov    0x7002c4,%eax
  400f57:	74 0f                	je     400f68 <cmp_neq_bits+0x48>
  400f59:	83 c8 20             	or     $0x20,%eax
  400f5c:	89 04 25 c4 02 70 00 	mov    %eax,0x7002c4
  400f63:	c3                   	retq   
  400f64:	0f 1f 40 00          	nopl   0x0(%rax)
  400f68:	83 e0 f9             	and    $0xfffffff9,%eax
  400f6b:	83 c8 02             	or     $0x2,%eax
  400f6e:	89 04 25 c4 02 70 00 	mov    %eax,0x7002c4
  400f75:	c3                   	retq   
  400f76:	66 2e 0f 1f 84 00 00 	nopw   %cs:0x0(%rax,%rax,1)
  400f7d:	00 00 00 

0000000000400f80 <cmp_equ_multi_bits>:
  400f80:	c7 04 25 c4 02 70 00 	movl   $0x0,0x7002c4
  400f87:	00 00 00 00 
  400f8b:	8b 04 25 c4 02 70 00 	mov    0x7002c4,%eax
  400f92:	83 c8 20             	or     $0x20,%eax
  400f95:	89 04 25 c4 02 70 00 	mov    %eax,0x7002c4
  400f9c:	8b 04 25 c4 02 70 00 	mov    0x7002c4,%eax
  400fa3:	83 c8 40             	or     $0x40,%eax
  400fa6:	89 04 25 c4 02 70 00 	mov    %eax,0x7002c4
  400fad:	8b 04 25 c4 02 70 00 	mov    0x7002c4,%eax
  400fb4:	a8 20                	test   $0x20,%al
  400fb6:	74 0b                	je     400fc3 <cmp_equ_multi_bits+0x43>
  400fb8:	8b 04 25 c4 02 70 00 	mov    0x7002c4,%eax
  400fbf:	a8 40                	test   $0x40,%al
  400fc1:	75 2d                	jne    400ff0 <cmp_equ_multi_bits+0x70>
  400fc3:	c7 04 25 24 02 70 00 	movl   $0x0,0x700224
  400fca:	00 00 00 00 
  400fce:	8b 04 25 24 02 70 00 	mov    0x700224,%eax
  400fd5:	25 ff ff ff c1       	and    $0xc1ffffff,%eax
  400fda:	0d 00 00 00 2e       	or     $0x2e000000,%eax
  400fdf:	89 04 25 24 02 70 00 	mov    %eax,0x700224
  400fe6:	c3                   	retq   
  400fe7:	66 0f 1f 84 00 00 00 	nopw   0x0(%rax,%rax,1)
  400fee:	00 00 
  400ff0:	c7 04 25 24 02 70 00 	movl   $0x0,0x700224
  400ff7:	00 00 00 00 
  400ffb:	8b 04 25 24 02 70 00 	mov    0x700224,%eax
  401002:	25 ff ff ff c1       	and    $0xc1ffffff,%eax
  401007:	0d 00 00 00 22       	or     $0x22000000,%eax
  40100c:	89 04 25 24 02 70 00 	mov    %eax,0x700224
  401013:	c3                   	retq   
  401014:	66 90                	xchg   %ax,%ax
  401016:	66 2e 0f 1f 84 00 00 	nopw   %cs:0x0(%rax,%rax,1)
  40101d:	00 00 00 

0000000000401020 <cmp_neq_multi_bits>:
  401020:	c7 04 25 c4 02 70 00 	movl   $0x0,0x7002c4
  401027:	00 00 00 00 
  40102b:	8b 04 25 c4 02 70 00 	mov    0x7002c4,%eax
  401032:	83 c8 20             	or     $0x20,%eax
  401035:	89 04 25 c4 02 70 00 	mov    %eax,0x7002c4
  40103c:	8b 04 25 c4 02 70 00 	mov    0x7002c4,%eax
  401043:	83 c8 40             	or     $0x40,%eax
  401046:	89 04 25 c4 02 70 00 	mov    %eax,0x7002c4
  40104d:	8b 04 25 c4 02 70 00 	mov    0x7002c4,%eax
  401054:	a8 20                	test   $0x20,%al
  401056:	75 0b                	jne    401063 <cmp_neq_multi_bits+0x43>
  401058:	8b 04 25 c4 02 70 00 	mov    0x7002c4,%eax
  40105f:	a8 40                	test   $0x40,%al
  401061:	74 25                	je     401088 <cmp_neq_multi_bits+0x68>
  401063:	c7 04 25 24 02 70 00 	movl   $0x0,0x700224
  40106a:	00 00 00 00 
  40106e:	8b 04 25 24 02 70 00 	mov    0x700224,%eax
  401075:	0d 00 00 00 3e       	or     $0x3e000000,%eax
  40107a:	89 04 25 24 02 70 00 	mov    %eax,0x700224
  401081:	c3                   	retq   
  401082:	66 0f 1f 44 00 00    	nopw   0x0(%rax,%rax,1)
  401088:	c7 04 25 24 02 70 00 	movl   $0x0,0x700224
  40108f:	00 00 00 00 
  401093:	8b 04 25 24 02 70 00 	mov    0x700224,%eax
  40109a:	25 ff ff ff c1       	and    $0xc1ffffff,%eax
  40109f:	0d 00 00 00 3a       	or     $0x3a000000,%eax
  4010a4:	89 04 25 24 02 70 00 	mov    %eax,0x700224
  4010ab:	c3                   	retq   
  4010ac:	0f 1f 40 00          	nopl   0x0(%rax)

00000000004010b0 <cmp_equ_mskd>:
  4010b0:	c7 04 25 c4 02 70 00 	movl   $0x0,0x7002c4
  4010b7:	00 00 00 00 
  4010bb:	8b 04 25 c4 02 70 00 	mov    0x7002c4,%eax
  4010c2:	25 ff 0f fe ff       	and    $0xfffe0fff,%eax
  4010c7:	0d 00 d0 01 00       	or     $0x1d000,%eax
  4010cc:	89 04 25 c4 02 70 00 	mov    %eax,0x7002c4
  4010d3:	8b 04 25 c4 02 70 00 	mov    0x7002c4,%eax
  4010da:	25 00 f0 01 00       	and    $0x1f000,%eax
  4010df:	3d 00 10 01 00       	cmp    $0x11000,%eax
  4010e4:	8b 04 25 24 02 70 00 	mov    0x700224,%eax
  4010eb:	74 13                	je     401100 <cmp_equ_mskd+0x50>
  4010ed:	25 ff ff ff c1       	and    $0xc1ffffff,%eax
  4010f2:	0d 00 00 00 22       	or     $0x22000000,%eax
  4010f7:	89 04 25 24 02 70 00 	mov    %eax,0x700224
  4010fe:	c3                   	retq   
  4010ff:	90                   	nop
  401100:	25 ff ff ff c1       	and    $0xc1ffffff,%eax
  401105:	0d 00 00 00 0e       	or     $0xe000000,%eax
  40110a:	89 04 25 24 02 70 00 	mov    %eax,0x700224
  401111:	c3                   	retq   
  401112:	0f 1f 40 00          	nopl   0x0(%rax)
  401116:	66 2e 0f 1f 84 00 00 	nopw   %cs:0x0(%rax,%rax,1)
  40111d:	00 00 00 

0000000000401120 <cmp_neq_mskd>:
  401120:	c7 04 25 c4 02 70 00 	movl   $0x0,0x7002c4
  401127:	00 00 00 00 
  40112b:	8b 04 25 c4 02 70 00 	mov    0x7002c4,%eax
  401132:	25 ff 0f fe ff       	and    $0xfffe0fff,%eax
  401137:	0d 00 d0 01 00       	or     $0x1d000,%eax
  40113c:	89 04 25 c4 02 70 00 	mov    %eax,0x7002c4
  401143:	8b 04 25 c4 02 70 00 	mov    0x7002c4,%eax
  40114a:	25 00 f0 01 00       	and    $0x1f000,%eax
  40114f:	3d 00 10 01 00       	cmp    $0x11000,%eax
  401154:	8b 04 25 c4 02 70 00 	mov    0x7002c4,%eax
  40115b:	74 13                	je     401170 <cmp_neq_mskd+0x50>
  40115d:	83 e0 f9             	and    $0xfffffff9,%eax
  401160:	83 c8 04             	or     $0x4,%eax
  401163:	89 04 25 c4 02 70 00 	mov    %eax,0x7002c4
  40116a:	c3                   	retq   
  40116b:	0f 1f 44 00 00       	nopl   0x0(%rax,%rax,1)
  401170:	83 c8 40             	or     $0x40,%eax
  401173:	89 04 25 c4 02 70 00 	mov    %eax,0x7002c4
  40117a:	c3                   	retq   
  40117b:	0f 1f 44 00 00       	nopl   0x0(%rax,%rax,1)

0000000000401180 <cmp_equ_reg>:
  401180:	c7 04 25 c4 02 70 00 	movl   $0x0,0x7002c4
  401187:	00 00 00 00 
  40118b:	8b 04 25 c4 02 70 00 	mov    0x7002c4,%eax
  401192:	83 c8 20             	or     $0x20,%eax
  401195:	89 04 25 c4 02 70 00 	mov    %eax,0x7002c4
  40119c:	8b 04 25 c4 02 70 00 	mov    0x7002c4,%eax
  4011a3:	83 e0 f9             	and    $0xfffffff9,%eax
  4011a6:	83 c8 02             	or     $0x2,%eax
  4011a9:	89 04 25 c4 02 70 00 	mov    %eax,0x7002c4
  4011b0:	8b 04 25 c4 02 70 00 	mov    0x7002c4,%eax
  4011b7:	a8 01                	test   $0x1,%al
  4011b9:	75 0f                	jne    4011ca <cmp_equ_reg+0x4a>
  4011bb:	8b 04 25 c4 02 70 00 	mov    0x7002c4,%eax
  4011c2:	83 e0 06             	and    $0x6,%eax
  4011c5:	83 f8 02             	cmp    $0x2,%eax
  4011c8:	74 26                	je     4011f0 <cmp_equ_reg+0x70>
  4011ca:	c7 04 25 24 02 70 00 	movl   $0x0,0x700224
  4011d1:	00 00 00 00 
  4011d5:	8b 04 25 24 02 70 00 	mov    0x700224,%eax
  4011dc:	25 ff ff ff c1       	and    $0xc1ffffff,%eax
  4011e1:	0d 00 00 00 2e       	or     $0x2e000000,%eax
  4011e6:	89 04 25 24 02 70 00 	mov    %eax,0x700224
  4011ed:	c3                   	retq   
  4011ee:	66 90                	xchg   %ax,%ax
  4011f0:	8b 04 25 c4 02 70 00 	mov    0x7002c4,%eax
  4011f7:	a8 01                	test   $0x1,%al
  4011f9:	75 cf                	jne    4011ca <cmp_equ_reg+0x4a>
  4011fb:	8b 04 25 c4 02 70 00 	mov    0x7002c4,%eax
  401202:	a8 20                	test   $0x20,%al
  401204:	74 c4                	je     4011ca <cmp_equ_reg+0x4a>
  401206:	8b 04 25 c4 02 70 00 	mov    0x7002c4,%eax
  40120d:	a8 40                	test   $0x40,%al
  40120f:	75 b9                	jne    4011ca <cmp_equ_reg+0x4a>
  401211:	8b 04 25 c4 02 70 00 	mov    0x7002c4,%eax
  401218:	a9 80 0f 00 00       	test   $0xf80,%eax
  40121d:	75 ab                	jne    4011ca <cmp_equ_reg+0x4a>
  40121f:	8b 04 25 c4 02 70 00 	mov    0x7002c4,%eax
  401226:	a9 00 f0 01 00       	test   $0x1f000,%eax
  40122b:	75 9d                	jne    4011ca <cmp_equ_reg+0x4a>
  40122d:	c7 04 25 24 02 70 00 	movl   $0x0,0x700224
  401234:	00 00 00 00 
  401238:	8b 04 25 24 02 70 00 	mov    0x700224,%eax
  40123f:	25 ff ff ff c1       	and    $0xc1ffffff,%eax
  401244:	0d 00 00 00 2a       	or     $0x2a000000,%eax
  401249:	89 04 25 24 02 70 00 	mov    %eax,0x700224
  401250:	c3                   	retq   
  401251:	0f 1f 44 00 00       	nopl   0x0(%rax,%rax,1)
  401256:	66 2e 0f 1f 84 00 00 	nopw   %cs:0x0(%rax,%rax,1)
  40125d:	00 00 00 

0000000000401260 <cmp_neq_reg>:
  401260:	c7 04 25 c4 02 70 00 	movl   $0x0,0x7002c4
  401267:	00 00 00 00 
  40126b:	8b 04 25 c4 02 70 00 	mov    0x7002c4,%eax
  401272:	83 c8 20             	or     $0x20,%eax
  401275:	89 04 25 c4 02 70 00 	mov    %eax,0x7002c4
  40127c:	8b 04 25 c4 02 70 00 	mov    0x7002c4,%eax
  401283:	83 e0 f9             	and    $0xfffffff9,%eax
  401286:	83 c8 02             	or     $0x2,%eax
  401289:	89 04 25 c4 02 70 00 	mov    %eax,0x7002c4
  401290:	8b 04 25 c4 02 70 00 	mov    0x7002c4,%eax
  401297:	a8 01                	test   $0x1,%al
  401299:	75 0f                	jne    4012aa <cmp_neq_reg+0x4a>
  40129b:	8b 04 25 c4 02 70 00 	mov    0x7002c4,%eax
  4012a2:	83 e0 06             	and    $0x6,%eax
  4012a5:	83 f8 02             	cmp    $0x2,%eax
  4012a8:	74 26                	je     4012d0 <cmp_neq_reg+0x70>
  4012aa:	c7 04 25 c4 02 70 00 	movl   $0x0,0x7002c4
  4012b1:	00 00 00 00 
  4012b5:	8b 04 25 c4 02 70 00 	mov    0x7002c4,%eax
  4012bc:	83 e0 f9             	and    $0xfffffff9,%eax
  4012bf:	83 c8 02             	or     $0x2,%eax
  4012c2:	89 04 25 c4 02 70 00 	mov    %eax,0x7002c4
  4012c9:	c3                   	retq   
  4012ca:	66 0f 1f 44 00 00    	nopw   0x0(%rax,%rax,1)
  4012d0:	8b 04 25 c4 02 70 00 	mov    0x7002c4,%eax
  4012d7:	a8 01                	test   $0x1,%al
  4012d9:	75 cf                	jne    4012aa <cmp_neq_reg+0x4a>
  4012db:	8b 04 25 c4 02 70 00 	mov    0x7002c4,%eax
  4012e2:	a8 20                	test   $0x20,%al
  4012e4:	74 c4                	je     4012aa <cmp_neq_reg+0x4a>
  4012e6:	8b 04 25 c4 02 70 00 	mov    0x7002c4,%eax
  4012ed:	a8 40                	test   $0x40,%al
  4012ef:	75 b9                	jne    4012aa <cmp_neq_reg+0x4a>
  4012f1:	8b 04 25 c4 02 70 00 	mov    0x7002c4,%eax
  4012f8:	a9 80 0f 00 00       	test   $0xf80,%eax
  4012fd:	75 ab                	jne    4012aa <cmp_neq_reg+0x4a>
  4012ff:	8b 04 25 c4 02 70 00 	mov    0x7002c4,%eax
  401306:	a9 00 f0 01 00       	test   $0x1f000,%eax
  40130b:	75 9d                	jne    4012aa <cmp_neq_reg+0x4a>
  40130d:	c7 04 25 c4 02 70 00 	movl   $0x0,0x7002c4
  401314:	00 00 00 00 
  401318:	8b 04 25 c4 02 70 00 	mov    0x7002c4,%eax
  40131f:	83 c8 20             	or     $0x20,%eax
  401322:	89 04 25 c4 02 70 00 	mov    %eax,0x7002c4
  401329:	c3                   	retq   
  40132a:	66 0f 1f 44 00 00    	nopw   0x0(%rax,%rax,1)

0000000000401330 <constexpr_bits_array>:
  401330:	c7 04 25 2c 01 70 00 	movl   $0x6,0x70012c
  401337:	06 00 00 00 
  40133b:	c7 04 25 a0 01 70 00 	movl   $0x0,0x7001a0
  401342:	00 00 00 00 
  401346:	8b 04 25 a0 01 70 00 	mov    0x7001a0,%eax
  40134d:	80 cc 20             	or     $0x20,%ah
  401350:	89 04 25 a0 01 70 00 	mov    %eax,0x7001a0
  401357:	c3                   	retq   
  401358:	0f 1f 84 00 00 00 00 	nopl   0x0(%rax,%rax,1)
  40135f:	00 

0000000000401360 <runtime_bits_array>:
  401360:	c7 44 24 fc 03 00 00 	movl   $0x3,-0x4(%rsp)
  401367:	00 
  401368:	8b 44 24 fc          	mov    -0x4(%rsp),%eax
  40136c:	48 83 c0 08          	add    $0x8,%rax
  401370:	c7 04 85 00 01 70 00 	movl   $0x21,0x700100(,%rax,4)
  401377:	21 00 00 00 
  40137b:	c7 44 24 fc 07 00 00 	movl   $0x7,-0x4(%rsp)
  401382:	00 
  401383:	c7 04 25 a0 01 70 00 	movl   $0x0,0x7001a0
  40138a:	00 00 00 00 
  40138e:	8b 44 24 fc          	mov    -0x4(%rsp),%eax
  401392:	83 f8 07             	cmp    $0x7,%eax
  401395:	74 09                	je     4013a0 <runtime_bits_array+0x40>
  401397:	f3 c3                	repz retq 
  401399:	0f 1f 80 00 00 00 00 	nopl   0x0(%rax)
  4013a0:	8b 04 25 a0 01 70 00 	mov    0x7001a0,%eax
  4013a7:	0c 80                	or     $0x80,%al
  4013a9:	89 04 25 a0 01 70 00 	mov    %eax,0x7001a0
  4013b0:	c3                   	retq   
  4013b1:	0f 1f 44 00 00       	nopl   0x0(%rax,%rax,1)
  4013b6:	66 2e 0f 1f 84 00 00 	nopw   %cs:0x0(%rax,%rax,1)
  4013bd:	00 00 00 

00000000004013c0 <prescaler_low>:
  4013c0:	8b 04 25 24 02 70 00 	mov    0x700224,%eax
  4013c7:	83 e0 80             	and    $0xffffff80,%eax
  4013ca:	83 c8 77             	or     $0x77,%eax
  4013cd:	89 04 25 24 02 70 00 	mov    %eax,0x700224
  4013d4:	48 8b 04 25 20 02 70 	mov    0x700220,%rax
  4013db:	00 
  4013dc:	48 c1 e8 20          	shr    $0x20,%rax
  4013e0:	83 e0 7f             	and    $0x7f,%eax
  4013e3:	89 04 25 2c 01 70 00 	mov    %eax,0x70012c
  4013ea:	c3                   	retq   
  4013eb:	0f 1f 44 00 00       	nopl   0x0(%rax,%rax,1)

00000000004013f0 <prescaler_high>:
  4013f0:	8b 04 25 24 02 70 00 	mov    0x700224,%eax
  4013f7:	25 ff ff ff c1       	and    $0xc1ffffff,%eax
  4013fc:	0d 00 00 00 3a       	or     $0x3a000000,%eax
  401401:	89 04 25 24 02 70 00 	mov    %eax,0x700224
  401408:	48 8b 04 25 20 02 70 	mov    0x700220,%rax
  40140f:	00 
  401410:	48 c1 e8 39          	shr    $0x39,%rax
  401414:	83 e0 1f             	and    $0x1f,%eax
  401417:	89 04 25 2c 01 70 00 	mov    %eax,0x70012c
  40141e:	c3                   	retq   
  40141f:	90                   	nop

0000000000401420 <reg_mskd_lss>:
  401420:	8b 04 25 24 02 70 00 	mov    0x700224,%eax
  401427:	25 ff ff ff c1       	and    $0xc1ffffff,%eax
  40142c:	0d 00 00 00 36       	or     $0x36000000,%eax
  401431:	89 04 25 24 02 70 00 	mov    %eax,0x700224
  401438:	c7 04 25 c4 02 70 00 	movl   $0x0,0x7002c4
  40143f:	00 00 00 00 
  401443:	48 8b 04 25 20 02 70 	mov    0x700220,%rax
  40144a:	00 
  40144b:	48 c1 e8 39          	shr    $0x39,%rax
  40144f:	83 e0 1f             	and    $0x1f,%eax
  401452:	83 f8 1b             	cmp    $0x1b,%eax
  401455:	8b 04 25 c4 02 70 00 	mov    0x7002c4,%eax
  40145c:	7e 12                	jle    401470 <reg_mskd_lss+0x50>
  40145e:	83 e0 f9             	and    $0xfffffff9,%eax
  401461:	83 c8 04             	or     $0x4,%eax
  401464:	89 04 25 c4 02 70 00 	mov    %eax,0x7002c4
  40146b:	c3                   	retq   
  40146c:	0f 1f 40 00          	nopl   0x0(%rax)
  401470:	83 e0 f9             	and    $0xfffffff9,%eax
  401473:	83 c8 02             	or     $0x2,%eax
  401476:	89 04 25 c4 02 70 00 	mov    %eax,0x7002c4
  40147d:	c3                   	retq   
  40147e:	66 90                	xchg   %ax,%ax

0000000000401480 <reg_mskd_leq>:
  401480:	8b 04 25 24 02 70 00 	mov    0x700224,%eax
  401487:	25 ff ff ff c1       	and    $0xc1ffffff,%eax
  40148c:	0d 00 00 00 2e       	or     $0x2e000000,%eax
  401491:	89 04 25 24 02 70 00 	mov    %eax,0x700224
  401498:	c7 04 25 c4 02 70 00 	movl   $0x0,0x7002c4
  40149f:	00 00 00 00 
  4014a3:	48 8b 04 25 20 02 70 	mov    0x700220,%rax
  4014aa:	00 
  4014ab:	48 c1 e8 39          	shr    $0x39,%rax
  4014af:	83 e0 1f             	and    $0x1f,%eax
  4014b2:	83 f8 17             	cmp    $0x17,%eax
  4014b5:	7f 14                	jg     4014cb <reg_mskd_leq+0x4b>
  4014b7:	48 8b 04 25 20 02 70 	mov    0x700220,%rax
  4014be:	00 
  4014bf:	48 c1 e8 39          	shr    $0x39,%rax
  4014c3:	83 e0 1f             	and    $0x1f,%eax
  4014c6:	83 f8 18             	cmp    $0x18,%eax
  4014c9:	7e 15                	jle    4014e0 <reg_mskd_leq+0x60>
  4014cb:	8b 04 25 c4 02 70 00 	mov    0x7002c4,%eax
  4014d2:	83 e0 f9             	and    $0xfffffff9,%eax
  4014d5:	83 c8 04             	or     $0x4,%eax
  4014d8:	89 04 25 c4 02 70 00 	mov    %eax,0x7002c4
  4014df:	c3                   	retq   
  4014e0:	8b 04 25 c4 02 70 00 	mov    0x7002c4,%eax
  4014e7:	83 e0 f9             	and    $0xfffffff9,%eax
  4014ea:	83 c8 02             	or     $0x2,%eax
  4014ed:	89 04 25 c4 02 70 00 	mov    %eax,0x7002c4
  4014f4:	c3                   	retq   
  4014f5:	90                   	nop
  4014f6:	66 2e 0f 1f 84 00 00 	nopw   %cs:0x0(%rax,%rax,1)
  4014fd:	00 00 00 

0000000000401500 <reg_mskd_gtr>:
  401500:	8b 04 25 24 02 70 00 	mov    0x700224,%eax
  401507:	25 ff ff ff c1       	and    $0xc1ffffff,%eax
  40150c:	0d 00 00 00 26       	or     $0x26000000,%eax
  401511:	89 04 25 24 02 70 00 	mov    %eax,0x700224
  401518:	c7 04 25 c4 02 70 00 	movl   $0x0,0x7002c4
  40151f:	00 00 00 00 
  401523:	48 8b 04 25 20 02 70 	mov    0x700220,%rax
  40152a:	00 
  40152b:	48 c1 e8 39          	shr    $0x39,%rax
  40152f:	83 e0 1f             	and    $0x1f,%eax
  401532:	83 f8 12             	cmp    $0x12,%eax
  401535:	8b 04 25 c4 02 70 00 	mov    0x7002c4,%eax
  40153c:	7f 12                	jg     401550 <reg_mskd_gtr+0x50>
  40153e:	83 e0 f9             	and    $0xfffffff9,%eax
  401541:	83 c8 04             	or     $0x4,%eax
  401544:	89 04 25 c4 02 70 00 	mov    %eax,0x7002c4
  40154b:	c3                   	retq   
  40154c:	0f 1f 40 00          	nopl   0x0(%rax)
  401550:	83 e0 f9             	and    $0xfffffff9,%eax
  401553:	83 c8 02             	or     $0x2,%eax
  401556:	89 04 25 c4 02 70 00 	mov    %eax,0x7002c4
  40155d:	c3                   	retq   
  40155e:	66 90                	xchg   %ax,%ax

0000000000401560 <reg_mskd_geq>:
  401560:	8b 04 25 24 02 70 00 	mov    0x700224,%eax
  401567:	25 ff ff ff c1       	and    $0xc1ffffff,%eax
  40156c:	0d 00 00 00 22       	or     $0x22000000,%eax
  401571:	89 04 25 24 02 70 00 	mov    %eax,0x700224
  401578:	c7 04 25 c4 02 70 00 	movl   $0x0,0x7002c4
  40157f:	00 00 00 00 
  401583:	48 8b 04 25 20 02 70 	mov    0x700220,%rax
  40158a:	00 
  40158b:	48 c1 e8 39          	shr    $0x39,%rax
  40158f:	83 e0 1f             	and    $0x1f,%eax
  401592:	83 f8 0f             	cmp    $0xf,%eax
  401595:	7e 14                	jle    4015ab <reg_mskd_geq+0x4b>
  401597:	48 8b 04 25 20 02 70 	mov    0x700220,%rax
  40159e:	00 
  40159f:	48 c1 e8 39          	shr    $0x39,%rax
  4015a3:	83 e0 1f             	and    $0x1f,%eax
  4015a6:	83 f8 10             	cmp    $0x10,%eax
  4015a9:	7f 15                	jg     4015c0 <reg_mskd_geq+0x60>
  4015ab:	8b 04 25 c4 02 70 00 	mov    0x7002c4,%eax
  4015b2:	83 e0 f9             	and    $0xfffffff9,%eax
  4015b5:	83 c8 04             	or     $0x4,%eax
  4015b8:	89 04 25 c4 02 70 00 	mov    %eax,0x7002c4
  4015bf:	c3                   	retq   
  4015c0:	8b 04 25 c4 02 70 00 	mov    0x7002c4,%eax
  4015c7:	83 e0 f9             	and    $0xfffffff9,%eax
  4015ca:	83 c8 02             	or     $0x2,%eax
  4015cd:	89 04 25 c4 02 70 00 	mov    %eax,0x7002c4
  4015d4:	c3                   	retq   
  4015d5:	90                   	nop
  4015d6:	66 2e 0f 1f 84 00 00 	nopw   %cs:0x0(%rax,%rax,1)
  4015dd:	00 00 00 

00000000004015e0 <pos_cmp_eq>:
  4015e0:	c7 04 25 c4 02 70 00 	movl   $0x0,0x7002c4
  4015e7:	00 00 00 00 
  4015eb:	8b 04 25 c4 02 70 00 	mov    0x7002c4,%eax
  4015f2:	83 e0 f9             	and    $0xfffffff9,%eax
  4015f5:	83 c8 02             	or     $0x2,%eax
  4015f8:	89 04 25 c4 02 70 00 	mov    %eax,0x7002c4
  4015ff:	c3                   	retq   

0000000000401600 <pos_cmp_ne>:
  401600:	c7 04 25 c4 02 70 00 	movl   $0x0,0x7002c4
  401607:	00 00 00 00 
  40160b:	8b 04 25 c4 02 70 00 	mov    0x7002c4,%eax
  401612:	83 e0 f9             	and    $0xfffffff9,%eax
  401615:	83 c8 02             	or     $0x2,%eax
  401618:	89 04 25 c4 02 70 00 	mov    %eax,0x7002c4
  40161f:	c3                   	retq   

0000000000401620 <bits_extract_eq>:
  401620:	8b 04 25 c4 02 70 00 	mov    0x7002c4,%eax
  401627:	83 c8 40             	or     $0x40,%eax
  40162a:	89 04 25 c4 02 70 00 	mov    %eax,0x7002c4
  401631:	8b 04 25 c4 02 70 00 	mov    0x7002c4,%eax
  401638:	c7 04 25 c4 02 70 00 	movl   $0x0,0x7002c4
  40163f:	00 00 00 00 
  401643:	a8 40                	test   $0x40,%al
  401645:	8b 04 25 c4 02 70 00 	mov    0x7002c4,%eax
  40164c:	75 12                	jne    401660 <bits_extract_eq+0x40>
  40164e:	83 e0 f9             	and    $0xfffffff9,%eax
  401651:	83 c8 04             	or     $0x4,%eax
  401654:	89 04 25 c4 02 70 00 	mov    %eax,0x7002c4
  40165b:	c3                   	retq   
  40165c:	0f 1f 40 00          	nopl   0x0(%rax)
  401660:	83 e0 f9             	and    $0xfffffff9,%eax
  401663:	83 c8 02             	or     $0x2,%eax
  401666:	89 04 25 c4 02 70 00 	mov    %eax,0x7002c4
  40166d:	c3                   	retq   
  40166e:	66 90                	xchg   %ax,%ax

0000000000401670 <mskd_extract_eq>:
  401670:	8b 04 25 c4 02 70 00 	mov    0x7002c4,%eax
  401677:	83 e0 f9             	and    $0xfffffff9,%eax
  40167a:	83 c8 02             	or     $0x2,%eax
  40167d:	89 04 25 c4 02 70 00 	mov    %eax,0x7002c4
  401684:	8b 04 25 c4 02 70 00 	mov    0x7002c4,%eax
  40168b:	c7 04 25 c4 02 70 00 	movl   $0x0,0x7002c4
  401692:	00 00 00 00 
  401696:	83 e0 06             	and    $0x6,%eax
  401699:	83 f8 02             	cmp    $0x2,%eax
  40169c:	8b 04 25 c4 02 70 00 	mov    0x7002c4,%eax
  4016a3:	74 0b                	je     4016b0 <mskd_extract_eq+0x40>
  4016a5:	83 c8 40             	or     $0x40,%eax
  4016a8:	89 04 25 c4 02 70 00 	mov    %eax,0x7002c4
  4016af:	c3                   	retq   
  4016b0:	83 c8 20             	or     $0x20,%eax
  4016b3:	89 04 25 c4 02 70 00 	mov    %eax,0x7002c4
  4016ba:	c3                   	retq   
  4016bb:	0f 1f 44 00 00       	nopl   0x0(%rax,%rax,1)

00000000004016c0 <mskd_extract_ne>:
  4016c0:	c7 04 25 c4 02 70 00 	movl   $0x0,0x7002c4
  4016c7:	00 00 00 00 
  4016cb:	8b 04 25 c4 02 70 00 	mov    0x7002c4,%eax
  4016d2:	83 e0 f9             	and    $0xfffffff9,%eax
  4016d5:	83 c8 04             	or     $0x4,%eax
  4016d8:	89 04 25 c4 02 70 00 	mov    %eax,0x7002c4
  4016df:	8b 04 25 c4 02 70 00 	mov    0x7002c4,%eax
  4016e6:	c7 04 25 c4 02 70 00 	movl   $0x0,0x7002c4
  4016ed:	00 00 00 00 
  4016f1:	83 e0 06             	and    $0x6,%eax
  4016f4:	83 f8 04             	cmp    $0x4,%eax
  4016f7:	8b 04 25 c4 02 70 00 	mov    0x7002c4,%eax
  4016fe:	74 10                	je     401710 <mskd_extract_ne+0x50>
  401700:	83 c8 20             	or     $0x20,%eax
  401703:	89 04 25 c4 02 70 00 	mov    %eax,0x7002c4
  40170a:	c3                   	retq   
  40170b:	0f 1f 44 00 00       	nopl   0x0(%rax,%rax,1)
  401710:	83 c8 40             	or     $0x40,%eax
  401713:	89 04 25 c4 02 70 00 	mov    %eax,0x7002c4
  40171a:	c3                   	retq   
  40171b:	0f 1f 44 00 00       	nopl   0x0(%rax,%rax,1)

0000000000401720 <mskd_extract_lss>:
  401720:	c7 04 25 24 02 70 00 	movl   $0x0,0x700224
  401727:	00 00 00 00 
  40172b:	8b 04 25 24 02 70 00 	mov    0x700224,%eax
  401732:	25 ff ff ff c1       	and    $0xc1ffffff,%eax
  401737:	0d 00 00 00 16       	or     $0x16000000,%eax
  40173c:	89 04 25 24 02 70 00 	mov    %eax,0x700224
  401743:	8b 04 25 24 02 70 00 	mov    0x700224,%eax
  40174a:	c7 04 25 c4 02 70 00 	movl   $0x0,0x7002c4
  401751:	00 00 00 00 
  401755:	c1 e8 19             	shr    $0x19,%eax
  401758:	83 e0 1f             	and    $0x1f,%eax
  40175b:	83 f8 0b             	cmp    $0xb,%eax
  40175e:	8b 04 25 c4 02 70 00 	mov    0x7002c4,%eax
  401765:	7e 11                	jle    401778 <mskd_extract_lss+0x58>
  401767:	83 c8 40             	or     $0x40,%eax
  40176a:	89 04 25 c4 02 70 00 	mov    %eax,0x7002c4
  401771:	c3                   	retq   
  401772:	66 0f 1f 44 00 00    	nopw   0x0(%rax,%rax,1)
  401778:	83 c8 20             	or     $0x20,%eax
  40177b:	89 04 25 c4 02 70 00 	mov    %eax,0x7002c4
  401782:	c3                   	retq   
  401783:	0f 1f 00             	nopl   (%rax)
  401786:	66 2e 0f 1f 84 00 00 	nopw   %cs:0x0(%rax,%rax,1)
  40178d:	00 00 00 

0000000000401790 <mskd_extract_leq>:
  401790:	c7 04 25 24 02 70 00 	movl   $0x0,0x700224
  401797:	00 00 00 00 
  40179b:	8b 04 25 24 02 70 00 	mov    0x700224,%eax
  4017a2:	25 ff ff ff c1       	and    $0xc1ffffff,%eax
  4017a7:	0d 00 00 00 2e       	or     $0x2e000000,%eax
  4017ac:	89 04 25 24 02 70 00 	mov    %eax,0x700224
  4017b3:	8b 04 25 24 02 70 00 	mov    0x700224,%eax
  4017ba:	c7 04 25 c4 02 70 00 	movl   $0x0,0x7002c4
  4017c1:	00 00 00 00 
  4017c5:	c1 e8 19             	shr    $0x19,%eax
  4017c8:	83 e0 1f             	and    $0x1f,%eax
  4017cb:	83 f8 17             	cmp    $0x17,%eax
  4017ce:	7f 05                	jg     4017d5 <mskd_extract_leq+0x45>
  4017d0:	83 f8 18             	cmp    $0x18,%eax
  4017d3:	7e 1b                	jle    4017f0 <mskd_extract_leq+0x60>
  4017d5:	8b 04 25 c4 02 70 00 	mov    0x7002c4,%eax
  4017dc:	83 c8 40             	or     $0x40,%eax
  4017df:	89 04 25 c4 02 70 00 	mov    %eax,0x7002c4
  4017e6:	c3                   	retq   
  4017e7:	66 0f 1f 84 00 00 00 	nopw   0x0(%rax,%rax,1)
  4017ee:	00 00 
  4017f0:	8b 04 25 c4 02 70 00 	mov    0x7002c4,%eax
  4017f7:	83 c8 20             	or     $0x20,%eax
  4017fa:	89 04 25 c4 02 70 00 	mov    %eax,0x7002c4
  401801:	c3                   	retq   
  401802:	0f 1f 40 00          	nopl   0x0(%rax)
  401806:	66 2e 0f 1f 84 00 00 	nopw   %cs:0x0(%rax,%rax,1)
  40180d:	00 00 00 

0000000000401810 <mskd_extract_gtr>:
  401810:	c7 04 25 24 02 70 00 	movl   $0x0,0x700224
  401817:	00 00 00 00 
  40181b:	8b 04 25 24 02 70 00 	mov    0x700224,%eax
  401822:	25 ff ff ff c1       	and    $0xc1ffffff,%eax
  401827:	0d 00 00 00 26       	or     $0x26000000,%eax
  40182c:	89 04 25 24 02 70 00 	mov    %eax,0x700224
  401833:	8b 04 25 24 02 70 00 	mov    0x700224,%eax
  40183a:	c7 04 25 c4 02 70 00 	movl   $0x0,0x7002c4
  401841:	00 00 00 00 
  401845:	c1 e8 19             	shr    $0x19,%eax
  401848:	83 e0 1f             	and    $0x1f,%eax
  40184b:	83 f8 12             	cmp    $0x12,%eax
  40184e:	8b 04 25 c4 02 70 00 	mov    0x7002c4,%eax
  401855:	7f 11                	jg     401868 <mskd_extract_gtr+0x58>
  401857:	83 c8 40             	or     $0x40,%eax
  40185a:	89 04 25 c4 02 70 00 	mov    %eax,0x7002c4
  401861:	c3                   	retq   
  401862:	66 0f 1f 44 00 00    	nopw   0x0(%rax,%rax,1)
  401868:	83 c8 20             	or     $0x20,%eax
  40186b:	89 04 25 c4 02 70 00 	mov    %eax,0x7002c4
  401872:	c3                   	retq   
  401873:	0f 1f 00             	nopl   (%rax)
  401876:	66 2e 0f 1f 84 00 00 	nopw   %cs:0x0(%rax,%rax,1)
  40187d:	00 00 00 

0000000000401880 <set_bits_global>:
  401880:	8b 04 25 c4 02 70 00 	mov    0x7002c4,%eax
  401887:	83 c8 40             	or     $0x40,%eax
  40188a:	89 04 25 c4 02 70 00 	mov    %eax,0x7002c4
  401891:	c3                   	retq   
  401892:	0f 1f 40 00          	nopl   0x0(%rax)
  401896:	66 2e 0f 1f 84 00 00 	nopw   %cs:0x0(%rax,%rax,1)
  40189d:	00 00 00 

00000000004018a0 <ins_mskd_global>:
  4018a0:	8b 04 25 c4 02 70 00 	mov    0x7002c4,%eax
  4018a7:	83 e0 f9             	and    $0xfffffff9,%eax
  4018aa:	83 c8 02             	or     $0x2,%eax
  4018ad:	89 04 25 c4 02 70 00 	mov    %eax,0x7002c4
  4018b4:	c3                   	retq   
  4018b5:	90                   	nop
  4018b6:	66 2e 0f 1f 84 00 00 	nopw   %cs:0x0(%rax,%rax,1)
  4018bd:	00 00 00 

00000000004018c0 <assign_array_global>:
  4018c0:	c7 04 25 2c 01 70 00 	movl   $0xbd,0x70012c
  4018c7:	bd 00 00 00 
  4018cb:	c3                   	retq   
  4018cc:	0f 1f 40 00          	nopl   0x0(%rax)

00000000004018d0 <shifted_global>:
  4018d0:	8b 04 25 24 02 70 00 	mov    0x700224,%eax
  4018d7:	25 ff ff ff c1       	and    $0xc1ffffff,%eax
  4018dc:	0d 00 00 00 2e       	or     $0x2e000000,%eax
  4018e1:	89 04 25 24 02 70 00 	mov    %eax,0x700224
  4018e8:	48 8b 04 25 20 02 70 	mov    0x700220,%rax
  4018ef:	00 
  4018f0:	48 c1 e8 39          	shr    $0x39,%rax
  4018f4:	83 e0 1f             	and    $0x1f,%eax
  4018f7:	89 04 25 2c 01 70 00 	mov    %eax,0x70012c
  4018fe:	c3                   	retq   
  4018ff:	90                   	nop

0000000000401900 <assign_register_global>:
  401900:	c7 04 25 c4 02 70 00 	movl   $0x0,0x7002c4
  401907:	00 00 00 00 
  40190b:	8b 04 25 c4 02 70 00 	mov    0x7002c4,%eax
  401912:	83 e0 f9             	and    $0xfffffff9,%eax
  401915:	83 c8 04             	or     $0x4,%eax
  401918:	89 04 25 c4 02 70 00 	mov    %eax,0x7002c4
  40191f:	c3                   	retq   

0000000000401920 <copy_bits_equ>:
  401920:	c7 04 25 c4 02 70 00 	movl   $0x0,0x7002c4
  401927:	00 00 00 00 
  40192b:	8b 04 25 c4 02 70 00 	mov    0x7002c4,%eax
  401932:	83 c8 40             	or     $0x40,%eax
  401935:	89 04 25 c4 02 70 00 	mov    %eax,0x7002c4
  40193c:	48 8b 04 25 c0 02 70 	mov    0x7002c0,%rax
  401943:	00 
  401944:	c7 04 25 c4 02 70 00 	movl   $0x0,0x7002c4
  40194b:	00 00 00 00 
  40194f:	48 c1 e8 26          	shr    $0x26,%rax
  401953:	a8 01                	test   $0x1,%al
  401955:	8b 04 25 c4 02 70 00 	mov    0x7002c4,%eax
  40195c:	75 12                	jne    401970 <copy_bits_equ+0x50>
  40195e:	83 e0 f9             	and    $0xfffffff9,%eax
  401961:	83 c8 04             	or     $0x4,%eax
  401964:	89 04 25 c4 02 70 00 	mov    %eax,0x7002c4
  40196b:	c3                   	retq   
  40196c:	0f 1f 40 00          	nopl   0x0(%rax)
  401970:	83 e0 f9             	and    $0xfffffff9,%eax
  401973:	83 c8 02             	or     $0x2,%eax
  401976:	89 04 25 c4 02 70 00 	mov    %eax,0x7002c4
  40197d:	c3                   	retq   
  40197e:	66 90                	xchg   %ax,%ax

0000000000401980 <copy_bits_neq>:
  401980:	c7 04 25 c4 02 70 00 	movl   $0x0,0x7002c4
  401987:	00 00 00 00 
  40198b:	8b 04 25 c4 02 70 00 	mov    0x7002c4,%eax
  401992:	83 c8 40             	or     $0x40,%eax
  401995:	89 04 25 c4 02 70 00 	mov    %eax,0x7002c4
  40199c:	48 8b 04 25 c0 02 70 	mov    0x7002c0,%rax
  4019a3:	00 
  4019a4:	c7 04 25 c4 02 70 00 	movl   $0x0,0x7002c4
  4019ab:	00 00 00 00 
  4019af:	48 c1 e8 26          	shr    $0x26,%rax
  4019b3:	a8 01                	test   $0x1,%al
  4019b5:	8b 04 25 c4 02 70 00 	mov    0x7002c4,%eax
  4019bc:	74 12                	je     4019d0 <copy_bits_neq+0x50>
  4019be:	83 e0 f9             	and    $0xfffffff9,%eax
  4019c1:	83 c8 04             	or     $0x4,%eax
  4019c4:	89 04 25 c4 02 70 00 	mov    %eax,0x7002c4
  4019cb:	c3                   	retq   
  4019cc:	0f 1f 40 00          	nopl   0x0(%rax)
  4019d0:	83 e0 f9             	and    $0xfffffff9,%eax
  4019d3:	83 c8 02             	or     $0x2,%eax
  4019d6:	89 04 25 c4 02 70 00 	mov    %eax,0x7002c4
  4019dd:	c3                   	retq   
  4019de:	66 90                	xchg   %ax,%ax

00000000004019e0 <copy_mskd_equ>:
  4019e0:	c7 04 25 24 02 70 00 	movl   $0x0,0x700224
  4019e7:	00 00 00 00 
  4019eb:	8b 04 25 24 02 70 00 	mov    0x700224,%eax
  4019f2:	25 ff ff ff c1       	and    $0xc1ffffff,%eax
  4019f7:	0d 00 00 00 16       	or     $0x16000000,%eax
  4019fc:	89 04 25 24 02 70 00 	mov    %eax,0x700224
  401a03:	48 8b 04 25 20 02 70 	mov    0x700220,%rax
  401a0a:	00 
  401a0b:	c7 04 25 c4 02 70 00 	movl   $0x0,0x7002c4
  401a12:	00 00 00 00 
  401a16:	48 c1 e8 39          	shr    $0x39,%rax
  401a1a:	83 e0 1f             	and    $0x1f,%eax
  401a1d:	3c 0b                	cmp    $0xb,%al
  401a1f:	8b 04 25 c4 02 70 00 	mov    0x7002c4,%eax
  401a26:	74 18                	je     401a40 <copy_mskd_equ+0x60>
  401a28:	83 e0 f9             	and    $0xfffffff9,%eax
  401a2b:	83 c8 04             	or     $0x4,%eax
  401a2e:	89 04 25 c4 02 70 00 	mov    %eax,0x7002c4
  401a35:	c3                   	retq   
  401a36:	66 2e 0f 1f 84 00 00 	nopw   %cs:0x0(%rax,%rax,1)
  401a3d:	00 00 00 
  401a40:	83 e0 f9             	and    $0xfffffff9,%eax
  401a43:	83 c8 02             	or     $0x2,%eax
  401a46:	89 04 25 c4 02 70 00 	mov    %eax,0x7002c4
  401a4d:	c3                   	retq   
  401a4e:	66 90                	xchg   %ax,%ax

0000000000401a50 <copy_mskd_neq>:
  401a50:	c7 04 25 24 02 70 00 	movl   $0x0,0x700224
  401a57:	00 00 00 00 
  401a5b:	8b 04 25 24 02 70 00 	mov    0x700224,%eax
  401a62:	25 ff ff ff c1       	and    $0xc1ffffff,%eax
  401a67:	0d 00 00 00 1a       	or     $0x1a000000,%eax
  401a6c:	89 04 25 24 02 70 00 	mov    %eax,0x700224
  401a73:	48 8b 04 25 20 02 70 	mov    0x700220,%rax
  401a7a:	00 
  401a7b:	c7 04 25 c4 02 70 00 	movl   $0x0,0x7002c4
  401a82:	00 00 00 00 
  401a86:	48 c1 e8 39          	shr    $0x39,%rax
  401a8a:	83 e0 1f             	and    $0x1f,%eax
  401a8d:	3c 0d                	cmp    $0xd,%al
  401a8f:	8b 04 25 c4 02 70 00 	mov    0x7002c4,%eax
  401a96:	74 18                	je     401ab0 <copy_mskd_neq+0x60>
  401a98:	83 e0 f9             	and    $0xfffffff9,%eax
  401a9b:	83 c8 02             	or     $0x2,%eax
  401a9e:	89 04 25 c4 02 70 00 	mov    %eax,0x7002c4
  401aa5:	c3                   	retq   
  401aa6:	66 2e 0f 1f 84 00 00 	nopw   %cs:0x0(%rax,%rax,1)
  401aad:	00 00 00 
  401ab0:	83 e0 f9             	and    $0xfffffff9,%eax
  401ab3:	83 c8 04             	or     $0x4,%eax
  401ab6:	89 04 25 c4 02 70 00 	mov    %eax,0x7002c4
  401abd:	c3                   	retq   
  401abe:	66 90                	xchg   %ax,%ax

0000000000401ac0 <copy_mskd_lss>:
  401ac0:	c7 04 25 24 02 70 00 	movl   $0x0,0x700224
  401ac7:	00 00 00 00 
  401acb:	8b 04 25 24 02 70 00 	mov    0x700224,%eax
  401ad2:	25 ff ff ff c1       	and    $0xc1ffffff,%eax
  401ad7:	0d 00 00 00 36       	or     $0x36000000,%eax
  401adc:	89 04 25 24 02 70 00 	mov    %eax,0x700224
  401ae3:	48 8b 04 25 20 02 70 	mov    0x700220,%rax
  401aea:	00 
  401aeb:	c7 04 25 c4 02 70 00 	movl   $0x0,0x7002c4
  401af2:	00 00 00 00 
  401af6:	48 c1 e8 39          	shr    $0x39,%rax
  401afa:	83 e0 1f             	and    $0x1f,%eax
  401afd:	3c 1b                	cmp    $0x1b,%al
  401aff:	8b 04 25 c4 02 70 00 	mov    0x7002c4,%eax
  401b06:	76 18                	jbe    401b20 <copy_mskd_lss+0x60>
  401b08:	83 e0 f9             	and    $0xfffffff9,%eax
  401b0b:	83 c8 04             	or     $0x4,%eax
  401b0e:	89 04 25 c4 02 70 00 	mov    %eax,0x7002c4
  401b15:	c3                   	retq   
  401b16:	66 2e 0f 1f 84 00 00 	nopw   %cs:0x0(%rax,%rax,1)
  401b1d:	00 00 00 
  401b20:	83 e0 f9             	and    $0xfffffff9,%eax
  401b23:	83 c8 02             	or     $0x2,%eax
  401b26:	89 04 25 c4 02 70 00 	mov    %eax,0x7002c4
  401b2d:	c3                   	retq   
  401b2e:	66 90                	xchg   %ax,%ax

0000000000401b30 <copy_mskd_leq>:
  401b30:	c7 04 25 24 02 70 00 	movl   $0x0,0x700224
  401b37:	00 00 00 00 
  401b3b:	8b 04 25 24 02 70 00 	mov    0x700224,%eax
  401b42:	25 ff ff ff c1       	and    $0xc1ffffff,%eax
  401b47:	0d 00 00 00 2e       	or     $0x2e000000,%eax
  401b4c:	89 04 25 24 02 70 00 	mov    %eax,0x700224
  401b53:	48 8b 04 25 20 02 70 	mov    0x700220,%rax
  401b5a:	00 
  401b5b:	c7 04 25 c4 02 70 00 	movl   $0x0,0x7002c4
  401b62:	00 00 00 00 
  401b66:	48 c1 e8 39          	shr    $0x39,%rax
  401b6a:	83 e0 1f             	and    $0x1f,%eax
  401b6d:	3c 17                	cmp    $0x17,%al
  401b6f:	8b 04 25 c4 02 70 00 	mov    0x7002c4,%eax
  401b76:	76 18                	jbe    401b90 <copy_mskd_leq+0x60>
  401b78:	83 e0 f9             	and    $0xfffffff9,%eax
  401b7b:	83 c8 04             	or     $0x4,%eax
  401b7e:	89 04 25 c4 02 70 00 	mov    %eax,0x7002c4
  401b85:	c3                   	retq   
  401b86:	66 2e 0f 1f 84 00 00 	nopw   %cs:0x0(%rax,%rax,1)
  401b8d:	00 00 00 
  401b90:	83 e0 f9             	and    $0xfffffff9,%eax
  401b93:	83 c8 02             	or     $0x2,%eax
  401b96:	89 04 25 c4 02 70 00 	mov    %eax,0x7002c4
  401b9d:	c3                   	retq   
  401b9e:	66 90                	xchg   %ax,%ax

0000000000401ba0 <copy_mskd_gtr>:
  401ba0:	c7 04 25 24 02 70 00 	movl   $0x0,0x700224
  401ba7:	00 00 00 00 
  401bab:	8b 04 25 24 02 70 00 	mov    0x700224,%eax
  401bb2:	25 ff ff ff c1       	and    $0xc1ffffff,%eax
  401bb7:	0d 00 00 00 26       	or     $0x26000000,%eax
  401bbc:	89 04 25 24 02 70 00 	mov    %eax,0x700224
  401bc3:	48 8b 04 25 20 02 70 	mov    0x700220,%rax
  401bca:	00 
  401bcb:	c7 04 25 c4 02 70 00 	movl   $0x0,0x7002c4
  401bd2:	00 00 00 00 
  401bd6:	48 c1 e8 39          	shr    $0x39,%rax
  401bda:	83 e0 1f             	and    $0x1f,%eax
  401bdd:	3c 12                	cmp    $0x12,%al
  401bdf:	8b 04 25 c4 02 70 00 	mov    0x7002c4,%eax
  401be6:	77 18                	ja     401c00 <copy_mskd_gtr+0x60>
  401be8:	83 e0 f9             	and    $0xfffffff9,%eax
  401beb:	83 c8 04             	or     $0x4,%eax
  401bee:	89 04 25 c4 02 70 00 	mov    %eax,0x7002c4
  401bf5:	c3                   	retq   
  401bf6:	66 2e 0f 1f 84 00 00 	nopw   %cs:0x0(%rax,%rax,1)
  401bfd:	00 00 00 
  401c00:	83 e0 f9             	and    $0xfffffff9,%eax
  401c03:	83 c8 02             	or     $0x2,%eax
  401c06:	89 04 25 c4 02 70 00 	mov    %eax,0x7002c4
  401c0d:	c3                   	retq   
  401c0e:	66 90                	xchg   %ax,%ax

0000000000401c10 <copy_mskd_geq>:
  401c10:	c7 04 25 24 02 70 00 	movl   $0x0,0x700224
  401c17:	00 00 00 00 
  401c1b:	8b 04 25 24 02 70 00 	mov    0x700224,%eax
  401c22:	25 ff ff ff c1       	and    $0xc1ffffff,%eax
  401c27:	0d 00 00 00 22       	or     $0x22000000,%eax
  401c2c:	89 04 25 24 02 70 00 	mov    %eax,0x700224
  401c33:	48 8b 04 25 20 02 70 	mov    0x700220,%rax
  401c3a:	00 
  401c3b:	c7 04 25 c4 02 70 00 	movl   $0x0,0x7002c4
  401c42:	00 00 00 00 
  401c46:	48 c1 e8 39          	shr    $0x39,%rax
  401c4a:	83 e0 1f             	and    $0x1f,%eax
  401c4d:	3c 10                	cmp    $0x10,%al
  401c4f:	8b 04 25 c4 02 70 00 	mov    0x7002c4,%eax
  401c56:	77 18                	ja     401c70 <copy_mskd_geq+0x60>
  401c58:	83 e0 f9             	and    $0xfffffff9,%eax
  401c5b:	83 c8 04             	or     $0x4,%eax
  401c5e:	89 04 25 c4 02 70 00 	mov    %eax,0x7002c4
  401c65:	c3                   	retq   
  401c66:	66 2e 0f 1f 84 00 00 	nopw   %cs:0x0(%rax,%rax,1)
  401c6d:	00 00 00 
  401c70:	83 e0 f9             	and    $0xfffffff9,%eax
  401c73:	83 c8 02             	or     $0x2,%eax
  401c76:	89 04 25 c4 02 70 00 	mov    %eax,0x7002c4
  401c7d:	c3                   	retq   
  401c7e:	66 90                	xchg   %ax,%ax

0000000000401c80 <copy_shifted>:
  401c80:	c7 04 25 24 02 70 00 	movl   $0x0,0x700224
  401c87:	00 00 00 00 
  401c8b:	8b 04 25 24 02 70 00 	mov    0x700224,%eax
  401c92:	25 ff ff ff c1       	and    $0xc1ffffff,%eax
  401c97:	0d 00 00 00 16       	or     $0x16000000,%eax
  401c9c:	89 04 25 24 02 70 00 	mov    %eax,0x700224
  401ca3:	48 8b 04 25 20 02 70 	mov    0x700220,%rax
  401caa:	00 
  401cab:	c7 04 25 c4 02 70 00 	movl   $0x0,0x7002c4
  401cb2:	00 00 00 00 
  401cb6:	48 c1 e8 39          	shr    $0x39,%rax
  401cba:	83 e0 1f             	and    $0x1f,%eax
  401cbd:	3c 0b                	cmp    $0xb,%al
  401cbf:	8b 04 25 c4 02 70 00 	mov    0x7002c4,%eax
  401cc6:	74 18                	je     401ce0 <copy_shifted+0x60>
  401cc8:	83 e0 f9             	and    $0xfffffff9,%eax
  401ccb:	83 c8 04             	or     $0x4,%eax
  401cce:	89 04 25 c4 02 70 00 	mov    %eax,0x7002c4
  401cd5:	c3                   	retq   
  401cd6:	66 2e 0f 1f 84 00 00 	nopw   %cs:0x0(%rax,%rax,1)
  401cdd:	00 00 00 
  401ce0:	83 e0 f9             	and    $0xfffffff9,%eax
  401ce3:	83 c8 02             	or     $0x2,%eax
  401ce6:	89 04 25 c4 02 70 00 	mov    %eax,0x7002c4
  401ced:	c3                   	retq   
  401cee:	66 90                	xchg   %ax,%ax

0000000000401cf0 <shifted_ref.constprop.0>:
  401cf0:	c7 04 25 24 02 70 00 	movl   $0x0,0x700224
  401cf7:	00 00 00 00 
  401cfb:	8b 04 25 24 02 70 00 	mov    0x700224,%eax
  401d02:	25 ff ff ff c1       	and    $0xc1ffffff,%eax
  401d07:	0d 00 00 00 2e       	or     $0x2e000000,%eax
  401d0c:	89 04 25 24 02 70 00 	mov    %eax,0x700224
  401d13:	48 8b 04 25 20 02 70 	mov    0x700220,%rax
  401d1a:	00 
  401d1b:	48 c1 e8 39          	shr    $0x39,%rax
  401d1f:	83 e0 1f             	and    $0x1f,%eax
  401d22:	89 04 25 2c 01 70 00 	mov    %eax,0x70012c
  401d29:	c3                   	retq   
  401d2a:	66 0f 1f 44 00 00    	nopw   0x0(%rax,%rax,1)

0000000000401d30 <call_shifted_const_ref>:
  401d30:	48 83 ec 18          	sub    $0x18,%rsp
  401d34:	48 89 e7             	mov    %rsp,%rdi
  401d37:	c7 04 24 01 00 00 00 	movl   $0x1,(%rsp)
  401d3e:	e8 ad ff ff ff       	callq  401cf0 <shifted_ref.constprop.0>
  401d43:	48 83 c4 18          	add    $0x18,%rsp
  401d47:	c3                   	retq   
  401d48:	0f 1f 84 00 00 00 00 	nopl   0x0(%rax,%rax,1)
  401d4f:	00 

0000000000401d50 <call_shifted_var_ref>:
  401d50:	48 83 ec 18          	sub    $0x18,%rsp
  401d54:	48 89 e7             	mov    %rsp,%rdi
  401d57:	c7 04 24 01 00 00 00 	movl   $0x1,(%rsp)
  401d5e:	e8 8d ff ff ff       	callq  401cf0 <shifted_ref.constprop.0>
  401d63:	48 83 c4 18          	add    $0x18,%rsp
  401d67:	c3                   	retq   
  401d68:	0f 1f 84 00 00 00 00 	nopl   0x0(%rax,%rax,1)
  401d6f:	00 

0000000000401d70 <call_shifted_global_ref>:
  401d70:	48 83 ec 18          	sub    $0x18,%rsp
  401d74:	48 89 e7             	mov    %rsp,%rdi
  401d77:	c7 04 24 01 00 00 00 	movl   $0x1,(%rsp)
  401d7e:	e8 6d ff ff ff       	callq  401cf0 <shifted_ref.constprop.0>
  401d83:	48 83 c4 18          	add    $0x18,%rsp
  401d87:	c3                   	retq   
  401d88:	0f 1f 84 00 00 00 00 	nopl   0x0(%rax,%rax,1)
  401d8f:	00 

0000000000401d90 <shifted_val.constprop.1>:
  401d90:	c7 04 25 24 02 70 00 	movl   $0x0,0x700224
  401d97:	00 00 00 00 
  401d9b:	8b 04 25 24 02 70 00 	mov    0x700224,%eax
  401da2:	25 ff ff ff c1       	and    $0xc1ffffff,%eax
  401da7:	0d 00 00 00 2e       	or     $0x2e000000,%eax
  401dac:	89 04 25 24 02 70 00 	mov    %eax,0x700224
  401db3:	48 8b 04 25 20 02 70 	mov    0x700220,%rax
  401dba:	00 
  401dbb:	48 c1 e8 39          	shr    $0x39,%rax
  401dbf:	83 e0 1f             	and    $0x1f,%eax
  401dc2:	89 04 25 2c 01 70 00 	mov    %eax,0x70012c
  401dc9:	c3                   	retq   
  401dca:	66 0f 1f 44 00 00    	nopw   0x0(%rax,%rax,1)

0000000000401dd0 <call_shifted_const_val>:
  401dd0:	eb be                	jmp    401d90 <shifted_val.constprop.1>
  401dd2:	0f 1f 40 00          	nopl   0x0(%rax)
  401dd6:	66 2e 0f 1f 84 00 00 	nopw   %cs:0x0(%rax,%rax,1)
  401ddd:	00 00 00 

0000000000401de0 <call_shifted_var_val>:
  401de0:	eb ae                	jmp    401d90 <shifted_val.constprop.1>
  401de2:	0f 1f 40 00          	nopl   0x0(%rax)
  401de6:	66 2e 0f 1f 84 00 00 	nopw   %cs:0x0(%rax,%rax,1)
  401ded:	00 00 00 

0000000000401df0 <call_shifted_global_val>:
  401df0:	eb 9e                	jmp    401d90 <shifted_val.constprop.1>
  401df2:	0f 1f 40 00          	nopl   0x0(%rax)
  401df6:	66 2e 0f 1f 84 00 00 	nopw   %cs:0x0(%rax,%rax,1)
  401dfd:	00 00 00 

0000000000401e00 <pos_ref.constprop.2>:
  401e00:	c7 04 25 2c 01 70 00 	movl   $0x66,0x70012c
  401e07:	66 00 00 00 
  401e0b:	c3                   	retq   
  401e0c:	0f 1f 40 00          	nopl   0x0(%rax)

0000000000401e10 <pos_ref.constprop.3>:
  401e10:	c7 04 25 2c 01 70 00 	movl   $0x77,0x70012c
  401e17:	77 00 00 00 
  401e1b:	c3                   	retq   
  401e1c:	0f 1f 40 00          	nopl   0x0(%rax)

0000000000401e20 <call_pos_ref_global>:
  401e20:	48 83 ec 18          	sub    $0x18,%rsp
  401e24:	48 89 e7             	mov    %rsp,%rdi
  401e27:	c7 04 24 04 00 00 00 	movl   $0x4,(%rsp)
  401e2e:	e8 dd ff ff ff       	callq  401e10 <pos_ref.constprop.3>
  401e33:	48 83 c4 18          	add    $0x18,%rsp
  401e37:	c3                   	retq   
  401e38:	0f 1f 84 00 00 00 00 	nopl   0x0(%rax,%rax,1)
  401e3f:	00 

0000000000401e40 <pos_val.constprop.4>:
  401e40:	c7 04 25 2c 01 70 00 	movl   $0x33,0x70012c
  401e47:	33 00 00 00 
  401e4b:	c3                   	retq   
  401e4c:	0f 1f 40 00          	nopl   0x0(%rax)

0000000000401e50 <pos_val.constprop.5>:
  401e50:	c7 04 25 2c 01 70 00 	movl   $0x44,0x70012c
  401e57:	44 00 00 00 
  401e5b:	c3                   	retq   
  401e5c:	0f 1f 40 00          	nopl   0x0(%rax)

0000000000401e60 <call_pos_val>:
  401e60:	e8 db ff ff ff       	callq  401e40 <pos_val.constprop.4>
  401e65:	eb e9                	jmp    401e50 <pos_val.constprop.5>
  401e67:	66 0f 1f 84 00 00 00 	nopw   0x0(%rax,%rax,1)
  401e6e:	00 00 

0000000000401e70 <call_pos_val_global>:
  401e70:	eb de                	jmp    401e50 <pos_val.constprop.5>
  401e72:	0f 1f 40 00          	nopl   0x0(%rax)
  401e76:	66 2e 0f 1f 84 00 00 	nopw   %cs:0x0(%rax,%rax,1)
  401e7d:	00 00 00 

0000000000401e80 <reg_mskd_ref.constprop.6>:
  401e80:	8b 04 25 c4 02 70 00 	mov    0x7002c4,%eax
  401e87:	83 e0 f9             	and    $0xfffffff9,%eax
  401e8a:	83 c8 02             	or     $0x2,%eax
  401e8d:	89 04 25 c4 02 70 00 	mov    %eax,0x7002c4
  401e94:	c3                   	retq   
  401e95:	90                   	nop
  401e96:	66 2e 0f 1f 84 00 00 	nopw   %cs:0x0(%rax,%rax,1)
  401e9d:	00 00 00 

0000000000401ea0 <call_reg_mskd_ref>:
  401ea0:	48 83 ec 18          	sub    $0x18,%rsp
  401ea4:	48 89 e7             	mov    %rsp,%rdi
  401ea7:	c7 04 24 01 00 00 00 	movl   $0x1,(%rsp)
  401eae:	e8 cd ff ff ff       	callq  401e80 <reg_mskd_ref.constprop.6>
  401eb3:	48 83 c4 18          	add    $0x18,%rsp
  401eb7:	c3                   	retq   
  401eb8:	0f 1f 84 00 00 00 00 	nopl   0x0(%rax,%rax,1)
  401ebf:	00 

0000000000401ec0 <periph_mskd_ref.constprop.7>:
  401ec0:	8b 04 25 c4 02 70 00 	mov    0x7002c4,%eax
  401ec7:	83 e0 f9             	and    $0xfffffff9,%eax
  401eca:	83 c8 02             	or     $0x2,%eax
  401ecd:	89 04 25 c4 02 70 00 	mov    %eax,0x7002c4
  401ed4:	c3                   	retq   
  401ed5:	90                   	nop
  401ed6:	66 2e 0f 1f 84 00 00 	nopw   %cs:0x0(%rax,%rax,1)
  401edd:	00 00 00 

0000000000401ee0 <call_periph_mskd_ref>:
  401ee0:	48 83 ec 18          	sub    $0x18,%rsp
  401ee4:	48 89 e7             	mov    %rsp,%rdi
  401ee7:	c7 04 24 01 00 00 00 	movl   $0x1,(%rsp)
  401eee:	e8 cd ff ff ff       	callq  401ec0 <periph_mskd_ref.constprop.7>
  401ef3:	48 83 c4 18          	add    $0x18,%rsp
  401ef7:	c3                   	retq   
  401ef8:	0f 1f 84 00 00 00 00 	nopl   0x0(%rax,%rax,1)
  401eff:	00 

0000000000401f00 <reg_mskd_val.constprop.8>:
  401f00:	8b 04 25 c4 02 70 00 	mov    0x7002c4,%eax
  401f07:	83 e0 f9             	and    $0xfffffff9,%eax
  401f0a:	83 c8 02             	or     $0x2,%eax
  401f0d:	89 04 25 c4 02 70 00 	mov    %eax,0x7002c4
  401f14:	c3                   	retq   
  401f15:	90                   	nop
  401f16:	66 2e 0f 1f 84 00 00 	nopw   %cs:0x0(%rax,%rax,1)
  401f1d:	00 00 00 

0000000000401f20 <call_reg_mskd_val>:
  401f20:	eb de                	jmp    401f00 <reg_mskd_val.constprop.8>
  401f22:	0f 1f 40 00          	nopl   0x0(%rax)
  401f26:	66 2e 0f 1f 84 00 00 	nopw   %cs:0x0(%rax,%rax,1)
  401f2d:	00 00 00 

0000000000401f30 <periph_mskd_val.constprop.9>:
  401f30:	8b 04 25 c4 02 70 00 	mov    0x7002c4,%eax
  401f37:	83 e0 f9             	and    $0xfffffff9,%eax
  401f3a:	83 c8 02             	or     $0x2,%eax
  401f3d:	89 04 25 c4 02 70 00 	mov    %eax,0x7002c4
  401f44:	c3                   	retq   
  401f45:	90                   	nop
  401f46:	66 2e 0f 1f 84 00 00 	nopw   %cs:0x0(%rax,%rax,1)
  401f4d:	00 00 00 

0000000000401f50 <call_periph_mskd_val>:
  401f50:	eb de                	jmp    401f30 <periph_mskd_val.constprop.9>
  401f52:	0f 1f 40 00          	nopl   0x0(%rax)
  401f56:	66 2e 0f 1f 84 00 00 	nopw   %cs:0x0(%rax,%rax,1)
  401f5d:	00 00 00 

0000000000401f60 <reg_bits_ref.constprop.10>:
  401f60:	8b 04 25 c4 02 70 00 	mov    0x7002c4,%eax
  401f67:	83 c8 40             	or     $0x40,%eax
  401f6a:	89 04 25 c4 02 70 00 	mov    %eax,0x7002c4
  401f71:	c3                   	retq   
  401f72:	0f 1f 40 00          	nopl   0x0(%rax)
  401f76:	66 2e 0f 1f 84 00 00 	nopw   %cs:0x0(%rax,%rax,1)
  401f7d:	00 00 00 

0000000000401f80 <call_reg_bits_ref>:
  401f80:	48 83 ec 18          	sub    $0x18,%rsp
  401f84:	48 89 e7             	mov    %rsp,%rdi
  401f87:	c7 04 24 04 00 00 00 	movl   $0x4,(%rsp)
  401f8e:	e8 cd ff ff ff       	callq  401f60 <reg_bits_ref.constprop.10>
  401f93:	48 83 c4 18          	add    $0x18,%rsp
  401f97:	c3                   	retq   
  401f98:	0f 1f 84 00 00 00 00 	nopl   0x0(%rax,%rax,1)
  401f9f:	00 

0000000000401fa0 <periph_bits_ref.constprop.11>:
  401fa0:	8b 04 25 c4 02 70 00 	mov    0x7002c4,%eax
  401fa7:	83 c8 40             	or     $0x40,%eax
  401faa:	89 04 25 c4 02 70 00 	mov    %eax,0x7002c4
  401fb1:	c3                   	retq   
  401fb2:	0f 1f 40 00          	nopl   0x0(%rax)
  401fb6:	66 2e 0f 1f 84 00 00 	nopw   %cs:0x0(%rax,%rax,1)
  401fbd:	00 00 00 

0000000000401fc0 <call_periph_bits_ref>:
  401fc0:	48 83 ec 18          	sub    $0x18,%rsp
  401fc4:	48 89 e7             	mov    %rsp,%rdi
  401fc7:	c7 04 24 04 00 00 00 	movl   $0x4,(%rsp)
  401fce:	e8 cd ff ff ff       	callq  401fa0 <periph_bits_ref.constprop.11>
  401fd3:	48 83 c4 18          	add    $0x18,%rsp
  401fd7:	c3                   	retq   
  401fd8:	0f 1f 84 00 00 00 00 	nopl   0x0(%rax,%rax,1)
  401fdf:	00 

0000000000401fe0 <reg_bits_val.constprop.12>:
  401fe0:	8b 04 25 c4 02 70 00 	mov    0x7002c4,%eax
  401fe7:	83 c8 40             	or     $0x40,%eax
  401fea:	89 04 25 c4 02 70 00 	mov    %eax,0x7002c4
  401ff1:	c3                   	retq   
  401ff2:	0f 1f 40 00          	nopl   0x0(%rax)
  401ff6:	66 2e 0f 1f 84 00 00 	nopw   %cs:0x0(%rax,%rax,1)
  401ffd:	00 00 00 

0000000000402000 <call_reg_bits_val>:
  402000:	eb de                	jmp    401fe0 <reg_bits_val.constprop.12>
  402002:	0f 1f 40 00          	nopl   0x0(%rax)
  402006:	66 2e 0f 1f 84 00 00 	nopw   %cs:0x0(%rax,%rax,1)
  40200d:	00 00 00 

0000000000402010 <periph_bits_val.constprop.13>:
  402010:	8b 04 25 c4 02 70 00 	mov    0x7002c4,%eax
  402017:	83 c8 40             	or     $0x40,%eax
  40201a:	89 04 25 c4 02 70 00 	mov    %eax,0x7002c4
  402021:	c3                   	retq   
  402022:	0f 1f 40 00          	nopl   0x0(%rax)
  402026:	66 2e 0f 1f 84 00 00 	nopw   %cs:0x0(%rax,%rax,1)
  40202d:	00 00 00 

0000000000402030 <call_periph_bits_val>:
  402030:	eb de                	jmp    402010 <periph_bits_val.constprop.13>
  402032:	0f 1f 40 00          	nopl   0x0(%rax)
  402036:	66 2e 0f 1f 84 00 00 	nopw   %cs:0x0(%rax,%rax,1)
  40203d:	00 00 00 

0000000000402040 <mskd_ref.constprop.14>:
  402040:	8b 06                	mov    (%rsi),%eax
  402042:	83 e0 03             	and    $0x3,%eax
  402045:	8d 14 00             	lea    (%rax,%rax,1),%edx
  402048:	8b 04 25 c4 02 70 00 	mov    0x7002c4,%eax
  40204f:	83 e0 f9             	and    $0xfffffff9,%eax
  402052:	09 d0                	or     %edx,%eax
  402054:	89 04 25 c4 02 70 00 	mov    %eax,0x7002c4
  40205b:	8b 06                	mov    (%rsi),%eax
  40205d:	83 e0 03             	and    $0x3,%eax
  402060:	8d 14 00             	lea    (%rax,%rax,1),%edx
  402063:	8b 04 25 c4 02 70 00 	mov    0x7002c4,%eax
  40206a:	83 e0 f9             	and    $0xfffffff9,%eax
  40206d:	09 d0                	or     %edx,%eax
  40206f:	89 04 25 c4 02 70 00 	mov    %eax,0x7002c4
  402076:	c3                   	retq   
  402077:	66 0f 1f 84 00 00 00 	nopw   0x0(%rax,%rax,1)
  40207e:	00 00 

0000000000402080 <call_mskd_ref_const>:
  402080:	48 83 ec 28          	sub    $0x28,%rsp
  402084:	48 8d 74 24 10       	lea    0x10(%rsp),%rsi
  402089:	48 89 e7             	mov    %rsp,%rdi
  40208c:	c7 04 24 01 00 00 00 	movl   $0x1,(%rsp)
  402093:	c7 44 24 10 02 00 00 	movl   $0x2,0x10(%rsp)
  40209a:	00 
  40209b:	e8 a0 ff ff ff       	callq  402040 <mskd_ref.constprop.14>
  4020a0:	48 83 c4 28          	add    $0x28,%rsp
  4020a4:	c3                   	retq   
  4020a5:	90                   	nop
  4020a6:	66 2e 0f 1f 84 00 00 	nopw   %cs:0x0(%rax,%rax,1)
  4020ad:	00 00 00 

00000000004020b0 <call_mskd_ref_var>:
  4020b0:	48 83 ec 28          	sub    $0x28,%rsp
  4020b4:	48 8d 74 24 10       	lea    0x10(%rsp),%rsi
  4020b9:	48 89 e7             	mov    %rsp,%rdi
  4020bc:	c7 04 24 01 00 00 00 	movl   $0x1,(%rsp)
  4020c3:	c7 44 24 10 01 00 00 	movl   $0x1,0x10(%rsp)
  4020ca:	00 
  4020cb:	e8 70 ff ff ff       	callq  402040 <mskd_ref.constprop.14>
  4020d0:	48 83 c4 28          	add    $0x28,%rsp
  4020d4:	c3                   	retq   
  4020d5:	90                   	nop
  4020d6:	66 2e 0f 1f 84 00 00 	nopw   %cs:0x0(%rax,%rax,1)
  4020dd:	00 00 00 

00000000004020e0 <call_mskd_ref_global>:
  4020e0:	48 83 ec 28          	sub    $0x28,%rsp
  4020e4:	48 8d 74 24 10       	lea    0x10(%rsp),%rsi
  4020e9:	48 89 e7             	mov    %rsp,%rdi
  4020ec:	c7 04 24 01 00 00 00 	movl   $0x1,(%rsp)
  4020f3:	c7 44 24 10 01 00 00 	movl   $0x1,0x10(%rsp)
  4020fa:	00 
  4020fb:	e8 40 ff ff ff       	callq  402040 <mskd_ref.constprop.14>
  402100:	48 83 c4 28          	add    $0x28,%rsp
  402104:	c3                   	retq   
  402105:	90                   	nop
  402106:	66 2e 0f 1f 84 00 00 	nopw   %cs:0x0(%rax,%rax,1)
  40210d:	00 00 00 

0000000000402110 <mskd_val.constprop.15>:
  402110:	8b 04 25 c4 02 70 00 	mov    0x7002c4,%eax
  402117:	83 e0 f9             	and    $0xfffffff9,%eax
  40211a:	83 c8 02             	or     $0x2,%eax
  40211d:	89 04 25 c4 02 70 00 	mov    %eax,0x7002c4
  402124:	8b 04 25 c4 02 70 00 	mov    0x7002c4,%eax
  40212b:	83 e0 f9             	and    $0xfffffff9,%eax
  40212e:	83 c8 02             	or     $0x2,%eax
  402131:	89 04 25 c4 02 70 00 	mov    %eax,0x7002c4
  402138:	c3                   	retq   
  402139:	0f 1f 80 00 00 00 00 	nopl   0x0(%rax)

0000000000402140 <call_mskd_val_const>:
  402140:	e8 cb ff ff ff       	callq  402110 <mskd_val.constprop.15>
  402145:	eb c9                	jmp    402110 <mskd_val.constprop.15>
  402147:	66 0f 1f 84 00 00 00 	nopw   0x0(%rax,%rax,1)
  40214e:	00 00 

0000000000402150 <call_mskd_val_var>:
  402150:	e8 bb ff ff ff       	callq  402110 <mskd_val.constprop.15>
  402155:	eb b9                	jmp    402110 <mskd_val.constprop.15>
  402157:	66 0f 1f 84 00 00 00 	nopw   0x0(%rax,%rax,1)
  40215e:	00 00 

0000000000402160 <call_mskd_val_global>:
  402160:	eb ae                	jmp    402110 <mskd_val.constprop.15>
  402162:	0f 1f 40 00          	nopl   0x0(%rax)
  402166:	66 2e 0f 1f 84 00 00 	nopw   %cs:0x0(%rax,%rax,1)
  40216d:	00 00 00 

0000000000402170 <bits_ref.constprop.16>:
  402170:	8b 04 25 c4 02 70 00 	mov    0x7002c4,%eax
  402177:	83 c8 01             	or     $0x1,%eax
  40217a:	89 04 25 c4 02 70 00 	mov    %eax,0x7002c4
  402181:	8b 16                	mov    (%rsi),%edx
  402183:	8b 04 25 c4 02 70 00 	mov    0x7002c4,%eax
  40218a:	83 e2 01             	and    $0x1,%edx
  40218d:	83 e0 fe             	and    $0xfffffffe,%eax
  402190:	09 d0                	or     %edx,%eax
  402192:	89 04 25 c4 02 70 00 	mov    %eax,0x7002c4
  402199:	c3                   	retq   
  40219a:	66 0f 1f 44 00 00    	nopw   0x0(%rax,%rax,1)

00000000004021a0 <call_bits_ref_const>:
  4021a0:	48 83 ec 28          	sub    $0x28,%rsp
  4021a4:	48 8d 74 24 10       	lea    0x10(%rsp),%rsi
  4021a9:	48 89 e7             	mov    %rsp,%rdi
  4021ac:	c7 04 24 00 00 00 00 	movl   $0x0,(%rsp)
  4021b3:	c7 44 24 10 01 00 00 	movl   $0x1,0x10(%rsp)
  4021ba:	00 
  4021bb:	e8 b0 ff ff ff       	callq  402170 <bits_ref.constprop.16>
  4021c0:	48 83 c4 28          	add    $0x28,%rsp
  4021c4:	c3                   	retq   
  4021c5:	90                   	nop
  4021c6:	66 2e 0f 1f 84 00 00 	nopw   %cs:0x0(%rax,%rax,1)
  4021cd:	00 00 00 

00000000004021d0 <call_bits_ref_var>:
  4021d0:	48 83 ec 28          	sub    $0x28,%rsp
  4021d4:	48 8d 74 24 10       	lea    0x10(%rsp),%rsi
  4021d9:	48 89 e7             	mov    %rsp,%rdi
  4021dc:	c7 04 24 00 00 00 00 	movl   $0x0,(%rsp)
  4021e3:	c7 44 24 10 01 00 00 	movl   $0x1,0x10(%rsp)
  4021ea:	00 
  4021eb:	e8 80 ff ff ff       	callq  402170 <bits_ref.constprop.16>
  4021f0:	48 83 c4 28          	add    $0x28,%rsp
  4021f4:	c3                   	retq   
  4021f5:	90                   	nop
  4021f6:	66 2e 0f 1f 84 00 00 	nopw   %cs:0x0(%rax,%rax,1)
  4021fd:	00 00 00 

0000000000402200 <bits_ref.constprop.17>:
  402200:	8b 16                	mov    (%rsi),%edx
  402202:	8b 04 25 c4 02 70 00 	mov    0x7002c4,%eax
  402209:	83 e2 01             	and    $0x1,%edx
  40220c:	83 e0 bf             	and    $0xffffffbf,%eax
  40220f:	c1 e2 06             	shl    $0x6,%edx
  402212:	09 d0                	or     %edx,%eax
  402214:	89 04 25 c4 02 70 00 	mov    %eax,0x7002c4
  40221b:	8b 16                	mov    (%rsi),%edx
  40221d:	8b 04 25 c4 02 70 00 	mov    0x7002c4,%eax
  402224:	83 e2 01             	and    $0x1,%edx
  402227:	c1 e2 06             	shl    $0x6,%edx
  40222a:	83 e0 bf             	and    $0xffffffbf,%eax
  40222d:	09 d0                	or     %edx,%eax
  40222f:	89 04 25 c4 02 70 00 	mov    %eax,0x7002c4
  402236:	c3                   	retq   
  402237:	66 0f 1f 84 00 00 00 	nopw   0x0(%rax,%rax,1)
  40223e:	00 00 

0000000000402240 <call_bits_ref_global>:
  402240:	48 83 ec 28          	sub    $0x28,%rsp
  402244:	48 8d 74 24 10       	lea    0x10(%rsp),%rsi
  402249:	48 89 e7             	mov    %rsp,%rdi
  40224c:	c7 04 24 04 00 00 00 	movl   $0x4,(%rsp)
  402253:	c7 44 24 10 01 00 00 	movl   $0x1,0x10(%rsp)
  40225a:	00 
  40225b:	e8 a0 ff ff ff       	callq  402200 <bits_ref.constprop.17>
  402260:	48 83 c4 28          	add    $0x28,%rsp
  402264:	c3                   	retq   
  402265:	90                   	nop
  402266:	66 2e 0f 1f 84 00 00 	nopw   %cs:0x0(%rax,%rax,1)
  40226d:	00 00 00 

0000000000402270 <bits_val.constprop.18>:
  402270:	8b 04 25 c4 02 70 00 	mov    0x7002c4,%eax
  402277:	83 c8 40             	or     $0x40,%eax
  40227a:	89 04 25 c4 02 70 00 	mov    %eax,0x7002c4
  402281:	8b 04 25 c4 02 70 00 	mov    0x7002c4,%eax
  402288:	83 c8 40             	or     $0x40,%eax
  40228b:	89 04 25 c4 02 70 00 	mov    %eax,0x7002c4
  402292:	c3                   	retq   
  402293:	0f 1f 00             	nopl   (%rax)
  402296:	66 2e 0f 1f 84 00 00 	nopw   %cs:0x0(%rax,%rax,1)
  40229d:	00 00 00 

00000000004022a0 <call_bits_val_const>:
  4022a0:	eb ce                	jmp    402270 <bits_val.constprop.18>
  4022a2:	0f 1f 40 00          	nopl   0x0(%rax)
  4022a6:	66 2e 0f 1f 84 00 00 	nopw   %cs:0x0(%rax,%rax,1)
  4022ad:	00 00 00 

00000000004022b0 <call_bits_val_var>:
  4022b0:	eb be                	jmp    402270 <bits_val.constprop.18>
  4022b2:	0f 1f 40 00          	nopl   0x0(%rax)
  4022b6:	66 2e 0f 1f 84 00 00 	nopw   %cs:0x0(%rax,%rax,1)
  4022bd:	00 00 00 

00000000004022c0 <call_bits_val_global>:
  4022c0:	eb ae                	jmp    402270 <bits_val.constprop.18>
  4022c2:	0f 1f 40 00          	nopl   0x0(%rax)
  4022c6:	66 2e 0f 1f 84 00 00 	nopw   %cs:0x0(%rax,%rax,1)
  4022cd:	00 00 00 

00000000004022d0 <bits_val>:
  4022d0:	83 ff 03             	cmp    $0x3,%edi
  4022d3:	74 73                	je     402348 <bits_val+0x78>
  4022d5:	83 ff 04             	cmp    $0x4,%edi
  4022d8:	74 3e                	je     402318 <bits_val+0x48>
  4022da:	85 ff                	test   %edi,%edi
  4022dc:	74 0a                	je     4022e8 <bits_val+0x18>
  4022de:	66 90                	xchg   %ax,%ax
  4022e0:	f3 c3                	repz retq 
  4022e2:	66 0f 1f 44 00 00    	nopw   0x0(%rax,%rax,1)
  4022e8:	8b 04 25 c4 02 70 00 	mov    0x7002c4,%eax
  4022ef:	83 e6 01             	and    $0x1,%esi
  4022f2:	83 e0 fe             	and    $0xfffffffe,%eax
  4022f5:	09 f0                	or     %esi,%eax
  4022f7:	89 04 25 c4 02 70 00 	mov    %eax,0x7002c4
  4022fe:	8b 04 25 c4 02 70 00 	mov    0x7002c4,%eax
  402305:	83 e0 fe             	and    $0xfffffffe,%eax
  402308:	09 f0                	or     %esi,%eax
  40230a:	89 04 25 c4 02 70 00 	mov    %eax,0x7002c4
  402311:	c3                   	retq   
  402312:	66 0f 1f 44 00 00    	nopw   0x0(%rax,%rax,1)
  402318:	8b 04 25 c4 02 70 00 	mov    0x7002c4,%eax
  40231f:	83 e6 01             	and    $0x1,%esi
  402322:	c1 e6 06             	shl    $0x6,%esi
  402325:	83 e0 bf             	and    $0xffffffbf,%eax
  402328:	09 f0                	or     %esi,%eax
  40232a:	89 04 25 c4 02 70 00 	mov    %eax,0x7002c4
  402331:	8b 04 25 c4 02 70 00 	mov    0x7002c4,%eax
  402338:	83 e0 bf             	and    $0xffffffbf,%eax
  40233b:	09 f0                	or     %esi,%eax
  40233d:	89 04 25 c4 02 70 00 	mov    %eax,0x7002c4
  402344:	c3                   	retq   
  402345:	0f 1f 00             	nopl   (%rax)
  402348:	8b 04 25 c4 02 70 00 	mov    0x7002c4,%eax
  40234f:	83 e6 01             	and    $0x1,%esi
  402352:	c1 e6 05             	shl    $0x5,%esi
  402355:	83 e0 df             	and    $0xffffffdf,%eax
  402358:	09 f0                	or     %esi,%eax
  40235a:	89 04 25 c4 02 70 00 	mov    %eax,0x7002c4
  402361:	8b 04 25 c4 02 70 00 	mov    0x7002c4,%eax
  402368:	83 e0 df             	and    $0xffffffdf,%eax
  40236b:	09 f0                	or     %esi,%eax
  40236d:	89 04 25 c4 02 70 00 	mov    %eax,0x7002c4
  402374:	c3                   	retq   
  402375:	90                   	nop
  402376:	66 2e 0f 1f 84 00 00 	nopw   %cs:0x0(%rax,%rax,1)
  40237d:	00 00 00 

0000000000402380 <bits_ref>:
  402380:	8b 07                	mov    (%rdi),%eax
  402382:	83 f8 03             	cmp    $0x3,%eax
  402385:	0f 84 85 00 00 00    	je     402410 <bits_ref+0x90>
  40238b:	83 f8 04             	cmp    $0x4,%eax
  40238e:	74 48                	je     4023d8 <bits_ref+0x58>
  402390:	85 c0                	test   %eax,%eax
  402392:	74 0c                	je     4023a0 <bits_ref+0x20>
  402394:	f3 c3                	repz retq 
  402396:	66 2e 0f 1f 84 00 00 	nopw   %cs:0x0(%rax,%rax,1)
  40239d:	00 00 00 
  4023a0:	8b 04 25 c4 02 70 00 	mov    0x7002c4,%eax
  4023a7:	8b 16                	mov    (%rsi),%edx
  4023a9:	83 e0 fe             	and    $0xfffffffe,%eax
  4023ac:	83 e2 01             	and    $0x1,%edx
  4023af:	09 d0                	or     %edx,%eax
  4023b1:	89 04 25 c4 02 70 00 	mov    %eax,0x7002c4
  4023b8:	8b 16                	mov    (%rsi),%edx
  4023ba:	8b 04 25 c4 02 70 00 	mov    0x7002c4,%eax
  4023c1:	83 e2 01             	and    $0x1,%edx
  4023c4:	83 e0 fe             	and    $0xfffffffe,%eax
  4023c7:	09 d0                	or     %edx,%eax
  4023c9:	89 04 25 c4 02 70 00 	mov    %eax,0x7002c4
  4023d0:	c3                   	retq   
  4023d1:	0f 1f 80 00 00 00 00 	nopl   0x0(%rax)
  4023d8:	8b 16                	mov    (%rsi),%edx
  4023da:	8b 04 25 c4 02 70 00 	mov    0x7002c4,%eax
  4023e1:	83 e2 01             	and    $0x1,%edx
  4023e4:	83 e0 bf             	and    $0xffffffbf,%eax
  4023e7:	c1 e2 06             	shl    $0x6,%edx
  4023ea:	09 d0                	or     %edx,%eax
  4023ec:	89 04 25 c4 02 70 00 	mov    %eax,0x7002c4
  4023f3:	8b 16                	mov    (%rsi),%edx
  4023f5:	8b 04 25 c4 02 70 00 	mov    0x7002c4,%eax
  4023fc:	83 e2 01             	and    $0x1,%edx
  4023ff:	c1 e2 06             	shl    $0x6,%edx
  402402:	83 e0 bf             	and    $0xffffffbf,%eax
  402405:	09 d0                	or     %edx,%eax
  402407:	89 04 25 c4 02 70 00 	mov    %eax,0x7002c4
  40240e:	c3                   	retq   
  40240f:	90                   	nop
  402410:	8b 16                	mov    (%rsi),%edx
  402412:	8b 04 25 c4 02 70 00 	mov    0x7002c4,%eax
  402419:	83 e2 01             	and    $0x1,%edx
  40241c:	83 e0 df             	and    $0xffffffdf,%eax
  40241f:	c1 e2 05             	shl    $0x5,%edx
  402422:	09 d0                	or     %edx,%eax
  402424:	89 04 25 c4 02 70 00 	mov    %eax,0x7002c4
  40242b:	8b 16                	mov    (%rsi),%edx
  40242d:	8b 04 25 c4 02 70 00 	mov    0x7002c4,%eax
  402434:	83 e2 01             	and    $0x1,%edx
  402437:	c1 e2 05             	shl    $0x5,%edx
  40243a:	83 e0 df             	and    $0xffffffdf,%eax
  40243d:	09 d0                	or     %edx,%eax
  40243f:	89 04 25 c4 02 70 00 	mov    %eax,0x7002c4
  402446:	c3                   	retq   
  402447:	66 0f 1f 84 00 00 00 	nopw   0x0(%rax,%rax,1)
  40244e:	00 00 

0000000000402450 <mskd_val>:
  402450:	83 ff 06             	cmp    $0x6,%edi
  402453:	77 3b                	ja     402490 <mskd_val+0x40>
  402455:	89 ff                	mov    %edi,%edi
  402457:	ff 24 fd a8 38 40 00 	jmpq   *0x4038a8(,%rdi,8)
  40245e:	66 90                	xchg   %ax,%ax
  402460:	8b 04 25 c4 02 70 00 	mov    0x7002c4,%eax
  402467:	83 e6 1f             	and    $0x1f,%esi
  40246a:	c1 e6 0c             	shl    $0xc,%esi
  40246d:	25 ff 0f fe ff       	and    $0xfffe0fff,%eax
  402472:	09 f0                	or     %esi,%eax
  402474:	89 04 25 c4 02 70 00 	mov    %eax,0x7002c4
  40247b:	8b 04 25 c4 02 70 00 	mov    0x7002c4,%eax
  402482:	25 ff 0f fe ff       	and    $0xfffe0fff,%eax
  402487:	09 f0                	or     %esi,%eax
  402489:	89 04 25 c4 02 70 00 	mov    %eax,0x7002c4
  402490:	f3 c3                	repz retq 
  402492:	66 0f 1f 44 00 00    	nopw   0x0(%rax,%rax,1)
  402498:	8b 04 25 c4 02 70 00 	mov    0x7002c4,%eax
  40249f:	83 e6 03             	and    $0x3,%esi
  4024a2:	c1 e6 03             	shl    $0x3,%esi
  4024a5:	83 e0 e7             	and    $0xffffffe7,%eax
  4024a8:	09 f0                	or     %esi,%eax
  4024aa:	89 04 25 c4 02 70 00 	mov    %eax,0x7002c4
  4024b1:	8b 04 25 c4 02 70 00 	mov    0x7002c4,%eax
  4024b8:	83 e0 e7             	and    $0xffffffe7,%eax
  4024bb:	09 f0                	or     %esi,%eax
  4024bd:	89 04 25 c4 02 70 00 	mov    %eax,0x7002c4
  4024c4:	c3                   	retq   
  4024c5:	0f 1f 00             	nopl   (%rax)
  4024c8:	8b 04 25 c4 02 70 00 	mov    0x7002c4,%eax
  4024cf:	83 e6 01             	and    $0x1,%esi
  4024d2:	c1 e6 05             	shl    $0x5,%esi
  4024d5:	83 e0 df             	and    $0xffffffdf,%eax
  4024d8:	09 f0                	or     %esi,%eax
  4024da:	89 04 25 c4 02 70 00 	mov    %eax,0x7002c4
  4024e1:	8b 04 25 c4 02 70 00 	mov    0x7002c4,%eax
  4024e8:	83 e0 df             	and    $0xffffffdf,%eax
  4024eb:	09 f0                	or     %esi,%eax
  4024ed:	89 04 25 c4 02 70 00 	mov    %eax,0x7002c4
  4024f4:	c3                   	retq   
  4024f5:	0f 1f 00             	nopl   (%rax)
  4024f8:	8b 04 25 c4 02 70 00 	mov    0x7002c4,%eax
  4024ff:	83 e6 01             	and    $0x1,%esi
  402502:	83 e0 fe             	and    $0xfffffffe,%eax
  402505:	09 f0                	or     %esi,%eax
  402507:	89 04 25 c4 02 70 00 	mov    %eax,0x7002c4
  40250e:	8b 04 25 c4 02 70 00 	mov    0x7002c4,%eax
  402515:	83 e0 fe             	and    $0xfffffffe,%eax
  402518:	09 f0                	or     %esi,%eax
  40251a:	89 04 25 c4 02 70 00 	mov    %eax,0x7002c4
  402521:	c3                   	retq   
  402522:	66 0f 1f 44 00 00    	nopw   0x0(%rax,%rax,1)
  402528:	8b 04 25 c4 02 70 00 	mov    0x7002c4,%eax
  40252f:	83 e6 03             	and    $0x3,%esi
  402532:	01 f6                	add    %esi,%esi
  402534:	83 e0 f9             	and    $0xfffffff9,%eax
  402537:	09 f0                	or     %esi,%eax
  402539:	89 04 25 c4 02 70 00 	mov    %eax,0x7002c4
  402540:	8b 04 25 c4 02 70 00 	mov    0x7002c4,%eax
  402547:	83 e0 f9             	and    $0xfffffff9,%eax
  40254a:	09 f0                	or     %esi,%eax
  40254c:	89 04 25 c4 02 70 00 	mov    %eax,0x7002c4
  402553:	c3                   	retq   
  402554:	0f 1f 40 00          	nopl   0x0(%rax)
  402558:	8b 04 25 c4 02 70 00 	mov    0x7002c4,%eax
  40255f:	83 e6 1f             	and    $0x1f,%esi
  402562:	c1 e6 07             	shl    $0x7,%esi
  402565:	25 7f f0 ff ff       	and    $0xfffff07f,%eax
  40256a:	09 f0                	or     %esi,%eax
  40256c:	89 04 25 c4 02 70 00 	mov    %eax,0x7002c4
  402573:	8b 04 25 c4 02 70 00 	mov    0x7002c4,%eax
  40257a:	25 7f f0 ff ff       	and    $0xfffff07f,%eax
  40257f:	09 f0                	or     %esi,%eax
  402581:	89 04 25 c4 02 70 00 	mov    %eax,0x7002c4
  402588:	c3                   	retq   
  402589:	0f 1f 80 00 00 00 00 	nopl   0x0(%rax)

0000000000402590 <mskd_ref>:
  402590:	83 3f 06             	cmpl   $0x6,(%rdi)
  402593:	77 45                	ja     4025da <mskd_ref+0x4a>
  402595:	8b 07                	mov    (%rdi),%eax
  402597:	ff 24 c5 e0 38 40 00 	jmpq   *0x4038e0(,%rax,8)
  40259e:	66 90                	xchg   %ax,%ax
  4025a0:	8b 16                	mov    (%rsi),%edx
  4025a2:	8b 04 25 c4 02 70 00 	mov    0x7002c4,%eax
  4025a9:	83 e2 1f             	and    $0x1f,%edx
  4025ac:	25 ff 0f fe ff       	and    $0xfffe0fff,%eax
  4025b1:	c1 e2 0c             	shl    $0xc,%edx
  4025b4:	09 d0                	or     %edx,%eax
  4025b6:	89 04 25 c4 02 70 00 	mov    %eax,0x7002c4
  4025bd:	8b 16                	mov    (%rsi),%edx
  4025bf:	8b 04 25 c4 02 70 00 	mov    0x7002c4,%eax
  4025c6:	83 e2 1f             	and    $0x1f,%edx
  4025c9:	c1 e2 0c             	shl    $0xc,%edx
  4025cc:	25 ff 0f fe ff       	and    $0xfffe0fff,%eax
  4025d1:	09 d0                	or     %edx,%eax
  4025d3:	89 04 25 c4 02 70 00 	mov    %eax,0x7002c4
  4025da:	f3 c3                	repz retq 
  4025dc:	0f 1f 40 00          	nopl   0x0(%rax)
  4025e0:	8b 06                	mov    (%rsi),%eax
  4025e2:	83 e0 03             	and    $0x3,%eax
  4025e5:	8d 14 c5 00 00 00 00 	lea    0x0(,%rax,8),%edx
  4025ec:	8b 04 25 c4 02 70 00 	mov    0x7002c4,%eax
  4025f3:	83 e0 e7             	and    $0xffffffe7,%eax
  4025f6:	09 d0                	or     %edx,%eax
  4025f8:	89 04 25 c4 02 70 00 	mov    %eax,0x7002c4
  4025ff:	8b 06                	mov    (%rsi),%eax
  402601:	83 e0 03             	and    $0x3,%eax
  402604:	8d 14 c5 00 00 00 00 	lea    0x0(,%rax,8),%edx
  40260b:	8b 04 25 c4 02 70 00 	mov    0x7002c4,%eax
  402612:	83 e0 e7             	and    $0xffffffe7,%eax
  402615:	09 d0                	or     %edx,%eax
  402617:	89 04 25 c4 02 70 00 	mov    %eax,0x7002c4
  40261e:	c3                   	retq   
  40261f:	90                   	nop
  402620:	8b 16                	mov    (%rsi),%edx
  402622:	8b 04 25 c4 02 70 00 	mov    0x7002c4,%eax
  402629:	83 e2 01             	and    $0x1,%edx
  40262c:	83 e0 df             	and    $0xffffffdf,%eax
  40262f:	c1 e2 05             	shl    $0x5,%edx
  402632:	09 d0                	or     %edx,%eax
  402634:	89 04 25 c4 02 70 00 	mov    %eax,0x7002c4
  40263b:	8b 16                	mov    (%rsi),%edx
  40263d:	8b 04 25 c4 02 70 00 	mov    0x7002c4,%eax
  402644:	83 e2 01             	and    $0x1,%edx
  402647:	c1 e2 05             	shl    $0x5,%edx
  40264a:	83 e0 df             	and    $0xffffffdf,%eax
  40264d:	09 d0                	or     %edx,%eax
  40264f:	89 04 25 c4 02 70 00 	mov    %eax,0x7002c4
  402656:	c3                   	retq   
  402657:	66 0f 1f 84 00 00 00 	nopw   0x0(%rax,%rax,1)
  40265e:	00 00 
  402660:	8b 04 25 c4 02 70 00 	mov    0x7002c4,%eax
  402667:	8b 16                	mov    (%rsi),%edx
  402669:	83 e0 fe             	and    $0xfffffffe,%eax
  40266c:	83 e2 01             	and    $0x1,%edx
  40266f:	09 d0                	or     %edx,%eax
  402671:	89 04 25 c4 02 70 00 	mov    %eax,0x7002c4
  402678:	8b 16                	mov    (%rsi),%edx
  40267a:	8b 04 25 c4 02 70 00 	mov    0x7002c4,%eax
  402681:	83 e2 01             	and    $0x1,%edx
  402684:	83 e0 fe             	and    $0xfffffffe,%eax
  402687:	09 d0                	or     %edx,%eax
  402689:	89 04 25 c4 02 70 00 	mov    %eax,0x7002c4
  402690:	c3                   	retq   
  402691:	0f 1f 80 00 00 00 00 	nopl   0x0(%rax)
  402698:	8b 06                	mov    (%rsi),%eax
  40269a:	83 e0 03             	and    $0x3,%eax
  40269d:	8d 14 00             	lea    (%rax,%rax,1),%edx
  4026a0:	8b 04 25 c4 02 70 00 	mov    0x7002c4,%eax
  4026a7:	83 e0 f9             	and    $0xfffffff9,%eax
  4026aa:	09 d0                	or     %edx,%eax
  4026ac:	89 04 25 c4 02 70 00 	mov    %eax,0x7002c4
  4026b3:	8b 06                	mov    (%rsi),%eax
  4026b5:	83 e0 03             	and    $0x3,%eax
  4026b8:	8d 14 00             	lea    (%rax,%rax,1),%edx
  4026bb:	8b 04 25 c4 02 70 00 	mov    0x7002c4,%eax
  4026c2:	83 e0 f9             	and    $0xfffffff9,%eax
  4026c5:	09 d0                	or     %edx,%eax
  4026c7:	89 04 25 c4 02 70 00 	mov    %eax,0x7002c4
  4026ce:	c3                   	retq   
  4026cf:	90                   	nop
  4026d0:	8b 16                	mov    (%rsi),%edx
  4026d2:	8b 04 25 c4 02 70 00 	mov    0x7002c4,%eax
  4026d9:	83 e2 1f             	and    $0x1f,%edx
  4026dc:	25 7f f0 ff ff       	and    $0xfffff07f,%eax
  4026e1:	c1 e2 07             	shl    $0x7,%edx
  4026e4:	09 d0                	or     %edx,%eax
  4026e6:	89 04 25 c4 02 70 00 	mov    %eax,0x7002c4
  4026ed:	8b 16                	mov    (%rsi),%edx
  4026ef:	8b 04 25 c4 02 70 00 	mov    0x7002c4,%eax
  4026f6:	83 e2 1f             	and    $0x1f,%edx
  4026f9:	c1 e2 07             	shl    $0x7,%edx
  4026fc:	25 7f f0 ff ff       	and    $0xfffff07f,%eax
  402701:	09 d0                	or     %edx,%eax
  402703:	89 04 25 c4 02 70 00 	mov    %eax,0x7002c4
  40270a:	c3                   	retq   
  40270b:	0f 1f 44 00 00       	nopl   0x0(%rax,%rax,1)

0000000000402710 <periph_bits>:
  402710:	8b 47 04             	mov    0x4(%rdi),%eax
  402713:	83 c8 40             	or     $0x40,%eax
  402716:	89 47 04             	mov    %eax,0x4(%rdi)
  402719:	c3                   	retq   
  40271a:	66 0f 1f 44 00 00    	nopw   0x0(%rax,%rax,1)

0000000000402720 <call_periph_bits>:
  402720:	bf c0 02 70 00       	mov    $0x7002c0,%edi
  402725:	eb e9                	jmp    402710 <periph_bits>
  402727:	66 0f 1f 84 00 00 00 	nopw   0x0(%rax,%rax,1)
  40272e:	00 00 

0000000000402730 <periph_bits_val>:
  402730:	83 fe 04             	cmp    $0x4,%esi
  402733:	75 09                	jne    40273e <periph_bits_val+0xe>
  402735:	8b 47 04             	mov    0x4(%rdi),%eax
  402738:	83 c8 40             	or     $0x40,%eax
  40273b:	89 47 04             	mov    %eax,0x4(%rdi)
  40273e:	f3 c3                	repz retq 

0000000000402740 <reg_bits_val>:
  402740:	83 fe 04             	cmp    $0x4,%esi
  402743:	75 07                	jne    40274c <reg_bits_val+0xc>
  402745:	8b 07                	mov    (%rdi),%eax
  402747:	83 c8 40             	or     $0x40,%eax
  40274a:	89 07                	mov    %eax,(%rdi)
  40274c:	f3 c3                	repz retq 
  40274e:	66 90                	xchg   %ax,%ax

0000000000402750 <periph_bits_ref>:
  402750:	83 3e 04             	cmpl   $0x4,(%rsi)
  402753:	75 09                	jne    40275e <periph_bits_ref+0xe>
  402755:	8b 47 04             	mov    0x4(%rdi),%eax
  402758:	83 c8 40             	or     $0x40,%eax
  40275b:	89 47 04             	mov    %eax,0x4(%rdi)
  40275e:	f3 c3                	repz retq 

0000000000402760 <reg_bits_ref>:
  402760:	83 3e 04             	cmpl   $0x4,(%rsi)
  402763:	75 07                	jne    40276c <reg_bits_ref+0xc>
  402765:	8b 07                	mov    (%rdi),%eax
  402767:	83 c8 40             	or     $0x40,%eax
  40276a:	89 07                	mov    %eax,(%rdi)
  40276c:	f3 c3                	repz retq 
  40276e:	66 90                	xchg   %ax,%ax

0000000000402770 <periph_mskd>:
  402770:	8b 47 04             	mov    0x4(%rdi),%eax
  402773:	83 e0 f9             	and    $0xfffffff9,%eax
  402776:	83 c8 02             	or     $0x2,%eax
  402779:	89 47 04             	mov    %eax,0x4(%rdi)
  40277c:	c3                   	retq   
  40277d:	0f 1f 00             	nopl   (%rax)

0000000000402780 <call_periph_mskd>:
  402780:	bf c0 02 70 00       	mov    $0x7002c0,%edi
  402785:	eb e9                	jmp    402770 <periph_mskd>
  402787:	66 0f 1f 84 00 00 00 	nopw   0x0(%rax,%rax,1)
  40278e:	00 00 

0000000000402790 <periph_mskd_val>:
  402790:	83 fe 01             	cmp    $0x1,%esi
  402793:	75 0c                	jne    4027a1 <periph_mskd_val+0x11>
  402795:	8b 47 04             	mov    0x4(%rdi),%eax
  402798:	83 e0 f9             	and    $0xfffffff9,%eax
  40279b:	83 c8 02             	or     $0x2,%eax
  40279e:	89 47 04             	mov    %eax,0x4(%rdi)
  4027a1:	f3 c3                	repz retq 
  4027a3:	0f 1f 00             	nopl   (%rax)
  4027a6:	66 2e 0f 1f 84 00 00 	nopw   %cs:0x0(%rax,%rax,1)
  4027ad:	00 00 00 

00000000004027b0 <reg_mskd_val>:
  4027b0:	83 fe 01             	cmp    $0x1,%esi
  4027b3:	75 0a                	jne    4027bf <reg_mskd_val+0xf>
  4027b5:	8b 07                	mov    (%rdi),%eax
  4027b7:	83 e0 f9             	and    $0xfffffff9,%eax
  4027ba:	83 c8 02             	or     $0x2,%eax
  4027bd:	89 07                	mov    %eax,(%rdi)
  4027bf:	f3 c3                	repz retq 
  4027c1:	0f 1f 44 00 00       	nopl   0x0(%rax,%rax,1)
  4027c6:	66 2e 0f 1f 84 00 00 	nopw   %cs:0x0(%rax,%rax,1)
  4027cd:	00 00 00 

00000000004027d0 <periph_mskd_ref>:
  4027d0:	83 3e 01             	cmpl   $0x1,(%rsi)
  4027d3:	75 0c                	jne    4027e1 <periph_mskd_ref+0x11>
  4027d5:	8b 47 04             	mov    0x4(%rdi),%eax
  4027d8:	83 e0 f9             	and    $0xfffffff9,%eax
  4027db:	83 c8 02             	or     $0x2,%eax
  4027de:	89 47 04             	mov    %eax,0x4(%rdi)
  4027e1:	f3 c3                	repz retq 
  4027e3:	0f 1f 00             	nopl   (%rax)
  4027e6:	66 2e 0f 1f 84 00 00 	nopw   %cs:0x0(%rax,%rax,1)
  4027ed:	00 00 00 

00000000004027f0 <reg_mskd_ref>:
  4027f0:	83 3e 01             	cmpl   $0x1,(%rsi)
  4027f3:	75 0a                	jne    4027ff <reg_mskd_ref+0xf>
  4027f5:	8b 07                	mov    (%rdi),%eax
  4027f7:	83 e0 f9             	and    $0xfffffff9,%eax
  4027fa:	83 c8 02             	or     $0x2,%eax
  4027fd:	89 07                	mov    %eax,(%rdi)
  4027ff:	f3 c3                	repz retq 
  402801:	0f 1f 44 00 00       	nopl   0x0(%rax,%rax,1)
  402806:	66 2e 0f 1f 84 00 00 	nopw   %cs:0x0(%rax,%rax,1)
  40280d:	00 00 00 

0000000000402810 <return_bits>:
  402810:	b8 01 00 00 00       	mov    $0x1,%eax
  402815:	c3                   	retq   
  402816:	66 2e 0f 1f 84 00 00 	nopw   %cs:0x0(%rax,%rax,1)
  40281d:	00 00 00 

0000000000402820 <call_return_bits>:
  402820:	31 c0                	xor    %eax,%eax
  402822:	e8 e9 ff ff ff       	callq  402810 <return_bits>
  402827:	83 f8 01             	cmp    $0x1,%eax
  40282a:	c7 04 25 24 02 70 00 	movl   $0x0,0x700224
  402831:	00 00 00 00 
  402835:	8b 04 25 24 02 70 00 	mov    0x700224,%eax
  40283c:	74 12                	je     402850 <call_return_bits+0x30>
  40283e:	0d 00 00 00 3e       	or     $0x3e000000,%eax
  402843:	89 04 25 24 02 70 00 	mov    %eax,0x700224
  40284a:	c3                   	retq   
  40284b:	0f 1f 44 00 00       	nopl   0x0(%rax,%rax,1)
  402850:	25 ff ff ff c1       	and    $0xc1ffffff,%eax
  402855:	0d 00 00 00 2a       	or     $0x2a000000,%eax
  40285a:	89 04 25 24 02 70 00 	mov    %eax,0x700224
  402861:	c3                   	retq   
  402862:	0f 1f 40 00          	nopl   0x0(%rax)
  402866:	66 2e 0f 1f 84 00 00 	nopw   %cs:0x0(%rax,%rax,1)
  40286d:	00 00 00 

0000000000402870 <return_mskd>:
  402870:	c7 07 02 00 00 00    	movl   $0x2,(%rdi)
  402876:	c7 06 01 00 00 00    	movl   $0x1,(%rsi)
  40287c:	c3                   	retq   
  40287d:	0f 1f 00             	nopl   (%rax)

0000000000402880 <call_return_mskd>:
  402880:	48 83 ec 28          	sub    $0x28,%rsp
  402884:	48 8d 74 24 10       	lea    0x10(%rsp),%rsi
  402889:	48 89 e7             	mov    %rsp,%rdi
  40288c:	e8 df ff ff ff       	callq  402870 <return_mskd>
  402891:	c7 04 25 24 02 70 00 	movl   $0x0,0x700224
  402898:	00 00 00 00 
  40289c:	83 3c 24 02          	cmpl   $0x2,(%rsp)
  4028a0:	74 1e                	je     4028c0 <call_return_mskd+0x40>
  4028a2:	8b 04 25 24 02 70 00 	mov    0x700224,%eax
  4028a9:	25 ff ff ff c1       	and    $0xc1ffffff,%eax
  4028ae:	0d 00 00 00 26       	or     $0x26000000,%eax
  4028b3:	89 04 25 24 02 70 00 	mov    %eax,0x700224
  4028ba:	48 83 c4 28          	add    $0x28,%rsp
  4028be:	c3                   	retq   
  4028bf:	90                   	nop
  4028c0:	83 7c 24 10 01       	cmpl   $0x1,0x10(%rsp)
  4028c5:	75 db                	jne    4028a2 <call_return_mskd+0x22>
  4028c7:	8b 04 25 24 02 70 00 	mov    0x700224,%eax
  4028ce:	25 ff ff ff c1       	and    $0xc1ffffff,%eax
  4028d3:	0d 00 00 00 22       	or     $0x22000000,%eax
  4028d8:	89 04 25 24 02 70 00 	mov    %eax,0x700224
  4028df:	eb d9                	jmp    4028ba <call_return_mskd+0x3a>
  4028e1:	0f 1f 44 00 00       	nopl   0x0(%rax,%rax,1)
  4028e6:	66 2e 0f 1f 84 00 00 	nopw   %cs:0x0(%rax,%rax,1)
  4028ed:	00 00 00 

00000000004028f0 <return_reg>:
  4028f0:	c7 04 25 c4 02 70 00 	movl   $0x0,0x7002c4
  4028f7:	00 00 00 00 
  4028fb:	8b 04 25 c4 02 70 00 	mov    0x7002c4,%eax
  402902:	83 c8 40             	or     $0x40,%eax
  402905:	89 04 25 c4 02 70 00 	mov    %eax,0x7002c4
  40290c:	b8 c4 02 70 00       	mov    $0x7002c4,%eax
  402911:	c3                   	retq   
  402912:	0f 1f 40 00          	nopl   0x0(%rax)
  402916:	66 2e 0f 1f 84 00 00 	nopw   %cs:0x0(%rax,%rax,1)
  40291d:	00 00 00 

0000000000402920 <call_return_reg>:
  402920:	31 c0                	xor    %eax,%eax
  402922:	e8 c9 ff ff ff       	callq  4028f0 <return_reg>
  402927:	c7 04 25 24 02 70 00 	movl   $0x0,0x700224
  40292e:	00 00 00 00 
  402932:	8b 00                	mov    (%rax),%eax
  402934:	a8 40                	test   $0x40,%al
  402936:	8b 04 25 24 02 70 00 	mov    0x700224,%eax
  40293d:	75 19                	jne    402958 <call_return_reg+0x38>
  40293f:	25 ff ff ff c1       	and    $0xc1ffffff,%eax
  402944:	0d 00 00 00 2e       	or     $0x2e000000,%eax
  402949:	89 04 25 24 02 70 00 	mov    %eax,0x700224
  402950:	c3                   	retq   
  402951:	0f 1f 80 00 00 00 00 	nopl   0x0(%rax)
  402958:	25 ff ff ff c1       	and    $0xc1ffffff,%eax
  40295d:	0d 00 00 00 1e       	or     $0x1e000000,%eax
  402962:	89 04 25 24 02 70 00 	mov    %eax,0x700224
  402969:	c3                   	retq   
  40296a:	66 0f 1f 44 00 00    	nopw   0x0(%rax,%rax,1)

0000000000402970 <return_periph>:
  402970:	c7 04 25 c4 02 70 00 	movl   $0x0,0x7002c4
  402977:	00 00 00 00 
  40297b:	8b 04 25 c4 02 70 00 	mov    0x7002c4,%eax
  402982:	83 c8 40             	or     $0x40,%eax
  402985:	89 04 25 c4 02 70 00 	mov    %eax,0x7002c4
  40298c:	b8 c0 02 70 00       	mov    $0x7002c0,%eax
  402991:	c3                   	retq   
  402992:	0f 1f 40 00          	nopl   0x0(%rax)
  402996:	66 2e 0f 1f 84 00 00 	nopw   %cs:0x0(%rax,%rax,1)
  40299d:	00 00 00 

00000000004029a0 <call_return_periph>:
  4029a0:	31 c0                	xor    %eax,%eax
  4029a2:	e8 c9 ff ff ff       	callq  402970 <return_periph>
  4029a7:	8b 40 04             	mov    0x4(%rax),%eax
  4029aa:	a8 40                	test   $0x40,%al
  4029ac:	8b 04 25 24 02 70 00 	mov    0x700224,%eax
  4029b3:	75 1b                	jne    4029d0 <call_return_periph+0x30>
  4029b5:	25 ff ff ff c1       	and    $0xc1ffffff,%eax
  4029ba:	0d 00 00 00 2a       	or     $0x2a000000,%eax
  4029bf:	89 04 25 24 02 70 00 	mov    %eax,0x700224
  4029c6:	c3                   	retq   
  4029c7:	66 0f 1f 84 00 00 00 	nopw   0x0(%rax,%rax,1)
  4029ce:	00 00 
  4029d0:	25 ff ff ff c1       	and    $0xc1ffffff,%eax
  4029d5:	0d 00 00 00 26       	or     $0x26000000,%eax
  4029da:	89 04 25 24 02 70 00 	mov    %eax,0x700224
  4029e1:	c3                   	retq   
  4029e2:	0f 1f 40 00          	nopl   0x0(%rax)
  4029e6:	66 2e 0f 1f 84 00 00 	nopw   %cs:0x0(%rax,%rax,1)
  4029ed:	00 00 00 

00000000004029f0 <pos_val>:
  4029f0:	83 ff 03             	cmp    $0x3,%edi
  4029f3:	74 1b                	je     402a10 <pos_val+0x20>
  4029f5:	83 ff 04             	cmp    $0x4,%edi
  4029f8:	74 26                	je     402a20 <pos_val+0x30>
  4029fa:	c7 04 25 2c 01 70 00 	movl   $0x55,0x70012c
  402a01:	55 00 00 00 
  402a05:	c3                   	retq   
  402a06:	66 2e 0f 1f 84 00 00 	nopw   %cs:0x0(%rax,%rax,1)
  402a0d:	00 00 00 
  402a10:	c7 04 25 2c 01 70 00 	movl   $0x33,0x70012c
  402a17:	33 00 00 00 
  402a1b:	c3                   	retq   
  402a1c:	0f 1f 40 00          	nopl   0x0(%rax)
  402a20:	c7 04 25 2c 01 70 00 	movl   $0x44,0x70012c
  402a27:	44 00 00 00 
  402a2b:	c3                   	retq   
  402a2c:	0f 1f 40 00          	nopl   0x0(%rax)

0000000000402a30 <pos_ref>:
  402a30:	8b 07                	mov    (%rdi),%eax
  402a32:	83 f8 03             	cmp    $0x3,%eax
  402a35:	74 19                	je     402a50 <pos_ref+0x20>
  402a37:	83 f8 04             	cmp    $0x4,%eax
  402a3a:	74 24                	je     402a60 <pos_ref+0x30>
  402a3c:	c7 04 25 2c 01 70 00 	movl   $0x88,0x70012c
  402a43:	88 00 00 00 
  402a47:	c3                   	retq   
  402a48:	0f 1f 84 00 00 00 00 	nopl   0x0(%rax,%rax,1)
  402a4f:	00 
  402a50:	c7 04 25 2c 01 70 00 	movl   $0x66,0x70012c
  402a57:	66 00 00 00 
  402a5b:	c3                   	retq   
  402a5c:	0f 1f 40 00          	nopl   0x0(%rax)
  402a60:	c7 04 25 2c 01 70 00 	movl   $0x77,0x70012c
  402a67:	77 00 00 00 
  402a6b:	c3                   	retq   
  402a6c:	0f 1f 40 00          	nopl   0x0(%rax)

0000000000402a70 <call_pos_ref>:
  402a70:	48 83 ec 18          	sub    $0x18,%rsp
  402a74:	48 89 e7             	mov    %rsp,%rdi
  402a77:	c7 04 24 03 00 00 00 	movl   $0x3,(%rsp)
  402a7e:	e8 7d f3 ff ff       	callq  401e00 <pos_ref.constprop.2>
  402a83:	48 89 e7             	mov    %rsp,%rdi
  402a86:	e8 a5 ff ff ff       	callq  402a30 <pos_ref>
  402a8b:	48 83 c4 18          	add    $0x18,%rsp
  402a8f:	c3                   	retq   

0000000000402a90 <runtime_range_val>:
  402a90:	8b 04 25 c4 02 70 00 	mov    0x7002c4,%eax
  402a97:	83 e7 1f             	and    $0x1f,%edi
  402a9a:	c1 e7 0c             	shl    $0xc,%edi
  402a9d:	25 ff 0f fe ff       	and    $0xfffe0fff,%eax
  402aa2:	09 f8                	or     %edi,%eax
  402aa4:	89 04 25 c4 02 70 00 	mov    %eax,0x7002c4
  402aab:	c3                   	retq   
  402aac:	0f 1f 40 00          	nopl   0x0(%rax)

0000000000402ab0 <call_range_val>:
  402ab0:	40 0f b6 ff          	movzbl %dil,%edi
  402ab4:	eb da                	jmp    402a90 <runtime_range_val>
  402ab6:	66 2e 0f 1f 84 00 00 	nopw   %cs:0x0(%rax,%rax,1)
  402abd:	00 00 00 

0000000000402ac0 <call_range_val_port>:
  402ac0:	bf 1f 00 00 00       	mov    $0x1f,%edi
  402ac5:	eb e9                	jmp    402ab0 <call_range_val>
  402ac7:	66 0f 1f 84 00 00 00 	nopw   0x0(%rax,%rax,1)
  402ace:	00 00 

0000000000402ad0 <runtime_range_ref>:
  402ad0:	8b 17                	mov    (%rdi),%edx
  402ad2:	8b 04 25 c4 02 70 00 	mov    0x7002c4,%eax
  402ad9:	83 e2 1f             	and    $0x1f,%edx
  402adc:	25 ff 0f fe ff       	and    $0xfffe0fff,%eax
  402ae1:	c1 e2 0c             	shl    $0xc,%edx
  402ae4:	09 d0                	or     %edx,%eax
  402ae6:	89 04 25 c4 02 70 00 	mov    %eax,0x7002c4
  402aed:	c3                   	retq   
  402aee:	66 90                	xchg   %ax,%ax

0000000000402af0 <call_range_ref>:
  402af0:	48 83 ec 08          	sub    $0x8,%rsp
  402af4:	89 7c 24 04          	mov    %edi,0x4(%rsp)
  402af8:	48 8d 7c 24 04       	lea    0x4(%rsp),%rdi
  402afd:	e8 ce ff ff ff       	callq  402ad0 <runtime_range_ref>
  402b02:	48 83 c4 08          	add    $0x8,%rsp
  402b06:	c3                   	retq   
  402b07:	66 0f 1f 84 00 00 00 	nopw   0x0(%rax,%rax,1)
  402b0e:	00 00 

0000000000402b10 <call_range_ref_port>:
  402b10:	bf 0c 00 00 00       	mov    $0xc,%edi
  402b15:	eb d9                	jmp    402af0 <call_range_ref>
  402b17:	66 0f 1f 84 00 00 00 	nopw   0x0(%rax,%rax,1)
  402b1e:	00 00 

0000000000402b20 <check_array_range_pass>:
  402b20:	83 ff 16             	cmp    $0x16,%edi
  402b23:	76 13                	jbe    402b38 <check_array_range_pass+0x18>
  402b25:	c7 04 25 2c 01 70 00 	movl   $0x83,0x70012c
  402b2c:	83 00 00 00 
  402b30:	c3                   	retq   
  402b31:	0f 1f 80 00 00 00 00 	nopl   0x0(%rax)
  402b38:	c7 04 25 2c 01 70 00 	movl   $0x7f,0x70012c
  402b3f:	7f 00 00 00 
  402b43:	c3                   	retq   
  402b44:	66 90                	xchg   %ax,%ax
  402b46:	66 2e 0f 1f 84 00 00 	nopw   %cs:0x0(%rax,%rax,1)
  402b4d:	00 00 00 

0000000000402b50 <check_array_range_fail>:
  402b50:	83 ff 16             	cmp    $0x16,%edi
  402b53:	76 13                	jbe    402b68 <check_array_range_fail+0x18>
  402b55:	c7 04 25 2c 01 70 00 	movl   $0x97,0x70012c
  402b5c:	97 00 00 00 
  402b60:	c3                   	retq   
  402b61:	0f 1f 80 00 00 00 00 	nopl   0x0(%rax)
  402b68:	c7 04 25 2c 01 70 00 	movl   $0x95,0x70012c
  402b6f:	95 00 00 00 
  402b73:	c3                   	retq   
  402b74:	66 90                	xchg   %ax,%ax
  402b76:	66 2e 0f 1f 84 00 00 	nopw   %cs:0x0(%rax,%rax,1)
  402b7d:	00 00 00 

0000000000402b80 <check_bits_range_pass>:
  402b80:	83 ff 0f             	cmp    $0xf,%edi
  402b83:	76 13                	jbe    402b98 <check_bits_range_pass+0x18>
  402b85:	c7 04 25 2c 01 70 00 	movl   $0xa3,0x70012c
  402b8c:	a3 00 00 00 
  402b90:	c3                   	retq   
  402b91:	0f 1f 80 00 00 00 00 	nopl   0x0(%rax)
  402b98:	c7 04 25 2c 01 70 00 	movl   $0x9d,0x70012c
  402b9f:	9d 00 00 00 
  402ba3:	c3                   	retq   
  402ba4:	66 90                	xchg   %ax,%ax
  402ba6:	66 2e 0f 1f 84 00 00 	nopw   %cs:0x0(%rax,%rax,1)
  402bad:	00 00 00 

0000000000402bb0 <check_bits_range_fail>:
  402bb0:	83 ff 0f             	cmp    $0xf,%edi
  402bb3:	76 13                	jbe    402bc8 <check_bits_range_fail+0x18>
  402bb5:	c7 04 25 2c 01 70 00 	movl   $0xad,0x70012c
  402bbc:	ad 00 00 00 
  402bc0:	c3                   	retq   
  402bc1:	0f 1f 80 00 00 00 00 	nopl   0x0(%rax)
  402bc8:	c7 04 25 2c 01 70 00 	movl   $0xa7,0x70012c
  402bcf:	a7 00 00 00 
  402bd3:	c3                   	retq   
  402bd4:	66 90                	xchg   %ax,%ax
  402bd6:	66 2e 0f 1f 84 00 00 	nopw   %cs:0x0(%rax,%rax,1)
  402bdd:	00 00 00 

0000000000402be0 <check_mskd_range_pass>:
  402be0:	83 ff 1f             	cmp    $0x1f,%edi
  402be3:	76 13                	jbe    402bf8 <check_mskd_range_pass+0x18>
  402be5:	c7 04 25 2c 01 70 00 	movl   $0xb5,0x70012c
  402bec:	b5 00 00 00 
  402bf0:	c3                   	retq   
  402bf1:	0f 1f 80 00 00 00 00 	nopl   0x0(%rax)
  402bf8:	c7 04 25 2c 01 70 00 	movl   $0xb3,0x70012c
  402bff:	b3 00 00 00 
  402c03:	c3                   	retq   
  402c04:	66 90                	xchg   %ax,%ax
  402c06:	66 2e 0f 1f 84 00 00 	nopw   %cs:0x0(%rax,%rax,1)
  402c0d:	00 00 00 

0000000000402c10 <check_mskd_range_fail>:
  402c10:	83 ff 1f             	cmp    $0x1f,%edi
  402c13:	76 13                	jbe    402c28 <check_mskd_range_fail+0x18>
  402c15:	c7 04 25 2c 01 70 00 	movl   $0xc1,0x70012c
  402c1c:	c1 00 00 00 
  402c20:	c3                   	retq   
  402c21:	0f 1f 80 00 00 00 00 	nopl   0x0(%rax)
  402c28:	c7 04 25 2c 01 70 00 	movl   $0xbf,0x70012c
  402c2f:	bf 00 00 00 
  402c33:	c3                   	retq   
  402c34:	66 90                	xchg   %ax,%ax
  402c36:	66 2e 0f 1f 84 00 00 	nopw   %cs:0x0(%rax,%rax,1)
  402c3d:	00 00 00 

0000000000402c40 <bits_extract_ne>:
  402c40:	8b 04 25 c4 02 70 00 	mov    0x7002c4,%eax
  402c47:	83 c8 20             	or     $0x20,%eax
  402c4a:	89 04 25 c4 02 70 00 	mov    %eax,0x7002c4
  402c51:	8b 04 25 c4 02 70 00 	mov    0x7002c4,%eax
  402c58:	c7 04 25 c4 02 70 00 	movl   $0x0,0x7002c4
  402c5f:	00 00 00 00 
  402c63:	a8 20                	test   $0x20,%al
  402c65:	8b 04 25 c4 02 70 00 	mov    0x7002c4,%eax
  402c6c:	74 12                	je     402c80 <bits_extract_ne+0x40>
  402c6e:	83 e0 f9             	and    $0xfffffff9,%eax
  402c71:	83 c8 04             	or     $0x4,%eax
  402c74:	89 04 25 c4 02 70 00 	mov    %eax,0x7002c4
  402c7b:	c3                   	retq   
  402c7c:	0f 1f 40 00          	nopl   0x0(%rax)
  402c80:	83 e0 f9             	and    $0xfffffff9,%eax
  402c83:	83 c8 02             	or     $0x2,%eax
  402c86:	89 04 25 c4 02 70 00 	mov    %eax,0x7002c4
  402c8d:	c3                   	retq   
  402c8e:	66 90                	xchg   %ax,%ax

0000000000402c90 <mskd_extract_geq>:
  402c90:	c7 04 25 24 02 70 00 	movl   $0x0,0x700224
  402c97:	00 00 00 00 
  402c9b:	8b 04 25 24 02 70 00 	mov    0x700224,%eax
  402ca2:	25 ff ff ff c1       	and    $0xc1ffffff,%eax
  402ca7:	0d 00 00 00 16       	or     $0x16000000,%eax
  402cac:	89 04 25 24 02 70 00 	mov    %eax,0x700224
  402cb3:	8b 04 25 24 02 70 00 	mov    0x700224,%eax
  402cba:	c7 04 25 c4 02 70 00 	movl   $0x0,0x7002c4
  402cc1:	00 00 00 00 
  402cc5:	c1 e8 19             	shr    $0x19,%eax
  402cc8:	83 e0 1f             	and    $0x1f,%eax
  402ccb:	83 f8 09             	cmp    $0x9,%eax
  402cce:	7e 05                	jle    402cd5 <mskd_extract_geq+0x45>
  402cd0:	83 f8 0a             	cmp    $0xa,%eax
  402cd3:	7f 1b                	jg     402cf0 <mskd_extract_geq+0x60>
  402cd5:	8b 04 25 c4 02 70 00 	mov    0x7002c4,%eax
  402cdc:	83 c8 40             	or     $0x40,%eax
  402cdf:	89 04 25 c4 02 70 00 	mov    %eax,0x7002c4
  402ce6:	c3                   	retq   
  402ce7:	66 0f 1f 84 00 00 00 	nopw   0x0(%rax,%rax,1)
  402cee:	00 00 
  402cf0:	8b 04 25 c4 02 70 00 	mov    0x7002c4,%eax
  402cf7:	83 c8 20             	or     $0x20,%eax
  402cfa:	89 04 25 c4 02 70 00 	mov    %eax,0x7002c4
  402d01:	c3                   	retq   
  402d02:	0f 1f 40 00          	nopl   0x0(%rax)
  402d06:	66 2e 0f 1f 84 00 00 	nopw   %cs:0x0(%rax,%rax,1)
  402d0d:	00 00 00 

0000000000402d10 <shifted_val>:
  402d10:	c7 04 25 24 02 70 00 	movl   $0x0,0x700224
  402d17:	00 00 00 00 
  402d1b:	8b 04 25 24 02 70 00 	mov    0x700224,%eax
  402d22:	25 ff ff ff c1       	and    $0xc1ffffff,%eax
  402d27:	0d 00 00 00 2e       	or     $0x2e000000,%eax
  402d2c:	83 ff 01             	cmp    $0x1,%edi
  402d2f:	89 04 25 24 02 70 00 	mov    %eax,0x700224
  402d36:	74 08                	je     402d40 <shifted_val+0x30>
  402d38:	f3 c3                	repz retq 
  402d3a:	66 0f 1f 44 00 00    	nopw   0x0(%rax,%rax,1)
  402d40:	48 8b 04 25 20 02 70 	mov    0x700220,%rax
  402d47:	00 
  402d48:	48 c1 e8 39          	shr    $0x39,%rax
  402d4c:	83 e0 1f             	and    $0x1f,%eax
  402d4f:	89 04 25 2c 01 70 00 	mov    %eax,0x70012c
  402d56:	c3                   	retq   
  402d57:	66 0f 1f 84 00 00 00 	nopw   0x0(%rax,%rax,1)
  402d5e:	00 00 

0000000000402d60 <shifted_ref>:
  402d60:	c7 04 25 24 02 70 00 	movl   $0x0,0x700224
  402d67:	00 00 00 00 
  402d6b:	8b 04 25 24 02 70 00 	mov    0x700224,%eax
  402d72:	25 ff ff ff c1       	and    $0xc1ffffff,%eax
  402d77:	0d 00 00 00 2e       	or     $0x2e000000,%eax
  402d7c:	89 04 25 24 02 70 00 	mov    %eax,0x700224
  402d83:	83 3f 01             	cmpl   $0x1,(%rdi)
  402d86:	74 08                	je     402d90 <shifted_ref+0x30>
  402d88:	f3 c3                	repz retq 
  402d8a:	66 0f 1f 44 00 00    	nopw   0x0(%rax,%rax,1)
  402d90:	48 8b 04 25 20 02 70 	mov    0x700220,%rax
  402d97:	00 
  402d98:	48 c1 e8 39          	shr    $0x39,%rax
  402d9c:	83 e0 1f             	and    $0x1f,%eax
  402d9f:	89 04 25 2c 01 70 00 	mov    %eax,0x70012c
  402da6:	c3                   	retq   
  402da7:	66 0f 1f 84 00 00 00 	nopw   0x0(%rax,%rax,1)
  402dae:	00 00 

0000000000402db0 <copy_bits_val>:
  402db0:	c7 04 25 c4 02 70 00 	movl   $0x0,0x7002c4
  402db7:	00 00 00 00 
  402dbb:	8b 04 25 c4 02 70 00 	mov    0x7002c4,%eax
  402dc2:	83 e0 f9             	and    $0xfffffff9,%eax
  402dc5:	83 ff 01             	cmp    $0x1,%edi
  402dc8:	74 0e                	je     402dd8 <copy_bits_val+0x28>
  402dca:	83 c8 04             	or     $0x4,%eax
  402dcd:	89 04 25 c4 02 70 00 	mov    %eax,0x7002c4
  402dd4:	c3                   	retq   
  402dd5:	0f 1f 00             	nopl   (%rax)
  402dd8:	83 c8 02             	or     $0x2,%eax
  402ddb:	89 04 25 c4 02 70 00 	mov    %eax,0x7002c4
  402de2:	c3                   	retq   
  402de3:	0f 1f 00             	nopl   (%rax)
  402de6:	66 2e 0f 1f 84 00 00 	nopw   %cs:0x0(%rax,%rax,1)
  402ded:	00 00 00 

0000000000402df0 <call_copy_bits_val>:
  402df0:	c7 04 25 c4 02 70 00 	movl   $0x0,0x7002c4
  402df7:	00 00 00 00 
  402dfb:	8b 04 25 c4 02 70 00 	mov    0x7002c4,%eax
  402e02:	83 c8 40             	or     $0x40,%eax
  402e05:	89 04 25 c4 02 70 00 	mov    %eax,0x7002c4
  402e0c:	48 8b 3c 25 c0 02 70 	mov    0x7002c0,%rdi
  402e13:	00 
  402e14:	48 c1 ef 26          	shr    $0x26,%rdi
  402e18:	83 e7 01             	and    $0x1,%edi
  402e1b:	eb 93                	jmp    402db0 <copy_bits_val>
  402e1d:	0f 1f 00             	nopl   (%rax)

0000000000402e20 <copy_bits_ref>:
  402e20:	c7 04 25 c4 02 70 00 	movl   $0x0,0x7002c4
  402e27:	00 00 00 00 
  402e2b:	83 3f 01             	cmpl   $0x1,(%rdi)
  402e2e:	8b 04 25 c4 02 70 00 	mov    0x7002c4,%eax
  402e35:	74 11                	je     402e48 <copy_bits_ref+0x28>
  402e37:	83 e0 f9             	and    $0xfffffff9,%eax
  402e3a:	83 c8 04             	or     $0x4,%eax
  402e3d:	89 04 25 c4 02 70 00 	mov    %eax,0x7002c4
  402e44:	c3                   	retq   
  402e45:	0f 1f 00             	nopl   (%rax)
  402e48:	83 e0 f9             	and    $0xfffffff9,%eax
  402e4b:	83 c8 02             	or     $0x2,%eax
  402e4e:	89 04 25 c4 02 70 00 	mov    %eax,0x7002c4
  402e55:	c3                   	retq   
  402e56:	66 2e 0f 1f 84 00 00 	nopw   %cs:0x0(%rax,%rax,1)
  402e5d:	00 00 00 

0000000000402e60 <call_copy_bits_ref>:
  402e60:	48 83 ec 10          	sub    $0x10,%rsp
  402e64:	c7 04 25 c4 02 70 00 	movl   $0x0,0x7002c4
  402e6b:	00 00 00 00 
  402e6f:	8b 04 25 c4 02 70 00 	mov    0x7002c4,%eax
  402e76:	48 8d 7c 24 0c       	lea    0xc(%rsp),%rdi
  402e7b:	83 c8 40             	or     $0x40,%eax
  402e7e:	89 04 25 c4 02 70 00 	mov    %eax,0x7002c4
  402e85:	48 8b 04 25 c0 02 70 	mov    0x7002c0,%rax
  402e8c:	00 
  402e8d:	48 c1 e8 26          	shr    $0x26,%rax
  402e91:	83 e0 01             	and    $0x1,%eax
  402e94:	89 44 24 0c          	mov    %eax,0xc(%rsp)
  402e98:	e8 83 ff ff ff       	callq  402e20 <copy_bits_ref>
  402e9d:	48 83 c4 10          	add    $0x10,%rsp
  402ea1:	c3                   	retq   
  402ea2:	0f 1f 40 00          	nopl   0x0(%rax)
  402ea6:	66 2e 0f 1f 84 00 00 	nopw   %cs:0x0(%rax,%rax,1)
  402ead:	00 00 00 

0000000000402eb0 <run>:
  402eb0:	48 83 ec 08          	sub    $0x8,%rsp
  402eb4:	31 d2                	xor    %edx,%edx
  402eb6:	be c4 02 70 00       	mov    $0x7002c4,%esi
  402ebb:	bf 30 08 40 00       	mov    $0x400830,%edi
  402ec0:	e8 0b 09 00 00       	callq  4037d0 <do_test>
  402ec5:	ba 01 00 00 00       	mov    $0x1,%edx
  402eca:	be c4 02 70 00       	mov    $0x7002c4,%esi
  402ecf:	bf 40 08 40 00       	mov    $0x400840,%edi
  402ed4:	e8 f7 08 00 00       	callq  4037d0 <do_test>
  402ed9:	ba 02 00 00 00       	mov    $0x2,%edx
  402ede:	be c4 02 70 00       	mov    $0x7002c4,%esi
  402ee3:	bf 50 08 40 00       	mov    $0x400850,%edi
  402ee8:	e8 e3 08 00 00       	callq  4037d0 <do_test>
  402eed:	ba 03 00 00 00       	mov    $0x3,%edx
  402ef2:	be c4 02 70 00       	mov    $0x7002c4,%esi
  402ef7:	bf 70 08 40 00       	mov    $0x400870,%edi
  402efc:	e8 cf 08 00 00       	callq  4037d0 <do_test>
  402f01:	ba 04 00 00 00       	mov    $0x4,%edx
  402f06:	be c4 02 70 00       	mov    $0x7002c4,%esi
  402f0b:	bf 90 08 40 00       	mov    $0x400890,%edi
  402f10:	e8 bb 08 00 00       	callq  4037d0 <do_test>
  402f15:	ba 05 00 00 00       	mov    $0x5,%edx
  402f1a:	be c4 02 70 00       	mov    $0x7002c4,%esi
  402f1f:	bf b0 08 40 00       	mov    $0x4008b0,%edi
  402f24:	e8 a7 08 00 00       	callq  4037d0 <do_test>
  402f29:	ba 06 00 00 00       	mov    $0x6,%edx
  402f2e:	be c4 02 70 00       	mov    $0x7002c4,%esi
  402f33:	bf d0 08 40 00       	mov    $0x4008d0,%edi
  402f38:	e8 93 08 00 00       	callq  4037d0 <do_test>
  402f3d:	ba 07 00 00 00       	mov    $0x7,%edx
  402f42:	be c4 02 70 00       	mov    $0x7002c4,%esi
  402f47:	bf 00 09 40 00       	mov    $0x400900,%edi
  402f4c:	e8 7f 08 00 00       	callq  4037d0 <do_test>
  402f51:	ba 08 00 00 00       	mov    $0x8,%edx
  402f56:	be c4 02 70 00       	mov    $0x7002c4,%esi
  402f5b:	bf 30 09 40 00       	mov    $0x400930,%edi
  402f60:	e8 6b 08 00 00       	callq  4037d0 <do_test>
  402f65:	ba 09 00 00 00       	mov    $0x9,%edx
  402f6a:	be c4 02 70 00       	mov    $0x7002c4,%esi
  402f6f:	bf 60 09 40 00       	mov    $0x400960,%edi
  402f74:	e8 57 08 00 00       	callq  4037d0 <do_test>
  402f79:	ba 0a 00 00 00       	mov    $0xa,%edx
  402f7e:	be c4 02 70 00       	mov    $0x7002c4,%esi
  402f83:	bf 90 09 40 00       	mov    $0x400990,%edi
  402f88:	e8 43 08 00 00       	callq  4037d0 <do_test>
  402f8d:	ba 0b 00 00 00       	mov    $0xb,%edx
  402f92:	be c4 02 70 00       	mov    $0x7002c4,%esi
  402f97:	bf b0 09 40 00       	mov    $0x4009b0,%edi
  402f9c:	e8 2f 08 00 00       	callq  4037d0 <do_test>
  402fa1:	ba 0c 00 00 00       	mov    $0xc,%edx
  402fa6:	be c4 02 70 00       	mov    $0x7002c4,%esi
  402fab:	bf d0 09 40 00       	mov    $0x4009d0,%edi
  402fb0:	e8 1b 08 00 00       	callq  4037d0 <do_test>
  402fb5:	ba 0d 00 00 00       	mov    $0xd,%edx
  402fba:	be c4 02 70 00       	mov    $0x7002c4,%esi
  402fbf:	bf f0 09 40 00       	mov    $0x4009f0,%edi
  402fc4:	e8 07 08 00 00       	callq  4037d0 <do_test>
  402fc9:	ba 0e 00 00 00       	mov    $0xe,%edx
  402fce:	be c4 02 70 00       	mov    $0x7002c4,%esi
  402fd3:	bf 10 0a 40 00       	mov    $0x400a10,%edi
  402fd8:	e8 f3 07 00 00       	callq  4037d0 <do_test>
  402fdd:	ba 0f 00 00 00       	mov    $0xf,%edx
  402fe2:	be c4 02 70 00       	mov    $0x7002c4,%esi
  402fe7:	bf 30 0a 40 00       	mov    $0x400a30,%edi
  402fec:	e8 df 07 00 00       	callq  4037d0 <do_test>
  402ff1:	ba 10 00 00 00       	mov    $0x10,%edx
  402ff6:	be c4 02 70 00       	mov    $0x7002c4,%esi
  402ffb:	bf 50 0a 40 00       	mov    $0x400a50,%edi
  403000:	e8 cb 07 00 00       	callq  4037d0 <do_test>
  403005:	ba 11 00 00 00       	mov    $0x11,%edx
  40300a:	be c4 02 70 00       	mov    $0x7002c4,%esi
  40300f:	bf 80 0a 40 00       	mov    $0x400a80,%edi
  403014:	e8 b7 07 00 00       	callq  4037d0 <do_test>
  403019:	ba 12 00 00 00       	mov    $0x12,%edx
  40301e:	be c4 02 70 00       	mov    $0x7002c4,%esi
  403023:	bf b0 0a 40 00       	mov    $0x400ab0,%edi
  403028:	e8 a3 07 00 00       	callq  4037d0 <do_test>
  40302d:	ba 13 00 00 00       	mov    $0x13,%edx
  403032:	be c4 02 70 00       	mov    $0x7002c4,%esi
  403037:	bf d0 0a 40 00       	mov    $0x400ad0,%edi
  40303c:	e8 8f 07 00 00       	callq  4037d0 <do_test>
  403041:	ba 14 00 00 00       	mov    $0x14,%edx
  403046:	be c4 02 70 00       	mov    $0x7002c4,%esi
  40304b:	bf f0 0a 40 00       	mov    $0x400af0,%edi
  403050:	e8 7b 07 00 00       	callq  4037d0 <do_test>
  403055:	ba 15 00 00 00       	mov    $0x15,%edx
  40305a:	be c4 02 70 00       	mov    $0x7002c4,%esi
  40305f:	bf 20 0b 40 00       	mov    $0x400b20,%edi
  403064:	e8 67 07 00 00       	callq  4037d0 <do_test>
  403069:	ba 16 00 00 00       	mov    $0x16,%edx
  40306e:	be c4 02 70 00       	mov    $0x7002c4,%esi
  403073:	bf 50 0b 40 00       	mov    $0x400b50,%edi
  403078:	e8 53 07 00 00       	callq  4037d0 <do_test>
  40307d:	ba 17 00 00 00       	mov    $0x17,%edx
  403082:	be c4 02 70 00       	mov    $0x7002c4,%esi
  403087:	bf 80 0b 40 00       	mov    $0x400b80,%edi
  40308c:	e8 3f 07 00 00       	callq  4037d0 <do_test>
  403091:	ba 18 00 00 00       	mov    $0x18,%edx
  403096:	be c4 02 70 00       	mov    $0x7002c4,%esi
  40309b:	bf b0 0b 40 00       	mov    $0x400bb0,%edi
  4030a0:	e8 2b 07 00 00       	callq  4037d0 <do_test>
  4030a5:	ba 19 00 00 00       	mov    $0x19,%edx
  4030aa:	be c4 02 70 00       	mov    $0x7002c4,%esi
  4030af:	bf e0 0b 40 00       	mov    $0x400be0,%edi
  4030b4:	e8 17 07 00 00       	callq  4037d0 <do_test>
  4030b9:	ba 1a 00 00 00       	mov    $0x1a,%edx
  4030be:	be c4 02 70 00       	mov    $0x7002c4,%esi
  4030c3:	bf 10 0c 40 00       	mov    $0x400c10,%edi
  4030c8:	e8 03 07 00 00       	callq  4037d0 <do_test>
  4030cd:	ba 1b 00 00 00       	mov    $0x1b,%edx
  4030d2:	be c4 02 70 00       	mov    $0x7002c4,%esi
  4030d7:	bf 50 0c 40 00       	mov    $0x400c50,%edi
  4030dc:	e8 ef 06 00 00       	callq  4037d0 <do_test>
  4030e1:	ba 1c 00 00 00       	mov    $0x1c,%edx
  4030e6:	be c4 02 70 00       	mov    $0x7002c4,%esi
  4030eb:	bf 90 0c 40 00       	mov    $0x400c90,%edi
  4030f0:	e8 db 06 00 00       	callq  4037d0 <do_test>
  4030f5:	ba 1d 00 00 00       	mov    $0x1d,%edx
  4030fa:	be c4 02 70 00       	mov    $0x7002c4,%esi
  4030ff:	bf d0 0c 40 00       	mov    $0x400cd0,%edi
  403104:	e8 c7 06 00 00       	callq  4037d0 <do_test>
  403109:	ba 1e 00 00 00       	mov    $0x1e,%edx
  40310e:	be c4 02 70 00       	mov    $0x7002c4,%esi
  403113:	bf 10 0d 40 00       	mov    $0x400d10,%edi
  403118:	e8 b3 06 00 00       	callq  4037d0 <do_test>
  40311d:	ba 1f 00 00 00       	mov    $0x1f,%edx
  403122:	be c4 02 70 00       	mov    $0x7002c4,%esi
  403127:	bf 50 0d 40 00       	mov    $0x400d50,%edi
  40312c:	e8 9f 06 00 00       	callq  4037d0 <do_test>
  403131:	ba 20 00 00 00       	mov    $0x20,%edx
  403136:	be c4 02 70 00       	mov    $0x7002c4,%esi
  40313b:	bf 90 0d 40 00       	mov    $0x400d90,%edi
  403140:	e8 8b 06 00 00       	callq  4037d0 <do_test>
  403145:	ba 21 00 00 00       	mov    $0x21,%edx
  40314a:	be c4 02 70 00       	mov    $0x7002c4,%esi
  40314f:	bf d0 0d 40 00       	mov    $0x400dd0,%edi
  403154:	e8 77 06 00 00       	callq  4037d0 <do_test>
  403159:	ba 22 00 00 00       	mov    $0x22,%edx
  40315e:	be c4 02 70 00       	mov    $0x7002c4,%esi
  403163:	bf 20 0e 40 00       	mov    $0x400e20,%edi
  403168:	e8 63 06 00 00       	callq  4037d0 <do_test>
  40316d:	ba 23 00 00 00       	mov    $0x23,%edx
  403172:	be c4 02 70 00       	mov    $0x7002c4,%esi
  403177:	bf 80 0e 40 00       	mov    $0x400e80,%edi
  40317c:	e8 4f 06 00 00       	callq  4037d0 <do_test>
  403181:	ba 24 00 00 00       	mov    $0x24,%edx
  403186:	be c4 02 70 00       	mov    $0x7002c4,%esi
  40318b:	bf c0 0e 40 00       	mov    $0x400ec0,%edi
  403190:	e8 3b 06 00 00       	callq  4037d0 <do_test>
  403195:	ba 25 00 00 00       	mov    $0x25,%edx
  40319a:	be 24 02 70 00       	mov    $0x700224,%esi
  40319f:	bf 20 0f 40 00       	mov    $0x400f20,%edi
  4031a4:	e8 27 06 00 00       	callq  4037d0 <do_test>
  4031a9:	ba 26 00 00 00       	mov    $0x26,%edx
  4031ae:	be 24 02 70 00       	mov    $0x700224,%esi
  4031b3:	bf 80 0f 40 00       	mov    $0x400f80,%edi
  4031b8:	e8 13 06 00 00       	callq  4037d0 <do_test>
  4031bd:	ba 27 00 00 00       	mov    $0x27,%edx
  4031c2:	be 24 02 70 00       	mov    $0x700224,%esi
  4031c7:	bf 20 10 40 00       	mov    $0x401020,%edi
  4031cc:	e8 ff 05 00 00       	callq  4037d0 <do_test>
  4031d1:	ba 28 00 00 00       	mov    $0x28,%edx
  4031d6:	be c4 02 70 00       	mov    $0x7002c4,%esi
  4031db:	bf b0 10 40 00       	mov    $0x4010b0,%edi
  4031e0:	e8 eb 05 00 00       	callq  4037d0 <do_test>
  4031e5:	ba 29 00 00 00       	mov    $0x29,%edx
  4031ea:	be c4 02 70 00       	mov    $0x7002c4,%esi
  4031ef:	bf 20 11 40 00       	mov    $0x401120,%edi
  4031f4:	e8 d7 05 00 00       	callq  4037d0 <do_test>
  4031f9:	ba 2a 00 00 00       	mov    $0x2a,%edx
  4031fe:	be c4 02 70 00       	mov    $0x7002c4,%esi
  403203:	bf 80 11 40 00       	mov    $0x401180,%edi
  403208:	e8 c3 05 00 00       	callq  4037d0 <do_test>
  40320d:	ba 2b 00 00 00       	mov    $0x2b,%edx
  403212:	be c4 02 70 00       	mov    $0x7002c4,%esi
  403217:	bf 60 12 40 00       	mov    $0x401260,%edi
  40321c:	e8 af 05 00 00       	callq  4037d0 <do_test>
  403221:	ba 2c 00 00 00       	mov    $0x2c,%edx
  403226:	be c4 02 70 00       	mov    $0x7002c4,%esi
  40322b:	bf 30 13 40 00       	mov    $0x401330,%edi
  403230:	e8 9b 05 00 00       	callq  4037d0 <do_test>
  403235:	ba 2d 00 00 00       	mov    $0x2d,%edx
  40323a:	be a0 01 70 00       	mov    $0x7001a0,%esi
  40323f:	bf 60 13 40 00       	mov    $0x401360,%edi
  403244:	e8 87 05 00 00       	callq  4037d0 <do_test>
  403249:	ba 2e 00 00 00       	mov    $0x2e,%edx
  40324e:	be c4 02 70 00       	mov    $0x7002c4,%esi
  403253:	bf a0 22 40 00       	mov    $0x4022a0,%edi
  403258:	e8 73 05 00 00       	callq  4037d0 <do_test>
  40325d:	ba 2f 00 00 00       	mov    $0x2f,%edx
  403262:	be c4 02 70 00       	mov    $0x7002c4,%esi
  403267:	bf b0 22 40 00       	mov    $0x4022b0,%edi
  40326c:	e8 5f 05 00 00       	callq  4037d0 <do_test>
  403271:	ba 30 00 00 00       	mov    $0x30,%edx
  403276:	be c4 02 70 00       	mov    $0x7002c4,%esi
  40327b:	bf a0 21 40 00       	mov    $0x4021a0,%edi
  403280:	e8 4b 05 00 00       	callq  4037d0 <do_test>
  403285:	ba 31 00 00 00       	mov    $0x31,%edx
  40328a:	be c4 02 70 00       	mov    $0x7002c4,%esi
  40328f:	bf d0 21 40 00       	mov    $0x4021d0,%edi
  403294:	e8 37 05 00 00       	callq  4037d0 <do_test>
  403299:	ba 32 00 00 00       	mov    $0x32,%edx
  40329e:	be c4 02 70 00       	mov    $0x7002c4,%esi
  4032a3:	bf 40 21 40 00       	mov    $0x402140,%edi
  4032a8:	e8 23 05 00 00       	callq  4037d0 <do_test>
  4032ad:	ba 33 00 00 00       	mov    $0x33,%edx
  4032b2:	be c4 02 70 00       	mov    $0x7002c4,%esi
  4032b7:	bf 50 21 40 00       	mov    $0x402150,%edi
  4032bc:	e8 0f 05 00 00       	callq  4037d0 <do_test>
  4032c1:	ba 34 00 00 00       	mov    $0x34,%edx
  4032c6:	be c4 02 70 00       	mov    $0x7002c4,%esi
  4032cb:	bf 80 20 40 00       	mov    $0x402080,%edi
  4032d0:	e8 fb 04 00 00       	callq  4037d0 <do_test>
  4032d5:	ba 35 00 00 00       	mov    $0x35,%edx
  4032da:	be c4 02 70 00       	mov    $0x7002c4,%esi
  4032df:	bf b0 20 40 00       	mov    $0x4020b0,%edi
  4032e4:	e8 e7 04 00 00       	callq  4037d0 <do_test>
  4032e9:	ba 36 00 00 00       	mov    $0x36,%edx
  4032ee:	be c4 02 70 00       	mov    $0x7002c4,%esi
  4032f3:	bf 20 27 40 00       	mov    $0x402720,%edi
  4032f8:	e8 d3 04 00 00       	callq  4037d0 <do_test>
  4032fd:	ba 37 00 00 00       	mov    $0x37,%edx
  403302:	be c4 02 70 00       	mov    $0x7002c4,%esi
  403307:	bf 30 20 40 00       	mov    $0x402030,%edi
  40330c:	e8 bf 04 00 00       	callq  4037d0 <do_test>
  403311:	ba 38 00 00 00       	mov    $0x38,%edx
  403316:	be c4 02 70 00       	mov    $0x7002c4,%esi
  40331b:	bf 00 20 40 00       	mov    $0x402000,%edi
  403320:	e8 ab 04 00 00       	callq  4037d0 <do_test>
  403325:	ba 39 00 00 00       	mov    $0x39,%edx
  40332a:	be c4 02 70 00       	mov    $0x7002c4,%esi
  40332f:	bf c0 1f 40 00       	mov    $0x401fc0,%edi
  403334:	e8 97 04 00 00       	callq  4037d0 <do_test>
  403339:	ba 3a 00 00 00       	mov    $0x3a,%edx
  40333e:	be c4 02 70 00       	mov    $0x7002c4,%esi
  403343:	bf 80 1f 40 00       	mov    $0x401f80,%edi
  403348:	e8 83 04 00 00       	callq  4037d0 <do_test>
  40334d:	ba 3b 00 00 00       	mov    $0x3b,%edx
  403352:	be c4 02 70 00       	mov    $0x7002c4,%esi
  403357:	bf 80 27 40 00       	mov    $0x402780,%edi
  40335c:	e8 6f 04 00 00       	callq  4037d0 <do_test>
  403361:	ba 3c 00 00 00       	mov    $0x3c,%edx
  403366:	be c4 02 70 00       	mov    $0x7002c4,%esi
  40336b:	bf 50 1f 40 00       	mov    $0x401f50,%edi
  403370:	e8 5b 04 00 00       	callq  4037d0 <do_test>
  403375:	ba 3d 00 00 00       	mov    $0x3d,%edx
  40337a:	be c4 02 70 00       	mov    $0x7002c4,%esi
  40337f:	bf 20 1f 40 00       	mov    $0x401f20,%edi
  403384:	e8 47 04 00 00       	callq  4037d0 <do_test>
  403389:	ba 3e 00 00 00       	mov    $0x3e,%edx
  40338e:	be c4 02 70 00       	mov    $0x7002c4,%esi
  403393:	bf e0 1e 40 00       	mov    $0x401ee0,%edi
  403398:	e8 33 04 00 00       	callq  4037d0 <do_test>
  40339d:	ba 3f 00 00 00       	mov    $0x3f,%edx
  4033a2:	be c4 02 70 00       	mov    $0x7002c4,%esi
  4033a7:	bf a0 1e 40 00       	mov    $0x401ea0,%edi
  4033ac:	e8 1f 04 00 00       	callq  4037d0 <do_test>
  4033b1:	ba 40 00 00 00       	mov    $0x40,%edx
  4033b6:	be 24 02 70 00       	mov    $0x700224,%esi
  4033bb:	bf 20 28 40 00       	mov    $0x402820,%edi
  4033c0:	e8 0b 04 00 00       	callq  4037d0 <do_test>
  4033c5:	ba 41 00 00 00       	mov    $0x41,%edx
  4033ca:	be 24 02 70 00       	mov    $0x700224,%esi
  4033cf:	bf 80 28 40 00       	mov    $0x402880,%edi
  4033d4:	e8 f7 03 00 00       	callq  4037d0 <do_test>
  4033d9:	ba 42 00 00 00       	mov    $0x42,%edx
  4033de:	be 24 02 70 00       	mov    $0x700224,%esi
  4033e3:	bf 20 29 40 00       	mov    $0x402920,%edi
  4033e8:	e8 e3 03 00 00       	callq  4037d0 <do_test>
  4033ed:	ba 43 00 00 00       	mov    $0x43,%edx
  4033f2:	be c4 02 70 00       	mov    $0x7002c4,%esi
  4033f7:	bf a0 29 40 00       	mov    $0x4029a0,%edi
  4033fc:	e8 cf 03 00 00       	callq  4037d0 <do_test>
  403401:	ba 44 00 00 00       	mov    $0x44,%edx
  403406:	be 2c 01 70 00       	mov    $0x70012c,%esi
  40340b:	bf 60 1e 40 00       	mov    $0x401e60,%edi
  403410:	e8 bb 03 00 00       	callq  4037d0 <do_test>
  403415:	ba 45 00 00 00       	mov    $0x45,%edx
  40341a:	be 2c 01 70 00       	mov    $0x70012c,%esi
  40341f:	bf 70 2a 40 00       	mov    $0x402a70,%edi
  403424:	e8 a7 03 00 00       	callq  4037d0 <do_test>
  403429:	ba 46 00 00 00       	mov    $0x46,%edx
  40342e:	be c4 02 70 00       	mov    $0x7002c4,%esi
  403433:	bf c0 2a 40 00       	mov    $0x402ac0,%edi
  403438:	e8 93 03 00 00       	callq  4037d0 <do_test>
  40343d:	ba 47 00 00 00       	mov    $0x47,%edx
  403442:	be c4 02 70 00       	mov    $0x7002c4,%esi
  403447:	bf 10 2b 40 00       	mov    $0x402b10,%edi
  40344c:	e8 7f 03 00 00       	callq  4037d0 <do_test>
  403451:	ba 48 00 00 00       	mov    $0x48,%edx
  403456:	be 2c 01 70 00       	mov    $0x70012c,%esi
  40345b:	bf c0 13 40 00       	mov    $0x4013c0,%edi
  403460:	e8 6b 03 00 00       	callq  4037d0 <do_test>
  403465:	ba 49 00 00 00       	mov    $0x49,%edx
  40346a:	be 2c 01 70 00       	mov    $0x70012c,%esi
  40346f:	bf f0 13 40 00       	mov    $0x4013f0,%edi
  403474:	e8 57 03 00 00       	callq  4037d0 <do_test>
  403479:	ba 4a 00 00 00       	mov    $0x4a,%edx
  40347e:	be c4 02 70 00       	mov    $0x7002c4,%esi
  403483:	bf 20 14 40 00       	mov    $0x401420,%edi
  403488:	e8 43 03 00 00       	callq  4037d0 <do_test>
  40348d:	ba 4b 00 00 00       	mov    $0x4b,%edx
  403492:	be c4 02 70 00       	mov    $0x7002c4,%esi
  403497:	bf 80 14 40 00       	mov    $0x401480,%edi
  40349c:	e8 2f 03 00 00       	callq  4037d0 <do_test>
  4034a1:	ba 4c 00 00 00       	mov    $0x4c,%edx
  4034a6:	be c4 02 70 00       	mov    $0x7002c4,%esi
  4034ab:	bf 00 15 40 00       	mov    $0x401500,%edi
  4034b0:	e8 1b 03 00 00       	callq  4037d0 <do_test>
  4034b5:	ba 4d 00 00 00       	mov    $0x4d,%edx
  4034ba:	be c4 02 70 00       	mov    $0x7002c4,%esi
  4034bf:	bf 60 15 40 00       	mov    $0x401560,%edi
  4034c4:	e8 07 03 00 00       	callq  4037d0 <do_test>
  4034c9:	ba 4e 00 00 00       	mov    $0x4e,%edx
  4034ce:	be c4 02 70 00       	mov    $0x7002c4,%esi
  4034d3:	bf e0 15 40 00       	mov    $0x4015e0,%edi
  4034d8:	e8 f3 02 00 00       	callq  4037d0 <do_test>
  4034dd:	ba 4f 00 00 00       	mov    $0x4f,%edx
  4034e2:	be c4 02 70 00       	mov    $0x7002c4,%esi
  4034e7:	bf 00 16 40 00       	mov    $0x401600,%edi
  4034ec:	e8 df 02 00 00       	callq  4037d0 <do_test>
  4034f1:	ba 50 00 00 00       	mov    $0x50,%edx
  4034f6:	be c4 02 70 00       	mov    $0x7002c4,%esi
  4034fb:	bf 20 16 40 00       	mov    $0x401620,%edi
  403500:	e8 cb 02 00 00       	callq  4037d0 <do_test>
  403505:	ba 51 00 00 00       	mov    $0x51,%edx
  40350a:	be c4 02 70 00       	mov    $0x7002c4,%esi
  40350f:	bf 20 16 40 00       	mov    $0x401620,%edi
  403514:	e8 b7 02 00 00       	callq  4037d0 <do_test>
  403519:	ba 52 00 00 00       	mov    $0x52,%edx
  40351e:	be c4 02 70 00       	mov    $0x7002c4,%esi
  403523:	bf 70 16 40 00       	mov    $0x401670,%edi
  403528:	e8 a3 02 00 00       	callq  4037d0 <do_test>
  40352d:	ba 53 00 00 00       	mov    $0x53,%edx
  403532:	be c4 02 70 00       	mov    $0x7002c4,%esi
  403537:	bf c0 16 40 00       	mov    $0x4016c0,%edi
  40353c:	e8 8f 02 00 00       	callq  4037d0 <do_test>
  403541:	ba 54 00 00 00       	mov    $0x54,%edx
  403546:	be c4 02 70 00       	mov    $0x7002c4,%esi
  40354b:	bf 20 17 40 00       	mov    $0x401720,%edi
  403550:	e8 7b 02 00 00       	callq  4037d0 <do_test>
  403555:	ba 55 00 00 00       	mov    $0x55,%edx
  40355a:	be c4 02 70 00       	mov    $0x7002c4,%esi
  40355f:	bf 90 17 40 00       	mov    $0x401790,%edi
  403564:	e8 67 02 00 00       	callq  4037d0 <do_test>
  403569:	ba 56 00 00 00       	mov    $0x56,%edx
  40356e:	be c4 02 70 00       	mov    $0x7002c4,%esi
  403573:	bf 10 18 40 00       	mov    $0x401810,%edi
  403578:	e8 53 02 00 00       	callq  4037d0 <do_test>
  40357d:	ba 57 00 00 00       	mov    $0x57,%edx
  403582:	be c4 02 70 00       	mov    $0x7002c4,%esi
  403587:	bf 90 17 40 00       	mov    $0x401790,%edi
  40358c:	e8 3f 02 00 00       	callq  4037d0 <do_test>
  403591:	ba 58 00 00 00       	mov    $0x58,%edx
  403596:	be c4 02 70 00       	mov    $0x7002c4,%esi
  40359b:	bf 80 18 40 00       	mov    $0x401880,%edi
  4035a0:	e8 2b 02 00 00       	callq  4037d0 <do_test>
  4035a5:	ba 59 00 00 00       	mov    $0x59,%edx
  4035aa:	be c4 02 70 00       	mov    $0x7002c4,%esi
  4035af:	bf a0 18 40 00       	mov    $0x4018a0,%edi
  4035b4:	e8 17 02 00 00       	callq  4037d0 <do_test>
  4035b9:	ba 5a 00 00 00       	mov    $0x5a,%edx
  4035be:	be 2c 01 70 00       	mov    $0x70012c,%esi
  4035c3:	bf c0 18 40 00       	mov    $0x4018c0,%edi
  4035c8:	e8 03 02 00 00       	callq  4037d0 <do_test>
  4035cd:	ba 5b 00 00 00       	mov    $0x5b,%edx
  4035d2:	be 2c 01 70 00       	mov    $0x70012c,%esi
  4035d7:	bf d0 18 40 00       	mov    $0x4018d0,%edi
  4035dc:	e8 ef 01 00 00       	callq  4037d0 <do_test>
  4035e1:	ba 5c 00 00 00       	mov    $0x5c,%edx
  4035e6:	be c4 02 70 00       	mov    $0x7002c4,%esi
  4035eb:	bf 00 19 40 00       	mov    $0x401900,%edi
  4035f0:	e8 db 01 00 00       	callq  4037d0 <do_test>
  4035f5:	ba 5d 00 00 00       	mov    $0x5d,%edx
  4035fa:	be 2c 01 70 00       	mov    $0x70012c,%esi
  4035ff:	bf 70 1e 40 00       	mov    $0x401e70,%edi
  403604:	e8 c7 01 00 00       	callq  4037d0 <do_test>
  403609:	ba 5e 00 00 00       	mov    $0x5e,%edx
  40360e:	be 2c 01 70 00       	mov    $0x70012c,%esi
  403613:	bf 20 1e 40 00       	mov    $0x401e20,%edi
  403618:	e8 b3 01 00 00       	callq  4037d0 <do_test>
  40361d:	ba 5f 00 00 00       	mov    $0x5f,%edx
  403622:	be c4 02 70 00       	mov    $0x7002c4,%esi
  403627:	bf c0 22 40 00       	mov    $0x4022c0,%edi
  40362c:	e8 9f 01 00 00       	callq  4037d0 <do_test>
  403631:	ba 60 00 00 00       	mov    $0x60,%edx
  403636:	be c4 02 70 00       	mov    $0x7002c4,%esi
  40363b:	bf 40 22 40 00       	mov    $0x402240,%edi
  403640:	e8 8b 01 00 00       	callq  4037d0 <do_test>
  403645:	ba 61 00 00 00       	mov    $0x61,%edx
  40364a:	be c4 02 70 00       	mov    $0x7002c4,%esi
  40364f:	bf 60 21 40 00       	mov    $0x402160,%edi
  403654:	e8 77 01 00 00       	callq  4037d0 <do_test>
  403659:	ba 62 00 00 00       	mov    $0x62,%edx
  40365e:	be c4 02 70 00       	mov    $0x7002c4,%esi
  403663:	bf e0 20 40 00       	mov    $0x4020e0,%edi
  403668:	e8 63 01 00 00       	callq  4037d0 <do_test>
  40366d:	ba 63 00 00 00       	mov    $0x63,%edx
  403672:	be 2c 01 70 00       	mov    $0x70012c,%esi
  403677:	bf d0 1d 40 00       	mov    $0x401dd0,%edi
  40367c:	e8 4f 01 00 00       	callq  4037d0 <do_test>
  403681:	ba 64 00 00 00       	mov    $0x64,%edx
  403686:	be 2c 01 70 00       	mov    $0x70012c,%esi
  40368b:	bf e0 1d 40 00       	mov    $0x401de0,%edi
  403690:	e8 3b 01 00 00       	callq  4037d0 <do_test>
  403695:	ba 65 00 00 00       	mov    $0x65,%edx
  40369a:	be 2c 01 70 00       	mov    $0x70012c,%esi
  40369f:	bf f0 1d 40 00       	mov    $0x401df0,%edi
  4036a4:	e8 27 01 00 00       	callq  4037d0 <do_test>
  4036a9:	ba 66 00 00 00       	mov    $0x66,%edx
  4036ae:	be 2c 01 70 00       	mov    $0x70012c,%esi
  4036b3:	bf 30 1d 40 00       	mov    $0x401d30,%edi
  4036b8:	e8 13 01 00 00       	callq  4037d0 <do_test>
  4036bd:	ba 67 00 00 00       	mov    $0x67,%edx
  4036c2:	be 2c 01 70 00       	mov    $0x70012c,%esi
  4036c7:	bf 50 1d 40 00       	mov    $0x401d50,%edi
  4036cc:	e8 ff 00 00 00       	callq  4037d0 <do_test>
  4036d1:	ba 68 00 00 00       	mov    $0x68,%edx
  4036d6:	be 2c 01 70 00       	mov    $0x70012c,%esi
  4036db:	bf 70 1d 40 00       	mov    $0x401d70,%edi
  4036e0:	e8 eb 00 00 00       	callq  4037d0 <do_test>
  4036e5:	ba 69 00 00 00       	mov    $0x69,%edx
  4036ea:	be c4 02 70 00       	mov    $0x7002c4,%esi
  4036ef:	bf 20 19 40 00       	mov    $0x401920,%edi
  4036f4:	e8 d7 00 00 00       	callq  4037d0 <do_test>
  4036f9:	ba 6a 00 00 00       	mov    $0x6a,%edx
  4036fe:	be c4 02 70 00       	mov    $0x7002c4,%esi
  403703:	bf 80 19 40 00       	mov    $0x401980,%edi
  403708:	e8 c3 00 00 00       	callq  4037d0 <do_test>
  40370d:	ba 6b 00 00 00       	mov    $0x6b,%edx
  403712:	be c4 02 70 00       	mov    $0x7002c4,%esi
  403717:	bf e0 19 40 00       	mov    $0x4019e0,%edi
  40371c:	e8 af 00 00 00       	callq  4037d0 <do_test>
  403721:	ba 6c 00 00 00       	mov    $0x6c,%edx
  403726:	be c4 02 70 00       	mov    $0x7002c4,%esi
  40372b:	bf 50 1a 40 00       	mov    $0x401a50,%edi
  403730:	e8 9b 00 00 00       	callq  4037d0 <do_test>
  403735:	ba 6d 00 00 00       	mov    $0x6d,%edx
  40373a:	be c4 02 70 00       	mov    $0x7002c4,%esi
  40373f:	bf c0 1a 40 00       	mov    $0x401ac0,%edi
  403744:	e8 87 00 00 00       	callq  4037d0 <do_test>
  403749:	ba 6e 00 00 00       	mov    $0x6e,%edx
  40374e:	be c4 02 70 00       	mov    $0x7002c4,%esi
  403753:	bf 30 1b 40 00       	mov    $0x401b30,%edi
  403758:	e8 73 00 00 00       	callq  4037d0 <do_test>
  40375d:	ba 6f 00 00 00       	mov    $0x6f,%edx
  403762:	be c4 02 70 00       	mov    $0x7002c4,%esi
  403767:	bf a0 1b 40 00       	mov    $0x401ba0,%edi
  40376c:	e8 5f 00 00 00       	callq  4037d0 <do_test>
  403771:	ba 70 00 00 00       	mov    $0x70,%edx
  403776:	be c4 02 70 00       	mov    $0x7002c4,%esi
  40377b:	bf 10 1c 40 00       	mov    $0x401c10,%edi
  403780:	e8 4b 00 00 00       	callq  4037d0 <do_test>
  403785:	ba 71 00 00 00       	mov    $0x71,%edx
  40378a:	be c4 02 70 00       	mov    $0x7002c4,%esi
  40378f:	bf 80 1c 40 00       	mov    $0x401c80,%edi
  403794:	e8 37 00 00 00       	callq  4037d0 <do_test>
  403799:	ba 72 00 00 00       	mov    $0x72,%edx
  40379e:	be c4 02 70 00       	mov    $0x7002c4,%esi
  4037a3:	bf f0 2d 40 00       	mov    $0x402df0,%edi
  4037a8:	e8 23 00 00 00       	callq  4037d0 <do_test>
  4037ad:	ba 73 00 00 00       	mov    $0x73,%edx
  4037b2:	be c4 02 70 00       	mov    $0x7002c4,%esi
  4037b7:	bf 60 2e 40 00       	mov    $0x402e60,%edi
  4037bc:	48 83 c4 08          	add    $0x8,%rsp
  4037c0:	e9 0b 00 00 00       	jmpq   4037d0 <do_test>
  4037c5:	66 2e 0f 1f 84 00 00 	nopw   %cs:0x0(%rax,%rax,1)
  4037cc:	00 00 00 
  4037cf:	90                   	nop

00000000004037d0 <do_test>:
  4037d0:	41 54                	push   %r12
  4037d2:	c7 06 00 00 00 00    	movl   $0x0,(%rsi)
  4037d8:	41 89 d4             	mov    %edx,%r12d
  4037db:	31 c0                	xor    %eax,%eax
  4037dd:	45 01 e4             	add    %r12d,%r12d
  4037e0:	55                   	push   %rbp
  4037e1:	48 89 fd             	mov    %rdi,%rbp
  4037e4:	53                   	push   %rbx
  4037e5:	48 89 f3             	mov    %rsi,%rbx
  4037e8:	ff d7                	callq  *%rdi
  4037ea:	8b 13                	mov    (%rbx),%edx
  4037ec:	44 89 e0             	mov    %r12d,%eax
  4037ef:	89 14 85 80 60 60 00 	mov    %edx,0x606080(,%rax,4)
  4037f6:	c7 03 ff ff ff ff    	movl   $0xffffffff,(%rbx)
  4037fc:	31 c0                	xor    %eax,%eax
  4037fe:	ff d5                	callq  *%rbp
  403800:	8b 13                	mov    (%rbx),%edx
  403802:	41 8d 44 24 01       	lea    0x1(%r12),%eax
  403807:	5b                   	pop    %rbx
  403808:	5d                   	pop    %rbp
  403809:	89 14 85 80 60 60 00 	mov    %edx,0x606080(,%rax,4)
  403810:	41 5c                	pop    %r12
  403812:	c3                   	retq   
  403813:	66 2e 0f 1f 84 00 00 	nopw   %cs:0x0(%rax,%rax,1)
  40381a:	00 00 00 
  40381d:	0f 1f 00             	nopl   (%rax)

0000000000403820 <__libc_csu_init>:
  403820:	41 57                	push   %r15
  403822:	41 89 ff             	mov    %edi,%r15d
  403825:	41 56                	push   %r14
  403827:	49 89 f6             	mov    %rsi,%r14
  40382a:	41 55                	push   %r13
  40382c:	49 89 d5             	mov    %rdx,%r13
  40382f:	41 54                	push   %r12
  403831:	4c 8d 25 98 25 20 00 	lea    0x202598(%rip),%r12        # 605dd0 <__frame_dummy_init_array_entry>
  403838:	55                   	push   %rbp
  403839:	48 8d 2d 98 25 20 00 	lea    0x202598(%rip),%rbp        # 605dd8 <__init_array_end>
  403840:	53                   	push   %rbx
  403841:	4c 29 e5             	sub    %r12,%rbp
  403844:	31 db                	xor    %ebx,%ebx
  403846:	48 c1 fd 03          	sar    $0x3,%rbp
  40384a:	48 83 ec 08          	sub    $0x8,%rsp
  40384e:	e8 cd cd ff ff       	callq  400620 <_init>
  403853:	48 85 ed             	test   %rbp,%rbp
  403856:	74 1e                	je     403876 <__libc_csu_init+0x56>
  403858:	0f 1f 84 00 00 00 00 	nopl   0x0(%rax,%rax,1)
  40385f:	00 
  403860:	4c 89 ea             	mov    %r13,%rdx
  403863:	4c 89 f6             	mov    %r14,%rsi
  403866:	44 89 ff             	mov    %r15d,%edi
  403869:	41 ff 14 dc          	callq  *(%r12,%rbx,8)
  40386d:	48 83 c3 01          	add    $0x1,%rbx
  403871:	48 39 eb             	cmp    %rbp,%rbx
  403874:	75 ea                	jne    403860 <__libc_csu_init+0x40>
  403876:	48 83 c4 08          	add    $0x8,%rsp
  40387a:	5b                   	pop    %rbx
  40387b:	5d                   	pop    %rbp
  40387c:	41 5c                	pop    %r12
  40387e:	41 5d                	pop    %r13
  403880:	41 5e                	pop    %r14
  403882:	41 5f                	pop    %r15
  403884:	c3                   	retq   
  403885:	90                   	nop
  403886:	66 2e 0f 1f 84 00 00 	nopw   %cs:0x0(%rax,%rax,1)
  40388d:	00 00 00 

0000000000403890 <__libc_csu_fini>:
  403890:	f3 c3                	repz retq 
