
bitfield.o:     file format elf64-x86-64


Disassembly of section .text:

0000000000000000 <zero_reg>:
       0:	c7 04 25 c4 02 70 00 	movl   $0x0,0x7002c4
       7:	00 00 00 00 
       b:	c3                   	retq   
       c:	0f 1f 40 00          	nopl   0x0(%rax)

0000000000000010 <zero_array>:
      10:	c7 04 25 2c 01 70 00 	movl   $0x0,0x70012c
      17:	00 00 00 00 
      1b:	c3                   	retq   
      1c:	0f 1f 40 00          	nopl   0x0(%rax)

0000000000000020 <set_singl_bits_operator>:
      20:	8b 04 25 c4 02 70 00 	mov    0x7002c4,%eax
      27:	83 c8 40             	or     $0x40,%eax
      2a:	89 04 25 c4 02 70 00 	mov    %eax,0x7002c4
      31:	c3                   	retq   
      32:	0f 1f 40 00          	nopl   0x0(%rax)
      36:	66 2e 0f 1f 84 00 00 	nopw   %cs:0x0(%rax,%rax,1)
      3d:	00 00 00 

0000000000000040 <set_singl_bits_method>:
      40:	8b 04 25 c4 02 70 00 	mov    0x7002c4,%eax
      47:	83 c8 40             	or     $0x40,%eax
      4a:	89 04 25 c4 02 70 00 	mov    %eax,0x7002c4
      51:	c3                   	retq   
      52:	0f 1f 40 00          	nopl   0x0(%rax)
      56:	66 2e 0f 1f 84 00 00 	nopw   %cs:0x0(%rax,%rax,1)
      5d:	00 00 00 

0000000000000060 <clr_singl_bits_operator>:
      60:	8b 04 25 c4 02 70 00 	mov    0x7002c4,%eax
      67:	83 e0 bf             	and    $0xffffffbf,%eax
      6a:	89 04 25 c4 02 70 00 	mov    %eax,0x7002c4
      71:	c3                   	retq   
      72:	0f 1f 40 00          	nopl   0x0(%rax)
      76:	66 2e 0f 1f 84 00 00 	nopw   %cs:0x0(%rax,%rax,1)
      7d:	00 00 00 

0000000000000080 <clr_singl_bits_method>:
      80:	8b 04 25 c4 02 70 00 	mov    0x7002c4,%eax
      87:	83 e0 bf             	and    $0xffffffbf,%eax
      8a:	89 04 25 c4 02 70 00 	mov    %eax,0x7002c4
      91:	c3                   	retq   
      92:	0f 1f 40 00          	nopl   0x0(%rax)
      96:	66 2e 0f 1f 84 00 00 	nopw   %cs:0x0(%rax,%rax,1)
      9d:	00 00 00 

00000000000000a0 <set_singl_mskd_operator>:
      a0:	48 8b 04 25 c0 02 70 	mov    0x7002c0,%rax
      a7:	00 
      a8:	48 c1 e8 21          	shr    $0x21,%rax
      ac:	83 e0 02             	and    $0x2,%eax
      af:	83 c8 01             	or     $0x1,%eax
      b2:	8d 14 00             	lea    (%rax,%rax,1),%edx
      b5:	8b 04 25 c4 02 70 00 	mov    0x7002c4,%eax
      bc:	83 e0 f9             	and    $0xfffffff9,%eax
      bf:	09 d0                	or     %edx,%eax
      c1:	89 04 25 c4 02 70 00 	mov    %eax,0x7002c4
      c8:	c3                   	retq   
      c9:	0f 1f 80 00 00 00 00 	nopl   0x0(%rax)

00000000000000d0 <set_singl_mskd_method>:
      d0:	48 8b 04 25 c0 02 70 	mov    0x7002c0,%rax
      d7:	00 
      d8:	48 c1 e8 21          	shr    $0x21,%rax
      dc:	83 e0 02             	and    $0x2,%eax
      df:	83 c8 01             	or     $0x1,%eax
      e2:	8d 14 00             	lea    (%rax,%rax,1),%edx
      e5:	8b 04 25 c4 02 70 00 	mov    0x7002c4,%eax
      ec:	83 e0 f9             	and    $0xfffffff9,%eax
      ef:	09 d0                	or     %edx,%eax
      f1:	89 04 25 c4 02 70 00 	mov    %eax,0x7002c4
      f8:	c3                   	retq   
      f9:	0f 1f 80 00 00 00 00 	nopl   0x0(%rax)

0000000000000100 <clr_singl_mskd_operator>:
     100:	48 8b 04 25 c0 02 70 	mov    0x7002c0,%rax
     107:	00 
     108:	48 c1 e8 21          	shr    $0x21,%rax
     10c:	83 e0 02             	and    $0x2,%eax
     10f:	0f b6 d0             	movzbl %al,%edx
     112:	8b 04 25 c4 02 70 00 	mov    0x7002c4,%eax
     119:	01 d2                	add    %edx,%edx
     11b:	83 e0 f9             	and    $0xfffffff9,%eax
     11e:	09 d0                	or     %edx,%eax
     120:	89 04 25 c4 02 70 00 	mov    %eax,0x7002c4
     127:	c3                   	retq   
     128:	0f 1f 84 00 00 00 00 	nopl   0x0(%rax,%rax,1)
     12f:	00 

0000000000000130 <clr_singl_mskd_method>:
     130:	48 8b 04 25 c0 02 70 	mov    0x7002c0,%rax
     137:	00 
     138:	48 c1 e8 21          	shr    $0x21,%rax
     13c:	83 e0 02             	and    $0x2,%eax
     13f:	0f b6 d0             	movzbl %al,%edx
     142:	8b 04 25 c4 02 70 00 	mov    0x7002c4,%eax
     149:	01 d2                	add    %edx,%edx
     14b:	83 e0 f9             	and    $0xfffffff9,%eax
     14e:	09 d0                	or     %edx,%eax
     150:	89 04 25 c4 02 70 00 	mov    %eax,0x7002c4
     157:	c3                   	retq   
     158:	0f 1f 84 00 00 00 00 	nopl   0x0(%rax,%rax,1)
     15f:	00 

0000000000000160 <equ_singl_bits_operator>:
     160:	c7 04 25 c4 02 70 00 	movl   $0x0,0x7002c4
     167:	00 00 00 00 
     16b:	8b 04 25 c4 02 70 00 	mov    0x7002c4,%eax
     172:	83 c8 40             	or     $0x40,%eax
     175:	89 04 25 c4 02 70 00 	mov    %eax,0x7002c4
     17c:	c3                   	retq   
     17d:	0f 1f 00             	nopl   (%rax)

0000000000000180 <equ_singl_bits_method>:
     180:	c7 04 25 c4 02 70 00 	movl   $0x0,0x7002c4
     187:	00 00 00 00 
     18b:	8b 04 25 c4 02 70 00 	mov    0x7002c4,%eax
     192:	83 c8 40             	or     $0x40,%eax
     195:	89 04 25 c4 02 70 00 	mov    %eax,0x7002c4
     19c:	c3                   	retq   
     19d:	0f 1f 00             	nopl   (%rax)

00000000000001a0 <equ_singl_mskd_operator>:
     1a0:	c7 04 25 c4 02 70 00 	movl   $0x0,0x7002c4
     1a7:	00 00 00 00 
     1ab:	8b 04 25 c4 02 70 00 	mov    0x7002c4,%eax
     1b2:	83 e0 f9             	and    $0xfffffff9,%eax
     1b5:	83 c8 02             	or     $0x2,%eax
     1b8:	89 04 25 c4 02 70 00 	mov    %eax,0x7002c4
     1bf:	c3                   	retq   

00000000000001c0 <equ_singl_mskd_method>:
     1c0:	c7 04 25 c4 02 70 00 	movl   $0x0,0x7002c4
     1c7:	00 00 00 00 
     1cb:	8b 04 25 c4 02 70 00 	mov    0x7002c4,%eax
     1d2:	83 e0 f9             	and    $0xfffffff9,%eax
     1d5:	83 c8 02             	or     $0x2,%eax
     1d8:	89 04 25 c4 02 70 00 	mov    %eax,0x7002c4
     1df:	c3                   	retq   

00000000000001e0 <flp_singl_bits_operator>:
     1e0:	8b 14 25 c4 02 70 00 	mov    0x7002c4,%edx
     1e7:	8b 04 25 c4 02 70 00 	mov    0x7002c4,%eax
     1ee:	f7 d2                	not    %edx
     1f0:	83 e0 bf             	and    $0xffffffbf,%eax
     1f3:	83 e2 40             	and    $0x40,%edx
     1f6:	09 d0                	or     %edx,%eax
     1f8:	89 04 25 c4 02 70 00 	mov    %eax,0x7002c4
     1ff:	c3                   	retq   

0000000000000200 <flp_singl_bits_method>:
     200:	8b 14 25 c4 02 70 00 	mov    0x7002c4,%edx
     207:	8b 04 25 c4 02 70 00 	mov    0x7002c4,%eax
     20e:	f7 d2                	not    %edx
     210:	83 e0 bf             	and    $0xffffffbf,%eax
     213:	83 e2 40             	and    $0x40,%edx
     216:	09 d0                	or     %edx,%eax
     218:	89 04 25 c4 02 70 00 	mov    %eax,0x7002c4
     21f:	c3                   	retq   

0000000000000220 <flp_singl_mskd_operator>:
     220:	48 8b 04 25 c0 02 70 	mov    0x7002c0,%rax
     227:	00 
     228:	48 c1 e8 21          	shr    $0x21,%rax
     22c:	83 e0 03             	and    $0x3,%eax
     22f:	83 f0 01             	xor    $0x1,%eax
     232:	8d 14 00             	lea    (%rax,%rax,1),%edx
     235:	8b 04 25 c4 02 70 00 	mov    0x7002c4,%eax
     23c:	83 e0 f9             	and    $0xfffffff9,%eax
     23f:	09 d0                	or     %edx,%eax
     241:	89 04 25 c4 02 70 00 	mov    %eax,0x7002c4
     248:	c3                   	retq   
     249:	0f 1f 80 00 00 00 00 	nopl   0x0(%rax)

0000000000000250 <flp_singl_mskd_method>:
     250:	48 8b 04 25 c0 02 70 	mov    0x7002c0,%rax
     257:	00 
     258:	48 c1 e8 21          	shr    $0x21,%rax
     25c:	83 e0 03             	and    $0x3,%eax
     25f:	83 f0 01             	xor    $0x1,%eax
     262:	8d 14 00             	lea    (%rax,%rax,1),%edx
     265:	8b 04 25 c4 02 70 00 	mov    0x7002c4,%eax
     26c:	83 e0 f9             	and    $0xfffffff9,%eax
     26f:	09 d0                	or     %edx,%eax
     271:	89 04 25 c4 02 70 00 	mov    %eax,0x7002c4
     278:	c3                   	retq   
     279:	0f 1f 80 00 00 00 00 	nopl   0x0(%rax)

0000000000000280 <ins_singl_mskd_operator>:
     280:	8b 04 25 c4 02 70 00 	mov    0x7002c4,%eax
     287:	83 e0 f9             	and    $0xfffffff9,%eax
     28a:	83 c8 04             	or     $0x4,%eax
     28d:	89 04 25 c4 02 70 00 	mov    %eax,0x7002c4
     294:	c3                   	retq   
     295:	90                   	nop
     296:	66 2e 0f 1f 84 00 00 	nopw   %cs:0x0(%rax,%rax,1)
     29d:	00 00 00 

00000000000002a0 <ins_singl_mskd_method>:
     2a0:	8b 04 25 c4 02 70 00 	mov    0x7002c4,%eax
     2a7:	83 e0 f9             	and    $0xfffffff9,%eax
     2aa:	83 c8 04             	or     $0x4,%eax
     2ad:	89 04 25 c4 02 70 00 	mov    %eax,0x7002c4
     2b4:	c3                   	retq   
     2b5:	90                   	nop
     2b6:	66 2e 0f 1f 84 00 00 	nopw   %cs:0x0(%rax,%rax,1)
     2bd:	00 00 00 

00000000000002c0 <set_multi_bits_operator>:
     2c0:	8b 04 25 c4 02 70 00 	mov    0x7002c4,%eax
     2c7:	83 c8 01             	or     $0x1,%eax
     2ca:	89 04 25 c4 02 70 00 	mov    %eax,0x7002c4
     2d1:	8b 04 25 c4 02 70 00 	mov    0x7002c4,%eax
     2d8:	83 c8 20             	or     $0x20,%eax
     2db:	89 04 25 c4 02 70 00 	mov    %eax,0x7002c4
     2e2:	c3                   	retq   
     2e3:	0f 1f 00             	nopl   (%rax)
     2e6:	66 2e 0f 1f 84 00 00 	nopw   %cs:0x0(%rax,%rax,1)
     2ed:	00 00 00 

00000000000002f0 <set_multi_bits_method>:
     2f0:	8b 04 25 c4 02 70 00 	mov    0x7002c4,%eax
     2f7:	83 c8 01             	or     $0x1,%eax
     2fa:	89 04 25 c4 02 70 00 	mov    %eax,0x7002c4
     301:	8b 04 25 c4 02 70 00 	mov    0x7002c4,%eax
     308:	83 c8 20             	or     $0x20,%eax
     30b:	89 04 25 c4 02 70 00 	mov    %eax,0x7002c4
     312:	c3                   	retq   
     313:	0f 1f 00             	nopl   (%rax)
     316:	66 2e 0f 1f 84 00 00 	nopw   %cs:0x0(%rax,%rax,1)
     31d:	00 00 00 

0000000000000320 <ins_multi_mskd_operator>:
     320:	8b 04 25 c4 02 70 00 	mov    0x7002c4,%eax
     327:	25 7f f0 ff ff       	and    $0xfffff07f,%eax
     32c:	0d 80 01 00 00       	or     $0x180,%eax
     331:	89 04 25 c4 02 70 00 	mov    %eax,0x7002c4
     338:	8b 04 25 c4 02 70 00 	mov    0x7002c4,%eax
     33f:	83 e0 f9             	and    $0xfffffff9,%eax
     342:	83 c8 02             	or     $0x2,%eax
     345:	89 04 25 c4 02 70 00 	mov    %eax,0x7002c4
     34c:	c3                   	retq   
     34d:	0f 1f 00             	nopl   (%rax)

0000000000000350 <ins_multi_mskd_method>:
     350:	8b 04 25 c4 02 70 00 	mov    0x7002c4,%eax
     357:	25 7f f0 ff ff       	and    $0xfffff07f,%eax
     35c:	0d 80 01 00 00       	or     $0x180,%eax
     361:	89 04 25 c4 02 70 00 	mov    %eax,0x7002c4
     368:	8b 04 25 c4 02 70 00 	mov    0x7002c4,%eax
     36f:	83 e0 f9             	and    $0xfffffff9,%eax
     372:	83 c8 02             	or     $0x2,%eax
     375:	89 04 25 c4 02 70 00 	mov    %eax,0x7002c4
     37c:	c3                   	retq   
     37d:	0f 1f 00             	nopl   (%rax)

0000000000000380 <equ_multi_bits_operator>:
     380:	c7 04 25 c4 02 70 00 	movl   $0x0,0x7002c4
     387:	00 00 00 00 
     38b:	8b 04 25 c4 02 70 00 	mov    0x7002c4,%eax
     392:	83 c8 20             	or     $0x20,%eax
     395:	89 04 25 c4 02 70 00 	mov    %eax,0x7002c4
     39c:	8b 04 25 c4 02 70 00 	mov    0x7002c4,%eax
     3a3:	83 c8 40             	or     $0x40,%eax
     3a6:	89 04 25 c4 02 70 00 	mov    %eax,0x7002c4
     3ad:	c3                   	retq   
     3ae:	66 90                	xchg   %ax,%ax

00000000000003b0 <equ_multi_bits_method>:
     3b0:	c7 04 25 c4 02 70 00 	movl   $0x0,0x7002c4
     3b7:	00 00 00 00 
     3bb:	8b 04 25 c4 02 70 00 	mov    0x7002c4,%eax
     3c2:	83 c8 20             	or     $0x20,%eax
     3c5:	89 04 25 c4 02 70 00 	mov    %eax,0x7002c4
     3cc:	8b 04 25 c4 02 70 00 	mov    0x7002c4,%eax
     3d3:	83 c8 40             	or     $0x40,%eax
     3d6:	89 04 25 c4 02 70 00 	mov    %eax,0x7002c4
     3dd:	c3                   	retq   
     3de:	66 90                	xchg   %ax,%ax

00000000000003e0 <equ_multi_mskd_operator>:
     3e0:	c7 04 25 c4 02 70 00 	movl   $0x0,0x7002c4
     3e7:	00 00 00 00 
     3eb:	8b 04 25 c4 02 70 00 	mov    0x7002c4,%eax
     3f2:	83 e0 e7             	and    $0xffffffe7,%eax
     3f5:	83 c8 08             	or     $0x8,%eax
     3f8:	89 04 25 c4 02 70 00 	mov    %eax,0x7002c4
     3ff:	8b 04 25 c4 02 70 00 	mov    0x7002c4,%eax
     406:	25 7f f0 ff ff       	and    $0xfffff07f,%eax
     40b:	80 cc 03             	or     $0x3,%ah
     40e:	89 04 25 c4 02 70 00 	mov    %eax,0x7002c4
     415:	c3                   	retq   
     416:	66 2e 0f 1f 84 00 00 	nopw   %cs:0x0(%rax,%rax,1)
     41d:	00 00 00 

0000000000000420 <equ_multi_mskd_method>:
     420:	c7 04 25 c4 02 70 00 	movl   $0x0,0x7002c4
     427:	00 00 00 00 
     42b:	8b 04 25 c4 02 70 00 	mov    0x7002c4,%eax
     432:	83 e0 e7             	and    $0xffffffe7,%eax
     435:	83 c8 08             	or     $0x8,%eax
     438:	89 04 25 c4 02 70 00 	mov    %eax,0x7002c4
     43f:	8b 04 25 c4 02 70 00 	mov    0x7002c4,%eax
     446:	25 7f f0 ff ff       	and    $0xfffff07f,%eax
     44b:	80 cc 03             	or     $0x3,%ah
     44e:	89 04 25 c4 02 70 00 	mov    %eax,0x7002c4
     455:	c3                   	retq   
     456:	66 2e 0f 1f 84 00 00 	nopw   %cs:0x0(%rax,%rax,1)
     45d:	00 00 00 

0000000000000460 <equ_bits_mskd_operator>:
     460:	c7 04 25 c4 02 70 00 	movl   $0x0,0x7002c4
     467:	00 00 00 00 
     46b:	8b 04 25 c4 02 70 00 	mov    0x7002c4,%eax
     472:	83 c8 20             	or     $0x20,%eax
     475:	89 04 25 c4 02 70 00 	mov    %eax,0x7002c4
     47c:	8b 04 25 c4 02 70 00 	mov    0x7002c4,%eax
     483:	83 e0 f9             	and    $0xfffffff9,%eax
     486:	83 c8 02             	or     $0x2,%eax
     489:	89 04 25 c4 02 70 00 	mov    %eax,0x7002c4
     490:	c3                   	retq   
     491:	0f 1f 44 00 00       	nopl   0x0(%rax,%rax,1)
     496:	66 2e 0f 1f 84 00 00 	nopw   %cs:0x0(%rax,%rax,1)
     49d:	00 00 00 

00000000000004a0 <equ_bits_mskd_method>:
     4a0:	c7 04 25 c4 02 70 00 	movl   $0x0,0x7002c4
     4a7:	00 00 00 00 
     4ab:	8b 04 25 c4 02 70 00 	mov    0x7002c4,%eax
     4b2:	83 c8 20             	or     $0x20,%eax
     4b5:	89 04 25 c4 02 70 00 	mov    %eax,0x7002c4
     4bc:	8b 04 25 c4 02 70 00 	mov    0x7002c4,%eax
     4c3:	83 e0 f9             	and    $0xfffffff9,%eax
     4c6:	83 c8 02             	or     $0x2,%eax
     4c9:	89 04 25 c4 02 70 00 	mov    %eax,0x7002c4
     4d0:	c3                   	retq   
     4d1:	0f 1f 44 00 00       	nopl   0x0(%rax,%rax,1)
     4d6:	66 2e 0f 1f 84 00 00 	nopw   %cs:0x0(%rax,%rax,1)
     4dd:	00 00 00 

00000000000004e0 <equ_mskd_bits_operator>:
     4e0:	c7 04 25 c4 02 70 00 	movl   $0x0,0x7002c4
     4e7:	00 00 00 00 
     4eb:	8b 04 25 c4 02 70 00 	mov    0x7002c4,%eax
     4f2:	83 e0 f9             	and    $0xfffffff9,%eax
     4f5:	83 c8 04             	or     $0x4,%eax
     4f8:	89 04 25 c4 02 70 00 	mov    %eax,0x7002c4
     4ff:	8b 04 25 c4 02 70 00 	mov    0x7002c4,%eax
     506:	83 c8 40             	or     $0x40,%eax
     509:	89 04 25 c4 02 70 00 	mov    %eax,0x7002c4
     510:	c3                   	retq   
     511:	0f 1f 44 00 00       	nopl   0x0(%rax,%rax,1)
     516:	66 2e 0f 1f 84 00 00 	nopw   %cs:0x0(%rax,%rax,1)
     51d:	00 00 00 

0000000000000520 <equ_mskd_bits_method>:
     520:	c7 04 25 c4 02 70 00 	movl   $0x0,0x7002c4
     527:	00 00 00 00 
     52b:	8b 04 25 c4 02 70 00 	mov    0x7002c4,%eax
     532:	83 e0 f9             	and    $0xfffffff9,%eax
     535:	83 c8 04             	or     $0x4,%eax
     538:	89 04 25 c4 02 70 00 	mov    %eax,0x7002c4
     53f:	8b 04 25 c4 02 70 00 	mov    0x7002c4,%eax
     546:	83 c8 40             	or     $0x40,%eax
     549:	89 04 25 c4 02 70 00 	mov    %eax,0x7002c4
     550:	c3                   	retq   
     551:	0f 1f 44 00 00       	nopl   0x0(%rax,%rax,1)
     556:	66 2e 0f 1f 84 00 00 	nopw   %cs:0x0(%rax,%rax,1)
     55d:	00 00 00 

0000000000000560 <equ_bits_var>:
     560:	c7 04 25 c4 02 70 00 	movl   $0x0,0x7002c4
     567:	00 00 00 00 
     56b:	8b 04 25 c4 02 70 00 	mov    0x7002c4,%eax
     572:	83 c8 40             	or     $0x40,%eax
     575:	89 04 25 c4 02 70 00 	mov    %eax,0x7002c4
     57c:	c7 04 25 c4 02 70 00 	movl   $0x0,0x7002c4
     583:	00 00 00 00 
     587:	8b 04 25 c4 02 70 00 	mov    0x7002c4,%eax
     58e:	83 c8 01             	or     $0x1,%eax
     591:	89 04 25 c4 02 70 00 	mov    %eax,0x7002c4
     598:	c3                   	retq   
     599:	0f 1f 80 00 00 00 00 	nopl   0x0(%rax)

00000000000005a0 <equ_mskd_var>:
     5a0:	c7 04 25 c4 02 70 00 	movl   $0x0,0x7002c4
     5a7:	00 00 00 00 
     5ab:	8b 04 25 c4 02 70 00 	mov    0x7002c4,%eax
     5b2:	83 e0 f9             	and    $0xfffffff9,%eax
     5b5:	83 c8 02             	or     $0x2,%eax
     5b8:	89 04 25 c4 02 70 00 	mov    %eax,0x7002c4
     5bf:	c7 04 25 c4 02 70 00 	movl   $0x0,0x7002c4
     5c6:	00 00 00 00 
     5ca:	8b 04 25 c4 02 70 00 	mov    0x7002c4,%eax
     5d1:	25 7f f0 ff ff       	and    $0xfffff07f,%eax
     5d6:	0d 80 01 00 00       	or     $0x180,%eax
     5db:	89 04 25 c4 02 70 00 	mov    %eax,0x7002c4
     5e2:	c3                   	retq   
     5e3:	0f 1f 00             	nopl   (%rax)
     5e6:	66 2e 0f 1f 84 00 00 	nopw   %cs:0x0(%rax,%rax,1)
     5ed:	00 00 00 

00000000000005f0 <cmp_equ_zero>:
     5f0:	c7 04 25 c4 02 70 00 	movl   $0x0,0x7002c4
     5f7:	00 00 00 00 
     5fb:	c7 04 25 24 02 70 00 	movl   $0x0,0x700224
     602:	00 00 00 00 
     606:	8b 04 25 c4 02 70 00 	mov    0x7002c4,%eax
     60d:	85 c0                	test   %eax,%eax
     60f:	8b 04 25 24 02 70 00 	mov    0x700224,%eax
     616:	74 18                	je     630 <cmp_equ_zero+0x40>
     618:	25 ff ff ff c1       	and    $0xc1ffffff,%eax
     61d:	0d 00 00 00 22       	or     $0x22000000,%eax
     622:	89 04 25 24 02 70 00 	mov    %eax,0x700224
     629:	c3                   	retq   
     62a:	66 0f 1f 44 00 00    	nopw   0x0(%rax,%rax,1)
     630:	25 ff ff ff c1       	and    $0xc1ffffff,%eax
     635:	0d 00 00 00 3a       	or     $0x3a000000,%eax
     63a:	89 04 25 24 02 70 00 	mov    %eax,0x700224
     641:	c3                   	retq   
     642:	0f 1f 40 00          	nopl   0x0(%rax)
     646:	66 2e 0f 1f 84 00 00 	nopw   %cs:0x0(%rax,%rax,1)
     64d:	00 00 00 

0000000000000650 <cmp_neq_zero>:
     650:	c7 04 25 c4 02 70 00 	movl   $0x0,0x7002c4
     657:	00 00 00 00 
     65b:	8b 04 25 c4 02 70 00 	mov    0x7002c4,%eax
     662:	85 c0                	test   %eax,%eax
     664:	8b 04 25 c4 02 70 00 	mov    0x7002c4,%eax
     66b:	75 13                	jne    680 <cmp_neq_zero+0x30>
     66d:	83 c8 20             	or     $0x20,%eax
     670:	89 04 25 c4 02 70 00 	mov    %eax,0x7002c4
     677:	c3                   	retq   
     678:	0f 1f 84 00 00 00 00 	nopl   0x0(%rax,%rax,1)
     67f:	00 
     680:	83 e0 f9             	and    $0xfffffff9,%eax
     683:	83 c8 04             	or     $0x4,%eax
     686:	89 04 25 c4 02 70 00 	mov    %eax,0x7002c4
     68d:	c3                   	retq   
     68e:	66 90                	xchg   %ax,%ax

0000000000000690 <cmp_equ_bits>:
     690:	c7 04 25 c4 02 70 00 	movl   $0x0,0x7002c4
     697:	00 00 00 00 
     69b:	8b 04 25 c4 02 70 00 	mov    0x7002c4,%eax
     6a2:	83 c8 40             	or     $0x40,%eax
     6a5:	89 04 25 c4 02 70 00 	mov    %eax,0x7002c4
     6ac:	8b 04 25 c4 02 70 00 	mov    0x7002c4,%eax
     6b3:	a8 40                	test   $0x40,%al
     6b5:	8b 04 25 24 02 70 00 	mov    0x700224,%eax
     6bc:	75 12                	jne    6d0 <cmp_equ_bits+0x40>
     6be:	25 ff ff ff c1       	and    $0xc1ffffff,%eax
     6c3:	0d 00 00 00 1a       	or     $0x1a000000,%eax
     6c8:	89 04 25 24 02 70 00 	mov    %eax,0x700224
     6cf:	c3                   	retq   
     6d0:	25 ff ff ff c1       	and    $0xc1ffffff,%eax
     6d5:	0d 00 00 00 16       	or     $0x16000000,%eax
     6da:	89 04 25 24 02 70 00 	mov    %eax,0x700224
     6e1:	c3                   	retq   
     6e2:	0f 1f 40 00          	nopl   0x0(%rax)
     6e6:	66 2e 0f 1f 84 00 00 	nopw   %cs:0x0(%rax,%rax,1)
     6ed:	00 00 00 

00000000000006f0 <cmp_neq_bits>:
     6f0:	c7 04 25 c4 02 70 00 	movl   $0x0,0x7002c4
     6f7:	00 00 00 00 
     6fb:	8b 04 25 c4 02 70 00 	mov    0x7002c4,%eax
     702:	83 c8 40             	or     $0x40,%eax
     705:	89 04 25 c4 02 70 00 	mov    %eax,0x7002c4
     70c:	8b 04 25 c4 02 70 00 	mov    0x7002c4,%eax
     713:	c7 04 25 c4 02 70 00 	movl   $0x0,0x7002c4
     71a:	00 00 00 00 
     71e:	a8 40                	test   $0x40,%al
     720:	8b 04 25 c4 02 70 00 	mov    0x7002c4,%eax
     727:	74 0f                	je     738 <cmp_neq_bits+0x48>
     729:	83 c8 20             	or     $0x20,%eax
     72c:	89 04 25 c4 02 70 00 	mov    %eax,0x7002c4
     733:	c3                   	retq   
     734:	0f 1f 40 00          	nopl   0x0(%rax)
     738:	83 e0 f9             	and    $0xfffffff9,%eax
     73b:	83 c8 02             	or     $0x2,%eax
     73e:	89 04 25 c4 02 70 00 	mov    %eax,0x7002c4
     745:	c3                   	retq   
     746:	66 2e 0f 1f 84 00 00 	nopw   %cs:0x0(%rax,%rax,1)
     74d:	00 00 00 

0000000000000750 <cmp_equ_multi_bits>:
     750:	c7 04 25 c4 02 70 00 	movl   $0x0,0x7002c4
     757:	00 00 00 00 
     75b:	8b 04 25 c4 02 70 00 	mov    0x7002c4,%eax
     762:	83 c8 20             	or     $0x20,%eax
     765:	89 04 25 c4 02 70 00 	mov    %eax,0x7002c4
     76c:	8b 04 25 c4 02 70 00 	mov    0x7002c4,%eax
     773:	83 c8 40             	or     $0x40,%eax
     776:	89 04 25 c4 02 70 00 	mov    %eax,0x7002c4
     77d:	8b 04 25 c4 02 70 00 	mov    0x7002c4,%eax
     784:	a8 20                	test   $0x20,%al
     786:	74 0b                	je     793 <cmp_equ_multi_bits+0x43>
     788:	8b 04 25 c4 02 70 00 	mov    0x7002c4,%eax
     78f:	a8 40                	test   $0x40,%al
     791:	75 2d                	jne    7c0 <cmp_equ_multi_bits+0x70>
     793:	c7 04 25 24 02 70 00 	movl   $0x0,0x700224
     79a:	00 00 00 00 
     79e:	8b 04 25 24 02 70 00 	mov    0x700224,%eax
     7a5:	25 ff ff ff c1       	and    $0xc1ffffff,%eax
     7aa:	0d 00 00 00 2e       	or     $0x2e000000,%eax
     7af:	89 04 25 24 02 70 00 	mov    %eax,0x700224
     7b6:	c3                   	retq   
     7b7:	66 0f 1f 84 00 00 00 	nopw   0x0(%rax,%rax,1)
     7be:	00 00 
     7c0:	c7 04 25 24 02 70 00 	movl   $0x0,0x700224
     7c7:	00 00 00 00 
     7cb:	8b 04 25 24 02 70 00 	mov    0x700224,%eax
     7d2:	25 ff ff ff c1       	and    $0xc1ffffff,%eax
     7d7:	0d 00 00 00 22       	or     $0x22000000,%eax
     7dc:	89 04 25 24 02 70 00 	mov    %eax,0x700224
     7e3:	c3                   	retq   
     7e4:	66 90                	xchg   %ax,%ax
     7e6:	66 2e 0f 1f 84 00 00 	nopw   %cs:0x0(%rax,%rax,1)
     7ed:	00 00 00 

00000000000007f0 <cmp_neq_multi_bits>:
     7f0:	c7 04 25 c4 02 70 00 	movl   $0x0,0x7002c4
     7f7:	00 00 00 00 
     7fb:	8b 04 25 c4 02 70 00 	mov    0x7002c4,%eax
     802:	83 c8 20             	or     $0x20,%eax
     805:	89 04 25 c4 02 70 00 	mov    %eax,0x7002c4
     80c:	8b 04 25 c4 02 70 00 	mov    0x7002c4,%eax
     813:	83 c8 40             	or     $0x40,%eax
     816:	89 04 25 c4 02 70 00 	mov    %eax,0x7002c4
     81d:	8b 04 25 c4 02 70 00 	mov    0x7002c4,%eax
     824:	a8 20                	test   $0x20,%al
     826:	75 0b                	jne    833 <cmp_neq_multi_bits+0x43>
     828:	8b 04 25 c4 02 70 00 	mov    0x7002c4,%eax
     82f:	a8 40                	test   $0x40,%al
     831:	74 25                	je     858 <cmp_neq_multi_bits+0x68>
     833:	c7 04 25 24 02 70 00 	movl   $0x0,0x700224
     83a:	00 00 00 00 
     83e:	8b 04 25 24 02 70 00 	mov    0x700224,%eax
     845:	0d 00 00 00 3e       	or     $0x3e000000,%eax
     84a:	89 04 25 24 02 70 00 	mov    %eax,0x700224
     851:	c3                   	retq   
     852:	66 0f 1f 44 00 00    	nopw   0x0(%rax,%rax,1)
     858:	c7 04 25 24 02 70 00 	movl   $0x0,0x700224
     85f:	00 00 00 00 
     863:	8b 04 25 24 02 70 00 	mov    0x700224,%eax
     86a:	25 ff ff ff c1       	and    $0xc1ffffff,%eax
     86f:	0d 00 00 00 3a       	or     $0x3a000000,%eax
     874:	89 04 25 24 02 70 00 	mov    %eax,0x700224
     87b:	c3                   	retq   
     87c:	0f 1f 40 00          	nopl   0x0(%rax)

0000000000000880 <cmp_equ_mskd>:
     880:	c7 04 25 c4 02 70 00 	movl   $0x0,0x7002c4
     887:	00 00 00 00 
     88b:	8b 04 25 c4 02 70 00 	mov    0x7002c4,%eax
     892:	25 ff 0f fe ff       	and    $0xfffe0fff,%eax
     897:	0d 00 d0 01 00       	or     $0x1d000,%eax
     89c:	89 04 25 c4 02 70 00 	mov    %eax,0x7002c4
     8a3:	8b 04 25 c4 02 70 00 	mov    0x7002c4,%eax
     8aa:	25 00 f0 01 00       	and    $0x1f000,%eax
     8af:	3d 00 10 01 00       	cmp    $0x11000,%eax
     8b4:	8b 04 25 24 02 70 00 	mov    0x700224,%eax
     8bb:	74 13                	je     8d0 <cmp_equ_mskd+0x50>
     8bd:	25 ff ff ff c1       	and    $0xc1ffffff,%eax
     8c2:	0d 00 00 00 22       	or     $0x22000000,%eax
     8c7:	89 04 25 24 02 70 00 	mov    %eax,0x700224
     8ce:	c3                   	retq   
     8cf:	90                   	nop
     8d0:	25 ff ff ff c1       	and    $0xc1ffffff,%eax
     8d5:	0d 00 00 00 0e       	or     $0xe000000,%eax
     8da:	89 04 25 24 02 70 00 	mov    %eax,0x700224
     8e1:	c3                   	retq   
     8e2:	0f 1f 40 00          	nopl   0x0(%rax)
     8e6:	66 2e 0f 1f 84 00 00 	nopw   %cs:0x0(%rax,%rax,1)
     8ed:	00 00 00 

00000000000008f0 <cmp_neq_mskd>:
     8f0:	c7 04 25 c4 02 70 00 	movl   $0x0,0x7002c4
     8f7:	00 00 00 00 
     8fb:	8b 04 25 c4 02 70 00 	mov    0x7002c4,%eax
     902:	25 ff 0f fe ff       	and    $0xfffe0fff,%eax
     907:	0d 00 d0 01 00       	or     $0x1d000,%eax
     90c:	89 04 25 c4 02 70 00 	mov    %eax,0x7002c4
     913:	8b 04 25 c4 02 70 00 	mov    0x7002c4,%eax
     91a:	25 00 f0 01 00       	and    $0x1f000,%eax
     91f:	3d 00 10 01 00       	cmp    $0x11000,%eax
     924:	8b 04 25 c4 02 70 00 	mov    0x7002c4,%eax
     92b:	74 13                	je     940 <cmp_neq_mskd+0x50>
     92d:	83 e0 f9             	and    $0xfffffff9,%eax
     930:	83 c8 04             	or     $0x4,%eax
     933:	89 04 25 c4 02 70 00 	mov    %eax,0x7002c4
     93a:	c3                   	retq   
     93b:	0f 1f 44 00 00       	nopl   0x0(%rax,%rax,1)
     940:	83 c8 40             	or     $0x40,%eax
     943:	89 04 25 c4 02 70 00 	mov    %eax,0x7002c4
     94a:	c3                   	retq   
     94b:	0f 1f 44 00 00       	nopl   0x0(%rax,%rax,1)

0000000000000950 <cmp_equ_reg>:
     950:	c7 04 25 c4 02 70 00 	movl   $0x0,0x7002c4
     957:	00 00 00 00 
     95b:	8b 04 25 c4 02 70 00 	mov    0x7002c4,%eax
     962:	83 c8 20             	or     $0x20,%eax
     965:	89 04 25 c4 02 70 00 	mov    %eax,0x7002c4
     96c:	8b 04 25 c4 02 70 00 	mov    0x7002c4,%eax
     973:	83 e0 f9             	and    $0xfffffff9,%eax
     976:	83 c8 02             	or     $0x2,%eax
     979:	89 04 25 c4 02 70 00 	mov    %eax,0x7002c4
     980:	8b 04 25 c4 02 70 00 	mov    0x7002c4,%eax
     987:	a8 01                	test   $0x1,%al
     989:	75 0f                	jne    99a <cmp_equ_reg+0x4a>
     98b:	8b 04 25 c4 02 70 00 	mov    0x7002c4,%eax
     992:	83 e0 06             	and    $0x6,%eax
     995:	83 f8 02             	cmp    $0x2,%eax
     998:	74 26                	je     9c0 <cmp_equ_reg+0x70>
     99a:	c7 04 25 24 02 70 00 	movl   $0x0,0x700224
     9a1:	00 00 00 00 
     9a5:	8b 04 25 24 02 70 00 	mov    0x700224,%eax
     9ac:	25 ff ff ff c1       	and    $0xc1ffffff,%eax
     9b1:	0d 00 00 00 2e       	or     $0x2e000000,%eax
     9b6:	89 04 25 24 02 70 00 	mov    %eax,0x700224
     9bd:	c3                   	retq   
     9be:	66 90                	xchg   %ax,%ax
     9c0:	8b 04 25 c4 02 70 00 	mov    0x7002c4,%eax
     9c7:	a8 01                	test   $0x1,%al
     9c9:	75 cf                	jne    99a <cmp_equ_reg+0x4a>
     9cb:	8b 04 25 c4 02 70 00 	mov    0x7002c4,%eax
     9d2:	a8 20                	test   $0x20,%al
     9d4:	74 c4                	je     99a <cmp_equ_reg+0x4a>
     9d6:	8b 04 25 c4 02 70 00 	mov    0x7002c4,%eax
     9dd:	a8 40                	test   $0x40,%al
     9df:	75 b9                	jne    99a <cmp_equ_reg+0x4a>
     9e1:	8b 04 25 c4 02 70 00 	mov    0x7002c4,%eax
     9e8:	a9 80 0f 00 00       	test   $0xf80,%eax
     9ed:	75 ab                	jne    99a <cmp_equ_reg+0x4a>
     9ef:	8b 04 25 c4 02 70 00 	mov    0x7002c4,%eax
     9f6:	a9 00 f0 01 00       	test   $0x1f000,%eax
     9fb:	75 9d                	jne    99a <cmp_equ_reg+0x4a>
     9fd:	c7 04 25 24 02 70 00 	movl   $0x0,0x700224
     a04:	00 00 00 00 
     a08:	8b 04 25 24 02 70 00 	mov    0x700224,%eax
     a0f:	25 ff ff ff c1       	and    $0xc1ffffff,%eax
     a14:	0d 00 00 00 2a       	or     $0x2a000000,%eax
     a19:	89 04 25 24 02 70 00 	mov    %eax,0x700224
     a20:	c3                   	retq   
     a21:	0f 1f 44 00 00       	nopl   0x0(%rax,%rax,1)
     a26:	66 2e 0f 1f 84 00 00 	nopw   %cs:0x0(%rax,%rax,1)
     a2d:	00 00 00 

0000000000000a30 <cmp_neq_reg>:
     a30:	c7 04 25 c4 02 70 00 	movl   $0x0,0x7002c4
     a37:	00 00 00 00 
     a3b:	8b 04 25 c4 02 70 00 	mov    0x7002c4,%eax
     a42:	83 c8 20             	or     $0x20,%eax
     a45:	89 04 25 c4 02 70 00 	mov    %eax,0x7002c4
     a4c:	8b 04 25 c4 02 70 00 	mov    0x7002c4,%eax
     a53:	83 e0 f9             	and    $0xfffffff9,%eax
     a56:	83 c8 02             	or     $0x2,%eax
     a59:	89 04 25 c4 02 70 00 	mov    %eax,0x7002c4
     a60:	8b 04 25 c4 02 70 00 	mov    0x7002c4,%eax
     a67:	a8 01                	test   $0x1,%al
     a69:	75 0f                	jne    a7a <cmp_neq_reg+0x4a>
     a6b:	8b 04 25 c4 02 70 00 	mov    0x7002c4,%eax
     a72:	83 e0 06             	and    $0x6,%eax
     a75:	83 f8 02             	cmp    $0x2,%eax
     a78:	74 26                	je     aa0 <cmp_neq_reg+0x70>
     a7a:	c7 04 25 c4 02 70 00 	movl   $0x0,0x7002c4
     a81:	00 00 00 00 
     a85:	8b 04 25 c4 02 70 00 	mov    0x7002c4,%eax
     a8c:	83 e0 f9             	and    $0xfffffff9,%eax
     a8f:	83 c8 02             	or     $0x2,%eax
     a92:	89 04 25 c4 02 70 00 	mov    %eax,0x7002c4
     a99:	c3                   	retq   
     a9a:	66 0f 1f 44 00 00    	nopw   0x0(%rax,%rax,1)
     aa0:	8b 04 25 c4 02 70 00 	mov    0x7002c4,%eax
     aa7:	a8 01                	test   $0x1,%al
     aa9:	75 cf                	jne    a7a <cmp_neq_reg+0x4a>
     aab:	8b 04 25 c4 02 70 00 	mov    0x7002c4,%eax
     ab2:	a8 20                	test   $0x20,%al
     ab4:	74 c4                	je     a7a <cmp_neq_reg+0x4a>
     ab6:	8b 04 25 c4 02 70 00 	mov    0x7002c4,%eax
     abd:	a8 40                	test   $0x40,%al
     abf:	75 b9                	jne    a7a <cmp_neq_reg+0x4a>
     ac1:	8b 04 25 c4 02 70 00 	mov    0x7002c4,%eax
     ac8:	a9 80 0f 00 00       	test   $0xf80,%eax
     acd:	75 ab                	jne    a7a <cmp_neq_reg+0x4a>
     acf:	8b 04 25 c4 02 70 00 	mov    0x7002c4,%eax
     ad6:	a9 00 f0 01 00       	test   $0x1f000,%eax
     adb:	75 9d                	jne    a7a <cmp_neq_reg+0x4a>
     add:	c7 04 25 c4 02 70 00 	movl   $0x0,0x7002c4
     ae4:	00 00 00 00 
     ae8:	8b 04 25 c4 02 70 00 	mov    0x7002c4,%eax
     aef:	83 c8 20             	or     $0x20,%eax
     af2:	89 04 25 c4 02 70 00 	mov    %eax,0x7002c4
     af9:	c3                   	retq   
     afa:	66 0f 1f 44 00 00    	nopw   0x0(%rax,%rax,1)

0000000000000b00 <constexpr_bits_array>:
     b00:	c7 04 25 2c 01 70 00 	movl   $0x6,0x70012c
     b07:	06 00 00 00 
     b0b:	c7 04 25 a0 01 70 00 	movl   $0x0,0x7001a0
     b12:	00 00 00 00 
     b16:	8b 04 25 a0 01 70 00 	mov    0x7001a0,%eax
     b1d:	80 cc 20             	or     $0x20,%ah
     b20:	89 04 25 a0 01 70 00 	mov    %eax,0x7001a0
     b27:	c3                   	retq   
     b28:	0f 1f 84 00 00 00 00 	nopl   0x0(%rax,%rax,1)
     b2f:	00 

0000000000000b30 <runtime_bits_array>:
     b30:	c7 44 24 fc 03 00 00 	movl   $0x3,-0x4(%rsp)
     b37:	00 
     b38:	8b 44 24 fc          	mov    -0x4(%rsp),%eax
     b3c:	48 83 c0 08          	add    $0x8,%rax
     b40:	c7 04 85 00 01 70 00 	movl   $0x21,0x700100(,%rax,4)
     b47:	21 00 00 00 
     b4b:	c7 44 24 fc 07 00 00 	movl   $0x7,-0x4(%rsp)
     b52:	00 
     b53:	c7 04 25 a0 01 70 00 	movl   $0x0,0x7001a0
     b5a:	00 00 00 00 
     b5e:	8b 44 24 fc          	mov    -0x4(%rsp),%eax
     b62:	83 f8 07             	cmp    $0x7,%eax
     b65:	74 09                	je     b70 <runtime_bits_array+0x40>
     b67:	f3 c3                	repz retq 
     b69:	0f 1f 80 00 00 00 00 	nopl   0x0(%rax)
     b70:	8b 04 25 a0 01 70 00 	mov    0x7001a0,%eax
     b77:	0c 80                	or     $0x80,%al
     b79:	89 04 25 a0 01 70 00 	mov    %eax,0x7001a0
     b80:	c3                   	retq   
     b81:	0f 1f 44 00 00       	nopl   0x0(%rax,%rax,1)
     b86:	66 2e 0f 1f 84 00 00 	nopw   %cs:0x0(%rax,%rax,1)
     b8d:	00 00 00 

0000000000000b90 <prescaler_low>:
     b90:	8b 04 25 24 02 70 00 	mov    0x700224,%eax
     b97:	83 e0 80             	and    $0xffffff80,%eax
     b9a:	83 c8 77             	or     $0x77,%eax
     b9d:	89 04 25 24 02 70 00 	mov    %eax,0x700224
     ba4:	48 8b 04 25 20 02 70 	mov    0x700220,%rax
     bab:	00 
     bac:	48 c1 e8 20          	shr    $0x20,%rax
     bb0:	83 e0 7f             	and    $0x7f,%eax
     bb3:	89 04 25 2c 01 70 00 	mov    %eax,0x70012c
     bba:	c3                   	retq   
     bbb:	0f 1f 44 00 00       	nopl   0x0(%rax,%rax,1)

0000000000000bc0 <prescaler_high>:
     bc0:	8b 04 25 24 02 70 00 	mov    0x700224,%eax
     bc7:	25 ff ff ff c1       	and    $0xc1ffffff,%eax
     bcc:	0d 00 00 00 3a       	or     $0x3a000000,%eax
     bd1:	89 04 25 24 02 70 00 	mov    %eax,0x700224
     bd8:	48 8b 04 25 20 02 70 	mov    0x700220,%rax
     bdf:	00 
     be0:	48 c1 e8 39          	shr    $0x39,%rax
     be4:	83 e0 1f             	and    $0x1f,%eax
     be7:	89 04 25 2c 01 70 00 	mov    %eax,0x70012c
     bee:	c3                   	retq   
     bef:	90                   	nop

0000000000000bf0 <reg_mskd_lss>:
     bf0:	8b 04 25 24 02 70 00 	mov    0x700224,%eax
     bf7:	25 ff ff ff c1       	and    $0xc1ffffff,%eax
     bfc:	0d 00 00 00 36       	or     $0x36000000,%eax
     c01:	89 04 25 24 02 70 00 	mov    %eax,0x700224
     c08:	c7 04 25 c4 02 70 00 	movl   $0x0,0x7002c4
     c0f:	00 00 00 00 
     c13:	48 8b 04 25 20 02 70 	mov    0x700220,%rax
     c1a:	00 
     c1b:	48 c1 e8 39          	shr    $0x39,%rax
     c1f:	83 e0 1f             	and    $0x1f,%eax
     c22:	83 f8 1b             	cmp    $0x1b,%eax
     c25:	8b 04 25 c4 02 70 00 	mov    0x7002c4,%eax
     c2c:	7e 12                	jle    c40 <reg_mskd_lss+0x50>
     c2e:	83 e0 f9             	and    $0xfffffff9,%eax
     c31:	83 c8 04             	or     $0x4,%eax
     c34:	89 04 25 c4 02 70 00 	mov    %eax,0x7002c4
     c3b:	c3                   	retq   
     c3c:	0f 1f 40 00          	nopl   0x0(%rax)
     c40:	83 e0 f9             	and    $0xfffffff9,%eax
     c43:	83 c8 02             	or     $0x2,%eax
     c46:	89 04 25 c4 02 70 00 	mov    %eax,0x7002c4
     c4d:	c3                   	retq   
     c4e:	66 90                	xchg   %ax,%ax

0000000000000c50 <reg_mskd_leq>:
     c50:	8b 04 25 24 02 70 00 	mov    0x700224,%eax
     c57:	25 ff ff ff c1       	and    $0xc1ffffff,%eax
     c5c:	0d 00 00 00 2e       	or     $0x2e000000,%eax
     c61:	89 04 25 24 02 70 00 	mov    %eax,0x700224
     c68:	c7 04 25 c4 02 70 00 	movl   $0x0,0x7002c4
     c6f:	00 00 00 00 
     c73:	48 8b 04 25 20 02 70 	mov    0x700220,%rax
     c7a:	00 
     c7b:	48 c1 e8 39          	shr    $0x39,%rax
     c7f:	83 e0 1f             	and    $0x1f,%eax
     c82:	83 f8 17             	cmp    $0x17,%eax
     c85:	7f 14                	jg     c9b <reg_mskd_leq+0x4b>
     c87:	48 8b 04 25 20 02 70 	mov    0x700220,%rax
     c8e:	00 
     c8f:	48 c1 e8 39          	shr    $0x39,%rax
     c93:	83 e0 1f             	and    $0x1f,%eax
     c96:	83 f8 18             	cmp    $0x18,%eax
     c99:	7e 15                	jle    cb0 <reg_mskd_leq+0x60>
     c9b:	8b 04 25 c4 02 70 00 	mov    0x7002c4,%eax
     ca2:	83 e0 f9             	and    $0xfffffff9,%eax
     ca5:	83 c8 04             	or     $0x4,%eax
     ca8:	89 04 25 c4 02 70 00 	mov    %eax,0x7002c4
     caf:	c3                   	retq   
     cb0:	8b 04 25 c4 02 70 00 	mov    0x7002c4,%eax
     cb7:	83 e0 f9             	and    $0xfffffff9,%eax
     cba:	83 c8 02             	or     $0x2,%eax
     cbd:	89 04 25 c4 02 70 00 	mov    %eax,0x7002c4
     cc4:	c3                   	retq   
     cc5:	90                   	nop
     cc6:	66 2e 0f 1f 84 00 00 	nopw   %cs:0x0(%rax,%rax,1)
     ccd:	00 00 00 

0000000000000cd0 <reg_mskd_gtr>:
     cd0:	8b 04 25 24 02 70 00 	mov    0x700224,%eax
     cd7:	25 ff ff ff c1       	and    $0xc1ffffff,%eax
     cdc:	0d 00 00 00 26       	or     $0x26000000,%eax
     ce1:	89 04 25 24 02 70 00 	mov    %eax,0x700224
     ce8:	c7 04 25 c4 02 70 00 	movl   $0x0,0x7002c4
     cef:	00 00 00 00 
     cf3:	48 8b 04 25 20 02 70 	mov    0x700220,%rax
     cfa:	00 
     cfb:	48 c1 e8 39          	shr    $0x39,%rax
     cff:	83 e0 1f             	and    $0x1f,%eax
     d02:	83 f8 12             	cmp    $0x12,%eax
     d05:	8b 04 25 c4 02 70 00 	mov    0x7002c4,%eax
     d0c:	7f 12                	jg     d20 <reg_mskd_gtr+0x50>
     d0e:	83 e0 f9             	and    $0xfffffff9,%eax
     d11:	83 c8 04             	or     $0x4,%eax
     d14:	89 04 25 c4 02 70 00 	mov    %eax,0x7002c4
     d1b:	c3                   	retq   
     d1c:	0f 1f 40 00          	nopl   0x0(%rax)
     d20:	83 e0 f9             	and    $0xfffffff9,%eax
     d23:	83 c8 02             	or     $0x2,%eax
     d26:	89 04 25 c4 02 70 00 	mov    %eax,0x7002c4
     d2d:	c3                   	retq   
     d2e:	66 90                	xchg   %ax,%ax

0000000000000d30 <reg_mskd_geq>:
     d30:	8b 04 25 24 02 70 00 	mov    0x700224,%eax
     d37:	25 ff ff ff c1       	and    $0xc1ffffff,%eax
     d3c:	0d 00 00 00 22       	or     $0x22000000,%eax
     d41:	89 04 25 24 02 70 00 	mov    %eax,0x700224
     d48:	c7 04 25 c4 02 70 00 	movl   $0x0,0x7002c4
     d4f:	00 00 00 00 
     d53:	48 8b 04 25 20 02 70 	mov    0x700220,%rax
     d5a:	00 
     d5b:	48 c1 e8 39          	shr    $0x39,%rax
     d5f:	83 e0 1f             	and    $0x1f,%eax
     d62:	83 f8 0f             	cmp    $0xf,%eax
     d65:	7e 14                	jle    d7b <reg_mskd_geq+0x4b>
     d67:	48 8b 04 25 20 02 70 	mov    0x700220,%rax
     d6e:	00 
     d6f:	48 c1 e8 39          	shr    $0x39,%rax
     d73:	83 e0 1f             	and    $0x1f,%eax
     d76:	83 f8 10             	cmp    $0x10,%eax
     d79:	7f 15                	jg     d90 <reg_mskd_geq+0x60>
     d7b:	8b 04 25 c4 02 70 00 	mov    0x7002c4,%eax
     d82:	83 e0 f9             	and    $0xfffffff9,%eax
     d85:	83 c8 04             	or     $0x4,%eax
     d88:	89 04 25 c4 02 70 00 	mov    %eax,0x7002c4
     d8f:	c3                   	retq   
     d90:	8b 04 25 c4 02 70 00 	mov    0x7002c4,%eax
     d97:	83 e0 f9             	and    $0xfffffff9,%eax
     d9a:	83 c8 02             	or     $0x2,%eax
     d9d:	89 04 25 c4 02 70 00 	mov    %eax,0x7002c4
     da4:	c3                   	retq   
     da5:	90                   	nop
     da6:	66 2e 0f 1f 84 00 00 	nopw   %cs:0x0(%rax,%rax,1)
     dad:	00 00 00 

0000000000000db0 <pos_cmp_eq>:
     db0:	c7 04 25 c4 02 70 00 	movl   $0x0,0x7002c4
     db7:	00 00 00 00 
     dbb:	8b 04 25 c4 02 70 00 	mov    0x7002c4,%eax
     dc2:	83 e0 f9             	and    $0xfffffff9,%eax
     dc5:	83 c8 02             	or     $0x2,%eax
     dc8:	89 04 25 c4 02 70 00 	mov    %eax,0x7002c4
     dcf:	c3                   	retq   

0000000000000dd0 <pos_cmp_ne>:
     dd0:	c7 04 25 c4 02 70 00 	movl   $0x0,0x7002c4
     dd7:	00 00 00 00 
     ddb:	8b 04 25 c4 02 70 00 	mov    0x7002c4,%eax
     de2:	83 e0 f9             	and    $0xfffffff9,%eax
     de5:	83 c8 02             	or     $0x2,%eax
     de8:	89 04 25 c4 02 70 00 	mov    %eax,0x7002c4
     def:	c3                   	retq   

0000000000000df0 <bits_extract_eq>:
     df0:	8b 04 25 c4 02 70 00 	mov    0x7002c4,%eax
     df7:	83 c8 40             	or     $0x40,%eax
     dfa:	89 04 25 c4 02 70 00 	mov    %eax,0x7002c4
     e01:	8b 04 25 c4 02 70 00 	mov    0x7002c4,%eax
     e08:	c7 04 25 c4 02 70 00 	movl   $0x0,0x7002c4
     e0f:	00 00 00 00 
     e13:	a8 40                	test   $0x40,%al
     e15:	8b 04 25 c4 02 70 00 	mov    0x7002c4,%eax
     e1c:	75 12                	jne    e30 <bits_extract_eq+0x40>
     e1e:	83 e0 f9             	and    $0xfffffff9,%eax
     e21:	83 c8 04             	or     $0x4,%eax
     e24:	89 04 25 c4 02 70 00 	mov    %eax,0x7002c4
     e2b:	c3                   	retq   
     e2c:	0f 1f 40 00          	nopl   0x0(%rax)
     e30:	83 e0 f9             	and    $0xfffffff9,%eax
     e33:	83 c8 02             	or     $0x2,%eax
     e36:	89 04 25 c4 02 70 00 	mov    %eax,0x7002c4
     e3d:	c3                   	retq   
     e3e:	66 90                	xchg   %ax,%ax

0000000000000e40 <mskd_extract_eq>:
     e40:	8b 04 25 c4 02 70 00 	mov    0x7002c4,%eax
     e47:	83 e0 f9             	and    $0xfffffff9,%eax
     e4a:	83 c8 02             	or     $0x2,%eax
     e4d:	89 04 25 c4 02 70 00 	mov    %eax,0x7002c4
     e54:	8b 04 25 c4 02 70 00 	mov    0x7002c4,%eax
     e5b:	c7 04 25 c4 02 70 00 	movl   $0x0,0x7002c4
     e62:	00 00 00 00 
     e66:	83 e0 06             	and    $0x6,%eax
     e69:	83 f8 02             	cmp    $0x2,%eax
     e6c:	8b 04 25 c4 02 70 00 	mov    0x7002c4,%eax
     e73:	74 0b                	je     e80 <mskd_extract_eq+0x40>
     e75:	83 c8 40             	or     $0x40,%eax
     e78:	89 04 25 c4 02 70 00 	mov    %eax,0x7002c4
     e7f:	c3                   	retq   
     e80:	83 c8 20             	or     $0x20,%eax
     e83:	89 04 25 c4 02 70 00 	mov    %eax,0x7002c4
     e8a:	c3                   	retq   
     e8b:	0f 1f 44 00 00       	nopl   0x0(%rax,%rax,1)

0000000000000e90 <mskd_extract_ne>:
     e90:	c7 04 25 c4 02 70 00 	movl   $0x0,0x7002c4
     e97:	00 00 00 00 
     e9b:	8b 04 25 c4 02 70 00 	mov    0x7002c4,%eax
     ea2:	83 e0 f9             	and    $0xfffffff9,%eax
     ea5:	83 c8 04             	or     $0x4,%eax
     ea8:	89 04 25 c4 02 70 00 	mov    %eax,0x7002c4
     eaf:	8b 04 25 c4 02 70 00 	mov    0x7002c4,%eax
     eb6:	c7 04 25 c4 02 70 00 	movl   $0x0,0x7002c4
     ebd:	00 00 00 00 
     ec1:	83 e0 06             	and    $0x6,%eax
     ec4:	83 f8 04             	cmp    $0x4,%eax
     ec7:	8b 04 25 c4 02 70 00 	mov    0x7002c4,%eax
     ece:	74 10                	je     ee0 <mskd_extract_ne+0x50>
     ed0:	83 c8 20             	or     $0x20,%eax
     ed3:	89 04 25 c4 02 70 00 	mov    %eax,0x7002c4
     eda:	c3                   	retq   
     edb:	0f 1f 44 00 00       	nopl   0x0(%rax,%rax,1)
     ee0:	83 c8 40             	or     $0x40,%eax
     ee3:	89 04 25 c4 02 70 00 	mov    %eax,0x7002c4
     eea:	c3                   	retq   
     eeb:	0f 1f 44 00 00       	nopl   0x0(%rax,%rax,1)

0000000000000ef0 <mskd_extract_lss>:
     ef0:	c7 04 25 24 02 70 00 	movl   $0x0,0x700224
     ef7:	00 00 00 00 
     efb:	8b 04 25 24 02 70 00 	mov    0x700224,%eax
     f02:	25 ff ff ff c1       	and    $0xc1ffffff,%eax
     f07:	0d 00 00 00 16       	or     $0x16000000,%eax
     f0c:	89 04 25 24 02 70 00 	mov    %eax,0x700224
     f13:	8b 04 25 24 02 70 00 	mov    0x700224,%eax
     f1a:	c7 04 25 c4 02 70 00 	movl   $0x0,0x7002c4
     f21:	00 00 00 00 
     f25:	c1 e8 19             	shr    $0x19,%eax
     f28:	83 e0 1f             	and    $0x1f,%eax
     f2b:	83 f8 0b             	cmp    $0xb,%eax
     f2e:	8b 04 25 c4 02 70 00 	mov    0x7002c4,%eax
     f35:	7e 11                	jle    f48 <mskd_extract_lss+0x58>
     f37:	83 c8 40             	or     $0x40,%eax
     f3a:	89 04 25 c4 02 70 00 	mov    %eax,0x7002c4
     f41:	c3                   	retq   
     f42:	66 0f 1f 44 00 00    	nopw   0x0(%rax,%rax,1)
     f48:	83 c8 20             	or     $0x20,%eax
     f4b:	89 04 25 c4 02 70 00 	mov    %eax,0x7002c4
     f52:	c3                   	retq   
     f53:	0f 1f 00             	nopl   (%rax)
     f56:	66 2e 0f 1f 84 00 00 	nopw   %cs:0x0(%rax,%rax,1)
     f5d:	00 00 00 

0000000000000f60 <mskd_extract_leq>:
     f60:	c7 04 25 24 02 70 00 	movl   $0x0,0x700224
     f67:	00 00 00 00 
     f6b:	8b 04 25 24 02 70 00 	mov    0x700224,%eax
     f72:	25 ff ff ff c1       	and    $0xc1ffffff,%eax
     f77:	0d 00 00 00 2e       	or     $0x2e000000,%eax
     f7c:	89 04 25 24 02 70 00 	mov    %eax,0x700224
     f83:	8b 04 25 24 02 70 00 	mov    0x700224,%eax
     f8a:	c7 04 25 c4 02 70 00 	movl   $0x0,0x7002c4
     f91:	00 00 00 00 
     f95:	c1 e8 19             	shr    $0x19,%eax
     f98:	83 e0 1f             	and    $0x1f,%eax
     f9b:	83 f8 17             	cmp    $0x17,%eax
     f9e:	7f 05                	jg     fa5 <mskd_extract_leq+0x45>
     fa0:	83 f8 18             	cmp    $0x18,%eax
     fa3:	7e 1b                	jle    fc0 <mskd_extract_leq+0x60>
     fa5:	8b 04 25 c4 02 70 00 	mov    0x7002c4,%eax
     fac:	83 c8 40             	or     $0x40,%eax
     faf:	89 04 25 c4 02 70 00 	mov    %eax,0x7002c4
     fb6:	c3                   	retq   
     fb7:	66 0f 1f 84 00 00 00 	nopw   0x0(%rax,%rax,1)
     fbe:	00 00 
     fc0:	8b 04 25 c4 02 70 00 	mov    0x7002c4,%eax
     fc7:	83 c8 20             	or     $0x20,%eax
     fca:	89 04 25 c4 02 70 00 	mov    %eax,0x7002c4
     fd1:	c3                   	retq   
     fd2:	0f 1f 40 00          	nopl   0x0(%rax)
     fd6:	66 2e 0f 1f 84 00 00 	nopw   %cs:0x0(%rax,%rax,1)
     fdd:	00 00 00 

0000000000000fe0 <mskd_extract_gtr>:
     fe0:	c7 04 25 24 02 70 00 	movl   $0x0,0x700224
     fe7:	00 00 00 00 
     feb:	8b 04 25 24 02 70 00 	mov    0x700224,%eax
     ff2:	25 ff ff ff c1       	and    $0xc1ffffff,%eax
     ff7:	0d 00 00 00 26       	or     $0x26000000,%eax
     ffc:	89 04 25 24 02 70 00 	mov    %eax,0x700224
    1003:	8b 04 25 24 02 70 00 	mov    0x700224,%eax
    100a:	c7 04 25 c4 02 70 00 	movl   $0x0,0x7002c4
    1011:	00 00 00 00 
    1015:	c1 e8 19             	shr    $0x19,%eax
    1018:	83 e0 1f             	and    $0x1f,%eax
    101b:	83 f8 12             	cmp    $0x12,%eax
    101e:	8b 04 25 c4 02 70 00 	mov    0x7002c4,%eax
    1025:	7f 11                	jg     1038 <mskd_extract_gtr+0x58>
    1027:	83 c8 40             	or     $0x40,%eax
    102a:	89 04 25 c4 02 70 00 	mov    %eax,0x7002c4
    1031:	c3                   	retq   
    1032:	66 0f 1f 44 00 00    	nopw   0x0(%rax,%rax,1)
    1038:	83 c8 20             	or     $0x20,%eax
    103b:	89 04 25 c4 02 70 00 	mov    %eax,0x7002c4
    1042:	c3                   	retq   
    1043:	0f 1f 00             	nopl   (%rax)
    1046:	66 2e 0f 1f 84 00 00 	nopw   %cs:0x0(%rax,%rax,1)
    104d:	00 00 00 

0000000000001050 <set_bits_global>:
    1050:	8b 04 25 c4 02 70 00 	mov    0x7002c4,%eax
    1057:	83 c8 40             	or     $0x40,%eax
    105a:	89 04 25 c4 02 70 00 	mov    %eax,0x7002c4
    1061:	c3                   	retq   
    1062:	0f 1f 40 00          	nopl   0x0(%rax)
    1066:	66 2e 0f 1f 84 00 00 	nopw   %cs:0x0(%rax,%rax,1)
    106d:	00 00 00 

0000000000001070 <ins_mskd_global>:
    1070:	8b 04 25 c4 02 70 00 	mov    0x7002c4,%eax
    1077:	83 e0 f9             	and    $0xfffffff9,%eax
    107a:	83 c8 02             	or     $0x2,%eax
    107d:	89 04 25 c4 02 70 00 	mov    %eax,0x7002c4
    1084:	c3                   	retq   
    1085:	90                   	nop
    1086:	66 2e 0f 1f 84 00 00 	nopw   %cs:0x0(%rax,%rax,1)
    108d:	00 00 00 

0000000000001090 <assign_array_global>:
    1090:	c7 04 25 2c 01 70 00 	movl   $0xbd,0x70012c
    1097:	bd 00 00 00 
    109b:	c3                   	retq   
    109c:	0f 1f 40 00          	nopl   0x0(%rax)

00000000000010a0 <shifted_global>:
    10a0:	8b 04 25 24 02 70 00 	mov    0x700224,%eax
    10a7:	25 ff ff ff c1       	and    $0xc1ffffff,%eax
    10ac:	0d 00 00 00 2e       	or     $0x2e000000,%eax
    10b1:	89 04 25 24 02 70 00 	mov    %eax,0x700224
    10b8:	48 8b 04 25 20 02 70 	mov    0x700220,%rax
    10bf:	00 
    10c0:	48 c1 e8 39          	shr    $0x39,%rax
    10c4:	83 e0 1f             	and    $0x1f,%eax
    10c7:	89 04 25 2c 01 70 00 	mov    %eax,0x70012c
    10ce:	c3                   	retq   
    10cf:	90                   	nop

00000000000010d0 <assign_register_global>:
    10d0:	c7 04 25 c4 02 70 00 	movl   $0x0,0x7002c4
    10d7:	00 00 00 00 
    10db:	8b 04 25 c4 02 70 00 	mov    0x7002c4,%eax
    10e2:	83 e0 f9             	and    $0xfffffff9,%eax
    10e5:	83 c8 04             	or     $0x4,%eax
    10e8:	89 04 25 c4 02 70 00 	mov    %eax,0x7002c4
    10ef:	c3                   	retq   

00000000000010f0 <copy_bits_equ>:
    10f0:	c7 04 25 c4 02 70 00 	movl   $0x0,0x7002c4
    10f7:	00 00 00 00 
    10fb:	8b 04 25 c4 02 70 00 	mov    0x7002c4,%eax
    1102:	83 c8 40             	or     $0x40,%eax
    1105:	89 04 25 c4 02 70 00 	mov    %eax,0x7002c4
    110c:	48 8b 04 25 c0 02 70 	mov    0x7002c0,%rax
    1113:	00 
    1114:	c7 04 25 c4 02 70 00 	movl   $0x0,0x7002c4
    111b:	00 00 00 00 
    111f:	48 c1 e8 26          	shr    $0x26,%rax
    1123:	a8 01                	test   $0x1,%al
    1125:	8b 04 25 c4 02 70 00 	mov    0x7002c4,%eax
    112c:	75 12                	jne    1140 <copy_bits_equ+0x50>
    112e:	83 e0 f9             	and    $0xfffffff9,%eax
    1131:	83 c8 04             	or     $0x4,%eax
    1134:	89 04 25 c4 02 70 00 	mov    %eax,0x7002c4
    113b:	c3                   	retq   
    113c:	0f 1f 40 00          	nopl   0x0(%rax)
    1140:	83 e0 f9             	and    $0xfffffff9,%eax
    1143:	83 c8 02             	or     $0x2,%eax
    1146:	89 04 25 c4 02 70 00 	mov    %eax,0x7002c4
    114d:	c3                   	retq   
    114e:	66 90                	xchg   %ax,%ax

0000000000001150 <copy_bits_neq>:
    1150:	c7 04 25 c4 02 70 00 	movl   $0x0,0x7002c4
    1157:	00 00 00 00 
    115b:	8b 04 25 c4 02 70 00 	mov    0x7002c4,%eax
    1162:	83 c8 40             	or     $0x40,%eax
    1165:	89 04 25 c4 02 70 00 	mov    %eax,0x7002c4
    116c:	48 8b 04 25 c0 02 70 	mov    0x7002c0,%rax
    1173:	00 
    1174:	c7 04 25 c4 02 70 00 	movl   $0x0,0x7002c4
    117b:	00 00 00 00 
    117f:	48 c1 e8 26          	shr    $0x26,%rax
    1183:	a8 01                	test   $0x1,%al
    1185:	8b 04 25 c4 02 70 00 	mov    0x7002c4,%eax
    118c:	74 12                	je     11a0 <copy_bits_neq+0x50>
    118e:	83 e0 f9             	and    $0xfffffff9,%eax
    1191:	83 c8 04             	or     $0x4,%eax
    1194:	89 04 25 c4 02 70 00 	mov    %eax,0x7002c4
    119b:	c3                   	retq   
    119c:	0f 1f 40 00          	nopl   0x0(%rax)
    11a0:	83 e0 f9             	and    $0xfffffff9,%eax
    11a3:	83 c8 02             	or     $0x2,%eax
    11a6:	89 04 25 c4 02 70 00 	mov    %eax,0x7002c4
    11ad:	c3                   	retq   
    11ae:	66 90                	xchg   %ax,%ax

00000000000011b0 <copy_mskd_equ>:
    11b0:	c7 04 25 24 02 70 00 	movl   $0x0,0x700224
    11b7:	00 00 00 00 
    11bb:	8b 04 25 24 02 70 00 	mov    0x700224,%eax
    11c2:	25 ff ff ff c1       	and    $0xc1ffffff,%eax
    11c7:	0d 00 00 00 16       	or     $0x16000000,%eax
    11cc:	89 04 25 24 02 70 00 	mov    %eax,0x700224
    11d3:	48 8b 04 25 20 02 70 	mov    0x700220,%rax
    11da:	00 
    11db:	c7 04 25 c4 02 70 00 	movl   $0x0,0x7002c4
    11e2:	00 00 00 00 
    11e6:	48 c1 e8 39          	shr    $0x39,%rax
    11ea:	83 e0 1f             	and    $0x1f,%eax
    11ed:	3c 0b                	cmp    $0xb,%al
    11ef:	8b 04 25 c4 02 70 00 	mov    0x7002c4,%eax
    11f6:	74 18                	je     1210 <copy_mskd_equ+0x60>
    11f8:	83 e0 f9             	and    $0xfffffff9,%eax
    11fb:	83 c8 04             	or     $0x4,%eax
    11fe:	89 04 25 c4 02 70 00 	mov    %eax,0x7002c4
    1205:	c3                   	retq   
    1206:	66 2e 0f 1f 84 00 00 	nopw   %cs:0x0(%rax,%rax,1)
    120d:	00 00 00 
    1210:	83 e0 f9             	and    $0xfffffff9,%eax
    1213:	83 c8 02             	or     $0x2,%eax
    1216:	89 04 25 c4 02 70 00 	mov    %eax,0x7002c4
    121d:	c3                   	retq   
    121e:	66 90                	xchg   %ax,%ax

0000000000001220 <copy_mskd_neq>:
    1220:	c7 04 25 24 02 70 00 	movl   $0x0,0x700224
    1227:	00 00 00 00 
    122b:	8b 04 25 24 02 70 00 	mov    0x700224,%eax
    1232:	25 ff ff ff c1       	and    $0xc1ffffff,%eax
    1237:	0d 00 00 00 1a       	or     $0x1a000000,%eax
    123c:	89 04 25 24 02 70 00 	mov    %eax,0x700224
    1243:	48 8b 04 25 20 02 70 	mov    0x700220,%rax
    124a:	00 
    124b:	c7 04 25 c4 02 70 00 	movl   $0x0,0x7002c4
    1252:	00 00 00 00 
    1256:	48 c1 e8 39          	shr    $0x39,%rax
    125a:	83 e0 1f             	and    $0x1f,%eax
    125d:	3c 0d                	cmp    $0xd,%al
    125f:	8b 04 25 c4 02 70 00 	mov    0x7002c4,%eax
    1266:	74 18                	je     1280 <copy_mskd_neq+0x60>
    1268:	83 e0 f9             	and    $0xfffffff9,%eax
    126b:	83 c8 02             	or     $0x2,%eax
    126e:	89 04 25 c4 02 70 00 	mov    %eax,0x7002c4
    1275:	c3                   	retq   
    1276:	66 2e 0f 1f 84 00 00 	nopw   %cs:0x0(%rax,%rax,1)
    127d:	00 00 00 
    1280:	83 e0 f9             	and    $0xfffffff9,%eax
    1283:	83 c8 04             	or     $0x4,%eax
    1286:	89 04 25 c4 02 70 00 	mov    %eax,0x7002c4
    128d:	c3                   	retq   
    128e:	66 90                	xchg   %ax,%ax

0000000000001290 <copy_mskd_lss>:
    1290:	c7 04 25 24 02 70 00 	movl   $0x0,0x700224
    1297:	00 00 00 00 
    129b:	8b 04 25 24 02 70 00 	mov    0x700224,%eax
    12a2:	25 ff ff ff c1       	and    $0xc1ffffff,%eax
    12a7:	0d 00 00 00 36       	or     $0x36000000,%eax
    12ac:	89 04 25 24 02 70 00 	mov    %eax,0x700224
    12b3:	48 8b 04 25 20 02 70 	mov    0x700220,%rax
    12ba:	00 
    12bb:	c7 04 25 c4 02 70 00 	movl   $0x0,0x7002c4
    12c2:	00 00 00 00 
    12c6:	48 c1 e8 39          	shr    $0x39,%rax
    12ca:	83 e0 1f             	and    $0x1f,%eax
    12cd:	3c 1b                	cmp    $0x1b,%al
    12cf:	8b 04 25 c4 02 70 00 	mov    0x7002c4,%eax
    12d6:	76 18                	jbe    12f0 <copy_mskd_lss+0x60>
    12d8:	83 e0 f9             	and    $0xfffffff9,%eax
    12db:	83 c8 04             	or     $0x4,%eax
    12de:	89 04 25 c4 02 70 00 	mov    %eax,0x7002c4
    12e5:	c3                   	retq   
    12e6:	66 2e 0f 1f 84 00 00 	nopw   %cs:0x0(%rax,%rax,1)
    12ed:	00 00 00 
    12f0:	83 e0 f9             	and    $0xfffffff9,%eax
    12f3:	83 c8 02             	or     $0x2,%eax
    12f6:	89 04 25 c4 02 70 00 	mov    %eax,0x7002c4
    12fd:	c3                   	retq   
    12fe:	66 90                	xchg   %ax,%ax

0000000000001300 <copy_mskd_leq>:
    1300:	c7 04 25 24 02 70 00 	movl   $0x0,0x700224
    1307:	00 00 00 00 
    130b:	8b 04 25 24 02 70 00 	mov    0x700224,%eax
    1312:	25 ff ff ff c1       	and    $0xc1ffffff,%eax
    1317:	0d 00 00 00 2e       	or     $0x2e000000,%eax
    131c:	89 04 25 24 02 70 00 	mov    %eax,0x700224
    1323:	48 8b 04 25 20 02 70 	mov    0x700220,%rax
    132a:	00 
    132b:	c7 04 25 c4 02 70 00 	movl   $0x0,0x7002c4
    1332:	00 00 00 00 
    1336:	48 c1 e8 39          	shr    $0x39,%rax
    133a:	83 e0 1f             	and    $0x1f,%eax
    133d:	3c 17                	cmp    $0x17,%al
    133f:	8b 04 25 c4 02 70 00 	mov    0x7002c4,%eax
    1346:	76 18                	jbe    1360 <copy_mskd_leq+0x60>
    1348:	83 e0 f9             	and    $0xfffffff9,%eax
    134b:	83 c8 04             	or     $0x4,%eax
    134e:	89 04 25 c4 02 70 00 	mov    %eax,0x7002c4
    1355:	c3                   	retq   
    1356:	66 2e 0f 1f 84 00 00 	nopw   %cs:0x0(%rax,%rax,1)
    135d:	00 00 00 
    1360:	83 e0 f9             	and    $0xfffffff9,%eax
    1363:	83 c8 02             	or     $0x2,%eax
    1366:	89 04 25 c4 02 70 00 	mov    %eax,0x7002c4
    136d:	c3                   	retq   
    136e:	66 90                	xchg   %ax,%ax

0000000000001370 <copy_mskd_gtr>:
    1370:	c7 04 25 24 02 70 00 	movl   $0x0,0x700224
    1377:	00 00 00 00 
    137b:	8b 04 25 24 02 70 00 	mov    0x700224,%eax
    1382:	25 ff ff ff c1       	and    $0xc1ffffff,%eax
    1387:	0d 00 00 00 26       	or     $0x26000000,%eax
    138c:	89 04 25 24 02 70 00 	mov    %eax,0x700224
    1393:	48 8b 04 25 20 02 70 	mov    0x700220,%rax
    139a:	00 
    139b:	c7 04 25 c4 02 70 00 	movl   $0x0,0x7002c4
    13a2:	00 00 00 00 
    13a6:	48 c1 e8 39          	shr    $0x39,%rax
    13aa:	83 e0 1f             	and    $0x1f,%eax
    13ad:	3c 12                	cmp    $0x12,%al
    13af:	8b 04 25 c4 02 70 00 	mov    0x7002c4,%eax
    13b6:	77 18                	ja     13d0 <copy_mskd_gtr+0x60>
    13b8:	83 e0 f9             	and    $0xfffffff9,%eax
    13bb:	83 c8 04             	or     $0x4,%eax
    13be:	89 04 25 c4 02 70 00 	mov    %eax,0x7002c4
    13c5:	c3                   	retq   
    13c6:	66 2e 0f 1f 84 00 00 	nopw   %cs:0x0(%rax,%rax,1)
    13cd:	00 00 00 
    13d0:	83 e0 f9             	and    $0xfffffff9,%eax
    13d3:	83 c8 02             	or     $0x2,%eax
    13d6:	89 04 25 c4 02 70 00 	mov    %eax,0x7002c4
    13dd:	c3                   	retq   
    13de:	66 90                	xchg   %ax,%ax

00000000000013e0 <copy_mskd_geq>:
    13e0:	c7 04 25 24 02 70 00 	movl   $0x0,0x700224
    13e7:	00 00 00 00 
    13eb:	8b 04 25 24 02 70 00 	mov    0x700224,%eax
    13f2:	25 ff ff ff c1       	and    $0xc1ffffff,%eax
    13f7:	0d 00 00 00 22       	or     $0x22000000,%eax
    13fc:	89 04 25 24 02 70 00 	mov    %eax,0x700224
    1403:	48 8b 04 25 20 02 70 	mov    0x700220,%rax
    140a:	00 
    140b:	c7 04 25 c4 02 70 00 	movl   $0x0,0x7002c4
    1412:	00 00 00 00 
    1416:	48 c1 e8 39          	shr    $0x39,%rax
    141a:	83 e0 1f             	and    $0x1f,%eax
    141d:	3c 10                	cmp    $0x10,%al
    141f:	8b 04 25 c4 02 70 00 	mov    0x7002c4,%eax
    1426:	77 18                	ja     1440 <copy_mskd_geq+0x60>
    1428:	83 e0 f9             	and    $0xfffffff9,%eax
    142b:	83 c8 04             	or     $0x4,%eax
    142e:	89 04 25 c4 02 70 00 	mov    %eax,0x7002c4
    1435:	c3                   	retq   
    1436:	66 2e 0f 1f 84 00 00 	nopw   %cs:0x0(%rax,%rax,1)
    143d:	00 00 00 
    1440:	83 e0 f9             	and    $0xfffffff9,%eax
    1443:	83 c8 02             	or     $0x2,%eax
    1446:	89 04 25 c4 02 70 00 	mov    %eax,0x7002c4
    144d:	c3                   	retq   
    144e:	66 90                	xchg   %ax,%ax

0000000000001450 <copy_shifted>:
    1450:	c7 04 25 24 02 70 00 	movl   $0x0,0x700224
    1457:	00 00 00 00 
    145b:	8b 04 25 24 02 70 00 	mov    0x700224,%eax
    1462:	25 ff ff ff c1       	and    $0xc1ffffff,%eax
    1467:	0d 00 00 00 16       	or     $0x16000000,%eax
    146c:	89 04 25 24 02 70 00 	mov    %eax,0x700224
    1473:	48 8b 04 25 20 02 70 	mov    0x700220,%rax
    147a:	00 
    147b:	c7 04 25 c4 02 70 00 	movl   $0x0,0x7002c4
    1482:	00 00 00 00 
    1486:	48 c1 e8 39          	shr    $0x39,%rax
    148a:	83 e0 1f             	and    $0x1f,%eax
    148d:	3c 0b                	cmp    $0xb,%al
    148f:	8b 04 25 c4 02 70 00 	mov    0x7002c4,%eax
    1496:	74 18                	je     14b0 <copy_shifted+0x60>
    1498:	83 e0 f9             	and    $0xfffffff9,%eax
    149b:	83 c8 04             	or     $0x4,%eax
    149e:	89 04 25 c4 02 70 00 	mov    %eax,0x7002c4
    14a5:	c3                   	retq   
    14a6:	66 2e 0f 1f 84 00 00 	nopw   %cs:0x0(%rax,%rax,1)
    14ad:	00 00 00 
    14b0:	83 e0 f9             	and    $0xfffffff9,%eax
    14b3:	83 c8 02             	or     $0x2,%eax
    14b6:	89 04 25 c4 02 70 00 	mov    %eax,0x7002c4
    14bd:	c3                   	retq   
    14be:	66 90                	xchg   %ax,%ax

00000000000014c0 <shifted_ref.constprop.0>:
    14c0:	c7 04 25 24 02 70 00 	movl   $0x0,0x700224
    14c7:	00 00 00 00 
    14cb:	8b 04 25 24 02 70 00 	mov    0x700224,%eax
    14d2:	25 ff ff ff c1       	and    $0xc1ffffff,%eax
    14d7:	0d 00 00 00 2e       	or     $0x2e000000,%eax
    14dc:	89 04 25 24 02 70 00 	mov    %eax,0x700224
    14e3:	48 8b 04 25 20 02 70 	mov    0x700220,%rax
    14ea:	00 
    14eb:	48 c1 e8 39          	shr    $0x39,%rax
    14ef:	83 e0 1f             	and    $0x1f,%eax
    14f2:	89 04 25 2c 01 70 00 	mov    %eax,0x70012c
    14f9:	c3                   	retq   
    14fa:	66 0f 1f 44 00 00    	nopw   0x0(%rax,%rax,1)

0000000000001500 <call_shifted_const_ref>:
    1500:	48 83 ec 18          	sub    $0x18,%rsp
    1504:	48 89 e7             	mov    %rsp,%rdi
    1507:	c7 04 24 01 00 00 00 	movl   $0x1,(%rsp)
    150e:	e8 ad ff ff ff       	callq  14c0 <shifted_ref.constprop.0>
    1513:	48 83 c4 18          	add    $0x18,%rsp
    1517:	c3                   	retq   
    1518:	0f 1f 84 00 00 00 00 	nopl   0x0(%rax,%rax,1)
    151f:	00 

0000000000001520 <call_shifted_var_ref>:
    1520:	48 83 ec 18          	sub    $0x18,%rsp
    1524:	48 89 e7             	mov    %rsp,%rdi
    1527:	c7 04 24 01 00 00 00 	movl   $0x1,(%rsp)
    152e:	e8 8d ff ff ff       	callq  14c0 <shifted_ref.constprop.0>
    1533:	48 83 c4 18          	add    $0x18,%rsp
    1537:	c3                   	retq   
    1538:	0f 1f 84 00 00 00 00 	nopl   0x0(%rax,%rax,1)
    153f:	00 

0000000000001540 <call_shifted_global_ref>:
    1540:	48 83 ec 18          	sub    $0x18,%rsp
    1544:	48 89 e7             	mov    %rsp,%rdi
    1547:	c7 04 24 01 00 00 00 	movl   $0x1,(%rsp)
    154e:	e8 6d ff ff ff       	callq  14c0 <shifted_ref.constprop.0>
    1553:	48 83 c4 18          	add    $0x18,%rsp
    1557:	c3                   	retq   
    1558:	0f 1f 84 00 00 00 00 	nopl   0x0(%rax,%rax,1)
    155f:	00 

0000000000001560 <shifted_val.constprop.1>:
    1560:	c7 04 25 24 02 70 00 	movl   $0x0,0x700224
    1567:	00 00 00 00 
    156b:	8b 04 25 24 02 70 00 	mov    0x700224,%eax
    1572:	25 ff ff ff c1       	and    $0xc1ffffff,%eax
    1577:	0d 00 00 00 2e       	or     $0x2e000000,%eax
    157c:	89 04 25 24 02 70 00 	mov    %eax,0x700224
    1583:	48 8b 04 25 20 02 70 	mov    0x700220,%rax
    158a:	00 
    158b:	48 c1 e8 39          	shr    $0x39,%rax
    158f:	83 e0 1f             	and    $0x1f,%eax
    1592:	89 04 25 2c 01 70 00 	mov    %eax,0x70012c
    1599:	c3                   	retq   
    159a:	66 0f 1f 44 00 00    	nopw   0x0(%rax,%rax,1)

00000000000015a0 <call_shifted_const_val>:
    15a0:	eb be                	jmp    1560 <shifted_val.constprop.1>
    15a2:	0f 1f 40 00          	nopl   0x0(%rax)
    15a6:	66 2e 0f 1f 84 00 00 	nopw   %cs:0x0(%rax,%rax,1)
    15ad:	00 00 00 

00000000000015b0 <call_shifted_var_val>:
    15b0:	eb ae                	jmp    1560 <shifted_val.constprop.1>
    15b2:	0f 1f 40 00          	nopl   0x0(%rax)
    15b6:	66 2e 0f 1f 84 00 00 	nopw   %cs:0x0(%rax,%rax,1)
    15bd:	00 00 00 

00000000000015c0 <call_shifted_global_val>:
    15c0:	eb 9e                	jmp    1560 <shifted_val.constprop.1>
    15c2:	0f 1f 40 00          	nopl   0x0(%rax)
    15c6:	66 2e 0f 1f 84 00 00 	nopw   %cs:0x0(%rax,%rax,1)
    15cd:	00 00 00 

00000000000015d0 <pos_ref.constprop.2>:
    15d0:	c7 04 25 2c 01 70 00 	movl   $0x66,0x70012c
    15d7:	66 00 00 00 
    15db:	c3                   	retq   
    15dc:	0f 1f 40 00          	nopl   0x0(%rax)

00000000000015e0 <pos_ref.constprop.3>:
    15e0:	c7 04 25 2c 01 70 00 	movl   $0x77,0x70012c
    15e7:	77 00 00 00 
    15eb:	c3                   	retq   
    15ec:	0f 1f 40 00          	nopl   0x0(%rax)

00000000000015f0 <call_pos_ref_global>:
    15f0:	48 83 ec 18          	sub    $0x18,%rsp
    15f4:	48 89 e7             	mov    %rsp,%rdi
    15f7:	c7 04 24 04 00 00 00 	movl   $0x4,(%rsp)
    15fe:	e8 dd ff ff ff       	callq  15e0 <pos_ref.constprop.3>
    1603:	48 83 c4 18          	add    $0x18,%rsp
    1607:	c3                   	retq   
    1608:	0f 1f 84 00 00 00 00 	nopl   0x0(%rax,%rax,1)
    160f:	00 

0000000000001610 <pos_val.constprop.4>:
    1610:	c7 04 25 2c 01 70 00 	movl   $0x33,0x70012c
    1617:	33 00 00 00 
    161b:	c3                   	retq   
    161c:	0f 1f 40 00          	nopl   0x0(%rax)

0000000000001620 <pos_val.constprop.5>:
    1620:	c7 04 25 2c 01 70 00 	movl   $0x44,0x70012c
    1627:	44 00 00 00 
    162b:	c3                   	retq   
    162c:	0f 1f 40 00          	nopl   0x0(%rax)

0000000000001630 <call_pos_val>:
    1630:	e8 db ff ff ff       	callq  1610 <pos_val.constprop.4>
    1635:	eb e9                	jmp    1620 <pos_val.constprop.5>
    1637:	66 0f 1f 84 00 00 00 	nopw   0x0(%rax,%rax,1)
    163e:	00 00 

0000000000001640 <call_pos_val_global>:
    1640:	eb de                	jmp    1620 <pos_val.constprop.5>
    1642:	0f 1f 40 00          	nopl   0x0(%rax)
    1646:	66 2e 0f 1f 84 00 00 	nopw   %cs:0x0(%rax,%rax,1)
    164d:	00 00 00 

0000000000001650 <reg_mskd_ref.constprop.6>:
    1650:	8b 04 25 c4 02 70 00 	mov    0x7002c4,%eax
    1657:	83 e0 f9             	and    $0xfffffff9,%eax
    165a:	83 c8 02             	or     $0x2,%eax
    165d:	89 04 25 c4 02 70 00 	mov    %eax,0x7002c4
    1664:	c3                   	retq   
    1665:	90                   	nop
    1666:	66 2e 0f 1f 84 00 00 	nopw   %cs:0x0(%rax,%rax,1)
    166d:	00 00 00 

0000000000001670 <call_reg_mskd_ref>:
    1670:	48 83 ec 18          	sub    $0x18,%rsp
    1674:	48 89 e7             	mov    %rsp,%rdi
    1677:	c7 04 24 01 00 00 00 	movl   $0x1,(%rsp)
    167e:	e8 cd ff ff ff       	callq  1650 <reg_mskd_ref.constprop.6>
    1683:	48 83 c4 18          	add    $0x18,%rsp
    1687:	c3                   	retq   
    1688:	0f 1f 84 00 00 00 00 	nopl   0x0(%rax,%rax,1)
    168f:	00 

0000000000001690 <periph_mskd_ref.constprop.7>:
    1690:	8b 04 25 c4 02 70 00 	mov    0x7002c4,%eax
    1697:	83 e0 f9             	and    $0xfffffff9,%eax
    169a:	83 c8 02             	or     $0x2,%eax
    169d:	89 04 25 c4 02 70 00 	mov    %eax,0x7002c4
    16a4:	c3                   	retq   
    16a5:	90                   	nop
    16a6:	66 2e 0f 1f 84 00 00 	nopw   %cs:0x0(%rax,%rax,1)
    16ad:	00 00 00 

00000000000016b0 <call_periph_mskd_ref>:
    16b0:	48 83 ec 18          	sub    $0x18,%rsp
    16b4:	48 89 e7             	mov    %rsp,%rdi
    16b7:	c7 04 24 01 00 00 00 	movl   $0x1,(%rsp)
    16be:	e8 cd ff ff ff       	callq  1690 <periph_mskd_ref.constprop.7>
    16c3:	48 83 c4 18          	add    $0x18,%rsp
    16c7:	c3                   	retq   
    16c8:	0f 1f 84 00 00 00 00 	nopl   0x0(%rax,%rax,1)
    16cf:	00 

00000000000016d0 <reg_mskd_val.constprop.8>:
    16d0:	8b 04 25 c4 02 70 00 	mov    0x7002c4,%eax
    16d7:	83 e0 f9             	and    $0xfffffff9,%eax
    16da:	83 c8 02             	or     $0x2,%eax
    16dd:	89 04 25 c4 02 70 00 	mov    %eax,0x7002c4
    16e4:	c3                   	retq   
    16e5:	90                   	nop
    16e6:	66 2e 0f 1f 84 00 00 	nopw   %cs:0x0(%rax,%rax,1)
    16ed:	00 00 00 

00000000000016f0 <call_reg_mskd_val>:
    16f0:	eb de                	jmp    16d0 <reg_mskd_val.constprop.8>
    16f2:	0f 1f 40 00          	nopl   0x0(%rax)
    16f6:	66 2e 0f 1f 84 00 00 	nopw   %cs:0x0(%rax,%rax,1)
    16fd:	00 00 00 

0000000000001700 <periph_mskd_val.constprop.9>:
    1700:	8b 04 25 c4 02 70 00 	mov    0x7002c4,%eax
    1707:	83 e0 f9             	and    $0xfffffff9,%eax
    170a:	83 c8 02             	or     $0x2,%eax
    170d:	89 04 25 c4 02 70 00 	mov    %eax,0x7002c4
    1714:	c3                   	retq   
    1715:	90                   	nop
    1716:	66 2e 0f 1f 84 00 00 	nopw   %cs:0x0(%rax,%rax,1)
    171d:	00 00 00 

0000000000001720 <call_periph_mskd_val>:
    1720:	eb de                	jmp    1700 <periph_mskd_val.constprop.9>
    1722:	0f 1f 40 00          	nopl   0x0(%rax)
    1726:	66 2e 0f 1f 84 00 00 	nopw   %cs:0x0(%rax,%rax,1)
    172d:	00 00 00 

0000000000001730 <reg_bits_ref.constprop.10>:
    1730:	8b 04 25 c4 02 70 00 	mov    0x7002c4,%eax
    1737:	83 c8 40             	or     $0x40,%eax
    173a:	89 04 25 c4 02 70 00 	mov    %eax,0x7002c4
    1741:	c3                   	retq   
    1742:	0f 1f 40 00          	nopl   0x0(%rax)
    1746:	66 2e 0f 1f 84 00 00 	nopw   %cs:0x0(%rax,%rax,1)
    174d:	00 00 00 

0000000000001750 <call_reg_bits_ref>:
    1750:	48 83 ec 18          	sub    $0x18,%rsp
    1754:	48 89 e7             	mov    %rsp,%rdi
    1757:	c7 04 24 04 00 00 00 	movl   $0x4,(%rsp)
    175e:	e8 cd ff ff ff       	callq  1730 <reg_bits_ref.constprop.10>
    1763:	48 83 c4 18          	add    $0x18,%rsp
    1767:	c3                   	retq   
    1768:	0f 1f 84 00 00 00 00 	nopl   0x0(%rax,%rax,1)
    176f:	00 

0000000000001770 <periph_bits_ref.constprop.11>:
    1770:	8b 04 25 c4 02 70 00 	mov    0x7002c4,%eax
    1777:	83 c8 40             	or     $0x40,%eax
    177a:	89 04 25 c4 02 70 00 	mov    %eax,0x7002c4
    1781:	c3                   	retq   
    1782:	0f 1f 40 00          	nopl   0x0(%rax)
    1786:	66 2e 0f 1f 84 00 00 	nopw   %cs:0x0(%rax,%rax,1)
    178d:	00 00 00 

0000000000001790 <call_periph_bits_ref>:
    1790:	48 83 ec 18          	sub    $0x18,%rsp
    1794:	48 89 e7             	mov    %rsp,%rdi
    1797:	c7 04 24 04 00 00 00 	movl   $0x4,(%rsp)
    179e:	e8 cd ff ff ff       	callq  1770 <periph_bits_ref.constprop.11>
    17a3:	48 83 c4 18          	add    $0x18,%rsp
    17a7:	c3                   	retq   
    17a8:	0f 1f 84 00 00 00 00 	nopl   0x0(%rax,%rax,1)
    17af:	00 

00000000000017b0 <reg_bits_val.constprop.12>:
    17b0:	8b 04 25 c4 02 70 00 	mov    0x7002c4,%eax
    17b7:	83 c8 40             	or     $0x40,%eax
    17ba:	89 04 25 c4 02 70 00 	mov    %eax,0x7002c4
    17c1:	c3                   	retq   
    17c2:	0f 1f 40 00          	nopl   0x0(%rax)
    17c6:	66 2e 0f 1f 84 00 00 	nopw   %cs:0x0(%rax,%rax,1)
    17cd:	00 00 00 

00000000000017d0 <call_reg_bits_val>:
    17d0:	eb de                	jmp    17b0 <reg_bits_val.constprop.12>
    17d2:	0f 1f 40 00          	nopl   0x0(%rax)
    17d6:	66 2e 0f 1f 84 00 00 	nopw   %cs:0x0(%rax,%rax,1)
    17dd:	00 00 00 

00000000000017e0 <periph_bits_val.constprop.13>:
    17e0:	8b 04 25 c4 02 70 00 	mov    0x7002c4,%eax
    17e7:	83 c8 40             	or     $0x40,%eax
    17ea:	89 04 25 c4 02 70 00 	mov    %eax,0x7002c4
    17f1:	c3                   	retq   
    17f2:	0f 1f 40 00          	nopl   0x0(%rax)
    17f6:	66 2e 0f 1f 84 00 00 	nopw   %cs:0x0(%rax,%rax,1)
    17fd:	00 00 00 

0000000000001800 <call_periph_bits_val>:
    1800:	eb de                	jmp    17e0 <periph_bits_val.constprop.13>
    1802:	0f 1f 40 00          	nopl   0x0(%rax)
    1806:	66 2e 0f 1f 84 00 00 	nopw   %cs:0x0(%rax,%rax,1)
    180d:	00 00 00 

0000000000001810 <mskd_ref.constprop.14>:
    1810:	8b 06                	mov    (%rsi),%eax
    1812:	83 e0 03             	and    $0x3,%eax
    1815:	8d 14 00             	lea    (%rax,%rax,1),%edx
    1818:	8b 04 25 c4 02 70 00 	mov    0x7002c4,%eax
    181f:	83 e0 f9             	and    $0xfffffff9,%eax
    1822:	09 d0                	or     %edx,%eax
    1824:	89 04 25 c4 02 70 00 	mov    %eax,0x7002c4
    182b:	8b 06                	mov    (%rsi),%eax
    182d:	83 e0 03             	and    $0x3,%eax
    1830:	8d 14 00             	lea    (%rax,%rax,1),%edx
    1833:	8b 04 25 c4 02 70 00 	mov    0x7002c4,%eax
    183a:	83 e0 f9             	and    $0xfffffff9,%eax
    183d:	09 d0                	or     %edx,%eax
    183f:	89 04 25 c4 02 70 00 	mov    %eax,0x7002c4
    1846:	c3                   	retq   
    1847:	66 0f 1f 84 00 00 00 	nopw   0x0(%rax,%rax,1)
    184e:	00 00 

0000000000001850 <call_mskd_ref_const>:
    1850:	48 83 ec 28          	sub    $0x28,%rsp
    1854:	48 8d 74 24 10       	lea    0x10(%rsp),%rsi
    1859:	48 89 e7             	mov    %rsp,%rdi
    185c:	c7 04 24 01 00 00 00 	movl   $0x1,(%rsp)
    1863:	c7 44 24 10 02 00 00 	movl   $0x2,0x10(%rsp)
    186a:	00 
    186b:	e8 a0 ff ff ff       	callq  1810 <mskd_ref.constprop.14>
    1870:	48 83 c4 28          	add    $0x28,%rsp
    1874:	c3                   	retq   
    1875:	90                   	nop
    1876:	66 2e 0f 1f 84 00 00 	nopw   %cs:0x0(%rax,%rax,1)
    187d:	00 00 00 

0000000000001880 <call_mskd_ref_var>:
    1880:	48 83 ec 28          	sub    $0x28,%rsp
    1884:	48 8d 74 24 10       	lea    0x10(%rsp),%rsi
    1889:	48 89 e7             	mov    %rsp,%rdi
    188c:	c7 04 24 01 00 00 00 	movl   $0x1,(%rsp)
    1893:	c7 44 24 10 01 00 00 	movl   $0x1,0x10(%rsp)
    189a:	00 
    189b:	e8 70 ff ff ff       	callq  1810 <mskd_ref.constprop.14>
    18a0:	48 83 c4 28          	add    $0x28,%rsp
    18a4:	c3                   	retq   
    18a5:	90                   	nop
    18a6:	66 2e 0f 1f 84 00 00 	nopw   %cs:0x0(%rax,%rax,1)
    18ad:	00 00 00 

00000000000018b0 <call_mskd_ref_global>:
    18b0:	48 83 ec 28          	sub    $0x28,%rsp
    18b4:	48 8d 74 24 10       	lea    0x10(%rsp),%rsi
    18b9:	48 89 e7             	mov    %rsp,%rdi
    18bc:	c7 04 24 01 00 00 00 	movl   $0x1,(%rsp)
    18c3:	c7 44 24 10 01 00 00 	movl   $0x1,0x10(%rsp)
    18ca:	00 
    18cb:	e8 40 ff ff ff       	callq  1810 <mskd_ref.constprop.14>
    18d0:	48 83 c4 28          	add    $0x28,%rsp
    18d4:	c3                   	retq   
    18d5:	90                   	nop
    18d6:	66 2e 0f 1f 84 00 00 	nopw   %cs:0x0(%rax,%rax,1)
    18dd:	00 00 00 

00000000000018e0 <mskd_val.constprop.15>:
    18e0:	8b 04 25 c4 02 70 00 	mov    0x7002c4,%eax
    18e7:	83 e0 f9             	and    $0xfffffff9,%eax
    18ea:	83 c8 02             	or     $0x2,%eax
    18ed:	89 04 25 c4 02 70 00 	mov    %eax,0x7002c4
    18f4:	8b 04 25 c4 02 70 00 	mov    0x7002c4,%eax
    18fb:	83 e0 f9             	and    $0xfffffff9,%eax
    18fe:	83 c8 02             	or     $0x2,%eax
    1901:	89 04 25 c4 02 70 00 	mov    %eax,0x7002c4
    1908:	c3                   	retq   
    1909:	0f 1f 80 00 00 00 00 	nopl   0x0(%rax)

0000000000001910 <call_mskd_val_const>:
    1910:	e8 cb ff ff ff       	callq  18e0 <mskd_val.constprop.15>
    1915:	eb c9                	jmp    18e0 <mskd_val.constprop.15>
    1917:	66 0f 1f 84 00 00 00 	nopw   0x0(%rax,%rax,1)
    191e:	00 00 

0000000000001920 <call_mskd_val_var>:
    1920:	e8 bb ff ff ff       	callq  18e0 <mskd_val.constprop.15>
    1925:	eb b9                	jmp    18e0 <mskd_val.constprop.15>
    1927:	66 0f 1f 84 00 00 00 	nopw   0x0(%rax,%rax,1)
    192e:	00 00 

0000000000001930 <call_mskd_val_global>:
    1930:	eb ae                	jmp    18e0 <mskd_val.constprop.15>
    1932:	0f 1f 40 00          	nopl   0x0(%rax)
    1936:	66 2e 0f 1f 84 00 00 	nopw   %cs:0x0(%rax,%rax,1)
    193d:	00 00 00 

0000000000001940 <bits_ref.constprop.16>:
    1940:	8b 04 25 c4 02 70 00 	mov    0x7002c4,%eax
    1947:	83 c8 01             	or     $0x1,%eax
    194a:	89 04 25 c4 02 70 00 	mov    %eax,0x7002c4
    1951:	8b 16                	mov    (%rsi),%edx
    1953:	8b 04 25 c4 02 70 00 	mov    0x7002c4,%eax
    195a:	83 e2 01             	and    $0x1,%edx
    195d:	83 e0 fe             	and    $0xfffffffe,%eax
    1960:	09 d0                	or     %edx,%eax
    1962:	89 04 25 c4 02 70 00 	mov    %eax,0x7002c4
    1969:	c3                   	retq   
    196a:	66 0f 1f 44 00 00    	nopw   0x0(%rax,%rax,1)

0000000000001970 <call_bits_ref_const>:
    1970:	48 83 ec 28          	sub    $0x28,%rsp
    1974:	48 8d 74 24 10       	lea    0x10(%rsp),%rsi
    1979:	48 89 e7             	mov    %rsp,%rdi
    197c:	c7 04 24 00 00 00 00 	movl   $0x0,(%rsp)
    1983:	c7 44 24 10 01 00 00 	movl   $0x1,0x10(%rsp)
    198a:	00 
    198b:	e8 b0 ff ff ff       	callq  1940 <bits_ref.constprop.16>
    1990:	48 83 c4 28          	add    $0x28,%rsp
    1994:	c3                   	retq   
    1995:	90                   	nop
    1996:	66 2e 0f 1f 84 00 00 	nopw   %cs:0x0(%rax,%rax,1)
    199d:	00 00 00 

00000000000019a0 <call_bits_ref_var>:
    19a0:	48 83 ec 28          	sub    $0x28,%rsp
    19a4:	48 8d 74 24 10       	lea    0x10(%rsp),%rsi
    19a9:	48 89 e7             	mov    %rsp,%rdi
    19ac:	c7 04 24 00 00 00 00 	movl   $0x0,(%rsp)
    19b3:	c7 44 24 10 01 00 00 	movl   $0x1,0x10(%rsp)
    19ba:	00 
    19bb:	e8 80 ff ff ff       	callq  1940 <bits_ref.constprop.16>
    19c0:	48 83 c4 28          	add    $0x28,%rsp
    19c4:	c3                   	retq   
    19c5:	90                   	nop
    19c6:	66 2e 0f 1f 84 00 00 	nopw   %cs:0x0(%rax,%rax,1)
    19cd:	00 00 00 

00000000000019d0 <bits_ref.constprop.17>:
    19d0:	8b 16                	mov    (%rsi),%edx
    19d2:	8b 04 25 c4 02 70 00 	mov    0x7002c4,%eax
    19d9:	83 e2 01             	and    $0x1,%edx
    19dc:	83 e0 bf             	and    $0xffffffbf,%eax
    19df:	c1 e2 06             	shl    $0x6,%edx
    19e2:	09 d0                	or     %edx,%eax
    19e4:	89 04 25 c4 02 70 00 	mov    %eax,0x7002c4
    19eb:	8b 16                	mov    (%rsi),%edx
    19ed:	8b 04 25 c4 02 70 00 	mov    0x7002c4,%eax
    19f4:	83 e2 01             	and    $0x1,%edx
    19f7:	c1 e2 06             	shl    $0x6,%edx
    19fa:	83 e0 bf             	and    $0xffffffbf,%eax
    19fd:	09 d0                	or     %edx,%eax
    19ff:	89 04 25 c4 02 70 00 	mov    %eax,0x7002c4
    1a06:	c3                   	retq   
    1a07:	66 0f 1f 84 00 00 00 	nopw   0x0(%rax,%rax,1)
    1a0e:	00 00 

0000000000001a10 <call_bits_ref_global>:
    1a10:	48 83 ec 28          	sub    $0x28,%rsp
    1a14:	48 8d 74 24 10       	lea    0x10(%rsp),%rsi
    1a19:	48 89 e7             	mov    %rsp,%rdi
    1a1c:	c7 04 24 04 00 00 00 	movl   $0x4,(%rsp)
    1a23:	c7 44 24 10 01 00 00 	movl   $0x1,0x10(%rsp)
    1a2a:	00 
    1a2b:	e8 a0 ff ff ff       	callq  19d0 <bits_ref.constprop.17>
    1a30:	48 83 c4 28          	add    $0x28,%rsp
    1a34:	c3                   	retq   
    1a35:	90                   	nop
    1a36:	66 2e 0f 1f 84 00 00 	nopw   %cs:0x0(%rax,%rax,1)
    1a3d:	00 00 00 

0000000000001a40 <bits_val.constprop.18>:
    1a40:	8b 04 25 c4 02 70 00 	mov    0x7002c4,%eax
    1a47:	83 c8 40             	or     $0x40,%eax
    1a4a:	89 04 25 c4 02 70 00 	mov    %eax,0x7002c4
    1a51:	8b 04 25 c4 02 70 00 	mov    0x7002c4,%eax
    1a58:	83 c8 40             	or     $0x40,%eax
    1a5b:	89 04 25 c4 02 70 00 	mov    %eax,0x7002c4
    1a62:	c3                   	retq   
    1a63:	0f 1f 00             	nopl   (%rax)
    1a66:	66 2e 0f 1f 84 00 00 	nopw   %cs:0x0(%rax,%rax,1)
    1a6d:	00 00 00 

0000000000001a70 <call_bits_val_const>:
    1a70:	eb ce                	jmp    1a40 <bits_val.constprop.18>
    1a72:	0f 1f 40 00          	nopl   0x0(%rax)
    1a76:	66 2e 0f 1f 84 00 00 	nopw   %cs:0x0(%rax,%rax,1)
    1a7d:	00 00 00 

0000000000001a80 <call_bits_val_var>:
    1a80:	eb be                	jmp    1a40 <bits_val.constprop.18>
    1a82:	0f 1f 40 00          	nopl   0x0(%rax)
    1a86:	66 2e 0f 1f 84 00 00 	nopw   %cs:0x0(%rax,%rax,1)
    1a8d:	00 00 00 

0000000000001a90 <call_bits_val_global>:
    1a90:	eb ae                	jmp    1a40 <bits_val.constprop.18>
    1a92:	0f 1f 40 00          	nopl   0x0(%rax)
    1a96:	66 2e 0f 1f 84 00 00 	nopw   %cs:0x0(%rax,%rax,1)
    1a9d:	00 00 00 

0000000000001aa0 <bits_val>:
    1aa0:	83 ff 03             	cmp    $0x3,%edi
    1aa3:	74 73                	je     1b18 <bits_val+0x78>
    1aa5:	83 ff 04             	cmp    $0x4,%edi
    1aa8:	74 3e                	je     1ae8 <bits_val+0x48>
    1aaa:	85 ff                	test   %edi,%edi
    1aac:	74 0a                	je     1ab8 <bits_val+0x18>
    1aae:	66 90                	xchg   %ax,%ax
    1ab0:	f3 c3                	repz retq 
    1ab2:	66 0f 1f 44 00 00    	nopw   0x0(%rax,%rax,1)
    1ab8:	8b 04 25 c4 02 70 00 	mov    0x7002c4,%eax
    1abf:	83 e6 01             	and    $0x1,%esi
    1ac2:	83 e0 fe             	and    $0xfffffffe,%eax
    1ac5:	09 f0                	or     %esi,%eax
    1ac7:	89 04 25 c4 02 70 00 	mov    %eax,0x7002c4
    1ace:	8b 04 25 c4 02 70 00 	mov    0x7002c4,%eax
    1ad5:	83 e0 fe             	and    $0xfffffffe,%eax
    1ad8:	09 f0                	or     %esi,%eax
    1ada:	89 04 25 c4 02 70 00 	mov    %eax,0x7002c4
    1ae1:	c3                   	retq   
    1ae2:	66 0f 1f 44 00 00    	nopw   0x0(%rax,%rax,1)
    1ae8:	8b 04 25 c4 02 70 00 	mov    0x7002c4,%eax
    1aef:	83 e6 01             	and    $0x1,%esi
    1af2:	c1 e6 06             	shl    $0x6,%esi
    1af5:	83 e0 bf             	and    $0xffffffbf,%eax
    1af8:	09 f0                	or     %esi,%eax
    1afa:	89 04 25 c4 02 70 00 	mov    %eax,0x7002c4
    1b01:	8b 04 25 c4 02 70 00 	mov    0x7002c4,%eax
    1b08:	83 e0 bf             	and    $0xffffffbf,%eax
    1b0b:	09 f0                	or     %esi,%eax
    1b0d:	89 04 25 c4 02 70 00 	mov    %eax,0x7002c4
    1b14:	c3                   	retq   
    1b15:	0f 1f 00             	nopl   (%rax)
    1b18:	8b 04 25 c4 02 70 00 	mov    0x7002c4,%eax
    1b1f:	83 e6 01             	and    $0x1,%esi
    1b22:	c1 e6 05             	shl    $0x5,%esi
    1b25:	83 e0 df             	and    $0xffffffdf,%eax
    1b28:	09 f0                	or     %esi,%eax
    1b2a:	89 04 25 c4 02 70 00 	mov    %eax,0x7002c4
    1b31:	8b 04 25 c4 02 70 00 	mov    0x7002c4,%eax
    1b38:	83 e0 df             	and    $0xffffffdf,%eax
    1b3b:	09 f0                	or     %esi,%eax
    1b3d:	89 04 25 c4 02 70 00 	mov    %eax,0x7002c4
    1b44:	c3                   	retq   
    1b45:	90                   	nop
    1b46:	66 2e 0f 1f 84 00 00 	nopw   %cs:0x0(%rax,%rax,1)
    1b4d:	00 00 00 

0000000000001b50 <bits_ref>:
    1b50:	8b 07                	mov    (%rdi),%eax
    1b52:	83 f8 03             	cmp    $0x3,%eax
    1b55:	0f 84 85 00 00 00    	je     1be0 <bits_ref+0x90>
    1b5b:	83 f8 04             	cmp    $0x4,%eax
    1b5e:	74 48                	je     1ba8 <bits_ref+0x58>
    1b60:	85 c0                	test   %eax,%eax
    1b62:	74 0c                	je     1b70 <bits_ref+0x20>
    1b64:	f3 c3                	repz retq 
    1b66:	66 2e 0f 1f 84 00 00 	nopw   %cs:0x0(%rax,%rax,1)
    1b6d:	00 00 00 
    1b70:	8b 04 25 c4 02 70 00 	mov    0x7002c4,%eax
    1b77:	8b 16                	mov    (%rsi),%edx
    1b79:	83 e0 fe             	and    $0xfffffffe,%eax
    1b7c:	83 e2 01             	and    $0x1,%edx
    1b7f:	09 d0                	or     %edx,%eax
    1b81:	89 04 25 c4 02 70 00 	mov    %eax,0x7002c4
    1b88:	8b 16                	mov    (%rsi),%edx
    1b8a:	8b 04 25 c4 02 70 00 	mov    0x7002c4,%eax
    1b91:	83 e2 01             	and    $0x1,%edx
    1b94:	83 e0 fe             	and    $0xfffffffe,%eax
    1b97:	09 d0                	or     %edx,%eax
    1b99:	89 04 25 c4 02 70 00 	mov    %eax,0x7002c4
    1ba0:	c3                   	retq   
    1ba1:	0f 1f 80 00 00 00 00 	nopl   0x0(%rax)
    1ba8:	8b 16                	mov    (%rsi),%edx
    1baa:	8b 04 25 c4 02 70 00 	mov    0x7002c4,%eax
    1bb1:	83 e2 01             	and    $0x1,%edx
    1bb4:	83 e0 bf             	and    $0xffffffbf,%eax
    1bb7:	c1 e2 06             	shl    $0x6,%edx
    1bba:	09 d0                	or     %edx,%eax
    1bbc:	89 04 25 c4 02 70 00 	mov    %eax,0x7002c4
    1bc3:	8b 16                	mov    (%rsi),%edx
    1bc5:	8b 04 25 c4 02 70 00 	mov    0x7002c4,%eax
    1bcc:	83 e2 01             	and    $0x1,%edx
    1bcf:	c1 e2 06             	shl    $0x6,%edx
    1bd2:	83 e0 bf             	and    $0xffffffbf,%eax
    1bd5:	09 d0                	or     %edx,%eax
    1bd7:	89 04 25 c4 02 70 00 	mov    %eax,0x7002c4
    1bde:	c3                   	retq   
    1bdf:	90                   	nop
    1be0:	8b 16                	mov    (%rsi),%edx
    1be2:	8b 04 25 c4 02 70 00 	mov    0x7002c4,%eax
    1be9:	83 e2 01             	and    $0x1,%edx
    1bec:	83 e0 df             	and    $0xffffffdf,%eax
    1bef:	c1 e2 05             	shl    $0x5,%edx
    1bf2:	09 d0                	or     %edx,%eax
    1bf4:	89 04 25 c4 02 70 00 	mov    %eax,0x7002c4
    1bfb:	8b 16                	mov    (%rsi),%edx
    1bfd:	8b 04 25 c4 02 70 00 	mov    0x7002c4,%eax
    1c04:	83 e2 01             	and    $0x1,%edx
    1c07:	c1 e2 05             	shl    $0x5,%edx
    1c0a:	83 e0 df             	and    $0xffffffdf,%eax
    1c0d:	09 d0                	or     %edx,%eax
    1c0f:	89 04 25 c4 02 70 00 	mov    %eax,0x7002c4
    1c16:	c3                   	retq   
    1c17:	66 0f 1f 84 00 00 00 	nopw   0x0(%rax,%rax,1)
    1c1e:	00 00 

0000000000001c20 <mskd_val>:
    1c20:	83 ff 06             	cmp    $0x6,%edi
    1c23:	77 3b                	ja     1c60 <mskd_val+0x40>
    1c25:	89 ff                	mov    %edi,%edi
    1c27:	ff 24 fd 00 00 00 00 	jmpq   *0x0(,%rdi,8)
    1c2e:	66 90                	xchg   %ax,%ax
    1c30:	8b 04 25 c4 02 70 00 	mov    0x7002c4,%eax
    1c37:	83 e6 1f             	and    $0x1f,%esi
    1c3a:	c1 e6 0c             	shl    $0xc,%esi
    1c3d:	25 ff 0f fe ff       	and    $0xfffe0fff,%eax
    1c42:	09 f0                	or     %esi,%eax
    1c44:	89 04 25 c4 02 70 00 	mov    %eax,0x7002c4
    1c4b:	8b 04 25 c4 02 70 00 	mov    0x7002c4,%eax
    1c52:	25 ff 0f fe ff       	and    $0xfffe0fff,%eax
    1c57:	09 f0                	or     %esi,%eax
    1c59:	89 04 25 c4 02 70 00 	mov    %eax,0x7002c4
    1c60:	f3 c3                	repz retq 
    1c62:	66 0f 1f 44 00 00    	nopw   0x0(%rax,%rax,1)
    1c68:	8b 04 25 c4 02 70 00 	mov    0x7002c4,%eax
    1c6f:	83 e6 03             	and    $0x3,%esi
    1c72:	c1 e6 03             	shl    $0x3,%esi
    1c75:	83 e0 e7             	and    $0xffffffe7,%eax
    1c78:	09 f0                	or     %esi,%eax
    1c7a:	89 04 25 c4 02 70 00 	mov    %eax,0x7002c4
    1c81:	8b 04 25 c4 02 70 00 	mov    0x7002c4,%eax
    1c88:	83 e0 e7             	and    $0xffffffe7,%eax
    1c8b:	09 f0                	or     %esi,%eax
    1c8d:	89 04 25 c4 02 70 00 	mov    %eax,0x7002c4
    1c94:	c3                   	retq   
    1c95:	0f 1f 00             	nopl   (%rax)
    1c98:	8b 04 25 c4 02 70 00 	mov    0x7002c4,%eax
    1c9f:	83 e6 01             	and    $0x1,%esi
    1ca2:	c1 e6 05             	shl    $0x5,%esi
    1ca5:	83 e0 df             	and    $0xffffffdf,%eax
    1ca8:	09 f0                	or     %esi,%eax
    1caa:	89 04 25 c4 02 70 00 	mov    %eax,0x7002c4
    1cb1:	8b 04 25 c4 02 70 00 	mov    0x7002c4,%eax
    1cb8:	83 e0 df             	and    $0xffffffdf,%eax
    1cbb:	09 f0                	or     %esi,%eax
    1cbd:	89 04 25 c4 02 70 00 	mov    %eax,0x7002c4
    1cc4:	c3                   	retq   
    1cc5:	0f 1f 00             	nopl   (%rax)
    1cc8:	8b 04 25 c4 02 70 00 	mov    0x7002c4,%eax
    1ccf:	83 e6 01             	and    $0x1,%esi
    1cd2:	83 e0 fe             	and    $0xfffffffe,%eax
    1cd5:	09 f0                	or     %esi,%eax
    1cd7:	89 04 25 c4 02 70 00 	mov    %eax,0x7002c4
    1cde:	8b 04 25 c4 02 70 00 	mov    0x7002c4,%eax
    1ce5:	83 e0 fe             	and    $0xfffffffe,%eax
    1ce8:	09 f0                	or     %esi,%eax
    1cea:	89 04 25 c4 02 70 00 	mov    %eax,0x7002c4
    1cf1:	c3                   	retq   
    1cf2:	66 0f 1f 44 00 00    	nopw   0x0(%rax,%rax,1)
    1cf8:	8b 04 25 c4 02 70 00 	mov    0x7002c4,%eax
    1cff:	83 e6 03             	and    $0x3,%esi
    1d02:	01 f6                	add    %esi,%esi
    1d04:	83 e0 f9             	and    $0xfffffff9,%eax
    1d07:	09 f0                	or     %esi,%eax
    1d09:	89 04 25 c4 02 70 00 	mov    %eax,0x7002c4
    1d10:	8b 04 25 c4 02 70 00 	mov    0x7002c4,%eax
    1d17:	83 e0 f9             	and    $0xfffffff9,%eax
    1d1a:	09 f0                	or     %esi,%eax
    1d1c:	89 04 25 c4 02 70 00 	mov    %eax,0x7002c4
    1d23:	c3                   	retq   
    1d24:	0f 1f 40 00          	nopl   0x0(%rax)
    1d28:	8b 04 25 c4 02 70 00 	mov    0x7002c4,%eax
    1d2f:	83 e6 1f             	and    $0x1f,%esi
    1d32:	c1 e6 07             	shl    $0x7,%esi
    1d35:	25 7f f0 ff ff       	and    $0xfffff07f,%eax
    1d3a:	09 f0                	or     %esi,%eax
    1d3c:	89 04 25 c4 02 70 00 	mov    %eax,0x7002c4
    1d43:	8b 04 25 c4 02 70 00 	mov    0x7002c4,%eax
    1d4a:	25 7f f0 ff ff       	and    $0xfffff07f,%eax
    1d4f:	09 f0                	or     %esi,%eax
    1d51:	89 04 25 c4 02 70 00 	mov    %eax,0x7002c4
    1d58:	c3                   	retq   
    1d59:	0f 1f 80 00 00 00 00 	nopl   0x0(%rax)

0000000000001d60 <mskd_ref>:
    1d60:	83 3f 06             	cmpl   $0x6,(%rdi)
    1d63:	77 45                	ja     1daa <mskd_ref+0x4a>
    1d65:	8b 07                	mov    (%rdi),%eax
    1d67:	ff 24 c5 00 00 00 00 	jmpq   *0x0(,%rax,8)
    1d6e:	66 90                	xchg   %ax,%ax
    1d70:	8b 16                	mov    (%rsi),%edx
    1d72:	8b 04 25 c4 02 70 00 	mov    0x7002c4,%eax
    1d79:	83 e2 1f             	and    $0x1f,%edx
    1d7c:	25 ff 0f fe ff       	and    $0xfffe0fff,%eax
    1d81:	c1 e2 0c             	shl    $0xc,%edx
    1d84:	09 d0                	or     %edx,%eax
    1d86:	89 04 25 c4 02 70 00 	mov    %eax,0x7002c4
    1d8d:	8b 16                	mov    (%rsi),%edx
    1d8f:	8b 04 25 c4 02 70 00 	mov    0x7002c4,%eax
    1d96:	83 e2 1f             	and    $0x1f,%edx
    1d99:	c1 e2 0c             	shl    $0xc,%edx
    1d9c:	25 ff 0f fe ff       	and    $0xfffe0fff,%eax
    1da1:	09 d0                	or     %edx,%eax
    1da3:	89 04 25 c4 02 70 00 	mov    %eax,0x7002c4
    1daa:	f3 c3                	repz retq 
    1dac:	0f 1f 40 00          	nopl   0x0(%rax)
    1db0:	8b 06                	mov    (%rsi),%eax
    1db2:	83 e0 03             	and    $0x3,%eax
    1db5:	8d 14 c5 00 00 00 00 	lea    0x0(,%rax,8),%edx
    1dbc:	8b 04 25 c4 02 70 00 	mov    0x7002c4,%eax
    1dc3:	83 e0 e7             	and    $0xffffffe7,%eax
    1dc6:	09 d0                	or     %edx,%eax
    1dc8:	89 04 25 c4 02 70 00 	mov    %eax,0x7002c4
    1dcf:	8b 06                	mov    (%rsi),%eax
    1dd1:	83 e0 03             	and    $0x3,%eax
    1dd4:	8d 14 c5 00 00 00 00 	lea    0x0(,%rax,8),%edx
    1ddb:	8b 04 25 c4 02 70 00 	mov    0x7002c4,%eax
    1de2:	83 e0 e7             	and    $0xffffffe7,%eax
    1de5:	09 d0                	or     %edx,%eax
    1de7:	89 04 25 c4 02 70 00 	mov    %eax,0x7002c4
    1dee:	c3                   	retq   
    1def:	90                   	nop
    1df0:	8b 16                	mov    (%rsi),%edx
    1df2:	8b 04 25 c4 02 70 00 	mov    0x7002c4,%eax
    1df9:	83 e2 01             	and    $0x1,%edx
    1dfc:	83 e0 df             	and    $0xffffffdf,%eax
    1dff:	c1 e2 05             	shl    $0x5,%edx
    1e02:	09 d0                	or     %edx,%eax
    1e04:	89 04 25 c4 02 70 00 	mov    %eax,0x7002c4
    1e0b:	8b 16                	mov    (%rsi),%edx
    1e0d:	8b 04 25 c4 02 70 00 	mov    0x7002c4,%eax
    1e14:	83 e2 01             	and    $0x1,%edx
    1e17:	c1 e2 05             	shl    $0x5,%edx
    1e1a:	83 e0 df             	and    $0xffffffdf,%eax
    1e1d:	09 d0                	or     %edx,%eax
    1e1f:	89 04 25 c4 02 70 00 	mov    %eax,0x7002c4
    1e26:	c3                   	retq   
    1e27:	66 0f 1f 84 00 00 00 	nopw   0x0(%rax,%rax,1)
    1e2e:	00 00 
    1e30:	8b 04 25 c4 02 70 00 	mov    0x7002c4,%eax
    1e37:	8b 16                	mov    (%rsi),%edx
    1e39:	83 e0 fe             	and    $0xfffffffe,%eax
    1e3c:	83 e2 01             	and    $0x1,%edx
    1e3f:	09 d0                	or     %edx,%eax
    1e41:	89 04 25 c4 02 70 00 	mov    %eax,0x7002c4
    1e48:	8b 16                	mov    (%rsi),%edx
    1e4a:	8b 04 25 c4 02 70 00 	mov    0x7002c4,%eax
    1e51:	83 e2 01             	and    $0x1,%edx
    1e54:	83 e0 fe             	and    $0xfffffffe,%eax
    1e57:	09 d0                	or     %edx,%eax
    1e59:	89 04 25 c4 02 70 00 	mov    %eax,0x7002c4
    1e60:	c3                   	retq   
    1e61:	0f 1f 80 00 00 00 00 	nopl   0x0(%rax)
    1e68:	8b 06                	mov    (%rsi),%eax
    1e6a:	83 e0 03             	and    $0x3,%eax
    1e6d:	8d 14 00             	lea    (%rax,%rax,1),%edx
    1e70:	8b 04 25 c4 02 70 00 	mov    0x7002c4,%eax
    1e77:	83 e0 f9             	and    $0xfffffff9,%eax
    1e7a:	09 d0                	or     %edx,%eax
    1e7c:	89 04 25 c4 02 70 00 	mov    %eax,0x7002c4
    1e83:	8b 06                	mov    (%rsi),%eax
    1e85:	83 e0 03             	and    $0x3,%eax
    1e88:	8d 14 00             	lea    (%rax,%rax,1),%edx
    1e8b:	8b 04 25 c4 02 70 00 	mov    0x7002c4,%eax
    1e92:	83 e0 f9             	and    $0xfffffff9,%eax
    1e95:	09 d0                	or     %edx,%eax
    1e97:	89 04 25 c4 02 70 00 	mov    %eax,0x7002c4
    1e9e:	c3                   	retq   
    1e9f:	90                   	nop
    1ea0:	8b 16                	mov    (%rsi),%edx
    1ea2:	8b 04 25 c4 02 70 00 	mov    0x7002c4,%eax
    1ea9:	83 e2 1f             	and    $0x1f,%edx
    1eac:	25 7f f0 ff ff       	and    $0xfffff07f,%eax
    1eb1:	c1 e2 07             	shl    $0x7,%edx
    1eb4:	09 d0                	or     %edx,%eax
    1eb6:	89 04 25 c4 02 70 00 	mov    %eax,0x7002c4
    1ebd:	8b 16                	mov    (%rsi),%edx
    1ebf:	8b 04 25 c4 02 70 00 	mov    0x7002c4,%eax
    1ec6:	83 e2 1f             	and    $0x1f,%edx
    1ec9:	c1 e2 07             	shl    $0x7,%edx
    1ecc:	25 7f f0 ff ff       	and    $0xfffff07f,%eax
    1ed1:	09 d0                	or     %edx,%eax
    1ed3:	89 04 25 c4 02 70 00 	mov    %eax,0x7002c4
    1eda:	c3                   	retq   
    1edb:	0f 1f 44 00 00       	nopl   0x0(%rax,%rax,1)

0000000000001ee0 <periph_bits>:
    1ee0:	8b 47 04             	mov    0x4(%rdi),%eax
    1ee3:	83 c8 40             	or     $0x40,%eax
    1ee6:	89 47 04             	mov    %eax,0x4(%rdi)
    1ee9:	c3                   	retq   
    1eea:	66 0f 1f 44 00 00    	nopw   0x0(%rax,%rax,1)

0000000000001ef0 <call_periph_bits>:
    1ef0:	bf c0 02 70 00       	mov    $0x7002c0,%edi
    1ef5:	eb e9                	jmp    1ee0 <periph_bits>
    1ef7:	66 0f 1f 84 00 00 00 	nopw   0x0(%rax,%rax,1)
    1efe:	00 00 

0000000000001f00 <periph_bits_val>:
    1f00:	83 fe 04             	cmp    $0x4,%esi
    1f03:	75 09                	jne    1f0e <periph_bits_val+0xe>
    1f05:	8b 47 04             	mov    0x4(%rdi),%eax
    1f08:	83 c8 40             	or     $0x40,%eax
    1f0b:	89 47 04             	mov    %eax,0x4(%rdi)
    1f0e:	f3 c3                	repz retq 

0000000000001f10 <reg_bits_val>:
    1f10:	83 fe 04             	cmp    $0x4,%esi
    1f13:	75 07                	jne    1f1c <reg_bits_val+0xc>
    1f15:	8b 07                	mov    (%rdi),%eax
    1f17:	83 c8 40             	or     $0x40,%eax
    1f1a:	89 07                	mov    %eax,(%rdi)
    1f1c:	f3 c3                	repz retq 
    1f1e:	66 90                	xchg   %ax,%ax

0000000000001f20 <periph_bits_ref>:
    1f20:	83 3e 04             	cmpl   $0x4,(%rsi)
    1f23:	75 09                	jne    1f2e <periph_bits_ref+0xe>
    1f25:	8b 47 04             	mov    0x4(%rdi),%eax
    1f28:	83 c8 40             	or     $0x40,%eax
    1f2b:	89 47 04             	mov    %eax,0x4(%rdi)
    1f2e:	f3 c3                	repz retq 

0000000000001f30 <reg_bits_ref>:
    1f30:	83 3e 04             	cmpl   $0x4,(%rsi)
    1f33:	75 07                	jne    1f3c <reg_bits_ref+0xc>
    1f35:	8b 07                	mov    (%rdi),%eax
    1f37:	83 c8 40             	or     $0x40,%eax
    1f3a:	89 07                	mov    %eax,(%rdi)
    1f3c:	f3 c3                	repz retq 
    1f3e:	66 90                	xchg   %ax,%ax

0000000000001f40 <periph_mskd>:
    1f40:	8b 47 04             	mov    0x4(%rdi),%eax
    1f43:	83 e0 f9             	and    $0xfffffff9,%eax
    1f46:	83 c8 02             	or     $0x2,%eax
    1f49:	89 47 04             	mov    %eax,0x4(%rdi)
    1f4c:	c3                   	retq   
    1f4d:	0f 1f 00             	nopl   (%rax)

0000000000001f50 <call_periph_mskd>:
    1f50:	bf c0 02 70 00       	mov    $0x7002c0,%edi
    1f55:	eb e9                	jmp    1f40 <periph_mskd>
    1f57:	66 0f 1f 84 00 00 00 	nopw   0x0(%rax,%rax,1)
    1f5e:	00 00 

0000000000001f60 <periph_mskd_val>:
    1f60:	83 fe 01             	cmp    $0x1,%esi
    1f63:	75 0c                	jne    1f71 <periph_mskd_val+0x11>
    1f65:	8b 47 04             	mov    0x4(%rdi),%eax
    1f68:	83 e0 f9             	and    $0xfffffff9,%eax
    1f6b:	83 c8 02             	or     $0x2,%eax
    1f6e:	89 47 04             	mov    %eax,0x4(%rdi)
    1f71:	f3 c3                	repz retq 
    1f73:	0f 1f 00             	nopl   (%rax)
    1f76:	66 2e 0f 1f 84 00 00 	nopw   %cs:0x0(%rax,%rax,1)
    1f7d:	00 00 00 

0000000000001f80 <reg_mskd_val>:
    1f80:	83 fe 01             	cmp    $0x1,%esi
    1f83:	75 0a                	jne    1f8f <reg_mskd_val+0xf>
    1f85:	8b 07                	mov    (%rdi),%eax
    1f87:	83 e0 f9             	and    $0xfffffff9,%eax
    1f8a:	83 c8 02             	or     $0x2,%eax
    1f8d:	89 07                	mov    %eax,(%rdi)
    1f8f:	f3 c3                	repz retq 
    1f91:	0f 1f 44 00 00       	nopl   0x0(%rax,%rax,1)
    1f96:	66 2e 0f 1f 84 00 00 	nopw   %cs:0x0(%rax,%rax,1)
    1f9d:	00 00 00 

0000000000001fa0 <periph_mskd_ref>:
    1fa0:	83 3e 01             	cmpl   $0x1,(%rsi)
    1fa3:	75 0c                	jne    1fb1 <periph_mskd_ref+0x11>
    1fa5:	8b 47 04             	mov    0x4(%rdi),%eax
    1fa8:	83 e0 f9             	and    $0xfffffff9,%eax
    1fab:	83 c8 02             	or     $0x2,%eax
    1fae:	89 47 04             	mov    %eax,0x4(%rdi)
    1fb1:	f3 c3                	repz retq 
    1fb3:	0f 1f 00             	nopl   (%rax)
    1fb6:	66 2e 0f 1f 84 00 00 	nopw   %cs:0x0(%rax,%rax,1)
    1fbd:	00 00 00 

0000000000001fc0 <reg_mskd_ref>:
    1fc0:	83 3e 01             	cmpl   $0x1,(%rsi)
    1fc3:	75 0a                	jne    1fcf <reg_mskd_ref+0xf>
    1fc5:	8b 07                	mov    (%rdi),%eax
    1fc7:	83 e0 f9             	and    $0xfffffff9,%eax
    1fca:	83 c8 02             	or     $0x2,%eax
    1fcd:	89 07                	mov    %eax,(%rdi)
    1fcf:	f3 c3                	repz retq 
    1fd1:	0f 1f 44 00 00       	nopl   0x0(%rax,%rax,1)
    1fd6:	66 2e 0f 1f 84 00 00 	nopw   %cs:0x0(%rax,%rax,1)
    1fdd:	00 00 00 

0000000000001fe0 <return_bits>:
    1fe0:	b8 01 00 00 00       	mov    $0x1,%eax
    1fe5:	c3                   	retq   
    1fe6:	66 2e 0f 1f 84 00 00 	nopw   %cs:0x0(%rax,%rax,1)
    1fed:	00 00 00 

0000000000001ff0 <call_return_bits>:
    1ff0:	31 c0                	xor    %eax,%eax
    1ff2:	e8 00 00 00 00       	callq  1ff7 <call_return_bits+0x7>
    1ff7:	83 f8 01             	cmp    $0x1,%eax
    1ffa:	c7 04 25 24 02 70 00 	movl   $0x0,0x700224
    2001:	00 00 00 00 
    2005:	8b 04 25 24 02 70 00 	mov    0x700224,%eax
    200c:	74 12                	je     2020 <call_return_bits+0x30>
    200e:	0d 00 00 00 3e       	or     $0x3e000000,%eax
    2013:	89 04 25 24 02 70 00 	mov    %eax,0x700224
    201a:	c3                   	retq   
    201b:	0f 1f 44 00 00       	nopl   0x0(%rax,%rax,1)
    2020:	25 ff ff ff c1       	and    $0xc1ffffff,%eax
    2025:	0d 00 00 00 2a       	or     $0x2a000000,%eax
    202a:	89 04 25 24 02 70 00 	mov    %eax,0x700224
    2031:	c3                   	retq   
    2032:	0f 1f 40 00          	nopl   0x0(%rax)
    2036:	66 2e 0f 1f 84 00 00 	nopw   %cs:0x0(%rax,%rax,1)
    203d:	00 00 00 

0000000000002040 <return_mskd>:
    2040:	c7 07 02 00 00 00    	movl   $0x2,(%rdi)
    2046:	c7 06 01 00 00 00    	movl   $0x1,(%rsi)
    204c:	c3                   	retq   
    204d:	0f 1f 00             	nopl   (%rax)

0000000000002050 <call_return_mskd>:
    2050:	48 83 ec 28          	sub    $0x28,%rsp
    2054:	48 8d 74 24 10       	lea    0x10(%rsp),%rsi
    2059:	48 89 e7             	mov    %rsp,%rdi
    205c:	e8 00 00 00 00       	callq  2061 <call_return_mskd+0x11>
    2061:	c7 04 25 24 02 70 00 	movl   $0x0,0x700224
    2068:	00 00 00 00 
    206c:	83 3c 24 02          	cmpl   $0x2,(%rsp)
    2070:	74 1e                	je     2090 <call_return_mskd+0x40>
    2072:	8b 04 25 24 02 70 00 	mov    0x700224,%eax
    2079:	25 ff ff ff c1       	and    $0xc1ffffff,%eax
    207e:	0d 00 00 00 26       	or     $0x26000000,%eax
    2083:	89 04 25 24 02 70 00 	mov    %eax,0x700224
    208a:	48 83 c4 28          	add    $0x28,%rsp
    208e:	c3                   	retq   
    208f:	90                   	nop
    2090:	83 7c 24 10 01       	cmpl   $0x1,0x10(%rsp)
    2095:	75 db                	jne    2072 <call_return_mskd+0x22>
    2097:	8b 04 25 24 02 70 00 	mov    0x700224,%eax
    209e:	25 ff ff ff c1       	and    $0xc1ffffff,%eax
    20a3:	0d 00 00 00 22       	or     $0x22000000,%eax
    20a8:	89 04 25 24 02 70 00 	mov    %eax,0x700224
    20af:	eb d9                	jmp    208a <call_return_mskd+0x3a>
    20b1:	0f 1f 44 00 00       	nopl   0x0(%rax,%rax,1)
    20b6:	66 2e 0f 1f 84 00 00 	nopw   %cs:0x0(%rax,%rax,1)
    20bd:	00 00 00 

00000000000020c0 <return_reg>:
    20c0:	c7 04 25 c4 02 70 00 	movl   $0x0,0x7002c4
    20c7:	00 00 00 00 
    20cb:	8b 04 25 c4 02 70 00 	mov    0x7002c4,%eax
    20d2:	83 c8 40             	or     $0x40,%eax
    20d5:	89 04 25 c4 02 70 00 	mov    %eax,0x7002c4
    20dc:	b8 c4 02 70 00       	mov    $0x7002c4,%eax
    20e1:	c3                   	retq   
    20e2:	0f 1f 40 00          	nopl   0x0(%rax)
    20e6:	66 2e 0f 1f 84 00 00 	nopw   %cs:0x0(%rax,%rax,1)
    20ed:	00 00 00 

00000000000020f0 <call_return_reg>:
    20f0:	31 c0                	xor    %eax,%eax
    20f2:	e8 00 00 00 00       	callq  20f7 <call_return_reg+0x7>
    20f7:	c7 04 25 24 02 70 00 	movl   $0x0,0x700224
    20fe:	00 00 00 00 
    2102:	8b 00                	mov    (%rax),%eax
    2104:	a8 40                	test   $0x40,%al
    2106:	8b 04 25 24 02 70 00 	mov    0x700224,%eax
    210d:	75 19                	jne    2128 <call_return_reg+0x38>
    210f:	25 ff ff ff c1       	and    $0xc1ffffff,%eax
    2114:	0d 00 00 00 2e       	or     $0x2e000000,%eax
    2119:	89 04 25 24 02 70 00 	mov    %eax,0x700224
    2120:	c3                   	retq   
    2121:	0f 1f 80 00 00 00 00 	nopl   0x0(%rax)
    2128:	25 ff ff ff c1       	and    $0xc1ffffff,%eax
    212d:	0d 00 00 00 1e       	or     $0x1e000000,%eax
    2132:	89 04 25 24 02 70 00 	mov    %eax,0x700224
    2139:	c3                   	retq   
    213a:	66 0f 1f 44 00 00    	nopw   0x0(%rax,%rax,1)

0000000000002140 <return_periph>:
    2140:	c7 04 25 c4 02 70 00 	movl   $0x0,0x7002c4
    2147:	00 00 00 00 
    214b:	8b 04 25 c4 02 70 00 	mov    0x7002c4,%eax
    2152:	83 c8 40             	or     $0x40,%eax
    2155:	89 04 25 c4 02 70 00 	mov    %eax,0x7002c4
    215c:	b8 c0 02 70 00       	mov    $0x7002c0,%eax
    2161:	c3                   	retq   
    2162:	0f 1f 40 00          	nopl   0x0(%rax)
    2166:	66 2e 0f 1f 84 00 00 	nopw   %cs:0x0(%rax,%rax,1)
    216d:	00 00 00 

0000000000002170 <call_return_periph>:
    2170:	31 c0                	xor    %eax,%eax
    2172:	e8 00 00 00 00       	callq  2177 <call_return_periph+0x7>
    2177:	8b 40 04             	mov    0x4(%rax),%eax
    217a:	a8 40                	test   $0x40,%al
    217c:	8b 04 25 24 02 70 00 	mov    0x700224,%eax
    2183:	75 1b                	jne    21a0 <call_return_periph+0x30>
    2185:	25 ff ff ff c1       	and    $0xc1ffffff,%eax
    218a:	0d 00 00 00 2a       	or     $0x2a000000,%eax
    218f:	89 04 25 24 02 70 00 	mov    %eax,0x700224
    2196:	c3                   	retq   
    2197:	66 0f 1f 84 00 00 00 	nopw   0x0(%rax,%rax,1)
    219e:	00 00 
    21a0:	25 ff ff ff c1       	and    $0xc1ffffff,%eax
    21a5:	0d 00 00 00 26       	or     $0x26000000,%eax
    21aa:	89 04 25 24 02 70 00 	mov    %eax,0x700224
    21b1:	c3                   	retq   
    21b2:	0f 1f 40 00          	nopl   0x0(%rax)
    21b6:	66 2e 0f 1f 84 00 00 	nopw   %cs:0x0(%rax,%rax,1)
    21bd:	00 00 00 

00000000000021c0 <pos_val>:
    21c0:	83 ff 03             	cmp    $0x3,%edi
    21c3:	74 1b                	je     21e0 <pos_val+0x20>
    21c5:	83 ff 04             	cmp    $0x4,%edi
    21c8:	74 26                	je     21f0 <pos_val+0x30>
    21ca:	c7 04 25 2c 01 70 00 	movl   $0x55,0x70012c
    21d1:	55 00 00 00 
    21d5:	c3                   	retq   
    21d6:	66 2e 0f 1f 84 00 00 	nopw   %cs:0x0(%rax,%rax,1)
    21dd:	00 00 00 
    21e0:	c7 04 25 2c 01 70 00 	movl   $0x33,0x70012c
    21e7:	33 00 00 00 
    21eb:	c3                   	retq   
    21ec:	0f 1f 40 00          	nopl   0x0(%rax)
    21f0:	c7 04 25 2c 01 70 00 	movl   $0x44,0x70012c
    21f7:	44 00 00 00 
    21fb:	c3                   	retq   
    21fc:	0f 1f 40 00          	nopl   0x0(%rax)

0000000000002200 <pos_ref>:
    2200:	8b 07                	mov    (%rdi),%eax
    2202:	83 f8 03             	cmp    $0x3,%eax
    2205:	74 19                	je     2220 <pos_ref+0x20>
    2207:	83 f8 04             	cmp    $0x4,%eax
    220a:	74 24                	je     2230 <pos_ref+0x30>
    220c:	c7 04 25 2c 01 70 00 	movl   $0x88,0x70012c
    2213:	88 00 00 00 
    2217:	c3                   	retq   
    2218:	0f 1f 84 00 00 00 00 	nopl   0x0(%rax,%rax,1)
    221f:	00 
    2220:	c7 04 25 2c 01 70 00 	movl   $0x66,0x70012c
    2227:	66 00 00 00 
    222b:	c3                   	retq   
    222c:	0f 1f 40 00          	nopl   0x0(%rax)
    2230:	c7 04 25 2c 01 70 00 	movl   $0x77,0x70012c
    2237:	77 00 00 00 
    223b:	c3                   	retq   
    223c:	0f 1f 40 00          	nopl   0x0(%rax)

0000000000002240 <call_pos_ref>:
    2240:	48 83 ec 18          	sub    $0x18,%rsp
    2244:	48 89 e7             	mov    %rsp,%rdi
    2247:	c7 04 24 03 00 00 00 	movl   $0x3,(%rsp)
    224e:	e8 7d f3 ff ff       	callq  15d0 <pos_ref.constprop.2>
    2253:	48 89 e7             	mov    %rsp,%rdi
    2256:	e8 00 00 00 00       	callq  225b <call_pos_ref+0x1b>
    225b:	48 83 c4 18          	add    $0x18,%rsp
    225f:	c3                   	retq   

0000000000002260 <runtime_range_val>:
    2260:	8b 04 25 c4 02 70 00 	mov    0x7002c4,%eax
    2267:	83 e7 1f             	and    $0x1f,%edi
    226a:	c1 e7 0c             	shl    $0xc,%edi
    226d:	25 ff 0f fe ff       	and    $0xfffe0fff,%eax
    2272:	09 f8                	or     %edi,%eax
    2274:	89 04 25 c4 02 70 00 	mov    %eax,0x7002c4
    227b:	c3                   	retq   
    227c:	0f 1f 40 00          	nopl   0x0(%rax)

0000000000002280 <call_range_val>:
    2280:	40 0f b6 ff          	movzbl %dil,%edi
    2284:	eb da                	jmp    2260 <runtime_range_val>
    2286:	66 2e 0f 1f 84 00 00 	nopw   %cs:0x0(%rax,%rax,1)
    228d:	00 00 00 

0000000000002290 <call_range_val_port>:
    2290:	bf 1f 00 00 00       	mov    $0x1f,%edi
    2295:	eb e9                	jmp    2280 <call_range_val>
    2297:	66 0f 1f 84 00 00 00 	nopw   0x0(%rax,%rax,1)
    229e:	00 00 

00000000000022a0 <runtime_range_ref>:
    22a0:	8b 17                	mov    (%rdi),%edx
    22a2:	8b 04 25 c4 02 70 00 	mov    0x7002c4,%eax
    22a9:	83 e2 1f             	and    $0x1f,%edx
    22ac:	25 ff 0f fe ff       	and    $0xfffe0fff,%eax
    22b1:	c1 e2 0c             	shl    $0xc,%edx
    22b4:	09 d0                	or     %edx,%eax
    22b6:	89 04 25 c4 02 70 00 	mov    %eax,0x7002c4
    22bd:	c3                   	retq   
    22be:	66 90                	xchg   %ax,%ax

00000000000022c0 <call_range_ref>:
    22c0:	48 83 ec 08          	sub    $0x8,%rsp
    22c4:	89 7c 24 04          	mov    %edi,0x4(%rsp)
    22c8:	48 8d 7c 24 04       	lea    0x4(%rsp),%rdi
    22cd:	e8 00 00 00 00       	callq  22d2 <call_range_ref+0x12>
    22d2:	48 83 c4 08          	add    $0x8,%rsp
    22d6:	c3                   	retq   
    22d7:	66 0f 1f 84 00 00 00 	nopw   0x0(%rax,%rax,1)
    22de:	00 00 

00000000000022e0 <call_range_ref_port>:
    22e0:	bf 0c 00 00 00       	mov    $0xc,%edi
    22e5:	eb d9                	jmp    22c0 <call_range_ref>
    22e7:	66 0f 1f 84 00 00 00 	nopw   0x0(%rax,%rax,1)
    22ee:	00 00 

00000000000022f0 <check_array_range_pass>:
    22f0:	83 ff 16             	cmp    $0x16,%edi
    22f3:	76 13                	jbe    2308 <check_array_range_pass+0x18>
    22f5:	c7 04 25 2c 01 70 00 	movl   $0x83,0x70012c
    22fc:	83 00 00 00 
    2300:	c3                   	retq   
    2301:	0f 1f 80 00 00 00 00 	nopl   0x0(%rax)
    2308:	c7 04 25 2c 01 70 00 	movl   $0x7f,0x70012c
    230f:	7f 00 00 00 
    2313:	c3                   	retq   
    2314:	66 90                	xchg   %ax,%ax
    2316:	66 2e 0f 1f 84 00 00 	nopw   %cs:0x0(%rax,%rax,1)
    231d:	00 00 00 

0000000000002320 <check_array_range_fail>:
    2320:	83 ff 16             	cmp    $0x16,%edi
    2323:	76 13                	jbe    2338 <check_array_range_fail+0x18>
    2325:	c7 04 25 2c 01 70 00 	movl   $0x97,0x70012c
    232c:	97 00 00 00 
    2330:	c3                   	retq   
    2331:	0f 1f 80 00 00 00 00 	nopl   0x0(%rax)
    2338:	c7 04 25 2c 01 70 00 	movl   $0x95,0x70012c
    233f:	95 00 00 00 
    2343:	c3                   	retq   
    2344:	66 90                	xchg   %ax,%ax
    2346:	66 2e 0f 1f 84 00 00 	nopw   %cs:0x0(%rax,%rax,1)
    234d:	00 00 00 

0000000000002350 <check_bits_range_pass>:
    2350:	83 ff 0f             	cmp    $0xf,%edi
    2353:	76 13                	jbe    2368 <check_bits_range_pass+0x18>
    2355:	c7 04 25 2c 01 70 00 	movl   $0xa3,0x70012c
    235c:	a3 00 00 00 
    2360:	c3                   	retq   
    2361:	0f 1f 80 00 00 00 00 	nopl   0x0(%rax)
    2368:	c7 04 25 2c 01 70 00 	movl   $0x9d,0x70012c
    236f:	9d 00 00 00 
    2373:	c3                   	retq   
    2374:	66 90                	xchg   %ax,%ax
    2376:	66 2e 0f 1f 84 00 00 	nopw   %cs:0x0(%rax,%rax,1)
    237d:	00 00 00 

0000000000002380 <check_bits_range_fail>:
    2380:	83 ff 0f             	cmp    $0xf,%edi
    2383:	76 13                	jbe    2398 <check_bits_range_fail+0x18>
    2385:	c7 04 25 2c 01 70 00 	movl   $0xad,0x70012c
    238c:	ad 00 00 00 
    2390:	c3                   	retq   
    2391:	0f 1f 80 00 00 00 00 	nopl   0x0(%rax)
    2398:	c7 04 25 2c 01 70 00 	movl   $0xa7,0x70012c
    239f:	a7 00 00 00 
    23a3:	c3                   	retq   
    23a4:	66 90                	xchg   %ax,%ax
    23a6:	66 2e 0f 1f 84 00 00 	nopw   %cs:0x0(%rax,%rax,1)
    23ad:	00 00 00 

00000000000023b0 <check_mskd_range_pass>:
    23b0:	83 ff 1f             	cmp    $0x1f,%edi
    23b3:	76 13                	jbe    23c8 <check_mskd_range_pass+0x18>
    23b5:	c7 04 25 2c 01 70 00 	movl   $0xb5,0x70012c
    23bc:	b5 00 00 00 
    23c0:	c3                   	retq   
    23c1:	0f 1f 80 00 00 00 00 	nopl   0x0(%rax)
    23c8:	c7 04 25 2c 01 70 00 	movl   $0xb3,0x70012c
    23cf:	b3 00 00 00 
    23d3:	c3                   	retq   
    23d4:	66 90                	xchg   %ax,%ax
    23d6:	66 2e 0f 1f 84 00 00 	nopw   %cs:0x0(%rax,%rax,1)
    23dd:	00 00 00 

00000000000023e0 <check_mskd_range_fail>:
    23e0:	83 ff 1f             	cmp    $0x1f,%edi
    23e3:	76 13                	jbe    23f8 <check_mskd_range_fail+0x18>
    23e5:	c7 04 25 2c 01 70 00 	movl   $0xc1,0x70012c
    23ec:	c1 00 00 00 
    23f0:	c3                   	retq   
    23f1:	0f 1f 80 00 00 00 00 	nopl   0x0(%rax)
    23f8:	c7 04 25 2c 01 70 00 	movl   $0xbf,0x70012c
    23ff:	bf 00 00 00 
    2403:	c3                   	retq   
    2404:	66 90                	xchg   %ax,%ax
    2406:	66 2e 0f 1f 84 00 00 	nopw   %cs:0x0(%rax,%rax,1)
    240d:	00 00 00 

0000000000002410 <bits_extract_ne>:
    2410:	8b 04 25 c4 02 70 00 	mov    0x7002c4,%eax
    2417:	83 c8 20             	or     $0x20,%eax
    241a:	89 04 25 c4 02 70 00 	mov    %eax,0x7002c4
    2421:	8b 04 25 c4 02 70 00 	mov    0x7002c4,%eax
    2428:	c7 04 25 c4 02 70 00 	movl   $0x0,0x7002c4
    242f:	00 00 00 00 
    2433:	a8 20                	test   $0x20,%al
    2435:	8b 04 25 c4 02 70 00 	mov    0x7002c4,%eax
    243c:	74 12                	je     2450 <bits_extract_ne+0x40>
    243e:	83 e0 f9             	and    $0xfffffff9,%eax
    2441:	83 c8 04             	or     $0x4,%eax
    2444:	89 04 25 c4 02 70 00 	mov    %eax,0x7002c4
    244b:	c3                   	retq   
    244c:	0f 1f 40 00          	nopl   0x0(%rax)
    2450:	83 e0 f9             	and    $0xfffffff9,%eax
    2453:	83 c8 02             	or     $0x2,%eax
    2456:	89 04 25 c4 02 70 00 	mov    %eax,0x7002c4
    245d:	c3                   	retq   
    245e:	66 90                	xchg   %ax,%ax

0000000000002460 <mskd_extract_geq>:
    2460:	c7 04 25 24 02 70 00 	movl   $0x0,0x700224
    2467:	00 00 00 00 
    246b:	8b 04 25 24 02 70 00 	mov    0x700224,%eax
    2472:	25 ff ff ff c1       	and    $0xc1ffffff,%eax
    2477:	0d 00 00 00 16       	or     $0x16000000,%eax
    247c:	89 04 25 24 02 70 00 	mov    %eax,0x700224
    2483:	8b 04 25 24 02 70 00 	mov    0x700224,%eax
    248a:	c7 04 25 c4 02 70 00 	movl   $0x0,0x7002c4
    2491:	00 00 00 00 
    2495:	c1 e8 19             	shr    $0x19,%eax
    2498:	83 e0 1f             	and    $0x1f,%eax
    249b:	83 f8 09             	cmp    $0x9,%eax
    249e:	7e 05                	jle    24a5 <mskd_extract_geq+0x45>
    24a0:	83 f8 0a             	cmp    $0xa,%eax
    24a3:	7f 1b                	jg     24c0 <mskd_extract_geq+0x60>
    24a5:	8b 04 25 c4 02 70 00 	mov    0x7002c4,%eax
    24ac:	83 c8 40             	or     $0x40,%eax
    24af:	89 04 25 c4 02 70 00 	mov    %eax,0x7002c4
    24b6:	c3                   	retq   
    24b7:	66 0f 1f 84 00 00 00 	nopw   0x0(%rax,%rax,1)
    24be:	00 00 
    24c0:	8b 04 25 c4 02 70 00 	mov    0x7002c4,%eax
    24c7:	83 c8 20             	or     $0x20,%eax
    24ca:	89 04 25 c4 02 70 00 	mov    %eax,0x7002c4
    24d1:	c3                   	retq   
    24d2:	0f 1f 40 00          	nopl   0x0(%rax)
    24d6:	66 2e 0f 1f 84 00 00 	nopw   %cs:0x0(%rax,%rax,1)
    24dd:	00 00 00 

00000000000024e0 <shifted_val>:
    24e0:	c7 04 25 24 02 70 00 	movl   $0x0,0x700224
    24e7:	00 00 00 00 
    24eb:	8b 04 25 24 02 70 00 	mov    0x700224,%eax
    24f2:	25 ff ff ff c1       	and    $0xc1ffffff,%eax
    24f7:	0d 00 00 00 2e       	or     $0x2e000000,%eax
    24fc:	83 ff 01             	cmp    $0x1,%edi
    24ff:	89 04 25 24 02 70 00 	mov    %eax,0x700224
    2506:	74 08                	je     2510 <shifted_val+0x30>
    2508:	f3 c3                	repz retq 
    250a:	66 0f 1f 44 00 00    	nopw   0x0(%rax,%rax,1)
    2510:	48 8b 04 25 20 02 70 	mov    0x700220,%rax
    2517:	00 
    2518:	48 c1 e8 39          	shr    $0x39,%rax
    251c:	83 e0 1f             	and    $0x1f,%eax
    251f:	89 04 25 2c 01 70 00 	mov    %eax,0x70012c
    2526:	c3                   	retq   
    2527:	66 0f 1f 84 00 00 00 	nopw   0x0(%rax,%rax,1)
    252e:	00 00 

0000000000002530 <shifted_ref>:
    2530:	c7 04 25 24 02 70 00 	movl   $0x0,0x700224
    2537:	00 00 00 00 
    253b:	8b 04 25 24 02 70 00 	mov    0x700224,%eax
    2542:	25 ff ff ff c1       	and    $0xc1ffffff,%eax
    2547:	0d 00 00 00 2e       	or     $0x2e000000,%eax
    254c:	89 04 25 24 02 70 00 	mov    %eax,0x700224
    2553:	83 3f 01             	cmpl   $0x1,(%rdi)
    2556:	74 08                	je     2560 <shifted_ref+0x30>
    2558:	f3 c3                	repz retq 
    255a:	66 0f 1f 44 00 00    	nopw   0x0(%rax,%rax,1)
    2560:	48 8b 04 25 20 02 70 	mov    0x700220,%rax
    2567:	00 
    2568:	48 c1 e8 39          	shr    $0x39,%rax
    256c:	83 e0 1f             	and    $0x1f,%eax
    256f:	89 04 25 2c 01 70 00 	mov    %eax,0x70012c
    2576:	c3                   	retq   
    2577:	66 0f 1f 84 00 00 00 	nopw   0x0(%rax,%rax,1)
    257e:	00 00 

0000000000002580 <copy_bits_val>:
    2580:	c7 04 25 c4 02 70 00 	movl   $0x0,0x7002c4
    2587:	00 00 00 00 
    258b:	8b 04 25 c4 02 70 00 	mov    0x7002c4,%eax
    2592:	83 e0 f9             	and    $0xfffffff9,%eax
    2595:	83 ff 01             	cmp    $0x1,%edi
    2598:	74 0e                	je     25a8 <copy_bits_val+0x28>
    259a:	83 c8 04             	or     $0x4,%eax
    259d:	89 04 25 c4 02 70 00 	mov    %eax,0x7002c4
    25a4:	c3                   	retq   
    25a5:	0f 1f 00             	nopl   (%rax)
    25a8:	83 c8 02             	or     $0x2,%eax
    25ab:	89 04 25 c4 02 70 00 	mov    %eax,0x7002c4
    25b2:	c3                   	retq   
    25b3:	0f 1f 00             	nopl   (%rax)
    25b6:	66 2e 0f 1f 84 00 00 	nopw   %cs:0x0(%rax,%rax,1)
    25bd:	00 00 00 

00000000000025c0 <call_copy_bits_val>:
    25c0:	c7 04 25 c4 02 70 00 	movl   $0x0,0x7002c4
    25c7:	00 00 00 00 
    25cb:	8b 04 25 c4 02 70 00 	mov    0x7002c4,%eax
    25d2:	83 c8 40             	or     $0x40,%eax
    25d5:	89 04 25 c4 02 70 00 	mov    %eax,0x7002c4
    25dc:	48 8b 3c 25 c0 02 70 	mov    0x7002c0,%rdi
    25e3:	00 
    25e4:	48 c1 ef 26          	shr    $0x26,%rdi
    25e8:	83 e7 01             	and    $0x1,%edi
    25eb:	eb 93                	jmp    2580 <copy_bits_val>
    25ed:	0f 1f 00             	nopl   (%rax)

00000000000025f0 <copy_bits_ref>:
    25f0:	c7 04 25 c4 02 70 00 	movl   $0x0,0x7002c4
    25f7:	00 00 00 00 
    25fb:	83 3f 01             	cmpl   $0x1,(%rdi)
    25fe:	8b 04 25 c4 02 70 00 	mov    0x7002c4,%eax
    2605:	74 11                	je     2618 <copy_bits_ref+0x28>
    2607:	83 e0 f9             	and    $0xfffffff9,%eax
    260a:	83 c8 04             	or     $0x4,%eax
    260d:	89 04 25 c4 02 70 00 	mov    %eax,0x7002c4
    2614:	c3                   	retq   
    2615:	0f 1f 00             	nopl   (%rax)
    2618:	83 e0 f9             	and    $0xfffffff9,%eax
    261b:	83 c8 02             	or     $0x2,%eax
    261e:	89 04 25 c4 02 70 00 	mov    %eax,0x7002c4
    2625:	c3                   	retq   
    2626:	66 2e 0f 1f 84 00 00 	nopw   %cs:0x0(%rax,%rax,1)
    262d:	00 00 00 

0000000000002630 <call_copy_bits_ref>:
    2630:	48 83 ec 10          	sub    $0x10,%rsp
    2634:	c7 04 25 c4 02 70 00 	movl   $0x0,0x7002c4
    263b:	00 00 00 00 
    263f:	8b 04 25 c4 02 70 00 	mov    0x7002c4,%eax
    2646:	48 8d 7c 24 0c       	lea    0xc(%rsp),%rdi
    264b:	83 c8 40             	or     $0x40,%eax
    264e:	89 04 25 c4 02 70 00 	mov    %eax,0x7002c4
    2655:	48 8b 04 25 c0 02 70 	mov    0x7002c0,%rax
    265c:	00 
    265d:	48 c1 e8 26          	shr    $0x26,%rax
    2661:	83 e0 01             	and    $0x1,%eax
    2664:	89 44 24 0c          	mov    %eax,0xc(%rsp)
    2668:	e8 00 00 00 00       	callq  266d <call_copy_bits_ref+0x3d>
    266d:	48 83 c4 10          	add    $0x10,%rsp
    2671:	c3                   	retq   
    2672:	0f 1f 40 00          	nopl   0x0(%rax)
    2676:	66 2e 0f 1f 84 00 00 	nopw   %cs:0x0(%rax,%rax,1)
    267d:	00 00 00 

0000000000002680 <run>:
    2680:	48 83 ec 08          	sub    $0x8,%rsp
    2684:	31 d2                	xor    %edx,%edx
    2686:	be c4 02 70 00       	mov    $0x7002c4,%esi
    268b:	bf 00 00 00 00       	mov    $0x0,%edi
    2690:	e8 00 00 00 00       	callq  2695 <run+0x15>
    2695:	ba 01 00 00 00       	mov    $0x1,%edx
    269a:	be c4 02 70 00       	mov    $0x7002c4,%esi
    269f:	bf 00 00 00 00       	mov    $0x0,%edi
    26a4:	e8 00 00 00 00       	callq  26a9 <run+0x29>
    26a9:	ba 02 00 00 00       	mov    $0x2,%edx
    26ae:	be c4 02 70 00       	mov    $0x7002c4,%esi
    26b3:	bf 00 00 00 00       	mov    $0x0,%edi
    26b8:	e8 00 00 00 00       	callq  26bd <run+0x3d>
    26bd:	ba 03 00 00 00       	mov    $0x3,%edx
    26c2:	be c4 02 70 00       	mov    $0x7002c4,%esi
    26c7:	bf 00 00 00 00       	mov    $0x0,%edi
    26cc:	e8 00 00 00 00       	callq  26d1 <run+0x51>
    26d1:	ba 04 00 00 00       	mov    $0x4,%edx
    26d6:	be c4 02 70 00       	mov    $0x7002c4,%esi
    26db:	bf 00 00 00 00       	mov    $0x0,%edi
    26e0:	e8 00 00 00 00       	callq  26e5 <run+0x65>
    26e5:	ba 05 00 00 00       	mov    $0x5,%edx
    26ea:	be c4 02 70 00       	mov    $0x7002c4,%esi
    26ef:	bf 00 00 00 00       	mov    $0x0,%edi
    26f4:	e8 00 00 00 00       	callq  26f9 <run+0x79>
    26f9:	ba 06 00 00 00       	mov    $0x6,%edx
    26fe:	be c4 02 70 00       	mov    $0x7002c4,%esi
    2703:	bf 00 00 00 00       	mov    $0x0,%edi
    2708:	e8 00 00 00 00       	callq  270d <run+0x8d>
    270d:	ba 07 00 00 00       	mov    $0x7,%edx
    2712:	be c4 02 70 00       	mov    $0x7002c4,%esi
    2717:	bf 00 00 00 00       	mov    $0x0,%edi
    271c:	e8 00 00 00 00       	callq  2721 <run+0xa1>
    2721:	ba 08 00 00 00       	mov    $0x8,%edx
    2726:	be c4 02 70 00       	mov    $0x7002c4,%esi
    272b:	bf 00 00 00 00       	mov    $0x0,%edi
    2730:	e8 00 00 00 00       	callq  2735 <run+0xb5>
    2735:	ba 09 00 00 00       	mov    $0x9,%edx
    273a:	be c4 02 70 00       	mov    $0x7002c4,%esi
    273f:	bf 00 00 00 00       	mov    $0x0,%edi
    2744:	e8 00 00 00 00       	callq  2749 <run+0xc9>
    2749:	ba 0a 00 00 00       	mov    $0xa,%edx
    274e:	be c4 02 70 00       	mov    $0x7002c4,%esi
    2753:	bf 00 00 00 00       	mov    $0x0,%edi
    2758:	e8 00 00 00 00       	callq  275d <run+0xdd>
    275d:	ba 0b 00 00 00       	mov    $0xb,%edx
    2762:	be c4 02 70 00       	mov    $0x7002c4,%esi
    2767:	bf 00 00 00 00       	mov    $0x0,%edi
    276c:	e8 00 00 00 00       	callq  2771 <run+0xf1>
    2771:	ba 0c 00 00 00       	mov    $0xc,%edx
    2776:	be c4 02 70 00       	mov    $0x7002c4,%esi
    277b:	bf 00 00 00 00       	mov    $0x0,%edi
    2780:	e8 00 00 00 00       	callq  2785 <run+0x105>
    2785:	ba 0d 00 00 00       	mov    $0xd,%edx
    278a:	be c4 02 70 00       	mov    $0x7002c4,%esi
    278f:	bf 00 00 00 00       	mov    $0x0,%edi
    2794:	e8 00 00 00 00       	callq  2799 <run+0x119>
    2799:	ba 0e 00 00 00       	mov    $0xe,%edx
    279e:	be c4 02 70 00       	mov    $0x7002c4,%esi
    27a3:	bf 00 00 00 00       	mov    $0x0,%edi
    27a8:	e8 00 00 00 00       	callq  27ad <run+0x12d>
    27ad:	ba 0f 00 00 00       	mov    $0xf,%edx
    27b2:	be c4 02 70 00       	mov    $0x7002c4,%esi
    27b7:	bf 00 00 00 00       	mov    $0x0,%edi
    27bc:	e8 00 00 00 00       	callq  27c1 <run+0x141>
    27c1:	ba 10 00 00 00       	mov    $0x10,%edx
    27c6:	be c4 02 70 00       	mov    $0x7002c4,%esi
    27cb:	bf 00 00 00 00       	mov    $0x0,%edi
    27d0:	e8 00 00 00 00       	callq  27d5 <run+0x155>
    27d5:	ba 11 00 00 00       	mov    $0x11,%edx
    27da:	be c4 02 70 00       	mov    $0x7002c4,%esi
    27df:	bf 00 00 00 00       	mov    $0x0,%edi
    27e4:	e8 00 00 00 00       	callq  27e9 <run+0x169>
    27e9:	ba 12 00 00 00       	mov    $0x12,%edx
    27ee:	be c4 02 70 00       	mov    $0x7002c4,%esi
    27f3:	bf 00 00 00 00       	mov    $0x0,%edi
    27f8:	e8 00 00 00 00       	callq  27fd <run+0x17d>
    27fd:	ba 13 00 00 00       	mov    $0x13,%edx
    2802:	be c4 02 70 00       	mov    $0x7002c4,%esi
    2807:	bf 00 00 00 00       	mov    $0x0,%edi
    280c:	e8 00 00 00 00       	callq  2811 <run+0x191>
    2811:	ba 14 00 00 00       	mov    $0x14,%edx
    2816:	be c4 02 70 00       	mov    $0x7002c4,%esi
    281b:	bf 00 00 00 00       	mov    $0x0,%edi
    2820:	e8 00 00 00 00       	callq  2825 <run+0x1a5>
    2825:	ba 15 00 00 00       	mov    $0x15,%edx
    282a:	be c4 02 70 00       	mov    $0x7002c4,%esi
    282f:	bf 00 00 00 00       	mov    $0x0,%edi
    2834:	e8 00 00 00 00       	callq  2839 <run+0x1b9>
    2839:	ba 16 00 00 00       	mov    $0x16,%edx
    283e:	be c4 02 70 00       	mov    $0x7002c4,%esi
    2843:	bf 00 00 00 00       	mov    $0x0,%edi
    2848:	e8 00 00 00 00       	callq  284d <run+0x1cd>
    284d:	ba 17 00 00 00       	mov    $0x17,%edx
    2852:	be c4 02 70 00       	mov    $0x7002c4,%esi
    2857:	bf 00 00 00 00       	mov    $0x0,%edi
    285c:	e8 00 00 00 00       	callq  2861 <run+0x1e1>
    2861:	ba 18 00 00 00       	mov    $0x18,%edx
    2866:	be c4 02 70 00       	mov    $0x7002c4,%esi
    286b:	bf 00 00 00 00       	mov    $0x0,%edi
    2870:	e8 00 00 00 00       	callq  2875 <run+0x1f5>
    2875:	ba 19 00 00 00       	mov    $0x19,%edx
    287a:	be c4 02 70 00       	mov    $0x7002c4,%esi
    287f:	bf 00 00 00 00       	mov    $0x0,%edi
    2884:	e8 00 00 00 00       	callq  2889 <run+0x209>
    2889:	ba 1a 00 00 00       	mov    $0x1a,%edx
    288e:	be c4 02 70 00       	mov    $0x7002c4,%esi
    2893:	bf 00 00 00 00       	mov    $0x0,%edi
    2898:	e8 00 00 00 00       	callq  289d <run+0x21d>
    289d:	ba 1b 00 00 00       	mov    $0x1b,%edx
    28a2:	be c4 02 70 00       	mov    $0x7002c4,%esi
    28a7:	bf 00 00 00 00       	mov    $0x0,%edi
    28ac:	e8 00 00 00 00       	callq  28b1 <run+0x231>
    28b1:	ba 1c 00 00 00       	mov    $0x1c,%edx
    28b6:	be c4 02 70 00       	mov    $0x7002c4,%esi
    28bb:	bf 00 00 00 00       	mov    $0x0,%edi
    28c0:	e8 00 00 00 00       	callq  28c5 <run+0x245>
    28c5:	ba 1d 00 00 00       	mov    $0x1d,%edx
    28ca:	be c4 02 70 00       	mov    $0x7002c4,%esi
    28cf:	bf 00 00 00 00       	mov    $0x0,%edi
    28d4:	e8 00 00 00 00       	callq  28d9 <run+0x259>
    28d9:	ba 1e 00 00 00       	mov    $0x1e,%edx
    28de:	be c4 02 70 00       	mov    $0x7002c4,%esi
    28e3:	bf 00 00 00 00       	mov    $0x0,%edi
    28e8:	e8 00 00 00 00       	callq  28ed <run+0x26d>
    28ed:	ba 1f 00 00 00       	mov    $0x1f,%edx
    28f2:	be c4 02 70 00       	mov    $0x7002c4,%esi
    28f7:	bf 00 00 00 00       	mov    $0x0,%edi
    28fc:	e8 00 00 00 00       	callq  2901 <run+0x281>
    2901:	ba 20 00 00 00       	mov    $0x20,%edx
    2906:	be c4 02 70 00       	mov    $0x7002c4,%esi
    290b:	bf 00 00 00 00       	mov    $0x0,%edi
    2910:	e8 00 00 00 00       	callq  2915 <run+0x295>
    2915:	ba 21 00 00 00       	mov    $0x21,%edx
    291a:	be c4 02 70 00       	mov    $0x7002c4,%esi
    291f:	bf 00 00 00 00       	mov    $0x0,%edi
    2924:	e8 00 00 00 00       	callq  2929 <run+0x2a9>
    2929:	ba 22 00 00 00       	mov    $0x22,%edx
    292e:	be c4 02 70 00       	mov    $0x7002c4,%esi
    2933:	bf 00 00 00 00       	mov    $0x0,%edi
    2938:	e8 00 00 00 00       	callq  293d <run+0x2bd>
    293d:	ba 23 00 00 00       	mov    $0x23,%edx
    2942:	be c4 02 70 00       	mov    $0x7002c4,%esi
    2947:	bf 00 00 00 00       	mov    $0x0,%edi
    294c:	e8 00 00 00 00       	callq  2951 <run+0x2d1>
    2951:	ba 24 00 00 00       	mov    $0x24,%edx
    2956:	be c4 02 70 00       	mov    $0x7002c4,%esi
    295b:	bf 00 00 00 00       	mov    $0x0,%edi
    2960:	e8 00 00 00 00       	callq  2965 <run+0x2e5>
    2965:	ba 25 00 00 00       	mov    $0x25,%edx
    296a:	be 24 02 70 00       	mov    $0x700224,%esi
    296f:	bf 00 00 00 00       	mov    $0x0,%edi
    2974:	e8 00 00 00 00       	callq  2979 <run+0x2f9>
    2979:	ba 26 00 00 00       	mov    $0x26,%edx
    297e:	be 24 02 70 00       	mov    $0x700224,%esi
    2983:	bf 00 00 00 00       	mov    $0x0,%edi
    2988:	e8 00 00 00 00       	callq  298d <run+0x30d>
    298d:	ba 27 00 00 00       	mov    $0x27,%edx
    2992:	be 24 02 70 00       	mov    $0x700224,%esi
    2997:	bf 00 00 00 00       	mov    $0x0,%edi
    299c:	e8 00 00 00 00       	callq  29a1 <run+0x321>
    29a1:	ba 28 00 00 00       	mov    $0x28,%edx
    29a6:	be c4 02 70 00       	mov    $0x7002c4,%esi
    29ab:	bf 00 00 00 00       	mov    $0x0,%edi
    29b0:	e8 00 00 00 00       	callq  29b5 <run+0x335>
    29b5:	ba 29 00 00 00       	mov    $0x29,%edx
    29ba:	be c4 02 70 00       	mov    $0x7002c4,%esi
    29bf:	bf 00 00 00 00       	mov    $0x0,%edi
    29c4:	e8 00 00 00 00       	callq  29c9 <run+0x349>
    29c9:	ba 2a 00 00 00       	mov    $0x2a,%edx
    29ce:	be c4 02 70 00       	mov    $0x7002c4,%esi
    29d3:	bf 00 00 00 00       	mov    $0x0,%edi
    29d8:	e8 00 00 00 00       	callq  29dd <run+0x35d>
    29dd:	ba 2b 00 00 00       	mov    $0x2b,%edx
    29e2:	be c4 02 70 00       	mov    $0x7002c4,%esi
    29e7:	bf 00 00 00 00       	mov    $0x0,%edi
    29ec:	e8 00 00 00 00       	callq  29f1 <run+0x371>
    29f1:	ba 2c 00 00 00       	mov    $0x2c,%edx
    29f6:	be c4 02 70 00       	mov    $0x7002c4,%esi
    29fb:	bf 00 00 00 00       	mov    $0x0,%edi
    2a00:	e8 00 00 00 00       	callq  2a05 <run+0x385>
    2a05:	ba 2d 00 00 00       	mov    $0x2d,%edx
    2a0a:	be a0 01 70 00       	mov    $0x7001a0,%esi
    2a0f:	bf 00 00 00 00       	mov    $0x0,%edi
    2a14:	e8 00 00 00 00       	callq  2a19 <run+0x399>
    2a19:	ba 2e 00 00 00       	mov    $0x2e,%edx
    2a1e:	be c4 02 70 00       	mov    $0x7002c4,%esi
    2a23:	bf 00 00 00 00       	mov    $0x0,%edi
    2a28:	e8 00 00 00 00       	callq  2a2d <run+0x3ad>
    2a2d:	ba 2f 00 00 00       	mov    $0x2f,%edx
    2a32:	be c4 02 70 00       	mov    $0x7002c4,%esi
    2a37:	bf 00 00 00 00       	mov    $0x0,%edi
    2a3c:	e8 00 00 00 00       	callq  2a41 <run+0x3c1>
    2a41:	ba 30 00 00 00       	mov    $0x30,%edx
    2a46:	be c4 02 70 00       	mov    $0x7002c4,%esi
    2a4b:	bf 00 00 00 00       	mov    $0x0,%edi
    2a50:	e8 00 00 00 00       	callq  2a55 <run+0x3d5>
    2a55:	ba 31 00 00 00       	mov    $0x31,%edx
    2a5a:	be c4 02 70 00       	mov    $0x7002c4,%esi
    2a5f:	bf 00 00 00 00       	mov    $0x0,%edi
    2a64:	e8 00 00 00 00       	callq  2a69 <run+0x3e9>
    2a69:	ba 32 00 00 00       	mov    $0x32,%edx
    2a6e:	be c4 02 70 00       	mov    $0x7002c4,%esi
    2a73:	bf 00 00 00 00       	mov    $0x0,%edi
    2a78:	e8 00 00 00 00       	callq  2a7d <run+0x3fd>
    2a7d:	ba 33 00 00 00       	mov    $0x33,%edx
    2a82:	be c4 02 70 00       	mov    $0x7002c4,%esi
    2a87:	bf 00 00 00 00       	mov    $0x0,%edi
    2a8c:	e8 00 00 00 00       	callq  2a91 <run+0x411>
    2a91:	ba 34 00 00 00       	mov    $0x34,%edx
    2a96:	be c4 02 70 00       	mov    $0x7002c4,%esi
    2a9b:	bf 00 00 00 00       	mov    $0x0,%edi
    2aa0:	e8 00 00 00 00       	callq  2aa5 <run+0x425>
    2aa5:	ba 35 00 00 00       	mov    $0x35,%edx
    2aaa:	be c4 02 70 00       	mov    $0x7002c4,%esi
    2aaf:	bf 00 00 00 00       	mov    $0x0,%edi
    2ab4:	e8 00 00 00 00       	callq  2ab9 <run+0x439>
    2ab9:	ba 36 00 00 00       	mov    $0x36,%edx
    2abe:	be c4 02 70 00       	mov    $0x7002c4,%esi
    2ac3:	bf 00 00 00 00       	mov    $0x0,%edi
    2ac8:	e8 00 00 00 00       	callq  2acd <run+0x44d>
    2acd:	ba 37 00 00 00       	mov    $0x37,%edx
    2ad2:	be c4 02 70 00       	mov    $0x7002c4,%esi
    2ad7:	bf 00 00 00 00       	mov    $0x0,%edi
    2adc:	e8 00 00 00 00       	callq  2ae1 <run+0x461>
    2ae1:	ba 38 00 00 00       	mov    $0x38,%edx
    2ae6:	be c4 02 70 00       	mov    $0x7002c4,%esi
    2aeb:	bf 00 00 00 00       	mov    $0x0,%edi
    2af0:	e8 00 00 00 00       	callq  2af5 <run+0x475>
    2af5:	ba 39 00 00 00       	mov    $0x39,%edx
    2afa:	be c4 02 70 00       	mov    $0x7002c4,%esi
    2aff:	bf 00 00 00 00       	mov    $0x0,%edi
    2b04:	e8 00 00 00 00       	callq  2b09 <run+0x489>
    2b09:	ba 3a 00 00 00       	mov    $0x3a,%edx
    2b0e:	be c4 02 70 00       	mov    $0x7002c4,%esi
    2b13:	bf 00 00 00 00       	mov    $0x0,%edi
    2b18:	e8 00 00 00 00       	callq  2b1d <run+0x49d>
    2b1d:	ba 3b 00 00 00       	mov    $0x3b,%edx
    2b22:	be c4 02 70 00       	mov    $0x7002c4,%esi
    2b27:	bf 00 00 00 00       	mov    $0x0,%edi
    2b2c:	e8 00 00 00 00       	callq  2b31 <run+0x4b1>
    2b31:	ba 3c 00 00 00       	mov    $0x3c,%edx
    2b36:	be c4 02 70 00       	mov    $0x7002c4,%esi
    2b3b:	bf 00 00 00 00       	mov    $0x0,%edi
    2b40:	e8 00 00 00 00       	callq  2b45 <run+0x4c5>
    2b45:	ba 3d 00 00 00       	mov    $0x3d,%edx
    2b4a:	be c4 02 70 00       	mov    $0x7002c4,%esi
    2b4f:	bf 00 00 00 00       	mov    $0x0,%edi
    2b54:	e8 00 00 00 00       	callq  2b59 <run+0x4d9>
    2b59:	ba 3e 00 00 00       	mov    $0x3e,%edx
    2b5e:	be c4 02 70 00       	mov    $0x7002c4,%esi
    2b63:	bf 00 00 00 00       	mov    $0x0,%edi
    2b68:	e8 00 00 00 00       	callq  2b6d <run+0x4ed>
    2b6d:	ba 3f 00 00 00       	mov    $0x3f,%edx
    2b72:	be c4 02 70 00       	mov    $0x7002c4,%esi
    2b77:	bf 00 00 00 00       	mov    $0x0,%edi
    2b7c:	e8 00 00 00 00       	callq  2b81 <run+0x501>
    2b81:	ba 40 00 00 00       	mov    $0x40,%edx
    2b86:	be 24 02 70 00       	mov    $0x700224,%esi
    2b8b:	bf 00 00 00 00       	mov    $0x0,%edi
    2b90:	e8 00 00 00 00       	callq  2b95 <run+0x515>
    2b95:	ba 41 00 00 00       	mov    $0x41,%edx
    2b9a:	be 24 02 70 00       	mov    $0x700224,%esi
    2b9f:	bf 00 00 00 00       	mov    $0x0,%edi
    2ba4:	e8 00 00 00 00       	callq  2ba9 <run+0x529>
    2ba9:	ba 42 00 00 00       	mov    $0x42,%edx
    2bae:	be 24 02 70 00       	mov    $0x700224,%esi
    2bb3:	bf 00 00 00 00       	mov    $0x0,%edi
    2bb8:	e8 00 00 00 00       	callq  2bbd <run+0x53d>
    2bbd:	ba 43 00 00 00       	mov    $0x43,%edx
    2bc2:	be c4 02 70 00       	mov    $0x7002c4,%esi
    2bc7:	bf 00 00 00 00       	mov    $0x0,%edi
    2bcc:	e8 00 00 00 00       	callq  2bd1 <run+0x551>
    2bd1:	ba 44 00 00 00       	mov    $0x44,%edx
    2bd6:	be 2c 01 70 00       	mov    $0x70012c,%esi
    2bdb:	bf 00 00 00 00       	mov    $0x0,%edi
    2be0:	e8 00 00 00 00       	callq  2be5 <run+0x565>
    2be5:	ba 45 00 00 00       	mov    $0x45,%edx
    2bea:	be 2c 01 70 00       	mov    $0x70012c,%esi
    2bef:	bf 00 00 00 00       	mov    $0x0,%edi
    2bf4:	e8 00 00 00 00       	callq  2bf9 <run+0x579>
    2bf9:	ba 46 00 00 00       	mov    $0x46,%edx
    2bfe:	be c4 02 70 00       	mov    $0x7002c4,%esi
    2c03:	bf 00 00 00 00       	mov    $0x0,%edi
    2c08:	e8 00 00 00 00       	callq  2c0d <run+0x58d>
    2c0d:	ba 47 00 00 00       	mov    $0x47,%edx
    2c12:	be c4 02 70 00       	mov    $0x7002c4,%esi
    2c17:	bf 00 00 00 00       	mov    $0x0,%edi
    2c1c:	e8 00 00 00 00       	callq  2c21 <run+0x5a1>
    2c21:	ba 48 00 00 00       	mov    $0x48,%edx
    2c26:	be 2c 01 70 00       	mov    $0x70012c,%esi
    2c2b:	bf 00 00 00 00       	mov    $0x0,%edi
    2c30:	e8 00 00 00 00       	callq  2c35 <run+0x5b5>
    2c35:	ba 49 00 00 00       	mov    $0x49,%edx
    2c3a:	be 2c 01 70 00       	mov    $0x70012c,%esi
    2c3f:	bf 00 00 00 00       	mov    $0x0,%edi
    2c44:	e8 00 00 00 00       	callq  2c49 <run+0x5c9>
    2c49:	ba 4a 00 00 00       	mov    $0x4a,%edx
    2c4e:	be c4 02 70 00       	mov    $0x7002c4,%esi
    2c53:	bf 00 00 00 00       	mov    $0x0,%edi
    2c58:	e8 00 00 00 00       	callq  2c5d <run+0x5dd>
    2c5d:	ba 4b 00 00 00       	mov    $0x4b,%edx
    2c62:	be c4 02 70 00       	mov    $0x7002c4,%esi
    2c67:	bf 00 00 00 00       	mov    $0x0,%edi
    2c6c:	e8 00 00 00 00       	callq  2c71 <run+0x5f1>
    2c71:	ba 4c 00 00 00       	mov    $0x4c,%edx
    2c76:	be c4 02 70 00       	mov    $0x7002c4,%esi
    2c7b:	bf 00 00 00 00       	mov    $0x0,%edi
    2c80:	e8 00 00 00 00       	callq  2c85 <run+0x605>
    2c85:	ba 4d 00 00 00       	mov    $0x4d,%edx
    2c8a:	be c4 02 70 00       	mov    $0x7002c4,%esi
    2c8f:	bf 00 00 00 00       	mov    $0x0,%edi
    2c94:	e8 00 00 00 00       	callq  2c99 <run+0x619>
    2c99:	ba 4e 00 00 00       	mov    $0x4e,%edx
    2c9e:	be c4 02 70 00       	mov    $0x7002c4,%esi
    2ca3:	bf 00 00 00 00       	mov    $0x0,%edi
    2ca8:	e8 00 00 00 00       	callq  2cad <run+0x62d>
    2cad:	ba 4f 00 00 00       	mov    $0x4f,%edx
    2cb2:	be c4 02 70 00       	mov    $0x7002c4,%esi
    2cb7:	bf 00 00 00 00       	mov    $0x0,%edi
    2cbc:	e8 00 00 00 00       	callq  2cc1 <run+0x641>
    2cc1:	ba 50 00 00 00       	mov    $0x50,%edx
    2cc6:	be c4 02 70 00       	mov    $0x7002c4,%esi
    2ccb:	bf 00 00 00 00       	mov    $0x0,%edi
    2cd0:	e8 00 00 00 00       	callq  2cd5 <run+0x655>
    2cd5:	ba 51 00 00 00       	mov    $0x51,%edx
    2cda:	be c4 02 70 00       	mov    $0x7002c4,%esi
    2cdf:	bf 00 00 00 00       	mov    $0x0,%edi
    2ce4:	e8 00 00 00 00       	callq  2ce9 <run+0x669>
    2ce9:	ba 52 00 00 00       	mov    $0x52,%edx
    2cee:	be c4 02 70 00       	mov    $0x7002c4,%esi
    2cf3:	bf 00 00 00 00       	mov    $0x0,%edi
    2cf8:	e8 00 00 00 00       	callq  2cfd <run+0x67d>
    2cfd:	ba 53 00 00 00       	mov    $0x53,%edx
    2d02:	be c4 02 70 00       	mov    $0x7002c4,%esi
    2d07:	bf 00 00 00 00       	mov    $0x0,%edi
    2d0c:	e8 00 00 00 00       	callq  2d11 <run+0x691>
    2d11:	ba 54 00 00 00       	mov    $0x54,%edx
    2d16:	be c4 02 70 00       	mov    $0x7002c4,%esi
    2d1b:	bf 00 00 00 00       	mov    $0x0,%edi
    2d20:	e8 00 00 00 00       	callq  2d25 <run+0x6a5>
    2d25:	ba 55 00 00 00       	mov    $0x55,%edx
    2d2a:	be c4 02 70 00       	mov    $0x7002c4,%esi
    2d2f:	bf 00 00 00 00       	mov    $0x0,%edi
    2d34:	e8 00 00 00 00       	callq  2d39 <run+0x6b9>
    2d39:	ba 56 00 00 00       	mov    $0x56,%edx
    2d3e:	be c4 02 70 00       	mov    $0x7002c4,%esi
    2d43:	bf 00 00 00 00       	mov    $0x0,%edi
    2d48:	e8 00 00 00 00       	callq  2d4d <run+0x6cd>
    2d4d:	ba 57 00 00 00       	mov    $0x57,%edx
    2d52:	be c4 02 70 00       	mov    $0x7002c4,%esi
    2d57:	bf 00 00 00 00       	mov    $0x0,%edi
    2d5c:	e8 00 00 00 00       	callq  2d61 <run+0x6e1>
    2d61:	ba 58 00 00 00       	mov    $0x58,%edx
    2d66:	be c4 02 70 00       	mov    $0x7002c4,%esi
    2d6b:	bf 00 00 00 00       	mov    $0x0,%edi
    2d70:	e8 00 00 00 00       	callq  2d75 <run+0x6f5>
    2d75:	ba 59 00 00 00       	mov    $0x59,%edx
    2d7a:	be c4 02 70 00       	mov    $0x7002c4,%esi
    2d7f:	bf 00 00 00 00       	mov    $0x0,%edi
    2d84:	e8 00 00 00 00       	callq  2d89 <run+0x709>
    2d89:	ba 5a 00 00 00       	mov    $0x5a,%edx
    2d8e:	be 2c 01 70 00       	mov    $0x70012c,%esi
    2d93:	bf 00 00 00 00       	mov    $0x0,%edi
    2d98:	e8 00 00 00 00       	callq  2d9d <run+0x71d>
    2d9d:	ba 5b 00 00 00       	mov    $0x5b,%edx
    2da2:	be 2c 01 70 00       	mov    $0x70012c,%esi
    2da7:	bf 00 00 00 00       	mov    $0x0,%edi
    2dac:	e8 00 00 00 00       	callq  2db1 <run+0x731>
    2db1:	ba 5c 00 00 00       	mov    $0x5c,%edx
    2db6:	be c4 02 70 00       	mov    $0x7002c4,%esi
    2dbb:	bf 00 00 00 00       	mov    $0x0,%edi
    2dc0:	e8 00 00 00 00       	callq  2dc5 <run+0x745>
    2dc5:	ba 5d 00 00 00       	mov    $0x5d,%edx
    2dca:	be 2c 01 70 00       	mov    $0x70012c,%esi
    2dcf:	bf 00 00 00 00       	mov    $0x0,%edi
    2dd4:	e8 00 00 00 00       	callq  2dd9 <run+0x759>
    2dd9:	ba 5e 00 00 00       	mov    $0x5e,%edx
    2dde:	be 2c 01 70 00       	mov    $0x70012c,%esi
    2de3:	bf 00 00 00 00       	mov    $0x0,%edi
    2de8:	e8 00 00 00 00       	callq  2ded <run+0x76d>
    2ded:	ba 5f 00 00 00       	mov    $0x5f,%edx
    2df2:	be c4 02 70 00       	mov    $0x7002c4,%esi
    2df7:	bf 00 00 00 00       	mov    $0x0,%edi
    2dfc:	e8 00 00 00 00       	callq  2e01 <run+0x781>
    2e01:	ba 60 00 00 00       	mov    $0x60,%edx
    2e06:	be c4 02 70 00       	mov    $0x7002c4,%esi
    2e0b:	bf 00 00 00 00       	mov    $0x0,%edi
    2e10:	e8 00 00 00 00       	callq  2e15 <run+0x795>
    2e15:	ba 61 00 00 00       	mov    $0x61,%edx
    2e1a:	be c4 02 70 00       	mov    $0x7002c4,%esi
    2e1f:	bf 00 00 00 00       	mov    $0x0,%edi
    2e24:	e8 00 00 00 00       	callq  2e29 <run+0x7a9>
    2e29:	ba 62 00 00 00       	mov    $0x62,%edx
    2e2e:	be c4 02 70 00       	mov    $0x7002c4,%esi
    2e33:	bf 00 00 00 00       	mov    $0x0,%edi
    2e38:	e8 00 00 00 00       	callq  2e3d <run+0x7bd>
    2e3d:	ba 63 00 00 00       	mov    $0x63,%edx
    2e42:	be 2c 01 70 00       	mov    $0x70012c,%esi
    2e47:	bf 00 00 00 00       	mov    $0x0,%edi
    2e4c:	e8 00 00 00 00       	callq  2e51 <run+0x7d1>
    2e51:	ba 64 00 00 00       	mov    $0x64,%edx
    2e56:	be 2c 01 70 00       	mov    $0x70012c,%esi
    2e5b:	bf 00 00 00 00       	mov    $0x0,%edi
    2e60:	e8 00 00 00 00       	callq  2e65 <run+0x7e5>
    2e65:	ba 65 00 00 00       	mov    $0x65,%edx
    2e6a:	be 2c 01 70 00       	mov    $0x70012c,%esi
    2e6f:	bf 00 00 00 00       	mov    $0x0,%edi
    2e74:	e8 00 00 00 00       	callq  2e79 <run+0x7f9>
    2e79:	ba 66 00 00 00       	mov    $0x66,%edx
    2e7e:	be 2c 01 70 00       	mov    $0x70012c,%esi
    2e83:	bf 00 00 00 00       	mov    $0x0,%edi
    2e88:	e8 00 00 00 00       	callq  2e8d <run+0x80d>
    2e8d:	ba 67 00 00 00       	mov    $0x67,%edx
    2e92:	be 2c 01 70 00       	mov    $0x70012c,%esi
    2e97:	bf 00 00 00 00       	mov    $0x0,%edi
    2e9c:	e8 00 00 00 00       	callq  2ea1 <run+0x821>
    2ea1:	ba 68 00 00 00       	mov    $0x68,%edx
    2ea6:	be 2c 01 70 00       	mov    $0x70012c,%esi
    2eab:	bf 00 00 00 00       	mov    $0x0,%edi
    2eb0:	e8 00 00 00 00       	callq  2eb5 <run+0x835>
    2eb5:	ba 69 00 00 00       	mov    $0x69,%edx
    2eba:	be c4 02 70 00       	mov    $0x7002c4,%esi
    2ebf:	bf 00 00 00 00       	mov    $0x0,%edi
    2ec4:	e8 00 00 00 00       	callq  2ec9 <run+0x849>
    2ec9:	ba 6a 00 00 00       	mov    $0x6a,%edx
    2ece:	be c4 02 70 00       	mov    $0x7002c4,%esi
    2ed3:	bf 00 00 00 00       	mov    $0x0,%edi
    2ed8:	e8 00 00 00 00       	callq  2edd <run+0x85d>
    2edd:	ba 6b 00 00 00       	mov    $0x6b,%edx
    2ee2:	be c4 02 70 00       	mov    $0x7002c4,%esi
    2ee7:	bf 00 00 00 00       	mov    $0x0,%edi
    2eec:	e8 00 00 00 00       	callq  2ef1 <run+0x871>
    2ef1:	ba 6c 00 00 00       	mov    $0x6c,%edx
    2ef6:	be c4 02 70 00       	mov    $0x7002c4,%esi
    2efb:	bf 00 00 00 00       	mov    $0x0,%edi
    2f00:	e8 00 00 00 00       	callq  2f05 <run+0x885>
    2f05:	ba 6d 00 00 00       	mov    $0x6d,%edx
    2f0a:	be c4 02 70 00       	mov    $0x7002c4,%esi
    2f0f:	bf 00 00 00 00       	mov    $0x0,%edi
    2f14:	e8 00 00 00 00       	callq  2f19 <run+0x899>
    2f19:	ba 6e 00 00 00       	mov    $0x6e,%edx
    2f1e:	be c4 02 70 00       	mov    $0x7002c4,%esi
    2f23:	bf 00 00 00 00       	mov    $0x0,%edi
    2f28:	e8 00 00 00 00       	callq  2f2d <run+0x8ad>
    2f2d:	ba 6f 00 00 00       	mov    $0x6f,%edx
    2f32:	be c4 02 70 00       	mov    $0x7002c4,%esi
    2f37:	bf 00 00 00 00       	mov    $0x0,%edi
    2f3c:	e8 00 00 00 00       	callq  2f41 <run+0x8c1>
    2f41:	ba 70 00 00 00       	mov    $0x70,%edx
    2f46:	be c4 02 70 00       	mov    $0x7002c4,%esi
    2f4b:	bf 00 00 00 00       	mov    $0x0,%edi
    2f50:	e8 00 00 00 00       	callq  2f55 <run+0x8d5>
    2f55:	ba 71 00 00 00       	mov    $0x71,%edx
    2f5a:	be c4 02 70 00       	mov    $0x7002c4,%esi
    2f5f:	bf 00 00 00 00       	mov    $0x0,%edi
    2f64:	e8 00 00 00 00       	callq  2f69 <run+0x8e9>
    2f69:	ba 72 00 00 00       	mov    $0x72,%edx
    2f6e:	be c4 02 70 00       	mov    $0x7002c4,%esi
    2f73:	bf 00 00 00 00       	mov    $0x0,%edi
    2f78:	e8 00 00 00 00       	callq  2f7d <run+0x8fd>
    2f7d:	ba 73 00 00 00       	mov    $0x73,%edx
    2f82:	be c4 02 70 00       	mov    $0x7002c4,%esi
    2f87:	bf 00 00 00 00       	mov    $0x0,%edi
    2f8c:	48 83 c4 08          	add    $0x8,%rsp
    2f90:	e9 00 00 00 00       	jmpq   2f95 <run+0x915>
