
Allocating common symbols
Common symbol       size              file

finish              0x4               main.o
results             0x390             main.o
start               0x4               main.o

Discarded input sections

 .group         0x0000000000000000        0x8 struct.o
 .group         0x0000000000000000        0x8 struct.o
 .group         0x0000000000000000        0x8 struct.o
 .group         0x0000000000000000        0x8 struct.o
 .group         0x0000000000000000        0x8 struct.o
 .group         0x0000000000000000        0x8 struct.o
 .group         0x0000000000000000        0x8 struct.o
 .group         0x0000000000000000        0x8 struct.o
 .group         0x0000000000000000        0x8 struct.o
 .group         0x0000000000000000        0x8 main.o
 .group         0x0000000000000000        0x8 main.o
 .group         0x0000000000000000        0x8 main.o
 .group         0x0000000000000000        0x8 main.o
 .group         0x0000000000000000        0x8 main.o
 .group         0x0000000000000000        0x8 main.o
 .group         0x0000000000000000        0x8 main.o
 .group         0x0000000000000000        0x8 main.o
 .group         0x0000000000000000        0x8 main.o
 .group         0x0000000000000000        0x8 main.o
 .group         0x0000000000000000        0x8 main.o
 .group         0x0000000000000000        0x8 main.o
 .group         0x0000000000000000        0x8 main.o
 .group         0x0000000000000000        0x8 main.o
 .debug_macro   0x0000000000000000      0xa60 main.o
 .debug_macro   0x0000000000000000       0x22 main.o
 .debug_macro   0x0000000000000000       0x8e main.o
 .debug_macro   0x0000000000000000       0x51 main.o
 .debug_macro   0x0000000000000000       0xef main.o
 .debug_macro   0x0000000000000000       0x6a main.o
 .debug_macro   0x0000000000000000      0x1df main.o
 .group         0x0000000000000000        0x8 lpc8xx_ram_init.o
 .group         0x0000000000000000        0x8 lpc8xx_ram_init.o
 .group         0x0000000000000000        0x8 lpc8xx_ram_init.o
 .group         0x0000000000000000        0x8 lpc8xx_ram_init.o
 .group         0x0000000000000000        0x8 lpc8xx_ram_init.o
 .group         0x0000000000000000        0x8 lpc8xx_ram_init.o
 .group         0x0000000000000000        0x8 lpc8xx_ram_init.o
 .group         0x0000000000000000        0x8 lpc8xx_ram_init.o
 .group         0x0000000000000000        0x8 lpc8xx_ram_init.o
 .group         0x0000000000000000        0x8 lpc8xx_ram_init.o
 .group         0x0000000000000000        0x8 lpc8xx_ram_init.o
 .group         0x0000000000000000        0x8 lpc8xx_ram_init.o
 .group         0x0000000000000000        0x8 lpc8xx_ram_init.o
 .debug_macro   0x0000000000000000      0xa60 lpc8xx_ram_init.o
 .debug_macro   0x0000000000000000       0x22 lpc8xx_ram_init.o
 .debug_macro   0x0000000000000000       0x8e lpc8xx_ram_init.o
 .debug_macro   0x0000000000000000       0x51 lpc8xx_ram_init.o
 .debug_macro   0x0000000000000000       0xef lpc8xx_ram_init.o
 .debug_macro   0x0000000000000000       0x6a lpc8xx_ram_init.o
 .debug_macro   0x0000000000000000      0x1df lpc8xx_ram_init.o
 .debug_macro   0x0000000000000000       0x22 lpc8xx_ram_init.o
 .debug_macro   0x0000000000000000       0x3a lpc8xx_ram_init.o
 .debug_macro   0x0000000000000000       0x26 lpc8xx_ram_init.o
 .debug_macro   0x0000000000000000      0x329 lpc8xx_ram_init.o
 .debug_macro   0x0000000000000000       0x8f lpc8xx_ram_init.o
 .debug_macro   0x0000000000000000      0x1c4 lpc8xx_ram_init.o

Memory Configuration

Name             Origin             Length             Attributes
FLASH            0x0000000000000000 0x0000000000008000 xr
RAM              0x0000000010000000 0x0000000000002000 xrw
*default*        0x0000000000000000 0xffffffffffffffff

Linker script and memory map

LOAD struct.o
LOAD main.o
LOAD lpc8xx_ram_init.o
                0x0000000000000020                PROVIDE (MINIMUM_STACK_SIZE, 0x20)
                0x0000000010000000                . = ORIGIN (RAM)

.text           0x0000000010000000     0x1608
 *(.isr_vectors)
 .isr_vectors   0x0000000010000000       0x9c lpc8xx_ram_init.o
                0x0000000010000000                INTERRUPT_VECTORS
 *(.text)
 .text          0x000000001000009c     0x148c struct.o
                0x000000001000009c                zero_reg
                0x00000000100000a8                zero_array
                0x00000000100000b4                set_singl_bits_operator
                0x00000000100000c4                set_singl_bits_method
                0x00000000100000d4                clr_singl_bits_operator
                0x00000000100000e4                clr_singl_bits_method
                0x00000000100000f4                set_singl_mskd_operator
                0x0000000010000104                set_singl_mskd_method
                0x0000000010000114                clr_singl_mskd_operator
                0x0000000010000124                clr_singl_mskd_method
                0x0000000010000134                equ_singl_bits_operator
                0x0000000010000140                equ_singl_bits_method
                0x000000001000014c                equ_singl_mskd_operator
                0x0000000010000158                equ_singl_mskd_method
                0x0000000010000164                flp_singl_bits_operator
                0x0000000010000174                flp_singl_bits_method
                0x0000000010000184                flp_singl_mskd_operator
                0x0000000010000194                flp_singl_mskd_method
                0x00000000100001a4                ins_singl_mskd_operator
                0x00000000100001b8                ins_singl_mskd_method
                0x00000000100001cc                set_multi_bits_operator
                0x00000000100001dc                set_multi_bits_method
                0x00000000100001ec                ins_multi_mskd_operator
                0x0000000010000208                ins_multi_mskd_method
                0x0000000010000224                equ_multi_bits_operator
                0x0000000010000230                equ_multi_bits_method
                0x000000001000023c                equ_multi_mskd_operator
                0x000000001000024c                equ_multi_mskd_method
                0x000000001000025c                equ_bits_mskd_operator
                0x0000000010000268                equ_bits_mskd_method
                0x0000000010000274                equ_mskd_bits_operator
                0x0000000010000280                equ_mskd_bits_method
                0x000000001000028c                equ_bits_var
                0x000000001000029c                equ_mskd_var
                0x00000000100002b0                cmp_equ_zero
                0x00000000100002d8                cmp_neq_zero
                0x00000000100002f4                cmp_equ_bits
                0x000000001000031c                cmp_neq_bits
                0x0000000010000338                cmp_equ_mskd
                0x0000000010000380                cmp_neq_mskd
                0x00000000100003b4                cmp_equ_reg
                0x00000000100003dc                cmp_neq_reg
                0x00000000100003f8                constexpr_bits_array
                0x000000001000040c                runtime_bits_array
                0x0000000010000434                prescaler_low
                0x0000000010000450                prescaler_high
                0x000000001000046c                reg_mskd_lss
                0x00000000100004a0                reg_mskd_leq
                0x00000000100004d8                reg_mskd_gtr
                0x0000000010000508                reg_mskd_geq
                0x0000000010000548                pos_cmp_eq
                0x0000000010000554                pos_cmp_ne
                0x0000000010000560                bits_extract_eq
                0x000000001000057c                mskd_extract_eq
                0x000000001000059c                mskd_extract_ne
                0x00000000100005bc                mskd_extract_lss
                0x00000000100005f0                mskd_extract_leq
                0x000000001000061c                mskd_extract_gtr
                0x000000001000064c                set_bits_global
                0x000000001000065c                ins_mskd_global
                0x0000000010000670                assign_array_global
                0x000000001000067c                shifted_global
                0x0000000010000698                assign_register_global
                0x00000000100006a4                copy_bits_equ
                0x00000000100006c0                copy_bits_neq
                0x00000000100006dc                copy_mskd_equ
                0x0000000010000708                copy_mskd_neq
                0x0000000010000734                copy_mskd_lss
                0x0000000010000768                copy_mskd_leq
                0x0000000010000794                copy_mskd_gtr
                0x00000000100007c4                copy_mskd_geq
                0x00000000100007f8                copy_shifted
                0x0000000010000848                call_range_val_port
                0x0000000010000868                call_pos_ref_global
                0x0000000010000894                call_pos_val
                0x00000000100008a0                call_pos_val_global
                0x00000000100008bc                call_mskd_val_const
                0x00000000100008c8                call_mskd_val_var
                0x00000000100008d4                call_mskd_val_global
                0x00000000100008ec                call_bits_val_const
                0x00000000100008f8                call_bits_val_var
                0x0000000010000904                call_bits_val_global
                0x000000001000090c                bits_val
                0x000000001000091c                bits_ref
                0x000000001000092c                call_bits_ref_const
                0x0000000010000940                call_bits_ref_var
                0x0000000010000954                call_bits_ref_global
                0x0000000010000968                mskd_val
                0x0000000010000978                mskd_ref
                0x000000001000098c                call_mskd_ref_const
                0x00000000100009a8                call_mskd_ref_var
                0x00000000100009c4                call_mskd_ref_global
                0x00000000100009e0                periph_bits
                0x00000000100009ec                call_periph_bits
                0x00000000100009fc                periph_bits_val
                0x0000000010000a04                call_periph_bits_val
                0x0000000010000a14                reg_bits_val
                0x0000000010000a1c                call_reg_bits_val
                0x0000000010000a2c                periph_bits_ref
                0x0000000010000a38                call_periph_bits_ref
                0x0000000010000a50                reg_bits_ref
                0x0000000010000a5c                call_reg_bits_ref
                0x0000000010000a74                periph_mskd
                0x0000000010000a84                call_periph_mskd
                0x0000000010000a94                periph_mskd_val
                0x0000000010000aa0                call_periph_mskd_val
                0x0000000010000ab4                reg_mskd_val
                0x0000000010000ac0                call_reg_mskd_val
                0x0000000010000ad4                periph_mskd_ref
                0x0000000010000ae4                call_periph_mskd_ref
                0x0000000010000b08                reg_mskd_ref
                0x0000000010000b18                call_reg_mskd_ref
                0x0000000010000b3c                return_bits
                0x0000000010000b40                call_return_bits
                0x0000000010000b60                return_mskd
                0x0000000010000b6c                call_return_mskd
                0x0000000010000ba0                return_reg
                0x0000000010000bb4                call_return_reg
                0x0000000010000bd8                return_periph
                0x0000000010000be4                call_return_periph
                0x0000000010000c08                pos_val
                0x0000000010000c2c                pos_ref
                0x0000000010000c54                call_pos_ref
                0x0000000010000c70                runtime_range_val
                0x0000000010000c80                call_range_val
                0x0000000010000c90                runtime_range_ref
                0x0000000010000ca4                call_range_ref
                0x0000000010000cc0                call_range_ref_port
                0x0000000010000ccc                check_array_range_pass
                0x0000000010000ce4                check_array_range_fail
                0x0000000010000cfc                check_bits_range_pass
                0x0000000010000d14                check_bits_range_fail
                0x0000000010000d2c                check_mskd_range_pass
                0x0000000010000d44                check_mskd_range_fail
                0x0000000010000d5c                bits_extract_ne
                0x0000000010000d78                mskd_extract_geq
                0x0000000010000dac                shifted_val
                0x0000000010000dc8                call_shifted_const_val
                0x0000000010000dd8                call_shifted_var_val
                0x0000000010000de8                call_shifted_global_val
                0x0000000010000df8                shifted_ref
                0x0000000010000e18                call_shifted_const_ref
                0x0000000010000e34                call_shifted_var_ref
                0x0000000010000e50                call_shifted_global_ref
                0x0000000010000e6c                copy_bits_val
                0x0000000010000e84                call_copy_bits_val
                0x0000000010000e98                copy_bits_ref
                0x0000000010000eb4                call_copy_bits_ref
                0x0000000010000ed0                run
 .text          0x0000000010001528       0x4c main.o
                0x0000000010001528                memset
                0x000000001000153c                do_test
 .text          0x0000000010001574       0x94 lpc8xx_ram_init.o
                0x0000000010001574                NMI_Handler
                0x0000000010001578                HardFault_Handler
                0x000000001000157c                SVCall_Handler
                0x0000000010001580                PendSV_Handler
                0x0000000010001584                SysTick_Handler
                0x0000000010001588                SPI0_IRQHandler
                0x000000001000158c                SPI1_IRQHandler
                0x0000000010001590                UART0_IRQHandler
                0x0000000010001594                UART1_IRQHandler
                0x0000000010001598                UART2_IRQHandler
                0x000000001000159c                Reserved1_IRQHandler
                0x00000000100015a0                SCT_IRQHandler
                0x00000000100015a4                MRT_IRQHandler
                0x00000000100015a8                CMP_IRQHandler
                0x00000000100015ac                WDT_IRQHandler
                0x00000000100015b0                BOD_IRQHandler
                0x00000000100015b4                WKT_IRQHandler
                0x00000000100015b8                Reserved11_IRQHandler
                0x00000000100015bc                PININT0_IRQHandler
                0x00000000100015c0                PININT1_IRQHandler
                0x00000000100015c4                PININT2_IRQHandler
                0x00000000100015c8                PININT3_IRQHandler
                0x00000000100015cc                PININT4_IRQHandler
                0x00000000100015d0                PININT5_IRQHandler
                0x00000000100015d4                PININT6_IRQHandler
                0x00000000100015d8                PININT7_IRQHandler
                0x00000000100015dc                init

.glue_7         0x0000000010001608        0x0
 .glue_7        0x0000000010001608        0x0 linker stubs

.glue_7t        0x0000000010001608        0x0
 .glue_7t       0x0000000010001608        0x0 linker stubs

.vfp11_veneer   0x0000000010001608        0x0
 .vfp11_veneer  0x0000000010001608        0x0 linker stubs

.v4_bx          0x0000000010001608        0x0
 .v4_bx         0x0000000010001608        0x0 linker stubs

.iplt           0x0000000010001608        0x0
 .iplt          0x0000000010001608        0x0 struct.o

.text.startup   0x0000000010001608       0x38
 .text.startup  0x0000000010001608       0x38 main.o
                0x0000000010001608                main

.rodata         0x0000000010001640       0x18
 .rodata        0x0000000010001640       0x18 struct.o

.rel.dyn        0x0000000010001658        0x0
 .rel.iplt      0x0000000010001658        0x0 struct.o

.data           0x0000000010001658        0x0
                0x0000000010001658                . = ALIGN (0x4)
 *(.data)
 .data          0x0000000010001658        0x0 struct.o
 .data          0x0000000010001658        0x0 main.o
 .data          0x0000000010001658        0x0 lpc8xx_ram_init.o
                0x0000000010001658                BSS_START = .

.igot.plt       0x0000000010001658        0x0
 .igot.plt      0x0000000010001658        0x0 struct.o

.bss            0x0000000010001658      0x398
                0x0000000010001658                . = ALIGN (0x4)
 *(.bss)
 .bss           0x0000000010001658        0x0 struct.o
 .bss           0x0000000010001658        0x0 main.o
 .bss           0x0000000010001658        0x0 lpc8xx_ram_init.o
 COMMON         0x0000000010001658      0x398 main.o
                0x0000000010001658                finish
                0x000000001000165c                results
                0x00000000100019ec                start
                0x00000000100019f0                BSS_END = .
                0x00000000100019f0                end = .
                0x0000000010000000                RAM_BASE_ADDR = ORIGIN (RAM)
                0x0000000000000000                FLASH_BASE_ADDR = ORIGIN (FLASH)
                0x0000000010002000                TOP_OF_STACK = (ORIGIN (RAM) + LENGTH (RAM))
                0x0000000000000000                ASSERT (((end + MINIMUM_STACK_SIZE) < TOP_OF_STACK), too big to fit in RAM)
OUTPUT(struct.elf elf32-littlearm)

.debug_info     0x0000000000000000     0x31c2
 .debug_info    0x0000000000000000     0x2ae7 struct.o
 .debug_info    0x0000000000002ae7      0x2d4 main.o
 .debug_info    0x0000000000002dbb      0x407 lpc8xx_ram_init.o

.debug_abbrev   0x0000000000000000      0x5f1
 .debug_abbrev  0x0000000000000000      0x29f struct.o
 .debug_abbrev  0x000000000000029f      0x1df main.o
 .debug_abbrev  0x000000000000047e      0x173 lpc8xx_ram_init.o

.debug_loc      0x0000000000000000      0x417
 .debug_loc     0x0000000000000000      0x29c struct.o
 .debug_loc     0x000000000000029c      0x157 main.o
 .debug_loc     0x00000000000003f3       0x24 lpc8xx_ram_init.o

.debug_aranges  0x0000000000000000       0x68
 .debug_aranges
                0x0000000000000000       0x20 struct.o
 .debug_aranges
                0x0000000000000020       0x28 main.o
 .debug_aranges
                0x0000000000000048       0x20 lpc8xx_ram_init.o

.debug_macro    0x0000000000000000     0x1ecd
 .debug_macro   0x0000000000000000       0x80 struct.o
 .debug_macro   0x0000000000000080      0xa60 struct.o
 .debug_macro   0x0000000000000ae0       0x10 struct.o
 .debug_macro   0x0000000000000af0       0x22 struct.o
 .debug_macro   0x0000000000000b12       0x8e struct.o
 .debug_macro   0x0000000000000ba0       0x51 struct.o
 .debug_macro   0x0000000000000bf1       0xef struct.o
 .debug_macro   0x0000000000000ce0       0x6a struct.o
 .debug_macro   0x0000000000000d4a      0x1df struct.o
 .debug_macro   0x0000000000000f29      0x6ca struct.o
 .debug_macro   0x00000000000015f3       0xba main.o
 .debug_macro   0x00000000000016ad      0x174 main.o
 .debug_macro   0x0000000000001821       0x22 main.o
 .debug_macro   0x0000000000001843       0x3a main.o
 .debug_macro   0x000000000000187d       0x26 main.o
 .debug_macro   0x00000000000018a3      0x329 main.o
 .debug_macro   0x0000000000001bcc       0x8f main.o
 .debug_macro   0x0000000000001c5b      0x1c4 main.o
 .debug_macro   0x0000000000001e1f       0xae lpc8xx_ram_init.o

.debug_line     0x0000000000000000     0x1cf9
 .debug_line    0x0000000000000000     0x1487 struct.o
 .debug_line    0x0000000000001487      0x3a9 main.o
 .debug_line    0x0000000000001830      0x4c9 lpc8xx_ram_init.o

.debug_str      0x0000000000000000     0x8cf8
 .debug_str     0x0000000000000000     0x67ff struct.o
                                       0x6aa7 (size before relaxing)
 .debug_str     0x00000000000067ff     0x22a4 main.o
                                       0x5f46 (size before relaxing)
 .debug_str     0x0000000000008aa3      0x255 lpc8xx_ram_init.o
                                       0x5dea (size before relaxing)

.comment        0x0000000000000000       0x75
 .comment       0x0000000000000000       0x75 struct.o
                                         0x76 (size before relaxing)
 .comment       0x0000000000000075       0x76 main.o
 .comment       0x0000000000000075       0x76 lpc8xx_ram_init.o

.ARM.attributes
                0x0000000000000000       0x1c
 .ARM.attributes
                0x0000000000000000       0x1c struct.o
 .ARM.attributes
                0x000000000000001c       0x1c main.o
 .ARM.attributes
                0x0000000000000038       0x1c lpc8xx_ram_init.o

.debug_frame    0x0000000000000000      0xd70
 .debug_frame   0x0000000000000000      0xb4c struct.o
 .debug_frame   0x0000000000000b4c       0x5c main.o
 .debug_frame   0x0000000000000ba8      0x1c8 lpc8xx_ram_init.o

.debug_ranges   0x0000000000000000       0x18
 .debug_ranges  0x0000000000000000       0x18 main.o
Memory region         Used Size  Region Size  %age Used
           FLASH:          0 GB        32 KB      0.00%
             RAM:        6640 B         8 KB     81.05%
